(lp0
(ihelper
PossibleWorld
p1
(dp2
S'pw_id'
p3
I1
sS'pw_soln'
p4
I0
sS'rls'
p5
(lp6
(lp7
(lp8
I1
aVcCEN_Northeast
p9
aVcNDC_USA
p10
aV"<"
p11
aa(lp12
I1
aVcCEN_Midwest
p13
aVcNDC_USA
p14
aV"<"
p15
aa(lp16
I1
aVcCEN_Midwest
p17
aVcNDC_Midwest
p18
aV"="
p19
aa(lp20
I1
aVcCEN_USA
p21
aVcNDC_West
p22
aV">"
p23
aa(lp24
I1
aVcCEN_USA
p25
aVcNDC_Southeast
p26
aV">"
p27
aa(lp28
I1
aVcCEN_USA
p29
aVcNDC_Midwest
p30
aV">"
p31
aa(lp32
I1
aVcCEN_South
p33
aVcNDC_Southeast
p34
aV">"
p35
aa(lp36
I1
aVcCEN_West
p37
aVcNDC_Northeast
p38
aV"!"
p39
aa(lp40
I1
aVcCEN_West
p41
aVcNDC_Southeast
p42
aV"!"
p43
aa(lp44
I1
aVcCEN_West
p45
aVcNDC_Midwest
p46
aV"!"
p47
aa(lp48
I1
aVcCEN_Northeast
p49
aVcNDC_West
p50
aV"!"
p51
aa(lp52
I1
aVcCEN_Northeast
p53
aVcNDC_Southeast
p54
aV"!"
p55
aa(lp56
I1
aVcCEN_Northeast
p57
aVcNDC_Midwest
p58
aV"!"
p59
aa(lp60
I1
aVcCEN_Northeast
p61
aVcNDC_Southwest
p62
aV"!"
p63
aa(lp64
I1
aVcCEN_Midwest
p65
aVcNDC_Northeast
p66
aV"!"
p67
aa(lp68
I1
aVcCEN_Midwest
p69
aVcNDC_West
p70
aV"!"
p71
aa(lp72
I1
aVcCEN_Midwest
p73
aVcNDC_Southeast
p74
aV"!"
p75
aa(lp76
I1
aVcCEN_Midwest
p77
aVcNDC_Southwest
p78
aV"!"
p79
aa(lp80
I1
aVcCEN_South
p81
aVcNDC_West
p82
aV"!"
p83
aa(lp84
I1
aVcCEN_South
p85
aVcNDC_Midwest
p86
aV"!"
p87
aa(lp88
I1
aVcCEN_West
p89
aVcNDC_USA
p90
aV"<"
p91
aa(lp92
I1
aVcCEN_Northeast
p93
aVcNDC_Northeast
p94
aV"<"
p95
aa(lp96
I1
aVcCEN_South
p97
aVcNDC_USA
p98
aV"<"
p99
aa(lp100
I1
aVcCEN_USA
p101
aVcNDC_USA
p102
aV"="
p103
aa(lp104
I1
aVcCEN_USA
p105
aVcNDC_Northeast
p106
aV">"
p107
aa(lp108
I1
aVcCEN_USA
p109
aVcNDC_Southwest
p110
aV">"
p111
aa(lp112
I1
aVcCEN_West
p113
aVcNDC_West
p114
aV">"
p115
aa(lp116
I1
aVcCEN_West
p117
aVcNDC_Southwest
p118
aV"><"
p119
aa(lp120
I1
aVcCEN_South
p121
aVcNDC_Northeast
p122
aV"><"
p123
aa(lp124
I1
aVcCEN_South
p125
aVcNDC_Southwest
p126
aV"><"
p127
aaasba(ihelper
PossibleWorld
p128
(dp129
g3
I2
sg4
I0
sg5
(lp130
(lp131
(lp132
I2
aVcCEN_Northeast
p133
aVcNDC_USA
p134
aV"<"
p135
aa(lp136
I2
aVcCEN_Midwest
p137
aVcNDC_USA
p138
aV"<"
p139
aa(lp140
I2
aVcCEN_Midwest
p141
aVcNDC_Midwest
p142
aV"="
p143
aa(lp144
I2
aVcCEN_USA
p145
aVcNDC_West
p146
aV">"
p147
aa(lp148
I2
aVcCEN_USA
p149
aVcNDC_Southeast
p150
aV">"
p151
aa(lp152
I2
aVcCEN_USA
p153
aVcNDC_Midwest
p154
aV">"
p155
aa(lp156
I2
aVcCEN_South
p157
aVcNDC_Southeast
p158
aV">"
p159
aa(lp160
I2
aVcCEN_West
p161
aVcNDC_Northeast
p162
aV"!"
p163
aa(lp164
I2
aVcCEN_West
p165
aVcNDC_Southeast
p166
aV"!"
p167
aa(lp168
I2
aVcCEN_West
p169
aVcNDC_Midwest
p170
aV"!"
p171
aa(lp172
I2
aVcCEN_Northeast
p173
aVcNDC_West
p174
aV"!"
p175
aa(lp176
I2
aVcCEN_Northeast
p177
aVcNDC_Southeast
p178
aV"!"
p179
aa(lp180
I2
aVcCEN_Northeast
p181
aVcNDC_Midwest
p182
aV"!"
p183
aa(lp184
I2
aVcCEN_Northeast
p185
aVcNDC_Southwest
p186
aV"!"
p187
aa(lp188
I2
aVcCEN_Midwest
p189
aVcNDC_Northeast
p190
aV"!"
p191
aa(lp192
I2
aVcCEN_Midwest
p193
aVcNDC_West
p194
aV"!"
p195
aa(lp196
I2
aVcCEN_Midwest
p197
aVcNDC_Southeast
p198
aV"!"
p199
aa(lp200
I2
aVcCEN_Midwest
p201
aVcNDC_Southwest
p202
aV"!"
p203
aa(lp204
I2
aVcCEN_South
p205
aVcNDC_West
p206
aV"!"
p207
aa(lp208
I2
aVcCEN_South
p209
aVcNDC_Midwest
p210
aV"!"
p211
aa(lp212
I2
aVcCEN_USA
p213
aVcNDC_USA
p214
aV"<"
p215
aa(lp216
I2
aVcCEN_West
p217
aVcNDC_USA
p218
aV"<"
p219
aa(lp220
I2
aVcCEN_Northeast
p221
aVcNDC_Northeast
p222
aV"<"
p223
aa(lp224
I2
aVcCEN_South
p225
aVcNDC_USA
p226
aV"<"
p227
aa(lp228
I2
aVcCEN_USA
p229
aVcNDC_Northeast
p230
aV">"
p231
aa(lp232
I2
aVcCEN_West
p233
aVcNDC_West
p234
aV">"
p235
aa(lp236
I2
aVcCEN_USA
p237
aVcNDC_Southwest
p238
aV"><"
p239
aa(lp240
I2
aVcCEN_West
p241
aVcNDC_Southwest
p242
aV"><"
p243
aa(lp244
I2
aVcCEN_South
p245
aVcNDC_Northeast
p246
aV"><"
p247
aa(lp248
I2
aVcCEN_South
p249
aVcNDC_Southwest
p250
aV"><"
p251
aaasba(ihelper
PossibleWorld
p252
(dp253
g3
I3
sg4
I0
sg5
(lp254
(lp255
(lp256
I3
aVcCEN_Northeast
p257
aVcNDC_USA
p258
aV"<"
p259
aa(lp260
I3
aVcCEN_Midwest
p261
aVcNDC_USA
p262
aV"<"
p263
aa(lp264
I3
aVcCEN_Midwest
p265
aVcNDC_Midwest
p266
aV"="
p267
aa(lp268
I3
aVcCEN_USA
p269
aVcNDC_West
p270
aV">"
p271
aa(lp272
I3
aVcCEN_USA
p273
aVcNDC_Southeast
p274
aV">"
p275
aa(lp276
I3
aVcCEN_USA
p277
aVcNDC_Midwest
p278
aV">"
p279
aa(lp280
I3
aVcCEN_South
p281
aVcNDC_Southeast
p282
aV">"
p283
aa(lp284
I3
aVcCEN_West
p285
aVcNDC_Northeast
p286
aV"!"
p287
aa(lp288
I3
aVcCEN_West
p289
aVcNDC_Southeast
p290
aV"!"
p291
aa(lp292
I3
aVcCEN_West
p293
aVcNDC_Midwest
p294
aV"!"
p295
aa(lp296
I3
aVcCEN_Northeast
p297
aVcNDC_West
p298
aV"!"
p299
aa(lp300
I3
aVcCEN_Northeast
p301
aVcNDC_Southeast
p302
aV"!"
p303
aa(lp304
I3
aVcCEN_Northeast
p305
aVcNDC_Midwest
p306
aV"!"
p307
aa(lp308
I3
aVcCEN_Northeast
p309
aVcNDC_Southwest
p310
aV"!"
p311
aa(lp312
I3
aVcCEN_Midwest
p313
aVcNDC_Northeast
p314
aV"!"
p315
aa(lp316
I3
aVcCEN_Midwest
p317
aVcNDC_West
p318
aV"!"
p319
aa(lp320
I3
aVcCEN_Midwest
p321
aVcNDC_Southeast
p322
aV"!"
p323
aa(lp324
I3
aVcCEN_Midwest
p325
aVcNDC_Southwest
p326
aV"!"
p327
aa(lp328
I3
aVcCEN_South
p329
aVcNDC_West
p330
aV"!"
p331
aa(lp332
I3
aVcCEN_South
p333
aVcNDC_Midwest
p334
aV"!"
p335
aa(lp336
I3
aVcCEN_USA
p337
aVcNDC_USA
p338
aV"<"
p339
aa(lp340
I3
aVcCEN_West
p341
aVcNDC_USA
p342
aV"<"
p343
aa(lp344
I3
aVcCEN_Northeast
p345
aVcNDC_Northeast
p346
aV"<"
p347
aa(lp348
I3
aVcCEN_South
p349
aVcNDC_USA
p350
aV"<"
p351
aa(lp352
I3
aVcCEN_USA
p353
aVcNDC_Southwest
p354
aV">"
p355
aa(lp356
I3
aVcCEN_West
p357
aVcNDC_West
p358
aV">"
p359
aa(lp360
I3
aVcCEN_USA
p361
aVcNDC_Northeast
p362
aV"><"
p363
aa(lp364
I3
aVcCEN_West
p365
aVcNDC_Southwest
p366
aV"><"
p367
aa(lp368
I3
aVcCEN_South
p369
aVcNDC_Southwest
p370
aV"><"
p371
aa(lp372
I3
aVcCEN_South
p373
aVcNDC_Northeast
p374
aV"!"
p375
aaasba(ihelper
PossibleWorld
p376
(dp377
g3
I4
sg4
I0
sg5
(lp378
(lp379
(lp380
I4
aVcCEN_Northeast
p381
aVcNDC_USA
p382
aV"<"
p383
aa(lp384
I4
aVcCEN_Midwest
p385
aVcNDC_USA
p386
aV"<"
p387
aa(lp388
I4
aVcCEN_Midwest
p389
aVcNDC_Midwest
p390
aV"="
p391
aa(lp392
I4
aVcCEN_USA
p393
aVcNDC_West
p394
aV">"
p395
aa(lp396
I4
aVcCEN_USA
p397
aVcNDC_Southeast
p398
aV">"
p399
aa(lp400
I4
aVcCEN_USA
p401
aVcNDC_Midwest
p402
aV">"
p403
aa(lp404
I4
aVcCEN_South
p405
aVcNDC_Southeast
p406
aV">"
p407
aa(lp408
I4
aVcCEN_West
p409
aVcNDC_Northeast
p410
aV"!"
p411
aa(lp412
I4
aVcCEN_West
p413
aVcNDC_Southeast
p414
aV"!"
p415
aa(lp416
I4
aVcCEN_West
p417
aVcNDC_Midwest
p418
aV"!"
p419
aa(lp420
I4
aVcCEN_Northeast
p421
aVcNDC_West
p422
aV"!"
p423
aa(lp424
I4
aVcCEN_Northeast
p425
aVcNDC_Southeast
p426
aV"!"
p427
aa(lp428
I4
aVcCEN_Northeast
p429
aVcNDC_Midwest
p430
aV"!"
p431
aa(lp432
I4
aVcCEN_Northeast
p433
aVcNDC_Southwest
p434
aV"!"
p435
aa(lp436
I4
aVcCEN_Midwest
p437
aVcNDC_Northeast
p438
aV"!"
p439
aa(lp440
I4
aVcCEN_Midwest
p441
aVcNDC_West
p442
aV"!"
p443
aa(lp444
I4
aVcCEN_Midwest
p445
aVcNDC_Southeast
p446
aV"!"
p447
aa(lp448
I4
aVcCEN_Midwest
p449
aVcNDC_Southwest
p450
aV"!"
p451
aa(lp452
I4
aVcCEN_South
p453
aVcNDC_West
p454
aV"!"
p455
aa(lp456
I4
aVcCEN_South
p457
aVcNDC_Midwest
p458
aV"!"
p459
aa(lp460
I4
aVcCEN_USA
p461
aVcNDC_USA
p462
aV"<"
p463
aa(lp464
I4
aVcCEN_West
p465
aVcNDC_USA
p466
aV"<"
p467
aa(lp468
I4
aVcCEN_Northeast
p469
aVcNDC_Northeast
p470
aV"<"
p471
aa(lp472
I4
aVcCEN_South
p473
aVcNDC_USA
p474
aV"<"
p475
aa(lp476
I4
aVcCEN_USA
p477
aVcNDC_Southwest
p478
aV">"
p479
aa(lp480
I4
aVcCEN_West
p481
aVcNDC_West
p482
aV">"
p483
aa(lp484
I4
aVcCEN_USA
p485
aVcNDC_Northeast
p486
aV"><"
p487
aa(lp488
I4
aVcCEN_West
p489
aVcNDC_Southwest
p490
aV"><"
p491
aa(lp492
I4
aVcCEN_South
p493
aVcNDC_Northeast
p494
aV"><"
p495
aa(lp496
I4
aVcCEN_South
p497
aVcNDC_Southwest
p498
aV"><"
p499
aaasba(ihelper
PossibleWorld
p500
(dp501
g3
I5
sg4
I0
sg5
(lp502
(lp503
(lp504
I5
aVcCEN_Northeast
p505
aVcNDC_USA
p506
aV"<"
p507
aa(lp508
I5
aVcCEN_Midwest
p509
aVcNDC_USA
p510
aV"<"
p511
aa(lp512
I5
aVcCEN_Midwest
p513
aVcNDC_Midwest
p514
aV"="
p515
aa(lp516
I5
aVcCEN_USA
p517
aVcNDC_West
p518
aV">"
p519
aa(lp520
I5
aVcCEN_USA
p521
aVcNDC_Southeast
p522
aV">"
p523
aa(lp524
I5
aVcCEN_USA
p525
aVcNDC_Midwest
p526
aV">"
p527
aa(lp528
I5
aVcCEN_South
p529
aVcNDC_Southeast
p530
aV">"
p531
aa(lp532
I5
aVcCEN_West
p533
aVcNDC_Northeast
p534
aV"!"
p535
aa(lp536
I5
aVcCEN_West
p537
aVcNDC_Southeast
p538
aV"!"
p539
aa(lp540
I5
aVcCEN_West
p541
aVcNDC_Midwest
p542
aV"!"
p543
aa(lp544
I5
aVcCEN_Northeast
p545
aVcNDC_West
p546
aV"!"
p547
aa(lp548
I5
aVcCEN_Northeast
p549
aVcNDC_Southeast
p550
aV"!"
p551
aa(lp552
I5
aVcCEN_Northeast
p553
aVcNDC_Midwest
p554
aV"!"
p555
aa(lp556
I5
aVcCEN_Northeast
p557
aVcNDC_Southwest
p558
aV"!"
p559
aa(lp560
I5
aVcCEN_Midwest
p561
aVcNDC_Northeast
p562
aV"!"
p563
aa(lp564
I5
aVcCEN_Midwest
p565
aVcNDC_West
p566
aV"!"
p567
aa(lp568
I5
aVcCEN_Midwest
p569
aVcNDC_Southeast
p570
aV"!"
p571
aa(lp572
I5
aVcCEN_Midwest
p573
aVcNDC_Southwest
p574
aV"!"
p575
aa(lp576
I5
aVcCEN_South
p577
aVcNDC_West
p578
aV"!"
p579
aa(lp580
I5
aVcCEN_South
p581
aVcNDC_Midwest
p582
aV"!"
p583
aa(lp584
I5
aVcCEN_USA
p585
aVcNDC_USA
p586
aV"<"
p587
aa(lp588
I5
aVcCEN_West
p589
aVcNDC_USA
p590
aV"<"
p591
aa(lp592
I5
aVcCEN_Northeast
p593
aVcNDC_Northeast
p594
aV"<"
p595
aa(lp596
I5
aVcCEN_South
p597
aVcNDC_USA
p598
aV"<"
p599
aa(lp600
I5
aVcCEN_West
p601
aVcNDC_West
p602
aV">"
p603
aa(lp604
I5
aVcCEN_USA
p605
aVcNDC_Northeast
p606
aV"><"
p607
aa(lp608
I5
aVcCEN_USA
p609
aVcNDC_Southwest
p610
aV"><"
p611
aa(lp612
I5
aVcCEN_West
p613
aVcNDC_Southwest
p614
aV"><"
p615
aa(lp616
I5
aVcCEN_South
p617
aVcNDC_Southwest
p618
aV"><"
p619
aa(lp620
I5
aVcCEN_South
p621
aVcNDC_Northeast
p622
aV"!"
p623
aaasba(ihelper
PossibleWorld
p624
(dp625
g3
I6
sg4
I0
sg5
(lp626
(lp627
(lp628
I6
aVcCEN_Northeast
p629
aVcNDC_USA
p630
aV"<"
p631
aa(lp632
I6
aVcCEN_Midwest
p633
aVcNDC_USA
p634
aV"<"
p635
aa(lp636
I6
aVcCEN_Midwest
p637
aVcNDC_Midwest
p638
aV"="
p639
aa(lp640
I6
aVcCEN_USA
p641
aVcNDC_West
p642
aV">"
p643
aa(lp644
I6
aVcCEN_USA
p645
aVcNDC_Southeast
p646
aV">"
p647
aa(lp648
I6
aVcCEN_USA
p649
aVcNDC_Midwest
p650
aV">"
p651
aa(lp652
I6
aVcCEN_South
p653
aVcNDC_Southeast
p654
aV">"
p655
aa(lp656
I6
aVcCEN_West
p657
aVcNDC_Northeast
p658
aV"!"
p659
aa(lp660
I6
aVcCEN_West
p661
aVcNDC_Southeast
p662
aV"!"
p663
aa(lp664
I6
aVcCEN_West
p665
aVcNDC_Midwest
p666
aV"!"
p667
aa(lp668
I6
aVcCEN_Northeast
p669
aVcNDC_West
p670
aV"!"
p671
aa(lp672
I6
aVcCEN_Northeast
p673
aVcNDC_Southeast
p674
aV"!"
p675
aa(lp676
I6
aVcCEN_Northeast
p677
aVcNDC_Midwest
p678
aV"!"
p679
aa(lp680
I6
aVcCEN_Northeast
p681
aVcNDC_Southwest
p682
aV"!"
p683
aa(lp684
I6
aVcCEN_Midwest
p685
aVcNDC_Northeast
p686
aV"!"
p687
aa(lp688
I6
aVcCEN_Midwest
p689
aVcNDC_West
p690
aV"!"
p691
aa(lp692
I6
aVcCEN_Midwest
p693
aVcNDC_Southeast
p694
aV"!"
p695
aa(lp696
I6
aVcCEN_Midwest
p697
aVcNDC_Southwest
p698
aV"!"
p699
aa(lp700
I6
aVcCEN_South
p701
aVcNDC_West
p702
aV"!"
p703
aa(lp704
I6
aVcCEN_South
p705
aVcNDC_Midwest
p706
aV"!"
p707
aa(lp708
I6
aVcCEN_USA
p709
aVcNDC_USA
p710
aV"<"
p711
aa(lp712
I6
aVcCEN_West
p713
aVcNDC_USA
p714
aV"<"
p715
aa(lp716
I6
aVcCEN_Northeast
p717
aVcNDC_Northeast
p718
aV"<"
p719
aa(lp720
I6
aVcCEN_South
p721
aVcNDC_USA
p722
aV"<"
p723
aa(lp724
I6
aVcCEN_West
p725
aVcNDC_West
p726
aV">"
p727
aa(lp728
I6
aVcCEN_USA
p729
aVcNDC_Northeast
p730
aV"><"
p731
aa(lp732
I6
aVcCEN_USA
p733
aVcNDC_Southwest
p734
aV"><"
p735
aa(lp736
I6
aVcCEN_West
p737
aVcNDC_Southwest
p738
aV"><"
p739
aa(lp740
I6
aVcCEN_South
p741
aVcNDC_Northeast
p742
aV"><"
p743
aa(lp744
I6
aVcCEN_South
p745
aVcNDC_Southwest
p746
aV"><"
p747
aaasba(ihelper
PossibleWorld
p748
(dp749
g3
I7
sg4
I0
sg5
(lp750
(lp751
(lp752
I7
aVcCEN_Northeast
p753
aVcNDC_USA
p754
aV"<"
p755
aa(lp756
I7
aVcCEN_Midwest
p757
aVcNDC_USA
p758
aV"<"
p759
aa(lp760
I7
aVcCEN_Midwest
p761
aVcNDC_Midwest
p762
aV"="
p763
aa(lp764
I7
aVcCEN_USA
p765
aVcNDC_West
p766
aV">"
p767
aa(lp768
I7
aVcCEN_USA
p769
aVcNDC_Southeast
p770
aV">"
p771
aa(lp772
I7
aVcCEN_USA
p773
aVcNDC_Midwest
p774
aV">"
p775
aa(lp776
I7
aVcCEN_South
p777
aVcNDC_Southeast
p778
aV">"
p779
aa(lp780
I7
aVcCEN_West
p781
aVcNDC_Northeast
p782
aV"!"
p783
aa(lp784
I7
aVcCEN_West
p785
aVcNDC_Southeast
p786
aV"!"
p787
aa(lp788
I7
aVcCEN_West
p789
aVcNDC_Midwest
p790
aV"!"
p791
aa(lp792
I7
aVcCEN_Northeast
p793
aVcNDC_West
p794
aV"!"
p795
aa(lp796
I7
aVcCEN_Northeast
p797
aVcNDC_Southeast
p798
aV"!"
p799
aa(lp800
I7
aVcCEN_Northeast
p801
aVcNDC_Midwest
p802
aV"!"
p803
aa(lp804
I7
aVcCEN_Northeast
p805
aVcNDC_Southwest
p806
aV"!"
p807
aa(lp808
I7
aVcCEN_Midwest
p809
aVcNDC_Northeast
p810
aV"!"
p811
aa(lp812
I7
aVcCEN_Midwest
p813
aVcNDC_West
p814
aV"!"
p815
aa(lp816
I7
aVcCEN_Midwest
p817
aVcNDC_Southeast
p818
aV"!"
p819
aa(lp820
I7
aVcCEN_Midwest
p821
aVcNDC_Southwest
p822
aV"!"
p823
aa(lp824
I7
aVcCEN_South
p825
aVcNDC_West
p826
aV"!"
p827
aa(lp828
I7
aVcCEN_South
p829
aVcNDC_Midwest
p830
aV"!"
p831
aa(lp832
I7
aVcCEN_West
p833
aVcNDC_USA
p834
aV"<"
p835
aa(lp836
I7
aVcCEN_Northeast
p837
aVcNDC_Northeast
p838
aV"<"
p839
aa(lp840
I7
aVcCEN_USA
p841
aVcNDC_Northeast
p842
aV">"
p843
aa(lp844
I7
aVcCEN_USA
p845
aVcNDC_USA
p846
aV">"
p847
aa(lp848
I7
aVcCEN_USA
p849
aVcNDC_Southwest
p850
aV">"
p851
aa(lp852
I7
aVcCEN_West
p853
aVcNDC_West
p854
aV">"
p855
aa(lp856
I7
aVcCEN_West
p857
aVcNDC_Southwest
p858
aV"><"
p859
aa(lp860
I7
aVcCEN_South
p861
aVcNDC_Northeast
p862
aV"><"
p863
aa(lp864
I7
aVcCEN_South
p865
aVcNDC_USA
p866
aV"><"
p867
aa(lp868
I7
aVcCEN_South
p869
aVcNDC_Southwest
p870
aV"><"
p871
aaasba(ihelper
PossibleWorld
p872
(dp873
g3
I8
sg4
I0
sg5
(lp874
(lp875
(lp876
I8
aVcCEN_Northeast
p877
aVcNDC_USA
p878
aV"<"
p879
aa(lp880
I8
aVcCEN_Midwest
p881
aVcNDC_USA
p882
aV"<"
p883
aa(lp884
I8
aVcCEN_Midwest
p885
aVcNDC_Midwest
p886
aV"="
p887
aa(lp888
I8
aVcCEN_USA
p889
aVcNDC_West
p890
aV">"
p891
aa(lp892
I8
aVcCEN_USA
p893
aVcNDC_Southeast
p894
aV">"
p895
aa(lp896
I8
aVcCEN_USA
p897
aVcNDC_Midwest
p898
aV">"
p899
aa(lp900
I8
aVcCEN_South
p901
aVcNDC_Southeast
p902
aV">"
p903
aa(lp904
I8
aVcCEN_West
p905
aVcNDC_Northeast
p906
aV"!"
p907
aa(lp908
I8
aVcCEN_West
p909
aVcNDC_Southeast
p910
aV"!"
p911
aa(lp912
I8
aVcCEN_West
p913
aVcNDC_Midwest
p914
aV"!"
p915
aa(lp916
I8
aVcCEN_Northeast
p917
aVcNDC_West
p918
aV"!"
p919
aa(lp920
I8
aVcCEN_Northeast
p921
aVcNDC_Southeast
p922
aV"!"
p923
aa(lp924
I8
aVcCEN_Northeast
p925
aVcNDC_Midwest
p926
aV"!"
p927
aa(lp928
I8
aVcCEN_Northeast
p929
aVcNDC_Southwest
p930
aV"!"
p931
aa(lp932
I8
aVcCEN_Midwest
p933
aVcNDC_Northeast
p934
aV"!"
p935
aa(lp936
I8
aVcCEN_Midwest
p937
aVcNDC_West
p938
aV"!"
p939
aa(lp940
I8
aVcCEN_Midwest
p941
aVcNDC_Southeast
p942
aV"!"
p943
aa(lp944
I8
aVcCEN_Midwest
p945
aVcNDC_Southwest
p946
aV"!"
p947
aa(lp948
I8
aVcCEN_South
p949
aVcNDC_West
p950
aV"!"
p951
aa(lp952
I8
aVcCEN_South
p953
aVcNDC_Midwest
p954
aV"!"
p955
aa(lp956
I8
aVcCEN_Northeast
p957
aVcNDC_Northeast
p958
aV"<"
p959
aa(lp960
I8
aVcCEN_South
p961
aVcNDC_USA
p962
aV"<"
p963
aa(lp964
I8
aVcCEN_USA
p965
aVcNDC_Northeast
p966
aV">"
p967
aa(lp968
I8
aVcCEN_USA
p969
aVcNDC_USA
p970
aV">"
p971
aa(lp972
I8
aVcCEN_USA
p973
aVcNDC_Southwest
p974
aV">"
p975
aa(lp976
I8
aVcCEN_West
p977
aVcNDC_West
p978
aV">"
p979
aa(lp980
I8
aVcCEN_West
p981
aVcNDC_USA
p982
aV"><"
p983
aa(lp984
I8
aVcCEN_West
p985
aVcNDC_Southwest
p986
aV"><"
p987
aa(lp988
I8
aVcCEN_South
p989
aVcNDC_Northeast
p990
aV"><"
p991
aa(lp992
I8
aVcCEN_South
p993
aVcNDC_Southwest
p994
aV"><"
p995
aaasba(ihelper
PossibleWorld
p996
(dp997
g3
I9
sg4
I0
sg5
(lp998
(lp999
(lp1000
I9
aVcCEN_Northeast
p1001
aVcNDC_USA
p1002
aV"<"
p1003
aa(lp1004
I9
aVcCEN_Midwest
p1005
aVcNDC_USA
p1006
aV"<"
p1007
aa(lp1008
I9
aVcCEN_Midwest
p1009
aVcNDC_Midwest
p1010
aV"="
p1011
aa(lp1012
I9
aVcCEN_USA
p1013
aVcNDC_West
p1014
aV">"
p1015
aa(lp1016
I9
aVcCEN_USA
p1017
aVcNDC_Southeast
p1018
aV">"
p1019
aa(lp1020
I9
aVcCEN_USA
p1021
aVcNDC_Midwest
p1022
aV">"
p1023
aa(lp1024
I9
aVcCEN_South
p1025
aVcNDC_Southeast
p1026
aV">"
p1027
aa(lp1028
I9
aVcCEN_West
p1029
aVcNDC_Northeast
p1030
aV"!"
p1031
aa(lp1032
I9
aVcCEN_West
p1033
aVcNDC_Southeast
p1034
aV"!"
p1035
aa(lp1036
I9
aVcCEN_West
p1037
aVcNDC_Midwest
p1038
aV"!"
p1039
aa(lp1040
I9
aVcCEN_Northeast
p1041
aVcNDC_West
p1042
aV"!"
p1043
aa(lp1044
I9
aVcCEN_Northeast
p1045
aVcNDC_Southeast
p1046
aV"!"
p1047
aa(lp1048
I9
aVcCEN_Northeast
p1049
aVcNDC_Midwest
p1050
aV"!"
p1051
aa(lp1052
I9
aVcCEN_Northeast
p1053
aVcNDC_Southwest
p1054
aV"!"
p1055
aa(lp1056
I9
aVcCEN_Midwest
p1057
aVcNDC_Northeast
p1058
aV"!"
p1059
aa(lp1060
I9
aVcCEN_Midwest
p1061
aVcNDC_West
p1062
aV"!"
p1063
aa(lp1064
I9
aVcCEN_Midwest
p1065
aVcNDC_Southeast
p1066
aV"!"
p1067
aa(lp1068
I9
aVcCEN_Midwest
p1069
aVcNDC_Southwest
p1070
aV"!"
p1071
aa(lp1072
I9
aVcCEN_South
p1073
aVcNDC_West
p1074
aV"!"
p1075
aa(lp1076
I9
aVcCEN_South
p1077
aVcNDC_Midwest
p1078
aV"!"
p1079
aa(lp1080
I9
aVcCEN_Northeast
p1081
aVcNDC_Northeast
p1082
aV"<"
p1083
aa(lp1084
I9
aVcCEN_USA
p1085
aVcNDC_Northeast
p1086
aV">"
p1087
aa(lp1088
I9
aVcCEN_USA
p1089
aVcNDC_USA
p1090
aV">"
p1091
aa(lp1092
I9
aVcCEN_USA
p1093
aVcNDC_Southwest
p1094
aV">"
p1095
aa(lp1096
I9
aVcCEN_West
p1097
aVcNDC_West
p1098
aV">"
p1099
aa(lp1100
I9
aVcCEN_West
p1101
aVcNDC_USA
p1102
aV"><"
p1103
aa(lp1104
I9
aVcCEN_West
p1105
aVcNDC_Southwest
p1106
aV"><"
p1107
aa(lp1108
I9
aVcCEN_South
p1109
aVcNDC_Northeast
p1110
aV"><"
p1111
aa(lp1112
I9
aVcCEN_South
p1113
aVcNDC_USA
p1114
aV"><"
p1115
aa(lp1116
I9
aVcCEN_South
p1117
aVcNDC_Southwest
p1118
aV"><"
p1119
aaasba(ihelper
PossibleWorld
p1120
(dp1121
g3
I10
sg4
I0
sg5
(lp1122
(lp1123
(lp1124
I10
aVcCEN_Northeast
p1125
aVcNDC_USA
p1126
aV"<"
p1127
aa(lp1128
I10
aVcCEN_Midwest
p1129
aVcNDC_USA
p1130
aV"<"
p1131
aa(lp1132
I10
aVcCEN_Midwest
p1133
aVcNDC_Midwest
p1134
aV"="
p1135
aa(lp1136
I10
aVcCEN_USA
p1137
aVcNDC_West
p1138
aV">"
p1139
aa(lp1140
I10
aVcCEN_USA
p1141
aVcNDC_Southeast
p1142
aV">"
p1143
aa(lp1144
I10
aVcCEN_USA
p1145
aVcNDC_Midwest
p1146
aV">"
p1147
aa(lp1148
I10
aVcCEN_South
p1149
aVcNDC_Southeast
p1150
aV">"
p1151
aa(lp1152
I10
aVcCEN_West
p1153
aVcNDC_Northeast
p1154
aV"!"
p1155
aa(lp1156
I10
aVcCEN_West
p1157
aVcNDC_Southeast
p1158
aV"!"
p1159
aa(lp1160
I10
aVcCEN_West
p1161
aVcNDC_Midwest
p1162
aV"!"
p1163
aa(lp1164
I10
aVcCEN_Northeast
p1165
aVcNDC_West
p1166
aV"!"
p1167
aa(lp1168
I10
aVcCEN_Northeast
p1169
aVcNDC_Southeast
p1170
aV"!"
p1171
aa(lp1172
I10
aVcCEN_Northeast
p1173
aVcNDC_Midwest
p1174
aV"!"
p1175
aa(lp1176
I10
aVcCEN_Northeast
p1177
aVcNDC_Southwest
p1178
aV"!"
p1179
aa(lp1180
I10
aVcCEN_Midwest
p1181
aVcNDC_Northeast
p1182
aV"!"
p1183
aa(lp1184
I10
aVcCEN_Midwest
p1185
aVcNDC_West
p1186
aV"!"
p1187
aa(lp1188
I10
aVcCEN_Midwest
p1189
aVcNDC_Southeast
p1190
aV"!"
p1191
aa(lp1192
I10
aVcCEN_Midwest
p1193
aVcNDC_Southwest
p1194
aV"!"
p1195
aa(lp1196
I10
aVcCEN_South
p1197
aVcNDC_West
p1198
aV"!"
p1199
aa(lp1200
I10
aVcCEN_South
p1201
aVcNDC_Midwest
p1202
aV"!"
p1203
aa(lp1204
I10
aVcCEN_Northeast
p1205
aVcNDC_Northeast
p1206
aV"<"
p1207
aa(lp1208
I10
aVcCEN_South
p1209
aVcNDC_USA
p1210
aV"<"
p1211
aa(lp1212
I10
aVcCEN_USA
p1213
aVcNDC_Northeast
p1214
aV">"
p1215
aa(lp1216
I10
aVcCEN_West
p1217
aVcNDC_West
p1218
aV">"
p1219
aa(lp1220
I10
aVcCEN_USA
p1221
aVcNDC_USA
p1222
aV"><"
p1223
aa(lp1224
I10
aVcCEN_USA
p1225
aVcNDC_Southwest
p1226
aV"><"
p1227
aa(lp1228
I10
aVcCEN_West
p1229
aVcNDC_USA
p1230
aV"><"
p1231
aa(lp1232
I10
aVcCEN_South
p1233
aVcNDC_Northeast
p1234
aV"><"
p1235
aa(lp1236
I10
aVcCEN_South
p1237
aVcNDC_Southwest
p1238
aV"><"
p1239
aa(lp1240
I10
aVcCEN_West
p1241
aVcNDC_Southwest
p1242
aV"!"
p1243
aaasba(ihelper
PossibleWorld
p1244
(dp1245
g3
I11
sg4
I0
sg5
(lp1246
(lp1247
(lp1248
I11
aVcCEN_Northeast
p1249
aVcNDC_USA
p1250
aV"<"
p1251
aa(lp1252
I11
aVcCEN_Midwest
p1253
aVcNDC_USA
p1254
aV"<"
p1255
aa(lp1256
I11
aVcCEN_Midwest
p1257
aVcNDC_Midwest
p1258
aV"="
p1259
aa(lp1260
I11
aVcCEN_USA
p1261
aVcNDC_West
p1262
aV">"
p1263
aa(lp1264
I11
aVcCEN_USA
p1265
aVcNDC_Southeast
p1266
aV">"
p1267
aa(lp1268
I11
aVcCEN_USA
p1269
aVcNDC_Midwest
p1270
aV">"
p1271
aa(lp1272
I11
aVcCEN_South
p1273
aVcNDC_Southeast
p1274
aV">"
p1275
aa(lp1276
I11
aVcCEN_West
p1277
aVcNDC_Northeast
p1278
aV"!"
p1279
aa(lp1280
I11
aVcCEN_West
p1281
aVcNDC_Southeast
p1282
aV"!"
p1283
aa(lp1284
I11
aVcCEN_West
p1285
aVcNDC_Midwest
p1286
aV"!"
p1287
aa(lp1288
I11
aVcCEN_Northeast
p1289
aVcNDC_West
p1290
aV"!"
p1291
aa(lp1292
I11
aVcCEN_Northeast
p1293
aVcNDC_Southeast
p1294
aV"!"
p1295
aa(lp1296
I11
aVcCEN_Northeast
p1297
aVcNDC_Midwest
p1298
aV"!"
p1299
aa(lp1300
I11
aVcCEN_Northeast
p1301
aVcNDC_Southwest
p1302
aV"!"
p1303
aa(lp1304
I11
aVcCEN_Midwest
p1305
aVcNDC_Northeast
p1306
aV"!"
p1307
aa(lp1308
I11
aVcCEN_Midwest
p1309
aVcNDC_West
p1310
aV"!"
p1311
aa(lp1312
I11
aVcCEN_Midwest
p1313
aVcNDC_Southeast
p1314
aV"!"
p1315
aa(lp1316
I11
aVcCEN_Midwest
p1317
aVcNDC_Southwest
p1318
aV"!"
p1319
aa(lp1320
I11
aVcCEN_South
p1321
aVcNDC_West
p1322
aV"!"
p1323
aa(lp1324
I11
aVcCEN_South
p1325
aVcNDC_Midwest
p1326
aV"!"
p1327
aa(lp1328
I11
aVcCEN_Northeast
p1329
aVcNDC_Northeast
p1330
aV"<"
p1331
aa(lp1332
I11
aVcCEN_USA
p1333
aVcNDC_Northeast
p1334
aV">"
p1335
aa(lp1336
I11
aVcCEN_West
p1337
aVcNDC_West
p1338
aV">"
p1339
aa(lp1340
I11
aVcCEN_USA
p1341
aVcNDC_USA
p1342
aV"><"
p1343
aa(lp1344
I11
aVcCEN_USA
p1345
aVcNDC_Southwest
p1346
aV"><"
p1347
aa(lp1348
I11
aVcCEN_West
p1349
aVcNDC_USA
p1350
aV"><"
p1351
aa(lp1352
I11
aVcCEN_South
p1353
aVcNDC_Northeast
p1354
aV"><"
p1355
aa(lp1356
I11
aVcCEN_South
p1357
aVcNDC_USA
p1358
aV"><"
p1359
aa(lp1360
I11
aVcCEN_South
p1361
aVcNDC_Southwest
p1362
aV"><"
p1363
aa(lp1364
I11
aVcCEN_West
p1365
aVcNDC_Southwest
p1366
aV"!"
p1367
aaasba(ihelper
PossibleWorld
p1368
(dp1369
g3
I12
sg4
I0
sg5
(lp1370
(lp1371
(lp1372
I12
aVcCEN_Northeast
p1373
aVcNDC_USA
p1374
aV"<"
p1375
aa(lp1376
I12
aVcCEN_Midwest
p1377
aVcNDC_USA
p1378
aV"<"
p1379
aa(lp1380
I12
aVcCEN_Midwest
p1381
aVcNDC_Midwest
p1382
aV"="
p1383
aa(lp1384
I12
aVcCEN_USA
p1385
aVcNDC_West
p1386
aV">"
p1387
aa(lp1388
I12
aVcCEN_USA
p1389
aVcNDC_Southeast
p1390
aV">"
p1391
aa(lp1392
I12
aVcCEN_USA
p1393
aVcNDC_Midwest
p1394
aV">"
p1395
aa(lp1396
I12
aVcCEN_South
p1397
aVcNDC_Southeast
p1398
aV">"
p1399
aa(lp1400
I12
aVcCEN_West
p1401
aVcNDC_Northeast
p1402
aV"!"
p1403
aa(lp1404
I12
aVcCEN_West
p1405
aVcNDC_Southeast
p1406
aV"!"
p1407
aa(lp1408
I12
aVcCEN_West
p1409
aVcNDC_Midwest
p1410
aV"!"
p1411
aa(lp1412
I12
aVcCEN_Northeast
p1413
aVcNDC_West
p1414
aV"!"
p1415
aa(lp1416
I12
aVcCEN_Northeast
p1417
aVcNDC_Southeast
p1418
aV"!"
p1419
aa(lp1420
I12
aVcCEN_Northeast
p1421
aVcNDC_Midwest
p1422
aV"!"
p1423
aa(lp1424
I12
aVcCEN_Northeast
p1425
aVcNDC_Southwest
p1426
aV"!"
p1427
aa(lp1428
I12
aVcCEN_Midwest
p1429
aVcNDC_Northeast
p1430
aV"!"
p1431
aa(lp1432
I12
aVcCEN_Midwest
p1433
aVcNDC_West
p1434
aV"!"
p1435
aa(lp1436
I12
aVcCEN_Midwest
p1437
aVcNDC_Southeast
p1438
aV"!"
p1439
aa(lp1440
I12
aVcCEN_Midwest
p1441
aVcNDC_Southwest
p1442
aV"!"
p1443
aa(lp1444
I12
aVcCEN_South
p1445
aVcNDC_West
p1446
aV"!"
p1447
aa(lp1448
I12
aVcCEN_South
p1449
aVcNDC_Midwest
p1450
aV"!"
p1451
aa(lp1452
I12
aVcCEN_Northeast
p1453
aVcNDC_Northeast
p1454
aV"<"
p1455
aa(lp1456
I12
aVcCEN_South
p1457
aVcNDC_USA
p1458
aV"<"
p1459
aa(lp1460
I12
aVcCEN_West
p1461
aVcNDC_West
p1462
aV">"
p1463
aa(lp1464
I12
aVcCEN_USA
p1465
aVcNDC_Northeast
p1466
aV"><"
p1467
aa(lp1468
I12
aVcCEN_USA
p1469
aVcNDC_USA
p1470
aV"><"
p1471
aa(lp1472
I12
aVcCEN_USA
p1473
aVcNDC_Southwest
p1474
aV"><"
p1475
aa(lp1476
I12
aVcCEN_West
p1477
aVcNDC_USA
p1478
aV"><"
p1479
aa(lp1480
I12
aVcCEN_South
p1481
aVcNDC_Southwest
p1482
aV"><"
p1483
aa(lp1484
I12
aVcCEN_West
p1485
aVcNDC_Southwest
p1486
aV"!"
p1487
aa(lp1488
I12
aVcCEN_South
p1489
aVcNDC_Northeast
p1490
aV"!"
p1491
aaasba(ihelper
PossibleWorld
p1492
(dp1493
g3
I13
sg4
I0
sg5
(lp1494
(lp1495
(lp1496
I13
aVcCEN_Northeast
p1497
aVcNDC_USA
p1498
aV"<"
p1499
aa(lp1500
I13
aVcCEN_Midwest
p1501
aVcNDC_USA
p1502
aV"<"
p1503
aa(lp1504
I13
aVcCEN_Midwest
p1505
aVcNDC_Midwest
p1506
aV"="
p1507
aa(lp1508
I13
aVcCEN_USA
p1509
aVcNDC_West
p1510
aV">"
p1511
aa(lp1512
I13
aVcCEN_USA
p1513
aVcNDC_Southeast
p1514
aV">"
p1515
aa(lp1516
I13
aVcCEN_USA
p1517
aVcNDC_Midwest
p1518
aV">"
p1519
aa(lp1520
I13
aVcCEN_South
p1521
aVcNDC_Southeast
p1522
aV">"
p1523
aa(lp1524
I13
aVcCEN_West
p1525
aVcNDC_Northeast
p1526
aV"!"
p1527
aa(lp1528
I13
aVcCEN_West
p1529
aVcNDC_Southeast
p1530
aV"!"
p1531
aa(lp1532
I13
aVcCEN_West
p1533
aVcNDC_Midwest
p1534
aV"!"
p1535
aa(lp1536
I13
aVcCEN_Northeast
p1537
aVcNDC_West
p1538
aV"!"
p1539
aa(lp1540
I13
aVcCEN_Northeast
p1541
aVcNDC_Southeast
p1542
aV"!"
p1543
aa(lp1544
I13
aVcCEN_Northeast
p1545
aVcNDC_Midwest
p1546
aV"!"
p1547
aa(lp1548
I13
aVcCEN_Northeast
p1549
aVcNDC_Southwest
p1550
aV"!"
p1551
aa(lp1552
I13
aVcCEN_Midwest
p1553
aVcNDC_Northeast
p1554
aV"!"
p1555
aa(lp1556
I13
aVcCEN_Midwest
p1557
aVcNDC_West
p1558
aV"!"
p1559
aa(lp1560
I13
aVcCEN_Midwest
p1561
aVcNDC_Southeast
p1562
aV"!"
p1563
aa(lp1564
I13
aVcCEN_Midwest
p1565
aVcNDC_Southwest
p1566
aV"!"
p1567
aa(lp1568
I13
aVcCEN_South
p1569
aVcNDC_West
p1570
aV"!"
p1571
aa(lp1572
I13
aVcCEN_South
p1573
aVcNDC_Midwest
p1574
aV"!"
p1575
aa(lp1576
I13
aVcCEN_Northeast
p1577
aVcNDC_Northeast
p1578
aV"<"
p1579
aa(lp1580
I13
aVcCEN_West
p1581
aVcNDC_West
p1582
aV">"
p1583
aa(lp1584
I13
aVcCEN_USA
p1585
aVcNDC_Northeast
p1586
aV"><"
p1587
aa(lp1588
I13
aVcCEN_USA
p1589
aVcNDC_USA
p1590
aV"><"
p1591
aa(lp1592
I13
aVcCEN_USA
p1593
aVcNDC_Southwest
p1594
aV"><"
p1595
aa(lp1596
I13
aVcCEN_West
p1597
aVcNDC_USA
p1598
aV"><"
p1599
aa(lp1600
I13
aVcCEN_South
p1601
aVcNDC_USA
p1602
aV"><"
p1603
aa(lp1604
I13
aVcCEN_South
p1605
aVcNDC_Southwest
p1606
aV"><"
p1607
aa(lp1608
I13
aVcCEN_West
p1609
aVcNDC_Southwest
p1610
aV"!"
p1611
aa(lp1612
I13
aVcCEN_South
p1613
aVcNDC_Northeast
p1614
aV"!"
p1615
aaasba(ihelper
PossibleWorld
p1616
(dp1617
g3
I14
sg4
I0
sg5
(lp1618
(lp1619
(lp1620
I14
aVcCEN_Northeast
p1621
aVcNDC_USA
p1622
aV"<"
p1623
aa(lp1624
I14
aVcCEN_Midwest
p1625
aVcNDC_USA
p1626
aV"<"
p1627
aa(lp1628
I14
aVcCEN_Midwest
p1629
aVcNDC_Midwest
p1630
aV"="
p1631
aa(lp1632
I14
aVcCEN_USA
p1633
aVcNDC_West
p1634
aV">"
p1635
aa(lp1636
I14
aVcCEN_USA
p1637
aVcNDC_Southeast
p1638
aV">"
p1639
aa(lp1640
I14
aVcCEN_USA
p1641
aVcNDC_Midwest
p1642
aV">"
p1643
aa(lp1644
I14
aVcCEN_South
p1645
aVcNDC_Southeast
p1646
aV">"
p1647
aa(lp1648
I14
aVcCEN_West
p1649
aVcNDC_Northeast
p1650
aV"!"
p1651
aa(lp1652
I14
aVcCEN_West
p1653
aVcNDC_Southeast
p1654
aV"!"
p1655
aa(lp1656
I14
aVcCEN_West
p1657
aVcNDC_Midwest
p1658
aV"!"
p1659
aa(lp1660
I14
aVcCEN_Northeast
p1661
aVcNDC_West
p1662
aV"!"
p1663
aa(lp1664
I14
aVcCEN_Northeast
p1665
aVcNDC_Southeast
p1666
aV"!"
p1667
aa(lp1668
I14
aVcCEN_Northeast
p1669
aVcNDC_Midwest
p1670
aV"!"
p1671
aa(lp1672
I14
aVcCEN_Northeast
p1673
aVcNDC_Southwest
p1674
aV"!"
p1675
aa(lp1676
I14
aVcCEN_Midwest
p1677
aVcNDC_Northeast
p1678
aV"!"
p1679
aa(lp1680
I14
aVcCEN_Midwest
p1681
aVcNDC_West
p1682
aV"!"
p1683
aa(lp1684
I14
aVcCEN_Midwest
p1685
aVcNDC_Southeast
p1686
aV"!"
p1687
aa(lp1688
I14
aVcCEN_Midwest
p1689
aVcNDC_Southwest
p1690
aV"!"
p1691
aa(lp1692
I14
aVcCEN_South
p1693
aVcNDC_West
p1694
aV"!"
p1695
aa(lp1696
I14
aVcCEN_South
p1697
aVcNDC_Midwest
p1698
aV"!"
p1699
aa(lp1700
I14
aVcCEN_Northeast
p1701
aVcNDC_Northeast
p1702
aV"<"
p1703
aa(lp1704
I14
aVcCEN_South
p1705
aVcNDC_USA
p1706
aV"<"
p1707
aa(lp1708
I14
aVcCEN_West
p1709
aVcNDC_West
p1710
aV">"
p1711
aa(lp1712
I14
aVcCEN_USA
p1713
aVcNDC_Northeast
p1714
aV"><"
p1715
aa(lp1716
I14
aVcCEN_USA
p1717
aVcNDC_USA
p1718
aV"><"
p1719
aa(lp1720
I14
aVcCEN_USA
p1721
aVcNDC_Southwest
p1722
aV"><"
p1723
aa(lp1724
I14
aVcCEN_West
p1725
aVcNDC_USA
p1726
aV"><"
p1727
aa(lp1728
I14
aVcCEN_South
p1729
aVcNDC_Northeast
p1730
aV"><"
p1731
aa(lp1732
I14
aVcCEN_South
p1733
aVcNDC_Southwest
p1734
aV"><"
p1735
aa(lp1736
I14
aVcCEN_West
p1737
aVcNDC_Southwest
p1738
aV"!"
p1739
aaasba(ihelper
PossibleWorld
p1740
(dp1741
g3
I15
sg4
I0
sg5
(lp1742
(lp1743
(lp1744
I15
aVcCEN_Northeast
p1745
aVcNDC_USA
p1746
aV"<"
p1747
aa(lp1748
I15
aVcCEN_Midwest
p1749
aVcNDC_USA
p1750
aV"<"
p1751
aa(lp1752
I15
aVcCEN_Midwest
p1753
aVcNDC_Midwest
p1754
aV"="
p1755
aa(lp1756
I15
aVcCEN_USA
p1757
aVcNDC_West
p1758
aV">"
p1759
aa(lp1760
I15
aVcCEN_USA
p1761
aVcNDC_Southeast
p1762
aV">"
p1763
aa(lp1764
I15
aVcCEN_USA
p1765
aVcNDC_Midwest
p1766
aV">"
p1767
aa(lp1768
I15
aVcCEN_South
p1769
aVcNDC_Southeast
p1770
aV">"
p1771
aa(lp1772
I15
aVcCEN_West
p1773
aVcNDC_Northeast
p1774
aV"!"
p1775
aa(lp1776
I15
aVcCEN_West
p1777
aVcNDC_Southeast
p1778
aV"!"
p1779
aa(lp1780
I15
aVcCEN_West
p1781
aVcNDC_Midwest
p1782
aV"!"
p1783
aa(lp1784
I15
aVcCEN_Northeast
p1785
aVcNDC_West
p1786
aV"!"
p1787
aa(lp1788
I15
aVcCEN_Northeast
p1789
aVcNDC_Southeast
p1790
aV"!"
p1791
aa(lp1792
I15
aVcCEN_Northeast
p1793
aVcNDC_Midwest
p1794
aV"!"
p1795
aa(lp1796
I15
aVcCEN_Northeast
p1797
aVcNDC_Southwest
p1798
aV"!"
p1799
aa(lp1800
I15
aVcCEN_Midwest
p1801
aVcNDC_Northeast
p1802
aV"!"
p1803
aa(lp1804
I15
aVcCEN_Midwest
p1805
aVcNDC_West
p1806
aV"!"
p1807
aa(lp1808
I15
aVcCEN_Midwest
p1809
aVcNDC_Southeast
p1810
aV"!"
p1811
aa(lp1812
I15
aVcCEN_Midwest
p1813
aVcNDC_Southwest
p1814
aV"!"
p1815
aa(lp1816
I15
aVcCEN_South
p1817
aVcNDC_West
p1818
aV"!"
p1819
aa(lp1820
I15
aVcCEN_South
p1821
aVcNDC_Midwest
p1822
aV"!"
p1823
aa(lp1824
I15
aVcCEN_Northeast
p1825
aVcNDC_Northeast
p1826
aV"<"
p1827
aa(lp1828
I15
aVcCEN_West
p1829
aVcNDC_West
p1830
aV">"
p1831
aa(lp1832
I15
aVcCEN_USA
p1833
aVcNDC_Northeast
p1834
aV"><"
p1835
aa(lp1836
I15
aVcCEN_USA
p1837
aVcNDC_USA
p1838
aV"><"
p1839
aa(lp1840
I15
aVcCEN_USA
p1841
aVcNDC_Southwest
p1842
aV"><"
p1843
aa(lp1844
I15
aVcCEN_West
p1845
aVcNDC_USA
p1846
aV"><"
p1847
aa(lp1848
I15
aVcCEN_South
p1849
aVcNDC_Northeast
p1850
aV"><"
p1851
aa(lp1852
I15
aVcCEN_South
p1853
aVcNDC_USA
p1854
aV"><"
p1855
aa(lp1856
I15
aVcCEN_South
p1857
aVcNDC_Southwest
p1858
aV"><"
p1859
aa(lp1860
I15
aVcCEN_West
p1861
aVcNDC_Southwest
p1862
aV"!"
p1863
aaasba(ihelper
PossibleWorld
p1864
(dp1865
g3
I16
sg4
I0
sg5
(lp1866
(lp1867
(lp1868
I16
aVcCEN_Northeast
p1869
aVcNDC_USA
p1870
aV"<"
p1871
aa(lp1872
I16
aVcCEN_Midwest
p1873
aVcNDC_USA
p1874
aV"<"
p1875
aa(lp1876
I16
aVcCEN_Midwest
p1877
aVcNDC_Midwest
p1878
aV"="
p1879
aa(lp1880
I16
aVcCEN_USA
p1881
aVcNDC_West
p1882
aV">"
p1883
aa(lp1884
I16
aVcCEN_USA
p1885
aVcNDC_Southeast
p1886
aV">"
p1887
aa(lp1888
I16
aVcCEN_USA
p1889
aVcNDC_Midwest
p1890
aV">"
p1891
aa(lp1892
I16
aVcCEN_South
p1893
aVcNDC_Southeast
p1894
aV">"
p1895
aa(lp1896
I16
aVcCEN_West
p1897
aVcNDC_Northeast
p1898
aV"!"
p1899
aa(lp1900
I16
aVcCEN_West
p1901
aVcNDC_Southeast
p1902
aV"!"
p1903
aa(lp1904
I16
aVcCEN_West
p1905
aVcNDC_Midwest
p1906
aV"!"
p1907
aa(lp1908
I16
aVcCEN_Northeast
p1909
aVcNDC_West
p1910
aV"!"
p1911
aa(lp1912
I16
aVcCEN_Northeast
p1913
aVcNDC_Southeast
p1914
aV"!"
p1915
aa(lp1916
I16
aVcCEN_Northeast
p1917
aVcNDC_Midwest
p1918
aV"!"
p1919
aa(lp1920
I16
aVcCEN_Northeast
p1921
aVcNDC_Southwest
p1922
aV"!"
p1923
aa(lp1924
I16
aVcCEN_Midwest
p1925
aVcNDC_Northeast
p1926
aV"!"
p1927
aa(lp1928
I16
aVcCEN_Midwest
p1929
aVcNDC_West
p1930
aV"!"
p1931
aa(lp1932
I16
aVcCEN_Midwest
p1933
aVcNDC_Southeast
p1934
aV"!"
p1935
aa(lp1936
I16
aVcCEN_Midwest
p1937
aVcNDC_Southwest
p1938
aV"!"
p1939
aa(lp1940
I16
aVcCEN_South
p1941
aVcNDC_West
p1942
aV"!"
p1943
aa(lp1944
I16
aVcCEN_South
p1945
aVcNDC_Midwest
p1946
aV"!"
p1947
aa(lp1948
I16
aVcCEN_West
p1949
aVcNDC_USA
p1950
aV"<"
p1951
aa(lp1952
I16
aVcCEN_Northeast
p1953
aVcNDC_Northeast
p1954
aV"<"
p1955
aa(lp1956
I16
aVcCEN_USA
p1957
aVcNDC_Southwest
p1958
aV">"
p1959
aa(lp1960
I16
aVcCEN_West
p1961
aVcNDC_West
p1962
aV">"
p1963
aa(lp1964
I16
aVcCEN_USA
p1965
aVcNDC_Northeast
p1966
aV"><"
p1967
aa(lp1968
I16
aVcCEN_USA
p1969
aVcNDC_USA
p1970
aV"><"
p1971
aa(lp1972
I16
aVcCEN_West
p1973
aVcNDC_Southwest
p1974
aV"><"
p1975
aa(lp1976
I16
aVcCEN_South
p1977
aVcNDC_USA
p1978
aV"><"
p1979
aa(lp1980
I16
aVcCEN_South
p1981
aVcNDC_Southwest
p1982
aV"><"
p1983
aa(lp1984
I16
aVcCEN_South
p1985
aVcNDC_Northeast
p1986
aV"!"
p1987
aaasba(ihelper
PossibleWorld
p1988
(dp1989
g3
I17
sg4
I0
sg5
(lp1990
(lp1991
(lp1992
I17
aVcCEN_Northeast
p1993
aVcNDC_USA
p1994
aV"<"
p1995
aa(lp1996
I17
aVcCEN_Midwest
p1997
aVcNDC_USA
p1998
aV"<"
p1999
aa(lp2000
I17
aVcCEN_Midwest
p2001
aVcNDC_Midwest
p2002
aV"="
p2003
aa(lp2004
I17
aVcCEN_USA
p2005
aVcNDC_West
p2006
aV">"
p2007
aa(lp2008
I17
aVcCEN_USA
p2009
aVcNDC_Southeast
p2010
aV">"
p2011
aa(lp2012
I17
aVcCEN_USA
p2013
aVcNDC_Midwest
p2014
aV">"
p2015
aa(lp2016
I17
aVcCEN_South
p2017
aVcNDC_Southeast
p2018
aV">"
p2019
aa(lp2020
I17
aVcCEN_West
p2021
aVcNDC_Northeast
p2022
aV"!"
p2023
aa(lp2024
I17
aVcCEN_West
p2025
aVcNDC_Southeast
p2026
aV"!"
p2027
aa(lp2028
I17
aVcCEN_West
p2029
aVcNDC_Midwest
p2030
aV"!"
p2031
aa(lp2032
I17
aVcCEN_Northeast
p2033
aVcNDC_West
p2034
aV"!"
p2035
aa(lp2036
I17
aVcCEN_Northeast
p2037
aVcNDC_Southeast
p2038
aV"!"
p2039
aa(lp2040
I17
aVcCEN_Northeast
p2041
aVcNDC_Midwest
p2042
aV"!"
p2043
aa(lp2044
I17
aVcCEN_Northeast
p2045
aVcNDC_Southwest
p2046
aV"!"
p2047
aa(lp2048
I17
aVcCEN_Midwest
p2049
aVcNDC_Northeast
p2050
aV"!"
p2051
aa(lp2052
I17
aVcCEN_Midwest
p2053
aVcNDC_West
p2054
aV"!"
p2055
aa(lp2056
I17
aVcCEN_Midwest
p2057
aVcNDC_Southeast
p2058
aV"!"
p2059
aa(lp2060
I17
aVcCEN_Midwest
p2061
aVcNDC_Southwest
p2062
aV"!"
p2063
aa(lp2064
I17
aVcCEN_South
p2065
aVcNDC_West
p2066
aV"!"
p2067
aa(lp2068
I17
aVcCEN_South
p2069
aVcNDC_Midwest
p2070
aV"!"
p2071
aa(lp2072
I17
aVcCEN_West
p2073
aVcNDC_USA
p2074
aV"<"
p2075
aa(lp2076
I17
aVcCEN_Northeast
p2077
aVcNDC_Northeast
p2078
aV"<"
p2079
aa(lp2080
I17
aVcCEN_USA
p2081
aVcNDC_Southwest
p2082
aV">"
p2083
aa(lp2084
I17
aVcCEN_West
p2085
aVcNDC_West
p2086
aV">"
p2087
aa(lp2088
I17
aVcCEN_USA
p2089
aVcNDC_Northeast
p2090
aV"><"
p2091
aa(lp2092
I17
aVcCEN_USA
p2093
aVcNDC_USA
p2094
aV"><"
p2095
aa(lp2096
I17
aVcCEN_West
p2097
aVcNDC_Southwest
p2098
aV"><"
p2099
aa(lp2100
I17
aVcCEN_South
p2101
aVcNDC_Northeast
p2102
aV"><"
p2103
aa(lp2104
I17
aVcCEN_South
p2105
aVcNDC_USA
p2106
aV"><"
p2107
aa(lp2108
I17
aVcCEN_South
p2109
aVcNDC_Southwest
p2110
aV"><"
p2111
aaasba(ihelper
PossibleWorld
p2112
(dp2113
g3
I18
sg4
I0
sg5
(lp2114
(lp2115
(lp2116
I18
aVcCEN_Northeast
p2117
aVcNDC_USA
p2118
aV"<"
p2119
aa(lp2120
I18
aVcCEN_Midwest
p2121
aVcNDC_USA
p2122
aV"<"
p2123
aa(lp2124
I18
aVcCEN_Midwest
p2125
aVcNDC_Midwest
p2126
aV"="
p2127
aa(lp2128
I18
aVcCEN_USA
p2129
aVcNDC_West
p2130
aV">"
p2131
aa(lp2132
I18
aVcCEN_USA
p2133
aVcNDC_Southeast
p2134
aV">"
p2135
aa(lp2136
I18
aVcCEN_USA
p2137
aVcNDC_Midwest
p2138
aV">"
p2139
aa(lp2140
I18
aVcCEN_South
p2141
aVcNDC_Southeast
p2142
aV">"
p2143
aa(lp2144
I18
aVcCEN_West
p2145
aVcNDC_Northeast
p2146
aV"!"
p2147
aa(lp2148
I18
aVcCEN_West
p2149
aVcNDC_Southeast
p2150
aV"!"
p2151
aa(lp2152
I18
aVcCEN_West
p2153
aVcNDC_Midwest
p2154
aV"!"
p2155
aa(lp2156
I18
aVcCEN_Northeast
p2157
aVcNDC_West
p2158
aV"!"
p2159
aa(lp2160
I18
aVcCEN_Northeast
p2161
aVcNDC_Southeast
p2162
aV"!"
p2163
aa(lp2164
I18
aVcCEN_Northeast
p2165
aVcNDC_Midwest
p2166
aV"!"
p2167
aa(lp2168
I18
aVcCEN_Northeast
p2169
aVcNDC_Southwest
p2170
aV"!"
p2171
aa(lp2172
I18
aVcCEN_Midwest
p2173
aVcNDC_Northeast
p2174
aV"!"
p2175
aa(lp2176
I18
aVcCEN_Midwest
p2177
aVcNDC_West
p2178
aV"!"
p2179
aa(lp2180
I18
aVcCEN_Midwest
p2181
aVcNDC_Southeast
p2182
aV"!"
p2183
aa(lp2184
I18
aVcCEN_Midwest
p2185
aVcNDC_Southwest
p2186
aV"!"
p2187
aa(lp2188
I18
aVcCEN_South
p2189
aVcNDC_West
p2190
aV"!"
p2191
aa(lp2192
I18
aVcCEN_South
p2193
aVcNDC_Midwest
p2194
aV"!"
p2195
aa(lp2196
I18
aVcCEN_Northeast
p2197
aVcNDC_Northeast
p2198
aV"<"
p2199
aa(lp2200
I18
aVcCEN_South
p2201
aVcNDC_USA
p2202
aV"<"
p2203
aa(lp2204
I18
aVcCEN_USA
p2205
aVcNDC_Southwest
p2206
aV">"
p2207
aa(lp2208
I18
aVcCEN_West
p2209
aVcNDC_West
p2210
aV">"
p2211
aa(lp2212
I18
aVcCEN_USA
p2213
aVcNDC_Northeast
p2214
aV"><"
p2215
aa(lp2216
I18
aVcCEN_USA
p2217
aVcNDC_USA
p2218
aV"><"
p2219
aa(lp2220
I18
aVcCEN_West
p2221
aVcNDC_USA
p2222
aV"><"
p2223
aa(lp2224
I18
aVcCEN_West
p2225
aVcNDC_Southwest
p2226
aV"><"
p2227
aa(lp2228
I18
aVcCEN_South
p2229
aVcNDC_Southwest
p2230
aV"><"
p2231
aa(lp2232
I18
aVcCEN_South
p2233
aVcNDC_Northeast
p2234
aV"!"
p2235
aaasba(ihelper
PossibleWorld
p2236
(dp2237
g3
I19
sg4
I0
sg5
(lp2238
(lp2239
(lp2240
I19
aVcCEN_Northeast
p2241
aVcNDC_USA
p2242
aV"<"
p2243
aa(lp2244
I19
aVcCEN_Midwest
p2245
aVcNDC_USA
p2246
aV"<"
p2247
aa(lp2248
I19
aVcCEN_Midwest
p2249
aVcNDC_Midwest
p2250
aV"="
p2251
aa(lp2252
I19
aVcCEN_USA
p2253
aVcNDC_West
p2254
aV">"
p2255
aa(lp2256
I19
aVcCEN_USA
p2257
aVcNDC_Southeast
p2258
aV">"
p2259
aa(lp2260
I19
aVcCEN_USA
p2261
aVcNDC_Midwest
p2262
aV">"
p2263
aa(lp2264
I19
aVcCEN_South
p2265
aVcNDC_Southeast
p2266
aV">"
p2267
aa(lp2268
I19
aVcCEN_West
p2269
aVcNDC_Northeast
p2270
aV"!"
p2271
aa(lp2272
I19
aVcCEN_West
p2273
aVcNDC_Southeast
p2274
aV"!"
p2275
aa(lp2276
I19
aVcCEN_West
p2277
aVcNDC_Midwest
p2278
aV"!"
p2279
aa(lp2280
I19
aVcCEN_Northeast
p2281
aVcNDC_West
p2282
aV"!"
p2283
aa(lp2284
I19
aVcCEN_Northeast
p2285
aVcNDC_Southeast
p2286
aV"!"
p2287
aa(lp2288
I19
aVcCEN_Northeast
p2289
aVcNDC_Midwest
p2290
aV"!"
p2291
aa(lp2292
I19
aVcCEN_Northeast
p2293
aVcNDC_Southwest
p2294
aV"!"
p2295
aa(lp2296
I19
aVcCEN_Midwest
p2297
aVcNDC_Northeast
p2298
aV"!"
p2299
aa(lp2300
I19
aVcCEN_Midwest
p2301
aVcNDC_West
p2302
aV"!"
p2303
aa(lp2304
I19
aVcCEN_Midwest
p2305
aVcNDC_Southeast
p2306
aV"!"
p2307
aa(lp2308
I19
aVcCEN_Midwest
p2309
aVcNDC_Southwest
p2310
aV"!"
p2311
aa(lp2312
I19
aVcCEN_South
p2313
aVcNDC_West
p2314
aV"!"
p2315
aa(lp2316
I19
aVcCEN_South
p2317
aVcNDC_Midwest
p2318
aV"!"
p2319
aa(lp2320
I19
aVcCEN_Northeast
p2321
aVcNDC_Northeast
p2322
aV"<"
p2323
aa(lp2324
I19
aVcCEN_USA
p2325
aVcNDC_Southwest
p2326
aV">"
p2327
aa(lp2328
I19
aVcCEN_West
p2329
aVcNDC_West
p2330
aV">"
p2331
aa(lp2332
I19
aVcCEN_USA
p2333
aVcNDC_Northeast
p2334
aV"><"
p2335
aa(lp2336
I19
aVcCEN_USA
p2337
aVcNDC_USA
p2338
aV"><"
p2339
aa(lp2340
I19
aVcCEN_West
p2341
aVcNDC_USA
p2342
aV"><"
p2343
aa(lp2344
I19
aVcCEN_West
p2345
aVcNDC_Southwest
p2346
aV"><"
p2347
aa(lp2348
I19
aVcCEN_South
p2349
aVcNDC_USA
p2350
aV"><"
p2351
aa(lp2352
I19
aVcCEN_South
p2353
aVcNDC_Southwest
p2354
aV"><"
p2355
aa(lp2356
I19
aVcCEN_South
p2357
aVcNDC_Northeast
p2358
aV"!"
p2359
aaasba(ihelper
PossibleWorld
p2360
(dp2361
g3
I20
sg4
I0
sg5
(lp2362
(lp2363
(lp2364
I20
aVcCEN_Northeast
p2365
aVcNDC_USA
p2366
aV"<"
p2367
aa(lp2368
I20
aVcCEN_Midwest
p2369
aVcNDC_USA
p2370
aV"<"
p2371
aa(lp2372
I20
aVcCEN_Midwest
p2373
aVcNDC_Midwest
p2374
aV"="
p2375
aa(lp2376
I20
aVcCEN_USA
p2377
aVcNDC_West
p2378
aV">"
p2379
aa(lp2380
I20
aVcCEN_USA
p2381
aVcNDC_Southeast
p2382
aV">"
p2383
aa(lp2384
I20
aVcCEN_USA
p2385
aVcNDC_Midwest
p2386
aV">"
p2387
aa(lp2388
I20
aVcCEN_South
p2389
aVcNDC_Southeast
p2390
aV">"
p2391
aa(lp2392
I20
aVcCEN_West
p2393
aVcNDC_Northeast
p2394
aV"!"
p2395
aa(lp2396
I20
aVcCEN_West
p2397
aVcNDC_Southeast
p2398
aV"!"
p2399
aa(lp2400
I20
aVcCEN_West
p2401
aVcNDC_Midwest
p2402
aV"!"
p2403
aa(lp2404
I20
aVcCEN_Northeast
p2405
aVcNDC_West
p2406
aV"!"
p2407
aa(lp2408
I20
aVcCEN_Northeast
p2409
aVcNDC_Southeast
p2410
aV"!"
p2411
aa(lp2412
I20
aVcCEN_Northeast
p2413
aVcNDC_Midwest
p2414
aV"!"
p2415
aa(lp2416
I20
aVcCEN_Northeast
p2417
aVcNDC_Southwest
p2418
aV"!"
p2419
aa(lp2420
I20
aVcCEN_Midwest
p2421
aVcNDC_Northeast
p2422
aV"!"
p2423
aa(lp2424
I20
aVcCEN_Midwest
p2425
aVcNDC_West
p2426
aV"!"
p2427
aa(lp2428
I20
aVcCEN_Midwest
p2429
aVcNDC_Southeast
p2430
aV"!"
p2431
aa(lp2432
I20
aVcCEN_Midwest
p2433
aVcNDC_Southwest
p2434
aV"!"
p2435
aa(lp2436
I20
aVcCEN_South
p2437
aVcNDC_West
p2438
aV"!"
p2439
aa(lp2440
I20
aVcCEN_South
p2441
aVcNDC_Midwest
p2442
aV"!"
p2443
aa(lp2444
I20
aVcCEN_Northeast
p2445
aVcNDC_Northeast
p2446
aV"<"
p2447
aa(lp2448
I20
aVcCEN_South
p2449
aVcNDC_USA
p2450
aV"<"
p2451
aa(lp2452
I20
aVcCEN_USA
p2453
aVcNDC_Southwest
p2454
aV">"
p2455
aa(lp2456
I20
aVcCEN_West
p2457
aVcNDC_West
p2458
aV">"
p2459
aa(lp2460
I20
aVcCEN_USA
p2461
aVcNDC_Northeast
p2462
aV"><"
p2463
aa(lp2464
I20
aVcCEN_USA
p2465
aVcNDC_USA
p2466
aV"><"
p2467
aa(lp2468
I20
aVcCEN_West
p2469
aVcNDC_USA
p2470
aV"><"
p2471
aa(lp2472
I20
aVcCEN_West
p2473
aVcNDC_Southwest
p2474
aV"><"
p2475
aa(lp2476
I20
aVcCEN_South
p2477
aVcNDC_Northeast
p2478
aV"><"
p2479
aa(lp2480
I20
aVcCEN_South
p2481
aVcNDC_Southwest
p2482
aV"><"
p2483
aaasba(ihelper
PossibleWorld
p2484
(dp2485
g3
I21
sg4
I0
sg5
(lp2486
(lp2487
(lp2488
I21
aVcCEN_Northeast
p2489
aVcNDC_USA
p2490
aV"<"
p2491
aa(lp2492
I21
aVcCEN_Midwest
p2493
aVcNDC_USA
p2494
aV"<"
p2495
aa(lp2496
I21
aVcCEN_Midwest
p2497
aVcNDC_Midwest
p2498
aV"="
p2499
aa(lp2500
I21
aVcCEN_USA
p2501
aVcNDC_West
p2502
aV">"
p2503
aa(lp2504
I21
aVcCEN_USA
p2505
aVcNDC_Southeast
p2506
aV">"
p2507
aa(lp2508
I21
aVcCEN_USA
p2509
aVcNDC_Midwest
p2510
aV">"
p2511
aa(lp2512
I21
aVcCEN_South
p2513
aVcNDC_Southeast
p2514
aV">"
p2515
aa(lp2516
I21
aVcCEN_West
p2517
aVcNDC_Northeast
p2518
aV"!"
p2519
aa(lp2520
I21
aVcCEN_West
p2521
aVcNDC_Southeast
p2522
aV"!"
p2523
aa(lp2524
I21
aVcCEN_West
p2525
aVcNDC_Midwest
p2526
aV"!"
p2527
aa(lp2528
I21
aVcCEN_Northeast
p2529
aVcNDC_West
p2530
aV"!"
p2531
aa(lp2532
I21
aVcCEN_Northeast
p2533
aVcNDC_Southeast
p2534
aV"!"
p2535
aa(lp2536
I21
aVcCEN_Northeast
p2537
aVcNDC_Midwest
p2538
aV"!"
p2539
aa(lp2540
I21
aVcCEN_Northeast
p2541
aVcNDC_Southwest
p2542
aV"!"
p2543
aa(lp2544
I21
aVcCEN_Midwest
p2545
aVcNDC_Northeast
p2546
aV"!"
p2547
aa(lp2548
I21
aVcCEN_Midwest
p2549
aVcNDC_West
p2550
aV"!"
p2551
aa(lp2552
I21
aVcCEN_Midwest
p2553
aVcNDC_Southeast
p2554
aV"!"
p2555
aa(lp2556
I21
aVcCEN_Midwest
p2557
aVcNDC_Southwest
p2558
aV"!"
p2559
aa(lp2560
I21
aVcCEN_South
p2561
aVcNDC_West
p2562
aV"!"
p2563
aa(lp2564
I21
aVcCEN_South
p2565
aVcNDC_Midwest
p2566
aV"!"
p2567
aa(lp2568
I21
aVcCEN_Northeast
p2569
aVcNDC_Northeast
p2570
aV"<"
p2571
aa(lp2572
I21
aVcCEN_USA
p2573
aVcNDC_Southwest
p2574
aV">"
p2575
aa(lp2576
I21
aVcCEN_West
p2577
aVcNDC_West
p2578
aV">"
p2579
aa(lp2580
I21
aVcCEN_USA
p2581
aVcNDC_Northeast
p2582
aV"><"
p2583
aa(lp2584
I21
aVcCEN_USA
p2585
aVcNDC_USA
p2586
aV"><"
p2587
aa(lp2588
I21
aVcCEN_West
p2589
aVcNDC_USA
p2590
aV"><"
p2591
aa(lp2592
I21
aVcCEN_West
p2593
aVcNDC_Southwest
p2594
aV"><"
p2595
aa(lp2596
I21
aVcCEN_South
p2597
aVcNDC_Northeast
p2598
aV"><"
p2599
aa(lp2600
I21
aVcCEN_South
p2601
aVcNDC_USA
p2602
aV"><"
p2603
aa(lp2604
I21
aVcCEN_South
p2605
aVcNDC_Southwest
p2606
aV"><"
p2607
aaasba(ihelper
PossibleWorld
p2608
(dp2609
g3
I22
sg4
I0
sg5
(lp2610
(lp2611
(lp2612
I22
aVcCEN_Northeast
p2613
aVcNDC_USA
p2614
aV"<"
p2615
aa(lp2616
I22
aVcCEN_Midwest
p2617
aVcNDC_USA
p2618
aV"<"
p2619
aa(lp2620
I22
aVcCEN_Midwest
p2621
aVcNDC_Midwest
p2622
aV"="
p2623
aa(lp2624
I22
aVcCEN_USA
p2625
aVcNDC_West
p2626
aV">"
p2627
aa(lp2628
I22
aVcCEN_USA
p2629
aVcNDC_Southeast
p2630
aV">"
p2631
aa(lp2632
I22
aVcCEN_USA
p2633
aVcNDC_Midwest
p2634
aV">"
p2635
aa(lp2636
I22
aVcCEN_South
p2637
aVcNDC_Southeast
p2638
aV">"
p2639
aa(lp2640
I22
aVcCEN_West
p2641
aVcNDC_Northeast
p2642
aV"!"
p2643
aa(lp2644
I22
aVcCEN_West
p2645
aVcNDC_Southeast
p2646
aV"!"
p2647
aa(lp2648
I22
aVcCEN_West
p2649
aVcNDC_Midwest
p2650
aV"!"
p2651
aa(lp2652
I22
aVcCEN_Northeast
p2653
aVcNDC_West
p2654
aV"!"
p2655
aa(lp2656
I22
aVcCEN_Northeast
p2657
aVcNDC_Southeast
p2658
aV"!"
p2659
aa(lp2660
I22
aVcCEN_Northeast
p2661
aVcNDC_Midwest
p2662
aV"!"
p2663
aa(lp2664
I22
aVcCEN_Northeast
p2665
aVcNDC_Southwest
p2666
aV"!"
p2667
aa(lp2668
I22
aVcCEN_Midwest
p2669
aVcNDC_Northeast
p2670
aV"!"
p2671
aa(lp2672
I22
aVcCEN_Midwest
p2673
aVcNDC_West
p2674
aV"!"
p2675
aa(lp2676
I22
aVcCEN_Midwest
p2677
aVcNDC_Southeast
p2678
aV"!"
p2679
aa(lp2680
I22
aVcCEN_Midwest
p2681
aVcNDC_Southwest
p2682
aV"!"
p2683
aa(lp2684
I22
aVcCEN_South
p2685
aVcNDC_West
p2686
aV"!"
p2687
aa(lp2688
I22
aVcCEN_South
p2689
aVcNDC_Midwest
p2690
aV"!"
p2691
aa(lp2692
I22
aVcCEN_West
p2693
aVcNDC_USA
p2694
aV"<"
p2695
aa(lp2696
I22
aVcCEN_Northeast
p2697
aVcNDC_Northeast
p2698
aV"<"
p2699
aa(lp2700
I22
aVcCEN_USA
p2701
aVcNDC_Northeast
p2702
aV">"
p2703
aa(lp2704
I22
aVcCEN_West
p2705
aVcNDC_West
p2706
aV">"
p2707
aa(lp2708
I22
aVcCEN_USA
p2709
aVcNDC_USA
p2710
aV"><"
p2711
aa(lp2712
I22
aVcCEN_USA
p2713
aVcNDC_Southwest
p2714
aV"><"
p2715
aa(lp2716
I22
aVcCEN_West
p2717
aVcNDC_Southwest
p2718
aV"><"
p2719
aa(lp2720
I22
aVcCEN_South
p2721
aVcNDC_Northeast
p2722
aV"><"
p2723
aa(lp2724
I22
aVcCEN_South
p2725
aVcNDC_USA
p2726
aV"><"
p2727
aa(lp2728
I22
aVcCEN_South
p2729
aVcNDC_Southwest
p2730
aV"><"
p2731
aaasba(ihelper
PossibleWorld
p2732
(dp2733
g3
I23
sg4
I0
sg5
(lp2734
(lp2735
(lp2736
I23
aVcCEN_Northeast
p2737
aVcNDC_USA
p2738
aV"<"
p2739
aa(lp2740
I23
aVcCEN_Midwest
p2741
aVcNDC_USA
p2742
aV"<"
p2743
aa(lp2744
I23
aVcCEN_Midwest
p2745
aVcNDC_Midwest
p2746
aV"="
p2747
aa(lp2748
I23
aVcCEN_USA
p2749
aVcNDC_West
p2750
aV">"
p2751
aa(lp2752
I23
aVcCEN_USA
p2753
aVcNDC_Southeast
p2754
aV">"
p2755
aa(lp2756
I23
aVcCEN_USA
p2757
aVcNDC_Midwest
p2758
aV">"
p2759
aa(lp2760
I23
aVcCEN_South
p2761
aVcNDC_Southeast
p2762
aV">"
p2763
aa(lp2764
I23
aVcCEN_West
p2765
aVcNDC_Northeast
p2766
aV"!"
p2767
aa(lp2768
I23
aVcCEN_West
p2769
aVcNDC_Southeast
p2770
aV"!"
p2771
aa(lp2772
I23
aVcCEN_West
p2773
aVcNDC_Midwest
p2774
aV"!"
p2775
aa(lp2776
I23
aVcCEN_Northeast
p2777
aVcNDC_West
p2778
aV"!"
p2779
aa(lp2780
I23
aVcCEN_Northeast
p2781
aVcNDC_Southeast
p2782
aV"!"
p2783
aa(lp2784
I23
aVcCEN_Northeast
p2785
aVcNDC_Midwest
p2786
aV"!"
p2787
aa(lp2788
I23
aVcCEN_Northeast
p2789
aVcNDC_Southwest
p2790
aV"!"
p2791
aa(lp2792
I23
aVcCEN_Midwest
p2793
aVcNDC_Northeast
p2794
aV"!"
p2795
aa(lp2796
I23
aVcCEN_Midwest
p2797
aVcNDC_West
p2798
aV"!"
p2799
aa(lp2800
I23
aVcCEN_Midwest
p2801
aVcNDC_Southeast
p2802
aV"!"
p2803
aa(lp2804
I23
aVcCEN_Midwest
p2805
aVcNDC_Southwest
p2806
aV"!"
p2807
aa(lp2808
I23
aVcCEN_South
p2809
aVcNDC_West
p2810
aV"!"
p2811
aa(lp2812
I23
aVcCEN_South
p2813
aVcNDC_Midwest
p2814
aV"!"
p2815
aa(lp2816
I23
aVcCEN_West
p2817
aVcNDC_USA
p2818
aV"<"
p2819
aa(lp2820
I23
aVcCEN_Northeast
p2821
aVcNDC_Northeast
p2822
aV"<"
p2823
aa(lp2824
I23
aVcCEN_West
p2825
aVcNDC_West
p2826
aV">"
p2827
aa(lp2828
I23
aVcCEN_USA
p2829
aVcNDC_Northeast
p2830
aV"><"
p2831
aa(lp2832
I23
aVcCEN_USA
p2833
aVcNDC_USA
p2834
aV"><"
p2835
aa(lp2836
I23
aVcCEN_USA
p2837
aVcNDC_Southwest
p2838
aV"><"
p2839
aa(lp2840
I23
aVcCEN_West
p2841
aVcNDC_Southwest
p2842
aV"><"
p2843
aa(lp2844
I23
aVcCEN_South
p2845
aVcNDC_USA
p2846
aV"><"
p2847
aa(lp2848
I23
aVcCEN_South
p2849
aVcNDC_Southwest
p2850
aV"><"
p2851
aa(lp2852
I23
aVcCEN_South
p2853
aVcNDC_Northeast
p2854
aV"!"
p2855
aaasba(ihelper
PossibleWorld
p2856
(dp2857
g3
I24
sg4
I0
sg5
(lp2858
(lp2859
(lp2860
I24
aVcCEN_Northeast
p2861
aVcNDC_USA
p2862
aV"<"
p2863
aa(lp2864
I24
aVcCEN_Midwest
p2865
aVcNDC_USA
p2866
aV"<"
p2867
aa(lp2868
I24
aVcCEN_Midwest
p2869
aVcNDC_Midwest
p2870
aV"="
p2871
aa(lp2872
I24
aVcCEN_USA
p2873
aVcNDC_West
p2874
aV">"
p2875
aa(lp2876
I24
aVcCEN_USA
p2877
aVcNDC_Southeast
p2878
aV">"
p2879
aa(lp2880
I24
aVcCEN_USA
p2881
aVcNDC_Midwest
p2882
aV">"
p2883
aa(lp2884
I24
aVcCEN_South
p2885
aVcNDC_Southeast
p2886
aV">"
p2887
aa(lp2888
I24
aVcCEN_West
p2889
aVcNDC_Northeast
p2890
aV"!"
p2891
aa(lp2892
I24
aVcCEN_West
p2893
aVcNDC_Southeast
p2894
aV"!"
p2895
aa(lp2896
I24
aVcCEN_West
p2897
aVcNDC_Midwest
p2898
aV"!"
p2899
aa(lp2900
I24
aVcCEN_Northeast
p2901
aVcNDC_West
p2902
aV"!"
p2903
aa(lp2904
I24
aVcCEN_Northeast
p2905
aVcNDC_Southeast
p2906
aV"!"
p2907
aa(lp2908
I24
aVcCEN_Northeast
p2909
aVcNDC_Midwest
p2910
aV"!"
p2911
aa(lp2912
I24
aVcCEN_Northeast
p2913
aVcNDC_Southwest
p2914
aV"!"
p2915
aa(lp2916
I24
aVcCEN_Midwest
p2917
aVcNDC_Northeast
p2918
aV"!"
p2919
aa(lp2920
I24
aVcCEN_Midwest
p2921
aVcNDC_West
p2922
aV"!"
p2923
aa(lp2924
I24
aVcCEN_Midwest
p2925
aVcNDC_Southeast
p2926
aV"!"
p2927
aa(lp2928
I24
aVcCEN_Midwest
p2929
aVcNDC_Southwest
p2930
aV"!"
p2931
aa(lp2932
I24
aVcCEN_South
p2933
aVcNDC_West
p2934
aV"!"
p2935
aa(lp2936
I24
aVcCEN_South
p2937
aVcNDC_Midwest
p2938
aV"!"
p2939
aa(lp2940
I24
aVcCEN_West
p2941
aVcNDC_USA
p2942
aV"<"
p2943
aa(lp2944
I24
aVcCEN_Northeast
p2945
aVcNDC_Northeast
p2946
aV"<"
p2947
aa(lp2948
I24
aVcCEN_West
p2949
aVcNDC_West
p2950
aV">"
p2951
aa(lp2952
I24
aVcCEN_USA
p2953
aVcNDC_Northeast
p2954
aV"><"
p2955
aa(lp2956
I24
aVcCEN_USA
p2957
aVcNDC_USA
p2958
aV"><"
p2959
aa(lp2960
I24
aVcCEN_USA
p2961
aVcNDC_Southwest
p2962
aV"><"
p2963
aa(lp2964
I24
aVcCEN_West
p2965
aVcNDC_Southwest
p2966
aV"><"
p2967
aa(lp2968
I24
aVcCEN_South
p2969
aVcNDC_Northeast
p2970
aV"><"
p2971
aa(lp2972
I24
aVcCEN_South
p2973
aVcNDC_USA
p2974
aV"><"
p2975
aa(lp2976
I24
aVcCEN_South
p2977
aVcNDC_Southwest
p2978
aV"><"
p2979
aaasba(ihelper
PossibleWorld
p2980
(dp2981
g3
I25
sg4
I0
sg5
(lp2982
(lp2983
(lp2984
I25
aVcCEN_Northeast
p2985
aVcNDC_USA
p2986
aV"<"
p2987
aa(lp2988
I25
aVcCEN_Midwest
p2989
aVcNDC_USA
p2990
aV"<"
p2991
aa(lp2992
I25
aVcCEN_Midwest
p2993
aVcNDC_Midwest
p2994
aV"="
p2995
aa(lp2996
I25
aVcCEN_USA
p2997
aVcNDC_West
p2998
aV">"
p2999
aa(lp3000
I25
aVcCEN_USA
p3001
aVcNDC_Southeast
p3002
aV">"
p3003
aa(lp3004
I25
aVcCEN_USA
p3005
aVcNDC_Midwest
p3006
aV">"
p3007
aa(lp3008
I25
aVcCEN_South
p3009
aVcNDC_Southeast
p3010
aV">"
p3011
aa(lp3012
I25
aVcCEN_West
p3013
aVcNDC_Northeast
p3014
aV"!"
p3015
aa(lp3016
I25
aVcCEN_West
p3017
aVcNDC_Southeast
p3018
aV"!"
p3019
aa(lp3020
I25
aVcCEN_West
p3021
aVcNDC_Midwest
p3022
aV"!"
p3023
aa(lp3024
I25
aVcCEN_Northeast
p3025
aVcNDC_West
p3026
aV"!"
p3027
aa(lp3028
I25
aVcCEN_Northeast
p3029
aVcNDC_Southeast
p3030
aV"!"
p3031
aa(lp3032
I25
aVcCEN_Northeast
p3033
aVcNDC_Midwest
p3034
aV"!"
p3035
aa(lp3036
I25
aVcCEN_Northeast
p3037
aVcNDC_Southwest
p3038
aV"!"
p3039
aa(lp3040
I25
aVcCEN_Midwest
p3041
aVcNDC_Northeast
p3042
aV"!"
p3043
aa(lp3044
I25
aVcCEN_Midwest
p3045
aVcNDC_West
p3046
aV"!"
p3047
aa(lp3048
I25
aVcCEN_Midwest
p3049
aVcNDC_Southeast
p3050
aV"!"
p3051
aa(lp3052
I25
aVcCEN_Midwest
p3053
aVcNDC_Southwest
p3054
aV"!"
p3055
aa(lp3056
I25
aVcCEN_South
p3057
aVcNDC_West
p3058
aV"!"
p3059
aa(lp3060
I25
aVcCEN_South
p3061
aVcNDC_Midwest
p3062
aV"!"
p3063
aa(lp3064
I25
aVcCEN_Northeast
p3065
aVcNDC_Northeast
p3066
aV"<"
p3067
aa(lp3068
I25
aVcCEN_South
p3069
aVcNDC_USA
p3070
aV"<"
p3071
aa(lp3072
I25
aVcCEN_USA
p3073
aVcNDC_Northeast
p3074
aV">"
p3075
aa(lp3076
I25
aVcCEN_West
p3077
aVcNDC_West
p3078
aV">"
p3079
aa(lp3080
I25
aVcCEN_USA
p3081
aVcNDC_USA
p3082
aV"><"
p3083
aa(lp3084
I25
aVcCEN_USA
p3085
aVcNDC_Southwest
p3086
aV"><"
p3087
aa(lp3088
I25
aVcCEN_West
p3089
aVcNDC_USA
p3090
aV"><"
p3091
aa(lp3092
I25
aVcCEN_West
p3093
aVcNDC_Southwest
p3094
aV"><"
p3095
aa(lp3096
I25
aVcCEN_South
p3097
aVcNDC_Northeast
p3098
aV"><"
p3099
aa(lp3100
I25
aVcCEN_South
p3101
aVcNDC_Southwest
p3102
aV"><"
p3103
aaasba(ihelper
PossibleWorld
p3104
(dp3105
g3
I26
sg4
I0
sg5
(lp3106
(lp3107
(lp3108
I26
aVcCEN_Northeast
p3109
aVcNDC_USA
p3110
aV"<"
p3111
aa(lp3112
I26
aVcCEN_Midwest
p3113
aVcNDC_USA
p3114
aV"<"
p3115
aa(lp3116
I26
aVcCEN_Midwest
p3117
aVcNDC_Midwest
p3118
aV"="
p3119
aa(lp3120
I26
aVcCEN_USA
p3121
aVcNDC_West
p3122
aV">"
p3123
aa(lp3124
I26
aVcCEN_USA
p3125
aVcNDC_Southeast
p3126
aV">"
p3127
aa(lp3128
I26
aVcCEN_USA
p3129
aVcNDC_Midwest
p3130
aV">"
p3131
aa(lp3132
I26
aVcCEN_South
p3133
aVcNDC_Southeast
p3134
aV">"
p3135
aa(lp3136
I26
aVcCEN_West
p3137
aVcNDC_Northeast
p3138
aV"!"
p3139
aa(lp3140
I26
aVcCEN_West
p3141
aVcNDC_Southeast
p3142
aV"!"
p3143
aa(lp3144
I26
aVcCEN_West
p3145
aVcNDC_Midwest
p3146
aV"!"
p3147
aa(lp3148
I26
aVcCEN_Northeast
p3149
aVcNDC_West
p3150
aV"!"
p3151
aa(lp3152
I26
aVcCEN_Northeast
p3153
aVcNDC_Southeast
p3154
aV"!"
p3155
aa(lp3156
I26
aVcCEN_Northeast
p3157
aVcNDC_Midwest
p3158
aV"!"
p3159
aa(lp3160
I26
aVcCEN_Northeast
p3161
aVcNDC_Southwest
p3162
aV"!"
p3163
aa(lp3164
I26
aVcCEN_Midwest
p3165
aVcNDC_Northeast
p3166
aV"!"
p3167
aa(lp3168
I26
aVcCEN_Midwest
p3169
aVcNDC_West
p3170
aV"!"
p3171
aa(lp3172
I26
aVcCEN_Midwest
p3173
aVcNDC_Southeast
p3174
aV"!"
p3175
aa(lp3176
I26
aVcCEN_Midwest
p3177
aVcNDC_Southwest
p3178
aV"!"
p3179
aa(lp3180
I26
aVcCEN_South
p3181
aVcNDC_West
p3182
aV"!"
p3183
aa(lp3184
I26
aVcCEN_South
p3185
aVcNDC_Midwest
p3186
aV"!"
p3187
aa(lp3188
I26
aVcCEN_Northeast
p3189
aVcNDC_Northeast
p3190
aV"<"
p3191
aa(lp3192
I26
aVcCEN_USA
p3193
aVcNDC_Northeast
p3194
aV">"
p3195
aa(lp3196
I26
aVcCEN_West
p3197
aVcNDC_West
p3198
aV">"
p3199
aa(lp3200
I26
aVcCEN_USA
p3201
aVcNDC_USA
p3202
aV"><"
p3203
aa(lp3204
I26
aVcCEN_USA
p3205
aVcNDC_Southwest
p3206
aV"><"
p3207
aa(lp3208
I26
aVcCEN_West
p3209
aVcNDC_USA
p3210
aV"><"
p3211
aa(lp3212
I26
aVcCEN_West
p3213
aVcNDC_Southwest
p3214
aV"><"
p3215
aa(lp3216
I26
aVcCEN_South
p3217
aVcNDC_Northeast
p3218
aV"><"
p3219
aa(lp3220
I26
aVcCEN_South
p3221
aVcNDC_USA
p3222
aV"><"
p3223
aa(lp3224
I26
aVcCEN_South
p3225
aVcNDC_Southwest
p3226
aV"><"
p3227
aaasba(ihelper
PossibleWorld
p3228
(dp3229
g3
I27
sg4
I0
sg5
(lp3230
(lp3231
(lp3232
I27
aVcCEN_Northeast
p3233
aVcNDC_USA
p3234
aV"<"
p3235
aa(lp3236
I27
aVcCEN_Midwest
p3237
aVcNDC_USA
p3238
aV"<"
p3239
aa(lp3240
I27
aVcCEN_Midwest
p3241
aVcNDC_Midwest
p3242
aV"="
p3243
aa(lp3244
I27
aVcCEN_USA
p3245
aVcNDC_West
p3246
aV">"
p3247
aa(lp3248
I27
aVcCEN_USA
p3249
aVcNDC_Southeast
p3250
aV">"
p3251
aa(lp3252
I27
aVcCEN_USA
p3253
aVcNDC_Midwest
p3254
aV">"
p3255
aa(lp3256
I27
aVcCEN_South
p3257
aVcNDC_Southeast
p3258
aV">"
p3259
aa(lp3260
I27
aVcCEN_West
p3261
aVcNDC_Northeast
p3262
aV"!"
p3263
aa(lp3264
I27
aVcCEN_West
p3265
aVcNDC_Southeast
p3266
aV"!"
p3267
aa(lp3268
I27
aVcCEN_West
p3269
aVcNDC_Midwest
p3270
aV"!"
p3271
aa(lp3272
I27
aVcCEN_Northeast
p3273
aVcNDC_West
p3274
aV"!"
p3275
aa(lp3276
I27
aVcCEN_Northeast
p3277
aVcNDC_Southeast
p3278
aV"!"
p3279
aa(lp3280
I27
aVcCEN_Northeast
p3281
aVcNDC_Midwest
p3282
aV"!"
p3283
aa(lp3284
I27
aVcCEN_Northeast
p3285
aVcNDC_Southwest
p3286
aV"!"
p3287
aa(lp3288
I27
aVcCEN_Midwest
p3289
aVcNDC_Northeast
p3290
aV"!"
p3291
aa(lp3292
I27
aVcCEN_Midwest
p3293
aVcNDC_West
p3294
aV"!"
p3295
aa(lp3296
I27
aVcCEN_Midwest
p3297
aVcNDC_Southeast
p3298
aV"!"
p3299
aa(lp3300
I27
aVcCEN_Midwest
p3301
aVcNDC_Southwest
p3302
aV"!"
p3303
aa(lp3304
I27
aVcCEN_South
p3305
aVcNDC_West
p3306
aV"!"
p3307
aa(lp3308
I27
aVcCEN_South
p3309
aVcNDC_Midwest
p3310
aV"!"
p3311
aa(lp3312
I27
aVcCEN_Northeast
p3313
aVcNDC_Northeast
p3314
aV"<"
p3315
aa(lp3316
I27
aVcCEN_South
p3317
aVcNDC_USA
p3318
aV"<"
p3319
aa(lp3320
I27
aVcCEN_West
p3321
aVcNDC_West
p3322
aV">"
p3323
aa(lp3324
I27
aVcCEN_USA
p3325
aVcNDC_Northeast
p3326
aV"><"
p3327
aa(lp3328
I27
aVcCEN_USA
p3329
aVcNDC_USA
p3330
aV"><"
p3331
aa(lp3332
I27
aVcCEN_USA
p3333
aVcNDC_Southwest
p3334
aV"><"
p3335
aa(lp3336
I27
aVcCEN_West
p3337
aVcNDC_USA
p3338
aV"><"
p3339
aa(lp3340
I27
aVcCEN_West
p3341
aVcNDC_Southwest
p3342
aV"><"
p3343
aa(lp3344
I27
aVcCEN_South
p3345
aVcNDC_Southwest
p3346
aV"><"
p3347
aa(lp3348
I27
aVcCEN_South
p3349
aVcNDC_Northeast
p3350
aV"!"
p3351
aaasba(ihelper
PossibleWorld
p3352
(dp3353
g3
I28
sg4
I0
sg5
(lp3354
(lp3355
(lp3356
I28
aVcCEN_Northeast
p3357
aVcNDC_USA
p3358
aV"<"
p3359
aa(lp3360
I28
aVcCEN_Midwest
p3361
aVcNDC_USA
p3362
aV"<"
p3363
aa(lp3364
I28
aVcCEN_Midwest
p3365
aVcNDC_Midwest
p3366
aV"="
p3367
aa(lp3368
I28
aVcCEN_USA
p3369
aVcNDC_West
p3370
aV">"
p3371
aa(lp3372
I28
aVcCEN_USA
p3373
aVcNDC_Southeast
p3374
aV">"
p3375
aa(lp3376
I28
aVcCEN_USA
p3377
aVcNDC_Midwest
p3378
aV">"
p3379
aa(lp3380
I28
aVcCEN_South
p3381
aVcNDC_Southeast
p3382
aV">"
p3383
aa(lp3384
I28
aVcCEN_West
p3385
aVcNDC_Northeast
p3386
aV"!"
p3387
aa(lp3388
I28
aVcCEN_West
p3389
aVcNDC_Southeast
p3390
aV"!"
p3391
aa(lp3392
I28
aVcCEN_West
p3393
aVcNDC_Midwest
p3394
aV"!"
p3395
aa(lp3396
I28
aVcCEN_Northeast
p3397
aVcNDC_West
p3398
aV"!"
p3399
aa(lp3400
I28
aVcCEN_Northeast
p3401
aVcNDC_Southeast
p3402
aV"!"
p3403
aa(lp3404
I28
aVcCEN_Northeast
p3405
aVcNDC_Midwest
p3406
aV"!"
p3407
aa(lp3408
I28
aVcCEN_Northeast
p3409
aVcNDC_Southwest
p3410
aV"!"
p3411
aa(lp3412
I28
aVcCEN_Midwest
p3413
aVcNDC_Northeast
p3414
aV"!"
p3415
aa(lp3416
I28
aVcCEN_Midwest
p3417
aVcNDC_West
p3418
aV"!"
p3419
aa(lp3420
I28
aVcCEN_Midwest
p3421
aVcNDC_Southeast
p3422
aV"!"
p3423
aa(lp3424
I28
aVcCEN_Midwest
p3425
aVcNDC_Southwest
p3426
aV"!"
p3427
aa(lp3428
I28
aVcCEN_South
p3429
aVcNDC_West
p3430
aV"!"
p3431
aa(lp3432
I28
aVcCEN_South
p3433
aVcNDC_Midwest
p3434
aV"!"
p3435
aa(lp3436
I28
aVcCEN_Northeast
p3437
aVcNDC_Northeast
p3438
aV"<"
p3439
aa(lp3440
I28
aVcCEN_West
p3441
aVcNDC_West
p3442
aV">"
p3443
aa(lp3444
I28
aVcCEN_USA
p3445
aVcNDC_Northeast
p3446
aV"><"
p3447
aa(lp3448
I28
aVcCEN_USA
p3449
aVcNDC_USA
p3450
aV"><"
p3451
aa(lp3452
I28
aVcCEN_USA
p3453
aVcNDC_Southwest
p3454
aV"><"
p3455
aa(lp3456
I28
aVcCEN_West
p3457
aVcNDC_USA
p3458
aV"><"
p3459
aa(lp3460
I28
aVcCEN_West
p3461
aVcNDC_Southwest
p3462
aV"><"
p3463
aa(lp3464
I28
aVcCEN_South
p3465
aVcNDC_USA
p3466
aV"><"
p3467
aa(lp3468
I28
aVcCEN_South
p3469
aVcNDC_Southwest
p3470
aV"><"
p3471
aa(lp3472
I28
aVcCEN_South
p3473
aVcNDC_Northeast
p3474
aV"!"
p3475
aaasba(ihelper
PossibleWorld
p3476
(dp3477
g3
I29
sg4
I0
sg5
(lp3478
(lp3479
(lp3480
I29
aVcCEN_Northeast
p3481
aVcNDC_USA
p3482
aV"<"
p3483
aa(lp3484
I29
aVcCEN_Midwest
p3485
aVcNDC_USA
p3486
aV"<"
p3487
aa(lp3488
I29
aVcCEN_Midwest
p3489
aVcNDC_Midwest
p3490
aV"="
p3491
aa(lp3492
I29
aVcCEN_USA
p3493
aVcNDC_West
p3494
aV">"
p3495
aa(lp3496
I29
aVcCEN_USA
p3497
aVcNDC_Southeast
p3498
aV">"
p3499
aa(lp3500
I29
aVcCEN_USA
p3501
aVcNDC_Midwest
p3502
aV">"
p3503
aa(lp3504
I29
aVcCEN_South
p3505
aVcNDC_Southeast
p3506
aV">"
p3507
aa(lp3508
I29
aVcCEN_West
p3509
aVcNDC_Northeast
p3510
aV"!"
p3511
aa(lp3512
I29
aVcCEN_West
p3513
aVcNDC_Southeast
p3514
aV"!"
p3515
aa(lp3516
I29
aVcCEN_West
p3517
aVcNDC_Midwest
p3518
aV"!"
p3519
aa(lp3520
I29
aVcCEN_Northeast
p3521
aVcNDC_West
p3522
aV"!"
p3523
aa(lp3524
I29
aVcCEN_Northeast
p3525
aVcNDC_Southeast
p3526
aV"!"
p3527
aa(lp3528
I29
aVcCEN_Northeast
p3529
aVcNDC_Midwest
p3530
aV"!"
p3531
aa(lp3532
I29
aVcCEN_Northeast
p3533
aVcNDC_Southwest
p3534
aV"!"
p3535
aa(lp3536
I29
aVcCEN_Midwest
p3537
aVcNDC_Northeast
p3538
aV"!"
p3539
aa(lp3540
I29
aVcCEN_Midwest
p3541
aVcNDC_West
p3542
aV"!"
p3543
aa(lp3544
I29
aVcCEN_Midwest
p3545
aVcNDC_Southeast
p3546
aV"!"
p3547
aa(lp3548
I29
aVcCEN_Midwest
p3549
aVcNDC_Southwest
p3550
aV"!"
p3551
aa(lp3552
I29
aVcCEN_South
p3553
aVcNDC_West
p3554
aV"!"
p3555
aa(lp3556
I29
aVcCEN_South
p3557
aVcNDC_Midwest
p3558
aV"!"
p3559
aa(lp3560
I29
aVcCEN_Northeast
p3561
aVcNDC_Northeast
p3562
aV"<"
p3563
aa(lp3564
I29
aVcCEN_South
p3565
aVcNDC_USA
p3566
aV"<"
p3567
aa(lp3568
I29
aVcCEN_West
p3569
aVcNDC_West
p3570
aV">"
p3571
aa(lp3572
I29
aVcCEN_USA
p3573
aVcNDC_Northeast
p3574
aV"><"
p3575
aa(lp3576
I29
aVcCEN_USA
p3577
aVcNDC_USA
p3578
aV"><"
p3579
aa(lp3580
I29
aVcCEN_USA
p3581
aVcNDC_Southwest
p3582
aV"><"
p3583
aa(lp3584
I29
aVcCEN_West
p3585
aVcNDC_USA
p3586
aV"><"
p3587
aa(lp3588
I29
aVcCEN_West
p3589
aVcNDC_Southwest
p3590
aV"><"
p3591
aa(lp3592
I29
aVcCEN_South
p3593
aVcNDC_Northeast
p3594
aV"><"
p3595
aa(lp3596
I29
aVcCEN_South
p3597
aVcNDC_Southwest
p3598
aV"><"
p3599
aaasba(ihelper
PossibleWorld
p3600
(dp3601
g3
I30
sg4
I0
sg5
(lp3602
(lp3603
(lp3604
I30
aVcCEN_Northeast
p3605
aVcNDC_USA
p3606
aV"<"
p3607
aa(lp3608
I30
aVcCEN_Midwest
p3609
aVcNDC_USA
p3610
aV"<"
p3611
aa(lp3612
I30
aVcCEN_Midwest
p3613
aVcNDC_Midwest
p3614
aV"="
p3615
aa(lp3616
I30
aVcCEN_USA
p3617
aVcNDC_West
p3618
aV">"
p3619
aa(lp3620
I30
aVcCEN_USA
p3621
aVcNDC_Southeast
p3622
aV">"
p3623
aa(lp3624
I30
aVcCEN_USA
p3625
aVcNDC_Midwest
p3626
aV">"
p3627
aa(lp3628
I30
aVcCEN_South
p3629
aVcNDC_Southeast
p3630
aV">"
p3631
aa(lp3632
I30
aVcCEN_West
p3633
aVcNDC_Northeast
p3634
aV"!"
p3635
aa(lp3636
I30
aVcCEN_West
p3637
aVcNDC_Southeast
p3638
aV"!"
p3639
aa(lp3640
I30
aVcCEN_West
p3641
aVcNDC_Midwest
p3642
aV"!"
p3643
aa(lp3644
I30
aVcCEN_Northeast
p3645
aVcNDC_West
p3646
aV"!"
p3647
aa(lp3648
I30
aVcCEN_Northeast
p3649
aVcNDC_Southeast
p3650
aV"!"
p3651
aa(lp3652
I30
aVcCEN_Northeast
p3653
aVcNDC_Midwest
p3654
aV"!"
p3655
aa(lp3656
I30
aVcCEN_Northeast
p3657
aVcNDC_Southwest
p3658
aV"!"
p3659
aa(lp3660
I30
aVcCEN_Midwest
p3661
aVcNDC_Northeast
p3662
aV"!"
p3663
aa(lp3664
I30
aVcCEN_Midwest
p3665
aVcNDC_West
p3666
aV"!"
p3667
aa(lp3668
I30
aVcCEN_Midwest
p3669
aVcNDC_Southeast
p3670
aV"!"
p3671
aa(lp3672
I30
aVcCEN_Midwest
p3673
aVcNDC_Southwest
p3674
aV"!"
p3675
aa(lp3676
I30
aVcCEN_South
p3677
aVcNDC_West
p3678
aV"!"
p3679
aa(lp3680
I30
aVcCEN_South
p3681
aVcNDC_Midwest
p3682
aV"!"
p3683
aa(lp3684
I30
aVcCEN_Northeast
p3685
aVcNDC_Northeast
p3686
aV"<"
p3687
aa(lp3688
I30
aVcCEN_West
p3689
aVcNDC_West
p3690
aV">"
p3691
aa(lp3692
I30
aVcCEN_USA
p3693
aVcNDC_Northeast
p3694
aV"><"
p3695
aa(lp3696
I30
aVcCEN_USA
p3697
aVcNDC_USA
p3698
aV"><"
p3699
aa(lp3700
I30
aVcCEN_USA
p3701
aVcNDC_Southwest
p3702
aV"><"
p3703
aa(lp3704
I30
aVcCEN_West
p3705
aVcNDC_USA
p3706
aV"><"
p3707
aa(lp3708
I30
aVcCEN_West
p3709
aVcNDC_Southwest
p3710
aV"><"
p3711
aa(lp3712
I30
aVcCEN_South
p3713
aVcNDC_Northeast
p3714
aV"><"
p3715
aa(lp3716
I30
aVcCEN_South
p3717
aVcNDC_USA
p3718
aV"><"
p3719
aa(lp3720
I30
aVcCEN_South
p3721
aVcNDC_Southwest
p3722
aV"><"
p3723
aaasba.