(lp0
(ihelper
PossibleWorld
p1
(dp2
S'pw_id'
p3
I1
sS'pw_soln'
p4
I0
sS'rls'
p5
(lp6
(lp7
(lp8
I1
aV"1_b"
p9
aV"2_b"
p10
aa(lp11
I1
aV"1_d"
p12
aV"2_d"
p13
aa(lp14
I1
aV"2_d"
p15
aV"1_d"
p16
aa(lp17
I1
aV"2_b"
p18
aV"1_b"
p19
aa(lp20
I1
aV"2_a"
p21
aV"2_a"
p22
aa(lp23
I1
aV"1_a"
p24
aV"1_a"
p25
aa(lp26
I1
aV"2_g"
p27
aV"2_g"
p28
aa(lp29
I1
aV"2_f"
p30
aV"2_f"
p31
aa(lp32
I1
aV"2_d"
p33
aV"2_d"
p34
aa(lp35
I1
aV"2_b"
p36
aV"2_b"
p37
aa(lp38
I1
aV"1_e"
p39
aV"1_e"
p40
aa(lp41
I1
aV"1_d"
p42
aV"1_d"
p43
aa(lp44
I1
aV"1_c"
p45
aV"1_c"
p46
aa(lp47
I1
aV"1_b"
p48
aV"1_b"
p49
aa(lp50
I1
aV"1_a"
p51
aV"2_a"
p52
aa(lp53
I1
aV"1_e"
p54
aV"2_g"
p55
aa(lp56
I1
aV"2_g"
p57
aV"1_e"
p58
aa(lp59
I1
aV"2_a"
p60
aV"1_a"
p61
aaa(lp62
(lp63
I1
aV"1_c"
p64
aV"1_b"
p65
aa(lp66
I1
aV"1_d"
p67
aV"1_b"
p68
aa(lp69
I1
aV"1_e"
p70
aV"1_b"
p71
aa(lp72
I1
aV"1_b"
p73
aV"1_c"
p74
aa(lp75
I1
aV"1_d"
p76
aV"1_c"
p77
aa(lp78
I1
aV"1_e"
p79
aV"1_c"
p80
aa(lp81
I1
aV"1_b"
p82
aV"1_d"
p83
aa(lp84
I1
aV"1_c"
p85
aV"1_d"
p86
aa(lp87
I1
aV"1_e"
p88
aV"1_d"
p89
aa(lp90
I1
aV"1_b"
p91
aV"1_e"
p92
aa(lp93
I1
aV"1_c"
p94
aV"1_e"
p95
aa(lp96
I1
aV"1_d"
p97
aV"1_e"
p98
aa(lp99
I1
aV"2_d"
p100
aV"2_b"
p101
aa(lp102
I1
aV"2_f"
p103
aV"2_b"
p104
aa(lp105
I1
aV"2_g"
p106
aV"2_b"
p107
aa(lp108
I1
aV"2_b"
p109
aV"2_d"
p110
aa(lp111
I1
aV"2_f"
p112
aV"2_d"
p113
aa(lp114
I1
aV"2_g"
p115
aV"2_d"
p116
aa(lp117
I1
aV"2_b"
p118
aV"2_f"
p119
aa(lp120
I1
aV"2_d"
p121
aV"2_f"
p122
aa(lp123
I1
aV"2_g"
p124
aV"2_f"
p125
aa(lp126
I1
aV"2_b"
p127
aV"2_g"
p128
aa(lp129
I1
aV"2_d"
p130
aV"2_g"
p131
aa(lp132
I1
aV"2_f"
p133
aV"2_g"
p134
aa(lp135
I1
aV"1_c"
p136
aV"2_d"
p137
aa(lp138
I1
aV"1_c"
p139
aV"2_b"
p140
aa(lp141
I1
aV"1_b"
p142
aV"2_g"
p143
aa(lp144
I1
aV"1_d"
p145
aV"2_g"
p146
aa(lp147
I1
aV"1_b"
p148
aV"2_d"
p149
aa(lp150
I1
aV"1_e"
p151
aV"2_d"
p152
aa(lp153
I1
aV"1_d"
p154
aV"2_b"
p155
aa(lp156
I1
aV"1_e"
p157
aV"2_b"
p158
aa(lp159
I1
aV"1_d"
p160
aV"2_f"
p161
aa(lp162
I1
aV"1_b"
p163
aV"2_f"
p164
aa(lp165
I1
aV"2_f"
p166
aV"1_b"
p167
aa(lp168
I1
aV"2_f"
p169
aV"1_d"
p170
aa(lp171
I1
aV"2_b"
p172
aV"1_e"
p173
aa(lp174
I1
aV"2_b"
p175
aV"1_d"
p176
aa(lp177
I1
aV"2_d"
p178
aV"1_e"
p179
aa(lp180
I1
aV"2_d"
p181
aV"1_b"
p182
aa(lp183
I1
aV"2_g"
p184
aV"1_d"
p185
aa(lp186
I1
aV"2_g"
p187
aV"1_b"
p188
aa(lp189
I1
aV"2_b"
p190
aV"1_c"
p191
aa(lp192
I1
aV"2_d"
p193
aV"1_c"
p194
aa(lp195
I1
aV"1_c"
p196
aV"2_g"
p197
aa(lp198
I1
aV"1_e"
p199
aV"2_f"
p200
aa(lp201
I1
aV"2_f"
p202
aV"1_e"
p203
aa(lp204
I1
aV"2_g"
p205
aV"1_c"
p206
aaa(lp207
(lp208
I1
aV"1_b"
p209
aV"1_a"
p210
aa(lp211
I1
aV"1_c"
p212
aV"1_a"
p213
aa(lp214
I1
aV"1_d"
p215
aV"1_a"
p216
aa(lp217
I1
aV"1_e"
p218
aV"1_a"
p219
aa(lp220
I1
aV"2_b"
p221
aV"2_a"
p222
aa(lp223
I1
aV"2_d"
p224
aV"2_a"
p225
aa(lp226
I1
aV"2_f"
p227
aV"2_a"
p228
aa(lp229
I1
aV"2_g"
p230
aV"2_a"
p231
aa(lp232
I1
aV"1_b"
p233
aV"2_a"
p234
aa(lp235
I1
aV"1_d"
p236
aV"2_a"
p237
aa(lp238
I1
aV"2_d"
p239
aV"1_a"
p240
aa(lp241
I1
aV"2_b"
p242
aV"1_a"
p243
aa(lp244
I1
aV"1_c"
p245
aV"2_a"
p246
aa(lp247
I1
aV"1_e"
p248
aV"2_a"
p249
aa(lp250
I1
aV"1_c"
p251
aV"2_f"
p252
aa(lp253
I1
aV"2_f"
p254
aV"1_a"
p255
aa(lp256
I1
aV"2_g"
p257
aV"1_a"
p258
aaa(lp259
(lp260
I1
aV"2_a"
p261
aV"2_g"
p262
aa(lp263
I1
aV"2_a"
p264
aV"2_f"
p265
aa(lp266
I1
aV"2_a"
p267
aV"2_d"
p268
aa(lp269
I1
aV"2_a"
p270
aV"2_b"
p271
aa(lp272
I1
aV"1_a"
p273
aV"1_e"
p274
aa(lp275
I1
aV"1_a"
p276
aV"1_d"
p277
aa(lp278
I1
aV"1_a"
p279
aV"1_c"
p280
aa(lp281
I1
aV"1_a"
p282
aV"1_b"
p283
aa(lp284
I1
aV"2_a"
p285
aV"1_d"
p286
aa(lp287
I1
aV"2_a"
p288
aV"1_b"
p289
aa(lp290
I1
aV"1_a"
p291
aV"2_b"
p292
aa(lp293
I1
aV"1_a"
p294
aV"2_d"
p295
aa(lp296
I1
aV"2_f"
p297
aV"1_c"
p298
aa(lp299
I1
aV"2_a"
p300
aV"1_e"
p301
aa(lp302
I1
aV"2_a"
p303
aV"1_c"
p304
aa(lp305
I1
aV"1_a"
p306
aV"2_g"
p307
aa(lp308
I1
aV"1_a"
p309
aV"2_f"
p310
aaa(lp311
(lp312
I1
aV"1_b"
p313
aa(lp314
I1
aV"1_c"
p315
aa(lp316
I1
aV"1_d"
p317
aa(lp318
I1
aV"1_e"
p319
aa(lp320
I1
aV"2_b"
p321
aa(lp322
I1
aV"2_d"
p323
aa(lp324
I1
aV"2_f"
p325
aa(lp326
I1
aV"2_g"
p327
aa(lp328
I1
aV"1_a"
p329
aa(lp330
I1
aV"2_a"
p331
aaa(lp332
(lp333
I1
aV"1_a"
p334
aV"1_b"
p335
aa(lp336
I1
aV"1_a"
p337
aV"1_c"
p338
aa(lp339
I1
aV"1_a"
p340
aV"1_d"
p341
aa(lp342
I1
aV"1_a"
p343
aV"1_e"
p344
aa(lp345
I1
aV"2_a"
p346
aV"2_b"
p347
aa(lp348
I1
aV"2_a"
p349
aV"2_d"
p350
aa(lp351
I1
aV"2_a"
p352
aV"2_f"
p353
aa(lp354
I1
aV"2_a"
p355
aV"2_g"
p356
aaasba(ihelper
PossibleWorld
p357
(dp358
g3
I2
sg4
I0
sg5
(lp359
(lp360
(lp361
I2
aV"1_b"
p362
aV"2_b"
p363
aa(lp364
I2
aV"1_d"
p365
aV"2_d"
p366
aa(lp367
I2
aV"2_d"
p368
aV"1_d"
p369
aa(lp370
I2
aV"2_b"
p371
aV"1_b"
p372
aa(lp373
I2
aV"2_a"
p374
aV"2_a"
p375
aa(lp376
I2
aV"1_a"
p377
aV"1_a"
p378
aa(lp379
I2
aV"2_g"
p380
aV"2_g"
p381
aa(lp382
I2
aV"2_f"
p383
aV"2_f"
p384
aa(lp385
I2
aV"2_d"
p386
aV"2_d"
p387
aa(lp388
I2
aV"2_b"
p389
aV"2_b"
p390
aa(lp391
I2
aV"1_e"
p392
aV"1_e"
p393
aa(lp394
I2
aV"1_d"
p395
aV"1_d"
p396
aa(lp397
I2
aV"1_c"
p398
aV"1_c"
p399
aa(lp400
I2
aV"1_b"
p401
aV"1_b"
p402
aa(lp403
I2
aV"1_e"
p404
aV"2_g"
p405
aa(lp406
I2
aV"2_g"
p407
aV"1_e"
p408
aaa(lp409
(lp410
I2
aV"1_c"
p411
aV"1_b"
p412
aa(lp413
I2
aV"1_d"
p414
aV"1_b"
p415
aa(lp416
I2
aV"1_e"
p417
aV"1_b"
p418
aa(lp419
I2
aV"1_b"
p420
aV"1_c"
p421
aa(lp422
I2
aV"1_d"
p423
aV"1_c"
p424
aa(lp425
I2
aV"1_e"
p426
aV"1_c"
p427
aa(lp428
I2
aV"1_b"
p429
aV"1_d"
p430
aa(lp431
I2
aV"1_c"
p432
aV"1_d"
p433
aa(lp434
I2
aV"1_e"
p435
aV"1_d"
p436
aa(lp437
I2
aV"1_b"
p438
aV"1_e"
p439
aa(lp440
I2
aV"1_c"
p441
aV"1_e"
p442
aa(lp443
I2
aV"1_d"
p444
aV"1_e"
p445
aa(lp446
I2
aV"2_d"
p447
aV"2_b"
p448
aa(lp449
I2
aV"2_f"
p450
aV"2_b"
p451
aa(lp452
I2
aV"2_g"
p453
aV"2_b"
p454
aa(lp455
I2
aV"2_b"
p456
aV"2_d"
p457
aa(lp458
I2
aV"2_f"
p459
aV"2_d"
p460
aa(lp461
I2
aV"2_g"
p462
aV"2_d"
p463
aa(lp464
I2
aV"2_b"
p465
aV"2_f"
p466
aa(lp467
I2
aV"2_d"
p468
aV"2_f"
p469
aa(lp470
I2
aV"2_g"
p471
aV"2_f"
p472
aa(lp473
I2
aV"2_b"
p474
aV"2_g"
p475
aa(lp476
I2
aV"2_d"
p477
aV"2_g"
p478
aa(lp479
I2
aV"2_f"
p480
aV"2_g"
p481
aa(lp482
I2
aV"1_c"
p483
aV"2_d"
p484
aa(lp485
I2
aV"1_c"
p486
aV"2_b"
p487
aa(lp488
I2
aV"1_b"
p489
aV"2_g"
p490
aa(lp491
I2
aV"1_d"
p492
aV"2_g"
p493
aa(lp494
I2
aV"1_b"
p495
aV"2_d"
p496
aa(lp497
I2
aV"1_e"
p498
aV"2_d"
p499
aa(lp500
I2
aV"1_d"
p501
aV"2_b"
p502
aa(lp503
I2
aV"1_e"
p504
aV"2_b"
p505
aa(lp506
I2
aV"1_d"
p507
aV"2_f"
p508
aa(lp509
I2
aV"1_b"
p510
aV"2_f"
p511
aa(lp512
I2
aV"2_f"
p513
aV"1_b"
p514
aa(lp515
I2
aV"2_f"
p516
aV"1_d"
p517
aa(lp518
I2
aV"2_b"
p519
aV"1_e"
p520
aa(lp521
I2
aV"2_b"
p522
aV"1_d"
p523
aa(lp524
I2
aV"2_d"
p525
aV"1_e"
p526
aa(lp527
I2
aV"2_d"
p528
aV"1_b"
p529
aa(lp530
I2
aV"2_g"
p531
aV"1_d"
p532
aa(lp533
I2
aV"2_g"
p534
aV"1_b"
p535
aa(lp536
I2
aV"2_b"
p537
aV"1_c"
p538
aa(lp539
I2
aV"2_d"
p540
aV"1_c"
p541
aa(lp542
I2
aV"1_c"
p543
aV"2_g"
p544
aa(lp545
I2
aV"1_e"
p546
aV"2_f"
p547
aa(lp548
I2
aV"2_f"
p549
aV"1_e"
p550
aa(lp551
I2
aV"2_g"
p552
aV"1_c"
p553
aaa(lp554
(lp555
I2
aV"1_b"
p556
aV"1_a"
p557
aa(lp558
I2
aV"1_c"
p559
aV"1_a"
p560
aa(lp561
I2
aV"1_d"
p562
aV"1_a"
p563
aa(lp564
I2
aV"1_e"
p565
aV"1_a"
p566
aa(lp567
I2
aV"2_b"
p568
aV"2_a"
p569
aa(lp570
I2
aV"2_d"
p571
aV"2_a"
p572
aa(lp573
I2
aV"2_f"
p574
aV"2_a"
p575
aa(lp576
I2
aV"2_g"
p577
aV"2_a"
p578
aa(lp579
I2
aV"1_b"
p580
aV"2_a"
p581
aa(lp582
I2
aV"1_d"
p583
aV"2_a"
p584
aa(lp585
I2
aV"2_d"
p586
aV"1_a"
p587
aa(lp588
I2
aV"2_b"
p589
aV"1_a"
p590
aa(lp591
I2
aV"1_a"
p592
aV"2_a"
p593
aa(lp594
I2
aV"1_c"
p595
aV"2_a"
p596
aa(lp597
I2
aV"1_e"
p598
aV"2_a"
p599
aa(lp600
I2
aV"1_c"
p601
aV"2_f"
p602
aa(lp603
I2
aV"2_f"
p604
aV"1_a"
p605
aa(lp606
I2
aV"2_g"
p607
aV"1_a"
p608
aaa(lp609
(lp610
I2
aV"2_a"
p611
aV"2_g"
p612
aa(lp613
I2
aV"2_a"
p614
aV"2_f"
p615
aa(lp616
I2
aV"2_a"
p617
aV"2_d"
p618
aa(lp619
I2
aV"2_a"
p620
aV"2_b"
p621
aa(lp622
I2
aV"1_a"
p623
aV"1_e"
p624
aa(lp625
I2
aV"1_a"
p626
aV"1_d"
p627
aa(lp628
I2
aV"1_a"
p629
aV"1_c"
p630
aa(lp631
I2
aV"1_a"
p632
aV"1_b"
p633
aa(lp634
I2
aV"2_a"
p635
aV"1_d"
p636
aa(lp637
I2
aV"2_a"
p638
aV"1_b"
p639
aa(lp640
I2
aV"1_a"
p641
aV"2_b"
p642
aa(lp643
I2
aV"1_a"
p644
aV"2_d"
p645
aa(lp646
I2
aV"2_f"
p647
aV"1_c"
p648
aa(lp649
I2
aV"2_a"
p650
aV"1_a"
p651
aa(lp652
I2
aV"2_a"
p653
aV"1_e"
p654
aa(lp655
I2
aV"2_a"
p656
aV"1_c"
p657
aa(lp658
I2
aV"1_a"
p659
aV"2_g"
p660
aa(lp661
I2
aV"1_a"
p662
aV"2_f"
p663
aaa(lp664
(lp665
I2
aV"1_b"
p666
aa(lp667
I2
aV"1_c"
p668
aa(lp669
I2
aV"1_d"
p670
aa(lp671
I2
aV"1_e"
p672
aa(lp673
I2
aV"2_b"
p674
aa(lp675
I2
aV"2_d"
p676
aa(lp677
I2
aV"2_f"
p678
aa(lp679
I2
aV"2_g"
p680
aa(lp681
I2
aV"1_a"
p682
aa(lp683
I2
aV"2_a"
p684
aaa(lp685
(lp686
I2
aV"1_a"
p687
aV"1_b"
p688
aa(lp689
I2
aV"1_a"
p690
aV"1_c"
p691
aa(lp692
I2
aV"1_a"
p693
aV"1_d"
p694
aa(lp695
I2
aV"1_a"
p696
aV"1_e"
p697
aa(lp698
I2
aV"2_a"
p699
aV"2_b"
p700
aa(lp701
I2
aV"2_a"
p702
aV"2_d"
p703
aa(lp704
I2
aV"2_a"
p705
aV"2_f"
p706
aa(lp707
I2
aV"2_a"
p708
aV"2_g"
p709
aaasba(ihelper
PossibleWorld
p710
(dp711
g3
I3
sg4
I0
sg5
(lp712
(lp713
(lp714
I3
aV"1_b"
p715
aV"2_b"
p716
aa(lp717
I3
aV"1_d"
p718
aV"2_d"
p719
aa(lp720
I3
aV"2_d"
p721
aV"1_d"
p722
aa(lp723
I3
aV"2_b"
p724
aV"1_b"
p725
aa(lp726
I3
aV"2_a"
p727
aV"2_a"
p728
aa(lp729
I3
aV"1_a"
p730
aV"1_a"
p731
aa(lp732
I3
aV"2_g"
p733
aV"2_g"
p734
aa(lp735
I3
aV"2_f"
p736
aV"2_f"
p737
aa(lp738
I3
aV"2_d"
p739
aV"2_d"
p740
aa(lp741
I3
aV"2_b"
p742
aV"2_b"
p743
aa(lp744
I3
aV"1_e"
p745
aV"1_e"
p746
aa(lp747
I3
aV"1_d"
p748
aV"1_d"
p749
aa(lp750
I3
aV"1_c"
p751
aV"1_c"
p752
aa(lp753
I3
aV"1_b"
p754
aV"1_b"
p755
aa(lp756
I3
aV"1_a"
p757
aV"2_a"
p758
aa(lp759
I3
aV"2_a"
p760
aV"1_a"
p761
aaa(lp762
(lp763
I3
aV"1_c"
p764
aV"1_b"
p765
aa(lp766
I3
aV"1_d"
p767
aV"1_b"
p768
aa(lp769
I3
aV"1_e"
p770
aV"1_b"
p771
aa(lp772
I3
aV"1_b"
p773
aV"1_c"
p774
aa(lp775
I3
aV"1_d"
p776
aV"1_c"
p777
aa(lp778
I3
aV"1_e"
p779
aV"1_c"
p780
aa(lp781
I3
aV"1_b"
p782
aV"1_d"
p783
aa(lp784
I3
aV"1_c"
p785
aV"1_d"
p786
aa(lp787
I3
aV"1_e"
p788
aV"1_d"
p789
aa(lp790
I3
aV"1_b"
p791
aV"1_e"
p792
aa(lp793
I3
aV"1_c"
p794
aV"1_e"
p795
aa(lp796
I3
aV"1_d"
p797
aV"1_e"
p798
aa(lp799
I3
aV"2_d"
p800
aV"2_b"
p801
aa(lp802
I3
aV"2_f"
p803
aV"2_b"
p804
aa(lp805
I3
aV"2_g"
p806
aV"2_b"
p807
aa(lp808
I3
aV"2_b"
p809
aV"2_d"
p810
aa(lp811
I3
aV"2_f"
p812
aV"2_d"
p813
aa(lp814
I3
aV"2_g"
p815
aV"2_d"
p816
aa(lp817
I3
aV"2_b"
p818
aV"2_f"
p819
aa(lp820
I3
aV"2_d"
p821
aV"2_f"
p822
aa(lp823
I3
aV"2_g"
p824
aV"2_f"
p825
aa(lp826
I3
aV"2_b"
p827
aV"2_g"
p828
aa(lp829
I3
aV"2_d"
p830
aV"2_g"
p831
aa(lp832
I3
aV"2_f"
p833
aV"2_g"
p834
aa(lp835
I3
aV"1_c"
p836
aV"2_d"
p837
aa(lp838
I3
aV"1_c"
p839
aV"2_b"
p840
aa(lp841
I3
aV"1_b"
p842
aV"2_g"
p843
aa(lp844
I3
aV"1_d"
p845
aV"2_g"
p846
aa(lp847
I3
aV"1_b"
p848
aV"2_d"
p849
aa(lp850
I3
aV"1_e"
p851
aV"2_d"
p852
aa(lp853
I3
aV"1_d"
p854
aV"2_b"
p855
aa(lp856
I3
aV"1_e"
p857
aV"2_b"
p858
aa(lp859
I3
aV"1_d"
p860
aV"2_f"
p861
aa(lp862
I3
aV"1_b"
p863
aV"2_f"
p864
aa(lp865
I3
aV"2_f"
p866
aV"1_b"
p867
aa(lp868
I3
aV"2_f"
p869
aV"1_d"
p870
aa(lp871
I3
aV"2_b"
p872
aV"1_e"
p873
aa(lp874
I3
aV"2_b"
p875
aV"1_d"
p876
aa(lp877
I3
aV"2_d"
p878
aV"1_e"
p879
aa(lp880
I3
aV"2_d"
p881
aV"1_b"
p882
aa(lp883
I3
aV"2_g"
p884
aV"1_d"
p885
aa(lp886
I3
aV"2_g"
p887
aV"1_b"
p888
aa(lp889
I3
aV"2_b"
p890
aV"1_c"
p891
aa(lp892
I3
aV"2_d"
p893
aV"1_c"
p894
aa(lp895
I3
aV"1_c"
p896
aV"2_g"
p897
aa(lp898
I3
aV"1_e"
p899
aV"2_f"
p900
aa(lp901
I3
aV"2_f"
p902
aV"1_e"
p903
aa(lp904
I3
aV"2_g"
p905
aV"1_c"
p906
aaa(lp907
(lp908
I3
aV"1_b"
p909
aV"1_a"
p910
aa(lp911
I3
aV"1_c"
p912
aV"1_a"
p913
aa(lp914
I3
aV"1_d"
p915
aV"1_a"
p916
aa(lp917
I3
aV"1_e"
p918
aV"1_a"
p919
aa(lp920
I3
aV"2_b"
p921
aV"2_a"
p922
aa(lp923
I3
aV"2_d"
p924
aV"2_a"
p925
aa(lp926
I3
aV"2_f"
p927
aV"2_a"
p928
aa(lp929
I3
aV"2_g"
p930
aV"2_a"
p931
aa(lp932
I3
aV"1_b"
p933
aV"2_a"
p934
aa(lp935
I3
aV"1_d"
p936
aV"2_a"
p937
aa(lp938
I3
aV"2_d"
p939
aV"1_a"
p940
aa(lp941
I3
aV"2_b"
p942
aV"1_a"
p943
aa(lp944
I3
aV"1_c"
p945
aV"2_a"
p946
aa(lp947
I3
aV"1_e"
p948
aV"2_a"
p949
aa(lp950
I3
aV"1_c"
p951
aV"2_f"
p952
aa(lp953
I3
aV"2_f"
p954
aV"1_a"
p955
aa(lp956
I3
aV"2_g"
p957
aV"1_a"
p958
aaa(lp959
(lp960
I3
aV"2_a"
p961
aV"2_g"
p962
aa(lp963
I3
aV"2_a"
p964
aV"2_f"
p965
aa(lp966
I3
aV"2_a"
p967
aV"2_d"
p968
aa(lp969
I3
aV"2_a"
p970
aV"2_b"
p971
aa(lp972
I3
aV"1_a"
p973
aV"1_e"
p974
aa(lp975
I3
aV"1_a"
p976
aV"1_d"
p977
aa(lp978
I3
aV"1_a"
p979
aV"1_c"
p980
aa(lp981
I3
aV"1_a"
p982
aV"1_b"
p983
aa(lp984
I3
aV"2_a"
p985
aV"1_d"
p986
aa(lp987
I3
aV"2_a"
p988
aV"1_b"
p989
aa(lp990
I3
aV"1_a"
p991
aV"2_b"
p992
aa(lp993
I3
aV"1_a"
p994
aV"2_d"
p995
aa(lp996
I3
aV"2_f"
p997
aV"1_c"
p998
aa(lp999
I3
aV"2_a"
p1000
aV"1_e"
p1001
aa(lp1002
I3
aV"2_a"
p1003
aV"1_c"
p1004
aa(lp1005
I3
aV"1_a"
p1006
aV"2_g"
p1007
aa(lp1008
I3
aV"1_a"
p1009
aV"2_f"
p1010
aaa(lp1011
(lp1012
I3
aV"1_b"
p1013
aa(lp1014
I3
aV"1_c"
p1015
aa(lp1016
I3
aV"1_d"
p1017
aa(lp1018
I3
aV"1_e"
p1019
aa(lp1020
I3
aV"2_b"
p1021
aa(lp1022
I3
aV"2_d"
p1023
aa(lp1024
I3
aV"2_f"
p1025
aa(lp1026
I3
aV"2_g"
p1027
aa(lp1028
I3
aV"1_a"
p1029
aa(lp1030
I3
aV"2_a"
p1031
aaa(lp1032
(lp1033
I3
aV"1_a"
p1034
aV"1_b"
p1035
aa(lp1036
I3
aV"1_a"
p1037
aV"1_c"
p1038
aa(lp1039
I3
aV"1_a"
p1040
aV"1_d"
p1041
aa(lp1042
I3
aV"1_a"
p1043
aV"1_e"
p1044
aa(lp1045
I3
aV"2_a"
p1046
aV"2_b"
p1047
aa(lp1048
I3
aV"2_a"
p1049
aV"2_d"
p1050
aa(lp1051
I3
aV"2_a"
p1052
aV"2_f"
p1053
aa(lp1054
I3
aV"2_a"
p1055
aV"2_g"
p1056
aaa(lp1057
(lp1058
I3
aV"2_g"
p1059
aV"1_e"
p1060
aa(lp1061
I3
aV"1_e"
p1062
aV"2_g"
p1063
aaasba(ihelper
PossibleWorld
p1064
(dp1065
g3
I4
sg4
I0
sg5
(lp1066
(lp1067
(lp1068
I4
aV"1_b"
p1069
aV"2_b"
p1070
aa(lp1071
I4
aV"1_d"
p1072
aV"2_d"
p1073
aa(lp1074
I4
aV"2_d"
p1075
aV"1_d"
p1076
aa(lp1077
I4
aV"2_b"
p1078
aV"1_b"
p1079
aa(lp1080
I4
aV"2_a"
p1081
aV"2_a"
p1082
aa(lp1083
I4
aV"1_a"
p1084
aV"1_a"
p1085
aa(lp1086
I4
aV"2_g"
p1087
aV"2_g"
p1088
aa(lp1089
I4
aV"2_f"
p1090
aV"2_f"
p1091
aa(lp1092
I4
aV"2_d"
p1093
aV"2_d"
p1094
aa(lp1095
I4
aV"2_b"
p1096
aV"2_b"
p1097
aa(lp1098
I4
aV"1_e"
p1099
aV"1_e"
p1100
aa(lp1101
I4
aV"1_d"
p1102
aV"1_d"
p1103
aa(lp1104
I4
aV"1_c"
p1105
aV"1_c"
p1106
aa(lp1107
I4
aV"1_b"
p1108
aV"1_b"
p1109
aaa(lp1110
(lp1111
I4
aV"1_c"
p1112
aV"1_b"
p1113
aa(lp1114
I4
aV"1_d"
p1115
aV"1_b"
p1116
aa(lp1117
I4
aV"1_e"
p1118
aV"1_b"
p1119
aa(lp1120
I4
aV"1_b"
p1121
aV"1_c"
p1122
aa(lp1123
I4
aV"1_d"
p1124
aV"1_c"
p1125
aa(lp1126
I4
aV"1_e"
p1127
aV"1_c"
p1128
aa(lp1129
I4
aV"1_b"
p1130
aV"1_d"
p1131
aa(lp1132
I4
aV"1_c"
p1133
aV"1_d"
p1134
aa(lp1135
I4
aV"1_e"
p1136
aV"1_d"
p1137
aa(lp1138
I4
aV"1_b"
p1139
aV"1_e"
p1140
aa(lp1141
I4
aV"1_c"
p1142
aV"1_e"
p1143
aa(lp1144
I4
aV"1_d"
p1145
aV"1_e"
p1146
aa(lp1147
I4
aV"2_d"
p1148
aV"2_b"
p1149
aa(lp1150
I4
aV"2_f"
p1151
aV"2_b"
p1152
aa(lp1153
I4
aV"2_g"
p1154
aV"2_b"
p1155
aa(lp1156
I4
aV"2_b"
p1157
aV"2_d"
p1158
aa(lp1159
I4
aV"2_f"
p1160
aV"2_d"
p1161
aa(lp1162
I4
aV"2_g"
p1163
aV"2_d"
p1164
aa(lp1165
I4
aV"2_b"
p1166
aV"2_f"
p1167
aa(lp1168
I4
aV"2_d"
p1169
aV"2_f"
p1170
aa(lp1171
I4
aV"2_g"
p1172
aV"2_f"
p1173
aa(lp1174
I4
aV"2_b"
p1175
aV"2_g"
p1176
aa(lp1177
I4
aV"2_d"
p1178
aV"2_g"
p1179
aa(lp1180
I4
aV"2_f"
p1181
aV"2_g"
p1182
aa(lp1183
I4
aV"1_c"
p1184
aV"2_d"
p1185
aa(lp1186
I4
aV"1_c"
p1187
aV"2_b"
p1188
aa(lp1189
I4
aV"1_b"
p1190
aV"2_g"
p1191
aa(lp1192
I4
aV"1_d"
p1193
aV"2_g"
p1194
aa(lp1195
I4
aV"1_b"
p1196
aV"2_d"
p1197
aa(lp1198
I4
aV"1_e"
p1199
aV"2_d"
p1200
aa(lp1201
I4
aV"1_d"
p1202
aV"2_b"
p1203
aa(lp1204
I4
aV"1_e"
p1205
aV"2_b"
p1206
aa(lp1207
I4
aV"1_d"
p1208
aV"2_f"
p1209
aa(lp1210
I4
aV"1_b"
p1211
aV"2_f"
p1212
aa(lp1213
I4
aV"2_f"
p1214
aV"1_b"
p1215
aa(lp1216
I4
aV"2_f"
p1217
aV"1_d"
p1218
aa(lp1219
I4
aV"2_b"
p1220
aV"1_e"
p1221
aa(lp1222
I4
aV"2_b"
p1223
aV"1_d"
p1224
aa(lp1225
I4
aV"2_d"
p1226
aV"1_e"
p1227
aa(lp1228
I4
aV"2_d"
p1229
aV"1_b"
p1230
aa(lp1231
I4
aV"2_g"
p1232
aV"1_d"
p1233
aa(lp1234
I4
aV"2_g"
p1235
aV"1_b"
p1236
aa(lp1237
I4
aV"2_b"
p1238
aV"1_c"
p1239
aa(lp1240
I4
aV"2_d"
p1241
aV"1_c"
p1242
aa(lp1243
I4
aV"1_c"
p1244
aV"2_g"
p1245
aa(lp1246
I4
aV"1_e"
p1247
aV"2_f"
p1248
aa(lp1249
I4
aV"2_f"
p1250
aV"1_e"
p1251
aa(lp1252
I4
aV"2_g"
p1253
aV"1_c"
p1254
aaa(lp1255
(lp1256
I4
aV"1_b"
p1257
aV"1_a"
p1258
aa(lp1259
I4
aV"1_c"
p1260
aV"1_a"
p1261
aa(lp1262
I4
aV"1_d"
p1263
aV"1_a"
p1264
aa(lp1265
I4
aV"1_e"
p1266
aV"1_a"
p1267
aa(lp1268
I4
aV"2_b"
p1269
aV"2_a"
p1270
aa(lp1271
I4
aV"2_d"
p1272
aV"2_a"
p1273
aa(lp1274
I4
aV"2_f"
p1275
aV"2_a"
p1276
aa(lp1277
I4
aV"2_g"
p1278
aV"2_a"
p1279
aa(lp1280
I4
aV"1_b"
p1281
aV"2_a"
p1282
aa(lp1283
I4
aV"1_d"
p1284
aV"2_a"
p1285
aa(lp1286
I4
aV"2_d"
p1287
aV"1_a"
p1288
aa(lp1289
I4
aV"2_b"
p1290
aV"1_a"
p1291
aa(lp1292
I4
aV"1_a"
p1293
aV"2_a"
p1294
aa(lp1295
I4
aV"1_c"
p1296
aV"2_a"
p1297
aa(lp1298
I4
aV"1_e"
p1299
aV"2_a"
p1300
aa(lp1301
I4
aV"1_c"
p1302
aV"2_f"
p1303
aa(lp1304
I4
aV"2_f"
p1305
aV"1_a"
p1306
aa(lp1307
I4
aV"2_g"
p1308
aV"1_a"
p1309
aaa(lp1310
(lp1311
I4
aV"2_a"
p1312
aV"2_g"
p1313
aa(lp1314
I4
aV"2_a"
p1315
aV"2_f"
p1316
aa(lp1317
I4
aV"2_a"
p1318
aV"2_d"
p1319
aa(lp1320
I4
aV"2_a"
p1321
aV"2_b"
p1322
aa(lp1323
I4
aV"1_a"
p1324
aV"1_e"
p1325
aa(lp1326
I4
aV"1_a"
p1327
aV"1_d"
p1328
aa(lp1329
I4
aV"1_a"
p1330
aV"1_c"
p1331
aa(lp1332
I4
aV"1_a"
p1333
aV"1_b"
p1334
aa(lp1335
I4
aV"2_a"
p1336
aV"1_d"
p1337
aa(lp1338
I4
aV"2_a"
p1339
aV"1_b"
p1340
aa(lp1341
I4
aV"1_a"
p1342
aV"2_b"
p1343
aa(lp1344
I4
aV"1_a"
p1345
aV"2_d"
p1346
aa(lp1347
I4
aV"2_f"
p1348
aV"1_c"
p1349
aa(lp1350
I4
aV"2_a"
p1351
aV"1_a"
p1352
aa(lp1353
I4
aV"2_a"
p1354
aV"1_e"
p1355
aa(lp1356
I4
aV"2_a"
p1357
aV"1_c"
p1358
aa(lp1359
I4
aV"1_a"
p1360
aV"2_g"
p1361
aa(lp1362
I4
aV"1_a"
p1363
aV"2_f"
p1364
aaa(lp1365
(lp1366
I4
aV"1_b"
p1367
aa(lp1368
I4
aV"1_c"
p1369
aa(lp1370
I4
aV"1_d"
p1371
aa(lp1372
I4
aV"1_e"
p1373
aa(lp1374
I4
aV"2_b"
p1375
aa(lp1376
I4
aV"2_d"
p1377
aa(lp1378
I4
aV"2_f"
p1379
aa(lp1380
I4
aV"2_g"
p1381
aa(lp1382
I4
aV"1_a"
p1383
aa(lp1384
I4
aV"2_a"
p1385
aaa(lp1386
(lp1387
I4
aV"1_a"
p1388
aV"1_b"
p1389
aa(lp1390
I4
aV"1_a"
p1391
aV"1_c"
p1392
aa(lp1393
I4
aV"1_a"
p1394
aV"1_d"
p1395
aa(lp1396
I4
aV"1_a"
p1397
aV"1_e"
p1398
aa(lp1399
I4
aV"2_a"
p1400
aV"2_b"
p1401
aa(lp1402
I4
aV"2_a"
p1403
aV"2_d"
p1404
aa(lp1405
I4
aV"2_a"
p1406
aV"2_f"
p1407
aa(lp1408
I4
aV"2_a"
p1409
aV"2_g"
p1410
aaa(lp1411
(lp1412
I4
aV"2_g"
p1413
aV"1_e"
p1414
aa(lp1415
I4
aV"1_e"
p1416
aV"2_g"
p1417
aaasba(ihelper
PossibleWorld
p1418
(dp1419
g3
I5
sg4
I0
sg5
(lp1420
(lp1421
(lp1422
I5
aV"1_b"
p1423
aV"2_b"
p1424
aa(lp1425
I5
aV"1_d"
p1426
aV"2_d"
p1427
aa(lp1428
I5
aV"2_d"
p1429
aV"1_d"
p1430
aa(lp1431
I5
aV"2_b"
p1432
aV"1_b"
p1433
aa(lp1434
I5
aV"2_a"
p1435
aV"2_a"
p1436
aa(lp1437
I5
aV"1_a"
p1438
aV"1_a"
p1439
aa(lp1440
I5
aV"2_g"
p1441
aV"2_g"
p1442
aa(lp1443
I5
aV"2_f"
p1444
aV"2_f"
p1445
aa(lp1446
I5
aV"2_d"
p1447
aV"2_d"
p1448
aa(lp1449
I5
aV"2_b"
p1450
aV"2_b"
p1451
aa(lp1452
I5
aV"1_e"
p1453
aV"1_e"
p1454
aa(lp1455
I5
aV"1_d"
p1456
aV"1_d"
p1457
aa(lp1458
I5
aV"1_c"
p1459
aV"1_c"
p1460
aa(lp1461
I5
aV"1_b"
p1462
aV"1_b"
p1463
aa(lp1464
I5
aV"1_a"
p1465
aV"2_a"
p1466
aa(lp1467
I5
aV"2_a"
p1468
aV"1_a"
p1469
aaa(lp1470
(lp1471
I5
aV"1_c"
p1472
aV"1_b"
p1473
aa(lp1474
I5
aV"1_d"
p1475
aV"1_b"
p1476
aa(lp1477
I5
aV"1_e"
p1478
aV"1_b"
p1479
aa(lp1480
I5
aV"1_b"
p1481
aV"1_c"
p1482
aa(lp1483
I5
aV"1_d"
p1484
aV"1_c"
p1485
aa(lp1486
I5
aV"1_e"
p1487
aV"1_c"
p1488
aa(lp1489
I5
aV"1_b"
p1490
aV"1_d"
p1491
aa(lp1492
I5
aV"1_c"
p1493
aV"1_d"
p1494
aa(lp1495
I5
aV"1_e"
p1496
aV"1_d"
p1497
aa(lp1498
I5
aV"1_b"
p1499
aV"1_e"
p1500
aa(lp1501
I5
aV"1_c"
p1502
aV"1_e"
p1503
aa(lp1504
I5
aV"1_d"
p1505
aV"1_e"
p1506
aa(lp1507
I5
aV"2_d"
p1508
aV"2_b"
p1509
aa(lp1510
I5
aV"2_f"
p1511
aV"2_b"
p1512
aa(lp1513
I5
aV"2_g"
p1514
aV"2_b"
p1515
aa(lp1516
I5
aV"2_b"
p1517
aV"2_d"
p1518
aa(lp1519
I5
aV"2_f"
p1520
aV"2_d"
p1521
aa(lp1522
I5
aV"2_g"
p1523
aV"2_d"
p1524
aa(lp1525
I5
aV"2_b"
p1526
aV"2_f"
p1527
aa(lp1528
I5
aV"2_d"
p1529
aV"2_f"
p1530
aa(lp1531
I5
aV"2_g"
p1532
aV"2_f"
p1533
aa(lp1534
I5
aV"2_b"
p1535
aV"2_g"
p1536
aa(lp1537
I5
aV"2_d"
p1538
aV"2_g"
p1539
aa(lp1540
I5
aV"2_f"
p1541
aV"2_g"
p1542
aa(lp1543
I5
aV"1_c"
p1544
aV"2_d"
p1545
aa(lp1546
I5
aV"1_c"
p1547
aV"2_b"
p1548
aa(lp1549
I5
aV"1_b"
p1550
aV"2_g"
p1551
aa(lp1552
I5
aV"1_d"
p1553
aV"2_g"
p1554
aa(lp1555
I5
aV"1_b"
p1556
aV"2_d"
p1557
aa(lp1558
I5
aV"1_e"
p1559
aV"2_d"
p1560
aa(lp1561
I5
aV"1_d"
p1562
aV"2_b"
p1563
aa(lp1564
I5
aV"1_e"
p1565
aV"2_b"
p1566
aa(lp1567
I5
aV"1_d"
p1568
aV"2_f"
p1569
aa(lp1570
I5
aV"1_b"
p1571
aV"2_f"
p1572
aa(lp1573
I5
aV"2_f"
p1574
aV"1_b"
p1575
aa(lp1576
I5
aV"2_f"
p1577
aV"1_d"
p1578
aa(lp1579
I5
aV"2_b"
p1580
aV"1_e"
p1581
aa(lp1582
I5
aV"2_b"
p1583
aV"1_d"
p1584
aa(lp1585
I5
aV"2_d"
p1586
aV"1_e"
p1587
aa(lp1588
I5
aV"2_d"
p1589
aV"1_b"
p1590
aa(lp1591
I5
aV"2_g"
p1592
aV"1_d"
p1593
aa(lp1594
I5
aV"2_g"
p1595
aV"1_b"
p1596
aa(lp1597
I5
aV"2_b"
p1598
aV"1_c"
p1599
aa(lp1600
I5
aV"2_d"
p1601
aV"1_c"
p1602
aa(lp1603
I5
aV"1_c"
p1604
aV"2_g"
p1605
aa(lp1606
I5
aV"2_g"
p1607
aV"1_c"
p1608
aaa(lp1609
(lp1610
I5
aV"1_b"
p1611
aV"1_a"
p1612
aa(lp1613
I5
aV"1_c"
p1614
aV"1_a"
p1615
aa(lp1616
I5
aV"1_d"
p1617
aV"1_a"
p1618
aa(lp1619
I5
aV"1_e"
p1620
aV"1_a"
p1621
aa(lp1622
I5
aV"2_b"
p1623
aV"2_a"
p1624
aa(lp1625
I5
aV"2_d"
p1626
aV"2_a"
p1627
aa(lp1628
I5
aV"2_f"
p1629
aV"2_a"
p1630
aa(lp1631
I5
aV"2_g"
p1632
aV"2_a"
p1633
aa(lp1634
I5
aV"1_b"
p1635
aV"2_a"
p1636
aa(lp1637
I5
aV"1_d"
p1638
aV"2_a"
p1639
aa(lp1640
I5
aV"2_d"
p1641
aV"1_a"
p1642
aa(lp1643
I5
aV"2_b"
p1644
aV"1_a"
p1645
aa(lp1646
I5
aV"1_c"
p1647
aV"2_a"
p1648
aa(lp1649
I5
aV"1_e"
p1650
aV"2_a"
p1651
aa(lp1652
I5
aV"1_c"
p1653
aV"2_f"
p1654
aa(lp1655
I5
aV"2_f"
p1656
aV"1_a"
p1657
aa(lp1658
I5
aV"2_g"
p1659
aV"1_a"
p1660
aaa(lp1661
(lp1662
I5
aV"2_a"
p1663
aV"2_g"
p1664
aa(lp1665
I5
aV"2_a"
p1666
aV"2_f"
p1667
aa(lp1668
I5
aV"2_a"
p1669
aV"2_d"
p1670
aa(lp1671
I5
aV"2_a"
p1672
aV"2_b"
p1673
aa(lp1674
I5
aV"1_a"
p1675
aV"1_e"
p1676
aa(lp1677
I5
aV"1_a"
p1678
aV"1_d"
p1679
aa(lp1680
I5
aV"1_a"
p1681
aV"1_c"
p1682
aa(lp1683
I5
aV"1_a"
p1684
aV"1_b"
p1685
aa(lp1686
I5
aV"2_a"
p1687
aV"1_d"
p1688
aa(lp1689
I5
aV"2_a"
p1690
aV"1_b"
p1691
aa(lp1692
I5
aV"1_a"
p1693
aV"2_b"
p1694
aa(lp1695
I5
aV"1_a"
p1696
aV"2_d"
p1697
aa(lp1698
I5
aV"2_f"
p1699
aV"1_c"
p1700
aa(lp1701
I5
aV"2_a"
p1702
aV"1_e"
p1703
aa(lp1704
I5
aV"2_a"
p1705
aV"1_c"
p1706
aa(lp1707
I5
aV"1_a"
p1708
aV"2_g"
p1709
aa(lp1710
I5
aV"1_a"
p1711
aV"2_f"
p1712
aaa(lp1713
(lp1714
I5
aV"1_b"
p1715
aa(lp1716
I5
aV"1_c"
p1717
aa(lp1718
I5
aV"1_d"
p1719
aa(lp1720
I5
aV"1_e"
p1721
aa(lp1722
I5
aV"2_b"
p1723
aa(lp1724
I5
aV"2_d"
p1725
aa(lp1726
I5
aV"2_f"
p1727
aa(lp1728
I5
aV"2_g"
p1729
aa(lp1730
I5
aV"1_a"
p1731
aa(lp1732
I5
aV"2_a"
p1733
aaa(lp1734
(lp1735
I5
aV"1_a"
p1736
aV"1_b"
p1737
aa(lp1738
I5
aV"1_a"
p1739
aV"1_c"
p1740
aa(lp1741
I5
aV"1_a"
p1742
aV"1_d"
p1743
aa(lp1744
I5
aV"1_a"
p1745
aV"1_e"
p1746
aa(lp1747
I5
aV"2_a"
p1748
aV"2_b"
p1749
aa(lp1750
I5
aV"2_a"
p1751
aV"2_d"
p1752
aa(lp1753
I5
aV"2_a"
p1754
aV"2_f"
p1755
aa(lp1756
I5
aV"2_a"
p1757
aV"2_g"
p1758
aaa(lp1759
(lp1760
I5
aV"2_g"
p1761
aV"1_e"
p1762
aa(lp1763
I5
aV"1_e"
p1764
aV"2_g"
p1765
aa(lp1766
I5
aV"1_e"
p1767
aV"2_f"
p1768
aa(lp1769
I5
aV"2_f"
p1770
aV"1_e"
p1771
aaasba(ihelper
PossibleWorld
p1772
(dp1773
g3
I6
sg4
I0
sg5
(lp1774
(lp1775
(lp1776
I6
aV"1_b"
p1777
aV"2_b"
p1778
aa(lp1779
I6
aV"1_d"
p1780
aV"2_d"
p1781
aa(lp1782
I6
aV"2_d"
p1783
aV"1_d"
p1784
aa(lp1785
I6
aV"2_b"
p1786
aV"1_b"
p1787
aa(lp1788
I6
aV"2_a"
p1789
aV"2_a"
p1790
aa(lp1791
I6
aV"1_a"
p1792
aV"1_a"
p1793
aa(lp1794
I6
aV"2_g"
p1795
aV"2_g"
p1796
aa(lp1797
I6
aV"2_f"
p1798
aV"2_f"
p1799
aa(lp1800
I6
aV"2_d"
p1801
aV"2_d"
p1802
aa(lp1803
I6
aV"2_b"
p1804
aV"2_b"
p1805
aa(lp1806
I6
aV"1_e"
p1807
aV"1_e"
p1808
aa(lp1809
I6
aV"1_d"
p1810
aV"1_d"
p1811
aa(lp1812
I6
aV"1_c"
p1813
aV"1_c"
p1814
aa(lp1815
I6
aV"1_b"
p1816
aV"1_b"
p1817
aaa(lp1818
(lp1819
I6
aV"1_c"
p1820
aV"1_b"
p1821
aa(lp1822
I6
aV"1_d"
p1823
aV"1_b"
p1824
aa(lp1825
I6
aV"1_e"
p1826
aV"1_b"
p1827
aa(lp1828
I6
aV"1_b"
p1829
aV"1_c"
p1830
aa(lp1831
I6
aV"1_d"
p1832
aV"1_c"
p1833
aa(lp1834
I6
aV"1_e"
p1835
aV"1_c"
p1836
aa(lp1837
I6
aV"1_b"
p1838
aV"1_d"
p1839
aa(lp1840
I6
aV"1_c"
p1841
aV"1_d"
p1842
aa(lp1843
I6
aV"1_e"
p1844
aV"1_d"
p1845
aa(lp1846
I6
aV"1_b"
p1847
aV"1_e"
p1848
aa(lp1849
I6
aV"1_c"
p1850
aV"1_e"
p1851
aa(lp1852
I6
aV"1_d"
p1853
aV"1_e"
p1854
aa(lp1855
I6
aV"2_d"
p1856
aV"2_b"
p1857
aa(lp1858
I6
aV"2_f"
p1859
aV"2_b"
p1860
aa(lp1861
I6
aV"2_g"
p1862
aV"2_b"
p1863
aa(lp1864
I6
aV"2_b"
p1865
aV"2_d"
p1866
aa(lp1867
I6
aV"2_f"
p1868
aV"2_d"
p1869
aa(lp1870
I6
aV"2_g"
p1871
aV"2_d"
p1872
aa(lp1873
I6
aV"2_b"
p1874
aV"2_f"
p1875
aa(lp1876
I6
aV"2_d"
p1877
aV"2_f"
p1878
aa(lp1879
I6
aV"2_g"
p1880
aV"2_f"
p1881
aa(lp1882
I6
aV"2_b"
p1883
aV"2_g"
p1884
aa(lp1885
I6
aV"2_d"
p1886
aV"2_g"
p1887
aa(lp1888
I6
aV"2_f"
p1889
aV"2_g"
p1890
aa(lp1891
I6
aV"1_c"
p1892
aV"2_d"
p1893
aa(lp1894
I6
aV"1_c"
p1895
aV"2_b"
p1896
aa(lp1897
I6
aV"1_b"
p1898
aV"2_g"
p1899
aa(lp1900
I6
aV"1_d"
p1901
aV"2_g"
p1902
aa(lp1903
I6
aV"1_b"
p1904
aV"2_d"
p1905
aa(lp1906
I6
aV"1_e"
p1907
aV"2_d"
p1908
aa(lp1909
I6
aV"1_d"
p1910
aV"2_b"
p1911
aa(lp1912
I6
aV"1_e"
p1913
aV"2_b"
p1914
aa(lp1915
I6
aV"1_d"
p1916
aV"2_f"
p1917
aa(lp1918
I6
aV"1_b"
p1919
aV"2_f"
p1920
aa(lp1921
I6
aV"2_f"
p1922
aV"1_b"
p1923
aa(lp1924
I6
aV"2_f"
p1925
aV"1_d"
p1926
aa(lp1927
I6
aV"2_b"
p1928
aV"1_e"
p1929
aa(lp1930
I6
aV"2_b"
p1931
aV"1_d"
p1932
aa(lp1933
I6
aV"2_d"
p1934
aV"1_e"
p1935
aa(lp1936
I6
aV"2_d"
p1937
aV"1_b"
p1938
aa(lp1939
I6
aV"2_g"
p1940
aV"1_d"
p1941
aa(lp1942
I6
aV"2_g"
p1943
aV"1_b"
p1944
aa(lp1945
I6
aV"2_b"
p1946
aV"1_c"
p1947
aa(lp1948
I6
aV"2_d"
p1949
aV"1_c"
p1950
aa(lp1951
I6
aV"1_c"
p1952
aV"2_g"
p1953
aa(lp1954
I6
aV"2_g"
p1955
aV"1_c"
p1956
aaa(lp1957
(lp1958
I6
aV"1_b"
p1959
aV"1_a"
p1960
aa(lp1961
I6
aV"1_c"
p1962
aV"1_a"
p1963
aa(lp1964
I6
aV"1_d"
p1965
aV"1_a"
p1966
aa(lp1967
I6
aV"1_e"
p1968
aV"1_a"
p1969
aa(lp1970
I6
aV"2_b"
p1971
aV"2_a"
p1972
aa(lp1973
I6
aV"2_d"
p1974
aV"2_a"
p1975
aa(lp1976
I6
aV"2_f"
p1977
aV"2_a"
p1978
aa(lp1979
I6
aV"2_g"
p1980
aV"2_a"
p1981
aa(lp1982
I6
aV"1_b"
p1983
aV"2_a"
p1984
aa(lp1985
I6
aV"1_d"
p1986
aV"2_a"
p1987
aa(lp1988
I6
aV"2_d"
p1989
aV"1_a"
p1990
aa(lp1991
I6
aV"2_b"
p1992
aV"1_a"
p1993
aa(lp1994
I6
aV"1_a"
p1995
aV"2_a"
p1996
aa(lp1997
I6
aV"1_c"
p1998
aV"2_a"
p1999
aa(lp2000
I6
aV"1_e"
p2001
aV"2_a"
p2002
aa(lp2003
I6
aV"1_c"
p2004
aV"2_f"
p2005
aa(lp2006
I6
aV"2_f"
p2007
aV"1_a"
p2008
aa(lp2009
I6
aV"2_g"
p2010
aV"1_a"
p2011
aaa(lp2012
(lp2013
I6
aV"2_a"
p2014
aV"2_g"
p2015
aa(lp2016
I6
aV"2_a"
p2017
aV"2_f"
p2018
aa(lp2019
I6
aV"2_a"
p2020
aV"2_d"
p2021
aa(lp2022
I6
aV"2_a"
p2023
aV"2_b"
p2024
aa(lp2025
I6
aV"1_a"
p2026
aV"1_e"
p2027
aa(lp2028
I6
aV"1_a"
p2029
aV"1_d"
p2030
aa(lp2031
I6
aV"1_a"
p2032
aV"1_c"
p2033
aa(lp2034
I6
aV"1_a"
p2035
aV"1_b"
p2036
aa(lp2037
I6
aV"2_a"
p2038
aV"1_d"
p2039
aa(lp2040
I6
aV"2_a"
p2041
aV"1_b"
p2042
aa(lp2043
I6
aV"1_a"
p2044
aV"2_b"
p2045
aa(lp2046
I6
aV"1_a"
p2047
aV"2_d"
p2048
aa(lp2049
I6
aV"2_f"
p2050
aV"1_c"
p2051
aa(lp2052
I6
aV"2_a"
p2053
aV"1_a"
p2054
aa(lp2055
I6
aV"2_a"
p2056
aV"1_e"
p2057
aa(lp2058
I6
aV"2_a"
p2059
aV"1_c"
p2060
aa(lp2061
I6
aV"1_a"
p2062
aV"2_g"
p2063
aa(lp2064
I6
aV"1_a"
p2065
aV"2_f"
p2066
aaa(lp2067
(lp2068
I6
aV"1_b"
p2069
aa(lp2070
I6
aV"1_c"
p2071
aa(lp2072
I6
aV"1_d"
p2073
aa(lp2074
I6
aV"1_e"
p2075
aa(lp2076
I6
aV"2_b"
p2077
aa(lp2078
I6
aV"2_d"
p2079
aa(lp2080
I6
aV"2_f"
p2081
aa(lp2082
I6
aV"2_g"
p2083
aa(lp2084
I6
aV"1_a"
p2085
aa(lp2086
I6
aV"2_a"
p2087
aaa(lp2088
(lp2089
I6
aV"1_a"
p2090
aV"1_b"
p2091
aa(lp2092
I6
aV"1_a"
p2093
aV"1_c"
p2094
aa(lp2095
I6
aV"1_a"
p2096
aV"1_d"
p2097
aa(lp2098
I6
aV"1_a"
p2099
aV"1_e"
p2100
aa(lp2101
I6
aV"2_a"
p2102
aV"2_b"
p2103
aa(lp2104
I6
aV"2_a"
p2105
aV"2_d"
p2106
aa(lp2107
I6
aV"2_a"
p2108
aV"2_f"
p2109
aa(lp2110
I6
aV"2_a"
p2111
aV"2_g"
p2112
aaa(lp2113
(lp2114
I6
aV"2_g"
p2115
aV"1_e"
p2116
aa(lp2117
I6
aV"1_e"
p2118
aV"2_g"
p2119
aa(lp2120
I6
aV"1_e"
p2121
aV"2_f"
p2122
aa(lp2123
I6
aV"2_f"
p2124
aV"1_e"
p2125
aaasba(ihelper
PossibleWorld
p2126
(dp2127
g3
I7
sg4
I0
sg5
(lp2128
(lp2129
(lp2130
I7
aV"1_b"
p2131
aV"2_b"
p2132
aa(lp2133
I7
aV"1_d"
p2134
aV"2_d"
p2135
aa(lp2136
I7
aV"2_d"
p2137
aV"1_d"
p2138
aa(lp2139
I7
aV"2_b"
p2140
aV"1_b"
p2141
aa(lp2142
I7
aV"2_a"
p2143
aV"2_a"
p2144
aa(lp2145
I7
aV"1_a"
p2146
aV"1_a"
p2147
aa(lp2148
I7
aV"2_g"
p2149
aV"2_g"
p2150
aa(lp2151
I7
aV"2_f"
p2152
aV"2_f"
p2153
aa(lp2154
I7
aV"2_d"
p2155
aV"2_d"
p2156
aa(lp2157
I7
aV"2_b"
p2158
aV"2_b"
p2159
aa(lp2160
I7
aV"1_e"
p2161
aV"1_e"
p2162
aa(lp2163
I7
aV"1_d"
p2164
aV"1_d"
p2165
aa(lp2166
I7
aV"1_c"
p2167
aV"1_c"
p2168
aa(lp2169
I7
aV"1_b"
p2170
aV"1_b"
p2171
aa(lp2172
I7
aV"1_a"
p2173
aV"2_a"
p2174
aa(lp2175
I7
aV"1_e"
p2176
aV"2_g"
p2177
aa(lp2178
I7
aV"2_g"
p2179
aV"1_e"
p2180
aa(lp2181
I7
aV"2_a"
p2182
aV"1_a"
p2183
aaa(lp2184
(lp2185
I7
aV"1_c"
p2186
aV"1_b"
p2187
aa(lp2188
I7
aV"1_d"
p2189
aV"1_b"
p2190
aa(lp2191
I7
aV"1_e"
p2192
aV"1_b"
p2193
aa(lp2194
I7
aV"1_b"
p2195
aV"1_c"
p2196
aa(lp2197
I7
aV"1_d"
p2198
aV"1_c"
p2199
aa(lp2200
I7
aV"1_e"
p2201
aV"1_c"
p2202
aa(lp2203
I7
aV"1_b"
p2204
aV"1_d"
p2205
aa(lp2206
I7
aV"1_c"
p2207
aV"1_d"
p2208
aa(lp2209
I7
aV"1_e"
p2210
aV"1_d"
p2211
aa(lp2212
I7
aV"1_b"
p2213
aV"1_e"
p2214
aa(lp2215
I7
aV"1_c"
p2216
aV"1_e"
p2217
aa(lp2218
I7
aV"1_d"
p2219
aV"1_e"
p2220
aa(lp2221
I7
aV"2_d"
p2222
aV"2_b"
p2223
aa(lp2224
I7
aV"2_f"
p2225
aV"2_b"
p2226
aa(lp2227
I7
aV"2_g"
p2228
aV"2_b"
p2229
aa(lp2230
I7
aV"2_b"
p2231
aV"2_d"
p2232
aa(lp2233
I7
aV"2_f"
p2234
aV"2_d"
p2235
aa(lp2236
I7
aV"2_g"
p2237
aV"2_d"
p2238
aa(lp2239
I7
aV"2_b"
p2240
aV"2_f"
p2241
aa(lp2242
I7
aV"2_d"
p2243
aV"2_f"
p2244
aa(lp2245
I7
aV"2_g"
p2246
aV"2_f"
p2247
aa(lp2248
I7
aV"2_b"
p2249
aV"2_g"
p2250
aa(lp2251
I7
aV"2_d"
p2252
aV"2_g"
p2253
aa(lp2254
I7
aV"2_f"
p2255
aV"2_g"
p2256
aa(lp2257
I7
aV"1_c"
p2258
aV"2_d"
p2259
aa(lp2260
I7
aV"1_c"
p2261
aV"2_b"
p2262
aa(lp2263
I7
aV"1_b"
p2264
aV"2_g"
p2265
aa(lp2266
I7
aV"1_d"
p2267
aV"2_g"
p2268
aa(lp2269
I7
aV"1_b"
p2270
aV"2_d"
p2271
aa(lp2272
I7
aV"1_e"
p2273
aV"2_d"
p2274
aa(lp2275
I7
aV"1_d"
p2276
aV"2_b"
p2277
aa(lp2278
I7
aV"1_e"
p2279
aV"2_b"
p2280
aa(lp2281
I7
aV"1_d"
p2282
aV"2_f"
p2283
aa(lp2284
I7
aV"1_b"
p2285
aV"2_f"
p2286
aa(lp2287
I7
aV"2_f"
p2288
aV"1_b"
p2289
aa(lp2290
I7
aV"2_f"
p2291
aV"1_d"
p2292
aa(lp2293
I7
aV"2_b"
p2294
aV"1_e"
p2295
aa(lp2296
I7
aV"2_b"
p2297
aV"1_d"
p2298
aa(lp2299
I7
aV"2_d"
p2300
aV"1_e"
p2301
aa(lp2302
I7
aV"2_d"
p2303
aV"1_b"
p2304
aa(lp2305
I7
aV"2_g"
p2306
aV"1_d"
p2307
aa(lp2308
I7
aV"2_g"
p2309
aV"1_b"
p2310
aa(lp2311
I7
aV"2_b"
p2312
aV"1_c"
p2313
aa(lp2314
I7
aV"2_d"
p2315
aV"1_c"
p2316
aa(lp2317
I7
aV"1_c"
p2318
aV"2_g"
p2319
aa(lp2320
I7
aV"1_e"
p2321
aV"2_f"
p2322
aa(lp2323
I7
aV"2_f"
p2324
aV"1_e"
p2325
aa(lp2326
I7
aV"2_g"
p2327
aV"1_c"
p2328
aaa(lp2329
(lp2330
I7
aV"1_b"
p2331
aV"1_a"
p2332
aa(lp2333
I7
aV"1_c"
p2334
aV"1_a"
p2335
aa(lp2336
I7
aV"1_d"
p2337
aV"1_a"
p2338
aa(lp2339
I7
aV"1_e"
p2340
aV"1_a"
p2341
aa(lp2342
I7
aV"2_b"
p2343
aV"2_a"
p2344
aa(lp2345
I7
aV"2_d"
p2346
aV"2_a"
p2347
aa(lp2348
I7
aV"2_f"
p2349
aV"2_a"
p2350
aa(lp2351
I7
aV"2_g"
p2352
aV"2_a"
p2353
aa(lp2354
I7
aV"1_b"
p2355
aV"2_a"
p2356
aa(lp2357
I7
aV"1_d"
p2358
aV"2_a"
p2359
aa(lp2360
I7
aV"2_d"
p2361
aV"1_a"
p2362
aa(lp2363
I7
aV"2_b"
p2364
aV"1_a"
p2365
aa(lp2366
I7
aV"1_c"
p2367
aV"2_a"
p2368
aa(lp2369
I7
aV"1_e"
p2370
aV"2_a"
p2371
aa(lp2372
I7
aV"2_f"
p2373
aV"1_a"
p2374
aa(lp2375
I7
aV"2_g"
p2376
aV"1_a"
p2377
aaa(lp2378
(lp2379
I7
aV"2_a"
p2380
aV"2_g"
p2381
aa(lp2382
I7
aV"2_a"
p2383
aV"2_f"
p2384
aa(lp2385
I7
aV"2_a"
p2386
aV"2_d"
p2387
aa(lp2388
I7
aV"2_a"
p2389
aV"2_b"
p2390
aa(lp2391
I7
aV"1_a"
p2392
aV"1_e"
p2393
aa(lp2394
I7
aV"1_a"
p2395
aV"1_d"
p2396
aa(lp2397
I7
aV"1_a"
p2398
aV"1_c"
p2399
aa(lp2400
I7
aV"1_a"
p2401
aV"1_b"
p2402
aa(lp2403
I7
aV"2_a"
p2404
aV"1_d"
p2405
aa(lp2406
I7
aV"2_a"
p2407
aV"1_b"
p2408
aa(lp2409
I7
aV"1_a"
p2410
aV"2_b"
p2411
aa(lp2412
I7
aV"1_a"
p2413
aV"2_d"
p2414
aa(lp2415
I7
aV"2_a"
p2416
aV"1_e"
p2417
aa(lp2418
I7
aV"2_a"
p2419
aV"1_c"
p2420
aa(lp2421
I7
aV"1_a"
p2422
aV"2_g"
p2423
aa(lp2424
I7
aV"1_a"
p2425
aV"2_f"
p2426
aaa(lp2427
(lp2428
I7
aV"1_b"
p2429
aa(lp2430
I7
aV"1_c"
p2431
aa(lp2432
I7
aV"1_d"
p2433
aa(lp2434
I7
aV"1_e"
p2435
aa(lp2436
I7
aV"2_b"
p2437
aa(lp2438
I7
aV"2_d"
p2439
aa(lp2440
I7
aV"2_f"
p2441
aa(lp2442
I7
aV"2_g"
p2443
aa(lp2444
I7
aV"1_a"
p2445
aa(lp2446
I7
aV"2_a"
p2447
aaa(lp2448
(lp2449
I7
aV"1_a"
p2450
aV"1_b"
p2451
aa(lp2452
I7
aV"1_a"
p2453
aV"1_c"
p2454
aa(lp2455
I7
aV"1_a"
p2456
aV"1_d"
p2457
aa(lp2458
I7
aV"1_a"
p2459
aV"1_e"
p2460
aa(lp2461
I7
aV"2_a"
p2462
aV"2_b"
p2463
aa(lp2464
I7
aV"2_a"
p2465
aV"2_d"
p2466
aa(lp2467
I7
aV"2_a"
p2468
aV"2_f"
p2469
aa(lp2470
I7
aV"2_a"
p2471
aV"2_g"
p2472
aaa(lp2473
(lp2474
I7
aV"2_f"
p2475
aV"1_c"
p2476
aa(lp2477
I7
aV"1_c"
p2478
aV"2_f"
p2479
aaasba(ihelper
PossibleWorld
p2480
(dp2481
g3
I8
sg4
I0
sg5
(lp2482
(lp2483
(lp2484
I8
aV"1_b"
p2485
aV"2_b"
p2486
aa(lp2487
I8
aV"1_d"
p2488
aV"2_d"
p2489
aa(lp2490
I8
aV"2_d"
p2491
aV"1_d"
p2492
aa(lp2493
I8
aV"2_b"
p2494
aV"1_b"
p2495
aa(lp2496
I8
aV"2_a"
p2497
aV"2_a"
p2498
aa(lp2499
I8
aV"1_a"
p2500
aV"1_a"
p2501
aa(lp2502
I8
aV"2_g"
p2503
aV"2_g"
p2504
aa(lp2505
I8
aV"2_f"
p2506
aV"2_f"
p2507
aa(lp2508
I8
aV"2_d"
p2509
aV"2_d"
p2510
aa(lp2511
I8
aV"2_b"
p2512
aV"2_b"
p2513
aa(lp2514
I8
aV"1_e"
p2515
aV"1_e"
p2516
aa(lp2517
I8
aV"1_d"
p2518
aV"1_d"
p2519
aa(lp2520
I8
aV"1_c"
p2521
aV"1_c"
p2522
aa(lp2523
I8
aV"1_b"
p2524
aV"1_b"
p2525
aa(lp2526
I8
aV"1_e"
p2527
aV"2_g"
p2528
aa(lp2529
I8
aV"2_g"
p2530
aV"1_e"
p2531
aaa(lp2532
(lp2533
I8
aV"1_c"
p2534
aV"1_b"
p2535
aa(lp2536
I8
aV"1_d"
p2537
aV"1_b"
p2538
aa(lp2539
I8
aV"1_e"
p2540
aV"1_b"
p2541
aa(lp2542
I8
aV"1_b"
p2543
aV"1_c"
p2544
aa(lp2545
I8
aV"1_d"
p2546
aV"1_c"
p2547
aa(lp2548
I8
aV"1_e"
p2549
aV"1_c"
p2550
aa(lp2551
I8
aV"1_b"
p2552
aV"1_d"
p2553
aa(lp2554
I8
aV"1_c"
p2555
aV"1_d"
p2556
aa(lp2557
I8
aV"1_e"
p2558
aV"1_d"
p2559
aa(lp2560
I8
aV"1_b"
p2561
aV"1_e"
p2562
aa(lp2563
I8
aV"1_c"
p2564
aV"1_e"
p2565
aa(lp2566
I8
aV"1_d"
p2567
aV"1_e"
p2568
aa(lp2569
I8
aV"2_d"
p2570
aV"2_b"
p2571
aa(lp2572
I8
aV"2_f"
p2573
aV"2_b"
p2574
aa(lp2575
I8
aV"2_g"
p2576
aV"2_b"
p2577
aa(lp2578
I8
aV"2_b"
p2579
aV"2_d"
p2580
aa(lp2581
I8
aV"2_f"
p2582
aV"2_d"
p2583
aa(lp2584
I8
aV"2_g"
p2585
aV"2_d"
p2586
aa(lp2587
I8
aV"2_b"
p2588
aV"2_f"
p2589
aa(lp2590
I8
aV"2_d"
p2591
aV"2_f"
p2592
aa(lp2593
I8
aV"2_g"
p2594
aV"2_f"
p2595
aa(lp2596
I8
aV"2_b"
p2597
aV"2_g"
p2598
aa(lp2599
I8
aV"2_d"
p2600
aV"2_g"
p2601
aa(lp2602
I8
aV"2_f"
p2603
aV"2_g"
p2604
aa(lp2605
I8
aV"1_c"
p2606
aV"2_d"
p2607
aa(lp2608
I8
aV"1_c"
p2609
aV"2_b"
p2610
aa(lp2611
I8
aV"1_b"
p2612
aV"2_g"
p2613
aa(lp2614
I8
aV"1_d"
p2615
aV"2_g"
p2616
aa(lp2617
I8
aV"1_b"
p2618
aV"2_d"
p2619
aa(lp2620
I8
aV"1_e"
p2621
aV"2_d"
p2622
aa(lp2623
I8
aV"1_d"
p2624
aV"2_b"
p2625
aa(lp2626
I8
aV"1_e"
p2627
aV"2_b"
p2628
aa(lp2629
I8
aV"1_d"
p2630
aV"2_f"
p2631
aa(lp2632
I8
aV"1_b"
p2633
aV"2_f"
p2634
aa(lp2635
I8
aV"2_f"
p2636
aV"1_b"
p2637
aa(lp2638
I8
aV"2_f"
p2639
aV"1_d"
p2640
aa(lp2641
I8
aV"2_b"
p2642
aV"1_e"
p2643
aa(lp2644
I8
aV"2_b"
p2645
aV"1_d"
p2646
aa(lp2647
I8
aV"2_d"
p2648
aV"1_e"
p2649
aa(lp2650
I8
aV"2_d"
p2651
aV"1_b"
p2652
aa(lp2653
I8
aV"2_g"
p2654
aV"1_d"
p2655
aa(lp2656
I8
aV"2_g"
p2657
aV"1_b"
p2658
aa(lp2659
I8
aV"2_b"
p2660
aV"1_c"
p2661
aa(lp2662
I8
aV"2_d"
p2663
aV"1_c"
p2664
aa(lp2665
I8
aV"1_c"
p2666
aV"2_g"
p2667
aa(lp2668
I8
aV"1_e"
p2669
aV"2_f"
p2670
aa(lp2671
I8
aV"2_f"
p2672
aV"1_e"
p2673
aa(lp2674
I8
aV"2_g"
p2675
aV"1_c"
p2676
aaa(lp2677
(lp2678
I8
aV"1_b"
p2679
aV"1_a"
p2680
aa(lp2681
I8
aV"1_c"
p2682
aV"1_a"
p2683
aa(lp2684
I8
aV"1_d"
p2685
aV"1_a"
p2686
aa(lp2687
I8
aV"1_e"
p2688
aV"1_a"
p2689
aa(lp2690
I8
aV"2_b"
p2691
aV"2_a"
p2692
aa(lp2693
I8
aV"2_d"
p2694
aV"2_a"
p2695
aa(lp2696
I8
aV"2_f"
p2697
aV"2_a"
p2698
aa(lp2699
I8
aV"2_g"
p2700
aV"2_a"
p2701
aa(lp2702
I8
aV"1_b"
p2703
aV"2_a"
p2704
aa(lp2705
I8
aV"1_d"
p2706
aV"2_a"
p2707
aa(lp2708
I8
aV"2_d"
p2709
aV"1_a"
p2710
aa(lp2711
I8
aV"2_b"
p2712
aV"1_a"
p2713
aa(lp2714
I8
aV"1_a"
p2715
aV"2_a"
p2716
aa(lp2717
I8
aV"1_c"
p2718
aV"2_a"
p2719
aa(lp2720
I8
aV"1_e"
p2721
aV"2_a"
p2722
aa(lp2723
I8
aV"2_f"
p2724
aV"1_a"
p2725
aa(lp2726
I8
aV"2_g"
p2727
aV"1_a"
p2728
aaa(lp2729
(lp2730
I8
aV"2_a"
p2731
aV"2_g"
p2732
aa(lp2733
I8
aV"2_a"
p2734
aV"2_f"
p2735
aa(lp2736
I8
aV"2_a"
p2737
aV"2_d"
p2738
aa(lp2739
I8
aV"2_a"
p2740
aV"2_b"
p2741
aa(lp2742
I8
aV"1_a"
p2743
aV"1_e"
p2744
aa(lp2745
I8
aV"1_a"
p2746
aV"1_d"
p2747
aa(lp2748
I8
aV"1_a"
p2749
aV"1_c"
p2750
aa(lp2751
I8
aV"1_a"
p2752
aV"1_b"
p2753
aa(lp2754
I8
aV"2_a"
p2755
aV"1_d"
p2756
aa(lp2757
I8
aV"2_a"
p2758
aV"1_b"
p2759
aa(lp2760
I8
aV"1_a"
p2761
aV"2_b"
p2762
aa(lp2763
I8
aV"1_a"
p2764
aV"2_d"
p2765
aa(lp2766
I8
aV"2_a"
p2767
aV"1_a"
p2768
aa(lp2769
I8
aV"2_a"
p2770
aV"1_e"
p2771
aa(lp2772
I8
aV"2_a"
p2773
aV"1_c"
p2774
aa(lp2775
I8
aV"1_a"
p2776
aV"2_g"
p2777
aa(lp2778
I8
aV"1_a"
p2779
aV"2_f"
p2780
aaa(lp2781
(lp2782
I8
aV"1_b"
p2783
aa(lp2784
I8
aV"1_c"
p2785
aa(lp2786
I8
aV"1_d"
p2787
aa(lp2788
I8
aV"1_e"
p2789
aa(lp2790
I8
aV"2_b"
p2791
aa(lp2792
I8
aV"2_d"
p2793
aa(lp2794
I8
aV"2_f"
p2795
aa(lp2796
I8
aV"2_g"
p2797
aa(lp2798
I8
aV"1_a"
p2799
aa(lp2800
I8
aV"2_a"
p2801
aaa(lp2802
(lp2803
I8
aV"1_a"
p2804
aV"1_b"
p2805
aa(lp2806
I8
aV"1_a"
p2807
aV"1_c"
p2808
aa(lp2809
I8
aV"1_a"
p2810
aV"1_d"
p2811
aa(lp2812
I8
aV"1_a"
p2813
aV"1_e"
p2814
aa(lp2815
I8
aV"2_a"
p2816
aV"2_b"
p2817
aa(lp2818
I8
aV"2_a"
p2819
aV"2_d"
p2820
aa(lp2821
I8
aV"2_a"
p2822
aV"2_f"
p2823
aa(lp2824
I8
aV"2_a"
p2825
aV"2_g"
p2826
aaa(lp2827
(lp2828
I8
aV"2_f"
p2829
aV"1_c"
p2830
aa(lp2831
I8
aV"1_c"
p2832
aV"2_f"
p2833
aaasba(ihelper
PossibleWorld
p2834
(dp2835
g3
I9
sg4
I0
sg5
(lp2836
(lp2837
(lp2838
I9
aV"1_b"
p2839
aV"2_b"
p2840
aa(lp2841
I9
aV"1_d"
p2842
aV"2_d"
p2843
aa(lp2844
I9
aV"2_d"
p2845
aV"1_d"
p2846
aa(lp2847
I9
aV"2_b"
p2848
aV"1_b"
p2849
aa(lp2850
I9
aV"2_a"
p2851
aV"2_a"
p2852
aa(lp2853
I9
aV"1_a"
p2854
aV"1_a"
p2855
aa(lp2856
I9
aV"2_g"
p2857
aV"2_g"
p2858
aa(lp2859
I9
aV"2_f"
p2860
aV"2_f"
p2861
aa(lp2862
I9
aV"2_d"
p2863
aV"2_d"
p2864
aa(lp2865
I9
aV"2_b"
p2866
aV"2_b"
p2867
aa(lp2868
I9
aV"1_e"
p2869
aV"1_e"
p2870
aa(lp2871
I9
aV"1_d"
p2872
aV"1_d"
p2873
aa(lp2874
I9
aV"1_c"
p2875
aV"1_c"
p2876
aa(lp2877
I9
aV"1_b"
p2878
aV"1_b"
p2879
aa(lp2880
I9
aV"1_a"
p2881
aV"2_a"
p2882
aa(lp2883
I9
aV"2_a"
p2884
aV"1_a"
p2885
aaa(lp2886
(lp2887
I9
aV"1_c"
p2888
aV"1_b"
p2889
aa(lp2890
I9
aV"1_d"
p2891
aV"1_b"
p2892
aa(lp2893
I9
aV"1_e"
p2894
aV"1_b"
p2895
aa(lp2896
I9
aV"1_b"
p2897
aV"1_c"
p2898
aa(lp2899
I9
aV"1_d"
p2900
aV"1_c"
p2901
aa(lp2902
I9
aV"1_e"
p2903
aV"1_c"
p2904
aa(lp2905
I9
aV"1_b"
p2906
aV"1_d"
p2907
aa(lp2908
I9
aV"1_c"
p2909
aV"1_d"
p2910
aa(lp2911
I9
aV"1_e"
p2912
aV"1_d"
p2913
aa(lp2914
I9
aV"1_b"
p2915
aV"1_e"
p2916
aa(lp2917
I9
aV"1_c"
p2918
aV"1_e"
p2919
aa(lp2920
I9
aV"1_d"
p2921
aV"1_e"
p2922
aa(lp2923
I9
aV"2_d"
p2924
aV"2_b"
p2925
aa(lp2926
I9
aV"2_f"
p2927
aV"2_b"
p2928
aa(lp2929
I9
aV"2_g"
p2930
aV"2_b"
p2931
aa(lp2932
I9
aV"2_b"
p2933
aV"2_d"
p2934
aa(lp2935
I9
aV"2_f"
p2936
aV"2_d"
p2937
aa(lp2938
I9
aV"2_g"
p2939
aV"2_d"
p2940
aa(lp2941
I9
aV"2_b"
p2942
aV"2_f"
p2943
aa(lp2944
I9
aV"2_d"
p2945
aV"2_f"
p2946
aa(lp2947
I9
aV"2_g"
p2948
aV"2_f"
p2949
aa(lp2950
I9
aV"2_b"
p2951
aV"2_g"
p2952
aa(lp2953
I9
aV"2_d"
p2954
aV"2_g"
p2955
aa(lp2956
I9
aV"2_f"
p2957
aV"2_g"
p2958
aa(lp2959
I9
aV"1_c"
p2960
aV"2_d"
p2961
aa(lp2962
I9
aV"1_c"
p2963
aV"2_b"
p2964
aa(lp2965
I9
aV"1_b"
p2966
aV"2_g"
p2967
aa(lp2968
I9
aV"1_d"
p2969
aV"2_g"
p2970
aa(lp2971
I9
aV"1_b"
p2972
aV"2_d"
p2973
aa(lp2974
I9
aV"1_e"
p2975
aV"2_d"
p2976
aa(lp2977
I9
aV"1_d"
p2978
aV"2_b"
p2979
aa(lp2980
I9
aV"1_e"
p2981
aV"2_b"
p2982
aa(lp2983
I9
aV"1_d"
p2984
aV"2_f"
p2985
aa(lp2986
I9
aV"1_b"
p2987
aV"2_f"
p2988
aa(lp2989
I9
aV"2_f"
p2990
aV"1_b"
p2991
aa(lp2992
I9
aV"2_f"
p2993
aV"1_d"
p2994
aa(lp2995
I9
aV"2_b"
p2996
aV"1_e"
p2997
aa(lp2998
I9
aV"2_b"
p2999
aV"1_d"
p3000
aa(lp3001
I9
aV"2_d"
p3002
aV"1_e"
p3003
aa(lp3004
I9
aV"2_d"
p3005
aV"1_b"
p3006
aa(lp3007
I9
aV"2_g"
p3008
aV"1_d"
p3009
aa(lp3010
I9
aV"2_g"
p3011
aV"1_b"
p3012
aa(lp3013
I9
aV"2_b"
p3014
aV"1_c"
p3015
aa(lp3016
I9
aV"2_d"
p3017
aV"1_c"
p3018
aa(lp3019
I9
aV"1_c"
p3020
aV"2_g"
p3021
aa(lp3022
I9
aV"1_e"
p3023
aV"2_f"
p3024
aa(lp3025
I9
aV"2_f"
p3026
aV"1_e"
p3027
aa(lp3028
I9
aV"2_g"
p3029
aV"1_c"
p3030
aaa(lp3031
(lp3032
I9
aV"1_b"
p3033
aV"1_a"
p3034
aa(lp3035
I9
aV"1_c"
p3036
aV"1_a"
p3037
aa(lp3038
I9
aV"1_d"
p3039
aV"1_a"
p3040
aa(lp3041
I9
aV"1_e"
p3042
aV"1_a"
p3043
aa(lp3044
I9
aV"2_b"
p3045
aV"2_a"
p3046
aa(lp3047
I9
aV"2_d"
p3048
aV"2_a"
p3049
aa(lp3050
I9
aV"2_f"
p3051
aV"2_a"
p3052
aa(lp3053
I9
aV"2_g"
p3054
aV"2_a"
p3055
aa(lp3056
I9
aV"1_b"
p3057
aV"2_a"
p3058
aa(lp3059
I9
aV"1_d"
p3060
aV"2_a"
p3061
aa(lp3062
I9
aV"2_d"
p3063
aV"1_a"
p3064
aa(lp3065
I9
aV"2_b"
p3066
aV"1_a"
p3067
aa(lp3068
I9
aV"1_c"
p3069
aV"2_a"
p3070
aa(lp3071
I9
aV"1_e"
p3072
aV"2_a"
p3073
aa(lp3074
I9
aV"2_f"
p3075
aV"1_a"
p3076
aa(lp3077
I9
aV"2_g"
p3078
aV"1_a"
p3079
aaa(lp3080
(lp3081
I9
aV"2_a"
p3082
aV"2_g"
p3083
aa(lp3084
I9
aV"2_a"
p3085
aV"2_f"
p3086
aa(lp3087
I9
aV"2_a"
p3088
aV"2_d"
p3089
aa(lp3090
I9
aV"2_a"
p3091
aV"2_b"
p3092
aa(lp3093
I9
aV"1_a"
p3094
aV"1_e"
p3095
aa(lp3096
I9
aV"1_a"
p3097
aV"1_d"
p3098
aa(lp3099
I9
aV"1_a"
p3100
aV"1_c"
p3101
aa(lp3102
I9
aV"1_a"
p3103
aV"1_b"
p3104
aa(lp3105
I9
aV"2_a"
p3106
aV"1_d"
p3107
aa(lp3108
I9
aV"2_a"
p3109
aV"1_b"
p3110
aa(lp3111
I9
aV"1_a"
p3112
aV"2_b"
p3113
aa(lp3114
I9
aV"1_a"
p3115
aV"2_d"
p3116
aa(lp3117
I9
aV"2_a"
p3118
aV"1_e"
p3119
aa(lp3120
I9
aV"2_a"
p3121
aV"1_c"
p3122
aa(lp3123
I9
aV"1_a"
p3124
aV"2_g"
p3125
aa(lp3126
I9
aV"1_a"
p3127
aV"2_f"
p3128
aaa(lp3129
(lp3130
I9
aV"1_b"
p3131
aa(lp3132
I9
aV"1_c"
p3133
aa(lp3134
I9
aV"1_d"
p3135
aa(lp3136
I9
aV"1_e"
p3137
aa(lp3138
I9
aV"2_b"
p3139
aa(lp3140
I9
aV"2_d"
p3141
aa(lp3142
I9
aV"2_f"
p3143
aa(lp3144
I9
aV"2_g"
p3145
aa(lp3146
I9
aV"1_a"
p3147
aa(lp3148
I9
aV"2_a"
p3149
aaa(lp3150
(lp3151
I9
aV"1_a"
p3152
aV"1_b"
p3153
aa(lp3154
I9
aV"1_a"
p3155
aV"1_c"
p3156
aa(lp3157
I9
aV"1_a"
p3158
aV"1_d"
p3159
aa(lp3160
I9
aV"1_a"
p3161
aV"1_e"
p3162
aa(lp3163
I9
aV"2_a"
p3164
aV"2_b"
p3165
aa(lp3166
I9
aV"2_a"
p3167
aV"2_d"
p3168
aa(lp3169
I9
aV"2_a"
p3170
aV"2_f"
p3171
aa(lp3172
I9
aV"2_a"
p3173
aV"2_g"
p3174
aaa(lp3175
(lp3176
I9
aV"2_f"
p3177
aV"1_c"
p3178
aa(lp3179
I9
aV"1_c"
p3180
aV"2_f"
p3181
aa(lp3182
I9
aV"2_g"
p3183
aV"1_e"
p3184
aa(lp3185
I9
aV"1_e"
p3186
aV"2_g"
p3187
aaasba(ihelper
PossibleWorld
p3188
(dp3189
g3
I10
sg4
I0
sg5
(lp3190
(lp3191
(lp3192
I10
aV"1_b"
p3193
aV"2_b"
p3194
aa(lp3195
I10
aV"1_d"
p3196
aV"2_d"
p3197
aa(lp3198
I10
aV"2_d"
p3199
aV"1_d"
p3200
aa(lp3201
I10
aV"2_b"
p3202
aV"1_b"
p3203
aa(lp3204
I10
aV"2_a"
p3205
aV"2_a"
p3206
aa(lp3207
I10
aV"1_a"
p3208
aV"1_a"
p3209
aa(lp3210
I10
aV"2_g"
p3211
aV"2_g"
p3212
aa(lp3213
I10
aV"2_f"
p3214
aV"2_f"
p3215
aa(lp3216
I10
aV"2_d"
p3217
aV"2_d"
p3218
aa(lp3219
I10
aV"2_b"
p3220
aV"2_b"
p3221
aa(lp3222
I10
aV"1_e"
p3223
aV"1_e"
p3224
aa(lp3225
I10
aV"1_d"
p3226
aV"1_d"
p3227
aa(lp3228
I10
aV"1_c"
p3229
aV"1_c"
p3230
aa(lp3231
I10
aV"1_b"
p3232
aV"1_b"
p3233
aaa(lp3234
(lp3235
I10
aV"1_c"
p3236
aV"1_b"
p3237
aa(lp3238
I10
aV"1_d"
p3239
aV"1_b"
p3240
aa(lp3241
I10
aV"1_e"
p3242
aV"1_b"
p3243
aa(lp3244
I10
aV"1_b"
p3245
aV"1_c"
p3246
aa(lp3247
I10
aV"1_d"
p3248
aV"1_c"
p3249
aa(lp3250
I10
aV"1_e"
p3251
aV"1_c"
p3252
aa(lp3253
I10
aV"1_b"
p3254
aV"1_d"
p3255
aa(lp3256
I10
aV"1_c"
p3257
aV"1_d"
p3258
aa(lp3259
I10
aV"1_e"
p3260
aV"1_d"
p3261
aa(lp3262
I10
aV"1_b"
p3263
aV"1_e"
p3264
aa(lp3265
I10
aV"1_c"
p3266
aV"1_e"
p3267
aa(lp3268
I10
aV"1_d"
p3269
aV"1_e"
p3270
aa(lp3271
I10
aV"2_d"
p3272
aV"2_b"
p3273
aa(lp3274
I10
aV"2_f"
p3275
aV"2_b"
p3276
aa(lp3277
I10
aV"2_g"
p3278
aV"2_b"
p3279
aa(lp3280
I10
aV"2_b"
p3281
aV"2_d"
p3282
aa(lp3283
I10
aV"2_f"
p3284
aV"2_d"
p3285
aa(lp3286
I10
aV"2_g"
p3287
aV"2_d"
p3288
aa(lp3289
I10
aV"2_b"
p3290
aV"2_f"
p3291
aa(lp3292
I10
aV"2_d"
p3293
aV"2_f"
p3294
aa(lp3295
I10
aV"2_g"
p3296
aV"2_f"
p3297
aa(lp3298
I10
aV"2_b"
p3299
aV"2_g"
p3300
aa(lp3301
I10
aV"2_d"
p3302
aV"2_g"
p3303
aa(lp3304
I10
aV"2_f"
p3305
aV"2_g"
p3306
aa(lp3307
I10
aV"1_c"
p3308
aV"2_d"
p3309
aa(lp3310
I10
aV"1_c"
p3311
aV"2_b"
p3312
aa(lp3313
I10
aV"1_b"
p3314
aV"2_g"
p3315
aa(lp3316
I10
aV"1_d"
p3317
aV"2_g"
p3318
aa(lp3319
I10
aV"1_b"
p3320
aV"2_d"
p3321
aa(lp3322
I10
aV"1_e"
p3323
aV"2_d"
p3324
aa(lp3325
I10
aV"1_d"
p3326
aV"2_b"
p3327
aa(lp3328
I10
aV"1_e"
p3329
aV"2_b"
p3330
aa(lp3331
I10
aV"1_d"
p3332
aV"2_f"
p3333
aa(lp3334
I10
aV"1_b"
p3335
aV"2_f"
p3336
aa(lp3337
I10
aV"2_f"
p3338
aV"1_b"
p3339
aa(lp3340
I10
aV"2_f"
p3341
aV"1_d"
p3342
aa(lp3343
I10
aV"2_b"
p3344
aV"1_e"
p3345
aa(lp3346
I10
aV"2_b"
p3347
aV"1_d"
p3348
aa(lp3349
I10
aV"2_d"
p3350
aV"1_e"
p3351
aa(lp3352
I10
aV"2_d"
p3353
aV"1_b"
p3354
aa(lp3355
I10
aV"2_g"
p3356
aV"1_d"
p3357
aa(lp3358
I10
aV"2_g"
p3359
aV"1_b"
p3360
aa(lp3361
I10
aV"2_b"
p3362
aV"1_c"
p3363
aa(lp3364
I10
aV"2_d"
p3365
aV"1_c"
p3366
aa(lp3367
I10
aV"1_c"
p3368
aV"2_g"
p3369
aa(lp3370
I10
aV"1_e"
p3371
aV"2_f"
p3372
aa(lp3373
I10
aV"2_f"
p3374
aV"1_e"
p3375
aa(lp3376
I10
aV"2_g"
p3377
aV"1_c"
p3378
aaa(lp3379
(lp3380
I10
aV"1_b"
p3381
aV"1_a"
p3382
aa(lp3383
I10
aV"1_c"
p3384
aV"1_a"
p3385
aa(lp3386
I10
aV"1_d"
p3387
aV"1_a"
p3388
aa(lp3389
I10
aV"1_e"
p3390
aV"1_a"
p3391
aa(lp3392
I10
aV"2_b"
p3393
aV"2_a"
p3394
aa(lp3395
I10
aV"2_d"
p3396
aV"2_a"
p3397
aa(lp3398
I10
aV"2_f"
p3399
aV"2_a"
p3400
aa(lp3401
I10
aV"2_g"
p3402
aV"2_a"
p3403
aa(lp3404
I10
aV"1_b"
p3405
aV"2_a"
p3406
aa(lp3407
I10
aV"1_d"
p3408
aV"2_a"
p3409
aa(lp3410
I10
aV"2_d"
p3411
aV"1_a"
p3412
aa(lp3413
I10
aV"2_b"
p3414
aV"1_a"
p3415
aa(lp3416
I10
aV"1_a"
p3417
aV"2_a"
p3418
aa(lp3419
I10
aV"1_c"
p3420
aV"2_a"
p3421
aa(lp3422
I10
aV"1_e"
p3423
aV"2_a"
p3424
aa(lp3425
I10
aV"2_f"
p3426
aV"1_a"
p3427
aa(lp3428
I10
aV"2_g"
p3429
aV"1_a"
p3430
aaa(lp3431
(lp3432
I10
aV"2_a"
p3433
aV"2_g"
p3434
aa(lp3435
I10
aV"2_a"
p3436
aV"2_f"
p3437
aa(lp3438
I10
aV"2_a"
p3439
aV"2_d"
p3440
aa(lp3441
I10
aV"2_a"
p3442
aV"2_b"
p3443
aa(lp3444
I10
aV"1_a"
p3445
aV"1_e"
p3446
aa(lp3447
I10
aV"1_a"
p3448
aV"1_d"
p3449
aa(lp3450
I10
aV"1_a"
p3451
aV"1_c"
p3452
aa(lp3453
I10
aV"1_a"
p3454
aV"1_b"
p3455
aa(lp3456
I10
aV"2_a"
p3457
aV"1_d"
p3458
aa(lp3459
I10
aV"2_a"
p3460
aV"1_b"
p3461
aa(lp3462
I10
aV"1_a"
p3463
aV"2_b"
p3464
aa(lp3465
I10
aV"1_a"
p3466
aV"2_d"
p3467
aa(lp3468
I10
aV"2_a"
p3469
aV"1_a"
p3470
aa(lp3471
I10
aV"2_a"
p3472
aV"1_e"
p3473
aa(lp3474
I10
aV"2_a"
p3475
aV"1_c"
p3476
aa(lp3477
I10
aV"1_a"
p3478
aV"2_g"
p3479
aa(lp3480
I10
aV"1_a"
p3481
aV"2_f"
p3482
aaa(lp3483
(lp3484
I10
aV"1_b"
p3485
aa(lp3486
I10
aV"1_c"
p3487
aa(lp3488
I10
aV"1_d"
p3489
aa(lp3490
I10
aV"1_e"
p3491
aa(lp3492
I10
aV"2_b"
p3493
aa(lp3494
I10
aV"2_d"
p3495
aa(lp3496
I10
aV"2_f"
p3497
aa(lp3498
I10
aV"2_g"
p3499
aa(lp3500
I10
aV"1_a"
p3501
aa(lp3502
I10
aV"2_a"
p3503
aaa(lp3504
(lp3505
I10
aV"1_a"
p3506
aV"1_b"
p3507
aa(lp3508
I10
aV"1_a"
p3509
aV"1_c"
p3510
aa(lp3511
I10
aV"1_a"
p3512
aV"1_d"
p3513
aa(lp3514
I10
aV"1_a"
p3515
aV"1_e"
p3516
aa(lp3517
I10
aV"2_a"
p3518
aV"2_b"
p3519
aa(lp3520
I10
aV"2_a"
p3521
aV"2_d"
p3522
aa(lp3523
I10
aV"2_a"
p3524
aV"2_f"
p3525
aa(lp3526
I10
aV"2_a"
p3527
aV"2_g"
p3528
aaa(lp3529
(lp3530
I10
aV"2_f"
p3531
aV"1_c"
p3532
aa(lp3533
I10
aV"1_c"
p3534
aV"2_f"
p3535
aa(lp3536
I10
aV"2_g"
p3537
aV"1_e"
p3538
aa(lp3539
I10
aV"1_e"
p3540
aV"2_g"
p3541
aaasba(ihelper
PossibleWorld
p3542
(dp3543
g3
I11
sg4
I0
sg5
(lp3544
(lp3545
(lp3546
I11
aV"1_b"
p3547
aV"2_b"
p3548
aa(lp3549
I11
aV"1_d"
p3550
aV"2_d"
p3551
aa(lp3552
I11
aV"2_d"
p3553
aV"1_d"
p3554
aa(lp3555
I11
aV"2_b"
p3556
aV"1_b"
p3557
aa(lp3558
I11
aV"2_a"
p3559
aV"2_a"
p3560
aa(lp3561
I11
aV"1_a"
p3562
aV"1_a"
p3563
aa(lp3564
I11
aV"2_g"
p3565
aV"2_g"
p3566
aa(lp3567
I11
aV"2_f"
p3568
aV"2_f"
p3569
aa(lp3570
I11
aV"2_d"
p3571
aV"2_d"
p3572
aa(lp3573
I11
aV"2_b"
p3574
aV"2_b"
p3575
aa(lp3576
I11
aV"1_e"
p3577
aV"1_e"
p3578
aa(lp3579
I11
aV"1_d"
p3580
aV"1_d"
p3581
aa(lp3582
I11
aV"1_c"
p3583
aV"1_c"
p3584
aa(lp3585
I11
aV"1_b"
p3586
aV"1_b"
p3587
aa(lp3588
I11
aV"1_a"
p3589
aV"2_a"
p3590
aa(lp3591
I11
aV"2_a"
p3592
aV"1_a"
p3593
aaa(lp3594
(lp3595
I11
aV"1_c"
p3596
aV"1_b"
p3597
aa(lp3598
I11
aV"1_d"
p3599
aV"1_b"
p3600
aa(lp3601
I11
aV"1_e"
p3602
aV"1_b"
p3603
aa(lp3604
I11
aV"1_b"
p3605
aV"1_c"
p3606
aa(lp3607
I11
aV"1_d"
p3608
aV"1_c"
p3609
aa(lp3610
I11
aV"1_e"
p3611
aV"1_c"
p3612
aa(lp3613
I11
aV"1_b"
p3614
aV"1_d"
p3615
aa(lp3616
I11
aV"1_c"
p3617
aV"1_d"
p3618
aa(lp3619
I11
aV"1_e"
p3620
aV"1_d"
p3621
aa(lp3622
I11
aV"1_b"
p3623
aV"1_e"
p3624
aa(lp3625
I11
aV"1_c"
p3626
aV"1_e"
p3627
aa(lp3628
I11
aV"1_d"
p3629
aV"1_e"
p3630
aa(lp3631
I11
aV"2_d"
p3632
aV"2_b"
p3633
aa(lp3634
I11
aV"2_f"
p3635
aV"2_b"
p3636
aa(lp3637
I11
aV"2_g"
p3638
aV"2_b"
p3639
aa(lp3640
I11
aV"2_b"
p3641
aV"2_d"
p3642
aa(lp3643
I11
aV"2_f"
p3644
aV"2_d"
p3645
aa(lp3646
I11
aV"2_g"
p3647
aV"2_d"
p3648
aa(lp3649
I11
aV"2_b"
p3650
aV"2_f"
p3651
aa(lp3652
I11
aV"2_d"
p3653
aV"2_f"
p3654
aa(lp3655
I11
aV"2_g"
p3656
aV"2_f"
p3657
aa(lp3658
I11
aV"2_b"
p3659
aV"2_g"
p3660
aa(lp3661
I11
aV"2_d"
p3662
aV"2_g"
p3663
aa(lp3664
I11
aV"2_f"
p3665
aV"2_g"
p3666
aa(lp3667
I11
aV"1_c"
p3668
aV"2_d"
p3669
aa(lp3670
I11
aV"1_c"
p3671
aV"2_b"
p3672
aa(lp3673
I11
aV"1_b"
p3674
aV"2_g"
p3675
aa(lp3676
I11
aV"1_d"
p3677
aV"2_g"
p3678
aa(lp3679
I11
aV"1_b"
p3680
aV"2_d"
p3681
aa(lp3682
I11
aV"1_e"
p3683
aV"2_d"
p3684
aa(lp3685
I11
aV"1_d"
p3686
aV"2_b"
p3687
aa(lp3688
I11
aV"1_e"
p3689
aV"2_b"
p3690
aa(lp3691
I11
aV"1_d"
p3692
aV"2_f"
p3693
aa(lp3694
I11
aV"1_b"
p3695
aV"2_f"
p3696
aa(lp3697
I11
aV"2_f"
p3698
aV"1_b"
p3699
aa(lp3700
I11
aV"2_f"
p3701
aV"1_d"
p3702
aa(lp3703
I11
aV"2_b"
p3704
aV"1_e"
p3705
aa(lp3706
I11
aV"2_b"
p3707
aV"1_d"
p3708
aa(lp3709
I11
aV"2_d"
p3710
aV"1_e"
p3711
aa(lp3712
I11
aV"2_d"
p3713
aV"1_b"
p3714
aa(lp3715
I11
aV"2_g"
p3716
aV"1_d"
p3717
aa(lp3718
I11
aV"2_g"
p3719
aV"1_b"
p3720
aa(lp3721
I11
aV"2_b"
p3722
aV"1_c"
p3723
aa(lp3724
I11
aV"2_d"
p3725
aV"1_c"
p3726
aa(lp3727
I11
aV"1_e"
p3728
aV"2_f"
p3729
aa(lp3730
I11
aV"2_f"
p3731
aV"1_e"
p3732
aaa(lp3733
(lp3734
I11
aV"1_b"
p3735
aV"1_a"
p3736
aa(lp3737
I11
aV"1_c"
p3738
aV"1_a"
p3739
aa(lp3740
I11
aV"1_d"
p3741
aV"1_a"
p3742
aa(lp3743
I11
aV"1_e"
p3744
aV"1_a"
p3745
aa(lp3746
I11
aV"2_b"
p3747
aV"2_a"
p3748
aa(lp3749
I11
aV"2_d"
p3750
aV"2_a"
p3751
aa(lp3752
I11
aV"2_f"
p3753
aV"2_a"
p3754
aa(lp3755
I11
aV"2_g"
p3756
aV"2_a"
p3757
aa(lp3758
I11
aV"1_b"
p3759
aV"2_a"
p3760
aa(lp3761
I11
aV"1_d"
p3762
aV"2_a"
p3763
aa(lp3764
I11
aV"2_d"
p3765
aV"1_a"
p3766
aa(lp3767
I11
aV"2_b"
p3768
aV"1_a"
p3769
aa(lp3770
I11
aV"1_c"
p3771
aV"2_a"
p3772
aa(lp3773
I11
aV"1_e"
p3774
aV"2_a"
p3775
aa(lp3776
I11
aV"2_f"
p3777
aV"1_a"
p3778
aa(lp3779
I11
aV"2_g"
p3780
aV"1_a"
p3781
aaa(lp3782
(lp3783
I11
aV"2_a"
p3784
aV"2_g"
p3785
aa(lp3786
I11
aV"2_a"
p3787
aV"2_f"
p3788
aa(lp3789
I11
aV"2_a"
p3790
aV"2_d"
p3791
aa(lp3792
I11
aV"2_a"
p3793
aV"2_b"
p3794
aa(lp3795
I11
aV"1_a"
p3796
aV"1_e"
p3797
aa(lp3798
I11
aV"1_a"
p3799
aV"1_d"
p3800
aa(lp3801
I11
aV"1_a"
p3802
aV"1_c"
p3803
aa(lp3804
I11
aV"1_a"
p3805
aV"1_b"
p3806
aa(lp3807
I11
aV"2_a"
p3808
aV"1_d"
p3809
aa(lp3810
I11
aV"2_a"
p3811
aV"1_b"
p3812
aa(lp3813
I11
aV"1_a"
p3814
aV"2_b"
p3815
aa(lp3816
I11
aV"1_a"
p3817
aV"2_d"
p3818
aa(lp3819
I11
aV"2_a"
p3820
aV"1_e"
p3821
aa(lp3822
I11
aV"2_a"
p3823
aV"1_c"
p3824
aa(lp3825
I11
aV"1_a"
p3826
aV"2_g"
p3827
aa(lp3828
I11
aV"1_a"
p3829
aV"2_f"
p3830
aaa(lp3831
(lp3832
I11
aV"1_b"
p3833
aa(lp3834
I11
aV"1_c"
p3835
aa(lp3836
I11
aV"1_d"
p3837
aa(lp3838
I11
aV"1_e"
p3839
aa(lp3840
I11
aV"2_b"
p3841
aa(lp3842
I11
aV"2_d"
p3843
aa(lp3844
I11
aV"2_f"
p3845
aa(lp3846
I11
aV"2_g"
p3847
aa(lp3848
I11
aV"1_a"
p3849
aa(lp3850
I11
aV"2_a"
p3851
aaa(lp3852
(lp3853
I11
aV"1_a"
p3854
aV"1_b"
p3855
aa(lp3856
I11
aV"1_a"
p3857
aV"1_c"
p3858
aa(lp3859
I11
aV"1_a"
p3860
aV"1_d"
p3861
aa(lp3862
I11
aV"1_a"
p3863
aV"1_e"
p3864
aa(lp3865
I11
aV"2_a"
p3866
aV"2_b"
p3867
aa(lp3868
I11
aV"2_a"
p3869
aV"2_d"
p3870
aa(lp3871
I11
aV"2_a"
p3872
aV"2_f"
p3873
aa(lp3874
I11
aV"2_a"
p3875
aV"2_g"
p3876
aaa(lp3877
(lp3878
I11
aV"2_f"
p3879
aV"1_c"
p3880
aa(lp3881
I11
aV"1_c"
p3882
aV"2_f"
p3883
aa(lp3884
I11
aV"2_g"
p3885
aV"1_e"
p3886
aa(lp3887
I11
aV"1_e"
p3888
aV"2_g"
p3889
aa(lp3890
I11
aV"1_c"
p3891
aV"2_g"
p3892
aa(lp3893
I11
aV"2_g"
p3894
aV"1_c"
p3895
aaasba(ihelper
PossibleWorld
p3896
(dp3897
g3
I12
sg4
I0
sg5
(lp3898
(lp3899
(lp3900
I12
aV"1_b"
p3901
aV"2_b"
p3902
aa(lp3903
I12
aV"1_d"
p3904
aV"2_d"
p3905
aa(lp3906
I12
aV"2_d"
p3907
aV"1_d"
p3908
aa(lp3909
I12
aV"2_b"
p3910
aV"1_b"
p3911
aa(lp3912
I12
aV"2_a"
p3913
aV"2_a"
p3914
aa(lp3915
I12
aV"1_a"
p3916
aV"1_a"
p3917
aa(lp3918
I12
aV"2_g"
p3919
aV"2_g"
p3920
aa(lp3921
I12
aV"2_f"
p3922
aV"2_f"
p3923
aa(lp3924
I12
aV"2_d"
p3925
aV"2_d"
p3926
aa(lp3927
I12
aV"2_b"
p3928
aV"2_b"
p3929
aa(lp3930
I12
aV"1_e"
p3931
aV"1_e"
p3932
aa(lp3933
I12
aV"1_d"
p3934
aV"1_d"
p3935
aa(lp3936
I12
aV"1_c"
p3937
aV"1_c"
p3938
aa(lp3939
I12
aV"1_b"
p3940
aV"1_b"
p3941
aaa(lp3942
(lp3943
I12
aV"1_c"
p3944
aV"1_b"
p3945
aa(lp3946
I12
aV"1_d"
p3947
aV"1_b"
p3948
aa(lp3949
I12
aV"1_e"
p3950
aV"1_b"
p3951
aa(lp3952
I12
aV"1_b"
p3953
aV"1_c"
p3954
aa(lp3955
I12
aV"1_d"
p3956
aV"1_c"
p3957
aa(lp3958
I12
aV"1_e"
p3959
aV"1_c"
p3960
aa(lp3961
I12
aV"1_b"
p3962
aV"1_d"
p3963
aa(lp3964
I12
aV"1_c"
p3965
aV"1_d"
p3966
aa(lp3967
I12
aV"1_e"
p3968
aV"1_d"
p3969
aa(lp3970
I12
aV"1_b"
p3971
aV"1_e"
p3972
aa(lp3973
I12
aV"1_c"
p3974
aV"1_e"
p3975
aa(lp3976
I12
aV"1_d"
p3977
aV"1_e"
p3978
aa(lp3979
I12
aV"2_d"
p3980
aV"2_b"
p3981
aa(lp3982
I12
aV"2_f"
p3983
aV"2_b"
p3984
aa(lp3985
I12
aV"2_g"
p3986
aV"2_b"
p3987
aa(lp3988
I12
aV"2_b"
p3989
aV"2_d"
p3990
aa(lp3991
I12
aV"2_f"
p3992
aV"2_d"
p3993
aa(lp3994
I12
aV"2_g"
p3995
aV"2_d"
p3996
aa(lp3997
I12
aV"2_b"
p3998
aV"2_f"
p3999
aa(lp4000
I12
aV"2_d"
p4001
aV"2_f"
p4002
aa(lp4003
I12
aV"2_g"
p4004
aV"2_f"
p4005
aa(lp4006
I12
aV"2_b"
p4007
aV"2_g"
p4008
aa(lp4009
I12
aV"2_d"
p4010
aV"2_g"
p4011
aa(lp4012
I12
aV"2_f"
p4013
aV"2_g"
p4014
aa(lp4015
I12
aV"1_c"
p4016
aV"2_d"
p4017
aa(lp4018
I12
aV"1_c"
p4019
aV"2_b"
p4020
aa(lp4021
I12
aV"1_b"
p4022
aV"2_g"
p4023
aa(lp4024
I12
aV"1_d"
p4025
aV"2_g"
p4026
aa(lp4027
I12
aV"1_b"
p4028
aV"2_d"
p4029
aa(lp4030
I12
aV"1_e"
p4031
aV"2_d"
p4032
aa(lp4033
I12
aV"1_d"
p4034
aV"2_b"
p4035
aa(lp4036
I12
aV"1_e"
p4037
aV"2_b"
p4038
aa(lp4039
I12
aV"1_d"
p4040
aV"2_f"
p4041
aa(lp4042
I12
aV"1_b"
p4043
aV"2_f"
p4044
aa(lp4045
I12
aV"2_f"
p4046
aV"1_b"
p4047
aa(lp4048
I12
aV"2_f"
p4049
aV"1_d"
p4050
aa(lp4051
I12
aV"2_b"
p4052
aV"1_e"
p4053
aa(lp4054
I12
aV"2_b"
p4055
aV"1_d"
p4056
aa(lp4057
I12
aV"2_d"
p4058
aV"1_e"
p4059
aa(lp4060
I12
aV"2_d"
p4061
aV"1_b"
p4062
aa(lp4063
I12
aV"2_g"
p4064
aV"1_d"
p4065
aa(lp4066
I12
aV"2_g"
p4067
aV"1_b"
p4068
aa(lp4069
I12
aV"2_b"
p4070
aV"1_c"
p4071
aa(lp4072
I12
aV"2_d"
p4073
aV"1_c"
p4074
aa(lp4075
I12
aV"1_e"
p4076
aV"2_f"
p4077
aa(lp4078
I12
aV"2_f"
p4079
aV"1_e"
p4080
aaa(lp4081
(lp4082
I12
aV"1_b"
p4083
aV"1_a"
p4084
aa(lp4085
I12
aV"1_c"
p4086
aV"1_a"
p4087
aa(lp4088
I12
aV"1_d"
p4089
aV"1_a"
p4090
aa(lp4091
I12
aV"1_e"
p4092
aV"1_a"
p4093
aa(lp4094
I12
aV"2_b"
p4095
aV"2_a"
p4096
aa(lp4097
I12
aV"2_d"
p4098
aV"2_a"
p4099
aa(lp4100
I12
aV"2_f"
p4101
aV"2_a"
p4102
aa(lp4103
I12
aV"2_g"
p4104
aV"2_a"
p4105
aa(lp4106
I12
aV"1_b"
p4107
aV"2_a"
p4108
aa(lp4109
I12
aV"1_d"
p4110
aV"2_a"
p4111
aa(lp4112
I12
aV"2_d"
p4113
aV"1_a"
p4114
aa(lp4115
I12
aV"2_b"
p4116
aV"1_a"
p4117
aa(lp4118
I12
aV"1_a"
p4119
aV"2_a"
p4120
aa(lp4121
I12
aV"1_c"
p4122
aV"2_a"
p4123
aa(lp4124
I12
aV"1_e"
p4125
aV"2_a"
p4126
aa(lp4127
I12
aV"2_f"
p4128
aV"1_a"
p4129
aa(lp4130
I12
aV"2_g"
p4131
aV"1_a"
p4132
aaa(lp4133
(lp4134
I12
aV"2_a"
p4135
aV"2_g"
p4136
aa(lp4137
I12
aV"2_a"
p4138
aV"2_f"
p4139
aa(lp4140
I12
aV"2_a"
p4141
aV"2_d"
p4142
aa(lp4143
I12
aV"2_a"
p4144
aV"2_b"
p4145
aa(lp4146
I12
aV"1_a"
p4147
aV"1_e"
p4148
aa(lp4149
I12
aV"1_a"
p4150
aV"1_d"
p4151
aa(lp4152
I12
aV"1_a"
p4153
aV"1_c"
p4154
aa(lp4155
I12
aV"1_a"
p4156
aV"1_b"
p4157
aa(lp4158
I12
aV"2_a"
p4159
aV"1_d"
p4160
aa(lp4161
I12
aV"2_a"
p4162
aV"1_b"
p4163
aa(lp4164
I12
aV"1_a"
p4165
aV"2_b"
p4166
aa(lp4167
I12
aV"1_a"
p4168
aV"2_d"
p4169
aa(lp4170
I12
aV"2_a"
p4171
aV"1_a"
p4172
aa(lp4173
I12
aV"2_a"
p4174
aV"1_e"
p4175
aa(lp4176
I12
aV"2_a"
p4177
aV"1_c"
p4178
aa(lp4179
I12
aV"1_a"
p4180
aV"2_g"
p4181
aa(lp4182
I12
aV"1_a"
p4183
aV"2_f"
p4184
aaa(lp4185
(lp4186
I12
aV"1_b"
p4187
aa(lp4188
I12
aV"1_c"
p4189
aa(lp4190
I12
aV"1_d"
p4191
aa(lp4192
I12
aV"1_e"
p4193
aa(lp4194
I12
aV"2_b"
p4195
aa(lp4196
I12
aV"2_d"
p4197
aa(lp4198
I12
aV"2_f"
p4199
aa(lp4200
I12
aV"2_g"
p4201
aa(lp4202
I12
aV"1_a"
p4203
aa(lp4204
I12
aV"2_a"
p4205
aaa(lp4206
(lp4207
I12
aV"1_a"
p4208
aV"1_b"
p4209
aa(lp4210
I12
aV"1_a"
p4211
aV"1_c"
p4212
aa(lp4213
I12
aV"1_a"
p4214
aV"1_d"
p4215
aa(lp4216
I12
aV"1_a"
p4217
aV"1_e"
p4218
aa(lp4219
I12
aV"2_a"
p4220
aV"2_b"
p4221
aa(lp4222
I12
aV"2_a"
p4223
aV"2_d"
p4224
aa(lp4225
I12
aV"2_a"
p4226
aV"2_f"
p4227
aa(lp4228
I12
aV"2_a"
p4229
aV"2_g"
p4230
aaa(lp4231
(lp4232
I12
aV"2_f"
p4233
aV"1_c"
p4234
aa(lp4235
I12
aV"1_c"
p4236
aV"2_f"
p4237
aa(lp4238
I12
aV"2_g"
p4239
aV"1_e"
p4240
aa(lp4241
I12
aV"1_e"
p4242
aV"2_g"
p4243
aa(lp4244
I12
aV"1_c"
p4245
aV"2_g"
p4246
aa(lp4247
I12
aV"2_g"
p4248
aV"1_c"
p4249
aaasba(ihelper
PossibleWorld
p4250
(dp4251
g3
I13
sg4
I0
sg5
(lp4252
(lp4253
(lp4254
I13
aV"1_b"
p4255
aV"2_b"
p4256
aa(lp4257
I13
aV"1_d"
p4258
aV"2_d"
p4259
aa(lp4260
I13
aV"2_d"
p4261
aV"1_d"
p4262
aa(lp4263
I13
aV"2_b"
p4264
aV"1_b"
p4265
aa(lp4266
I13
aV"2_a"
p4267
aV"2_a"
p4268
aa(lp4269
I13
aV"1_a"
p4270
aV"1_a"
p4271
aa(lp4272
I13
aV"2_g"
p4273
aV"2_g"
p4274
aa(lp4275
I13
aV"2_f"
p4276
aV"2_f"
p4277
aa(lp4278
I13
aV"2_d"
p4279
aV"2_d"
p4280
aa(lp4281
I13
aV"2_b"
p4282
aV"2_b"
p4283
aa(lp4284
I13
aV"1_e"
p4285
aV"1_e"
p4286
aa(lp4287
I13
aV"1_d"
p4288
aV"1_d"
p4289
aa(lp4290
I13
aV"1_c"
p4291
aV"1_c"
p4292
aa(lp4293
I13
aV"1_b"
p4294
aV"1_b"
p4295
aa(lp4296
I13
aV"1_a"
p4297
aV"2_a"
p4298
aa(lp4299
I13
aV"2_a"
p4300
aV"1_a"
p4301
aaa(lp4302
(lp4303
I13
aV"1_c"
p4304
aV"1_b"
p4305
aa(lp4306
I13
aV"1_d"
p4307
aV"1_b"
p4308
aa(lp4309
I13
aV"1_e"
p4310
aV"1_b"
p4311
aa(lp4312
I13
aV"1_b"
p4313
aV"1_c"
p4314
aa(lp4315
I13
aV"1_d"
p4316
aV"1_c"
p4317
aa(lp4318
I13
aV"1_e"
p4319
aV"1_c"
p4320
aa(lp4321
I13
aV"1_b"
p4322
aV"1_d"
p4323
aa(lp4324
I13
aV"1_c"
p4325
aV"1_d"
p4326
aa(lp4327
I13
aV"1_e"
p4328
aV"1_d"
p4329
aa(lp4330
I13
aV"1_b"
p4331
aV"1_e"
p4332
aa(lp4333
I13
aV"1_c"
p4334
aV"1_e"
p4335
aa(lp4336
I13
aV"1_d"
p4337
aV"1_e"
p4338
aa(lp4339
I13
aV"2_d"
p4340
aV"2_b"
p4341
aa(lp4342
I13
aV"2_f"
p4343
aV"2_b"
p4344
aa(lp4345
I13
aV"2_g"
p4346
aV"2_b"
p4347
aa(lp4348
I13
aV"2_b"
p4349
aV"2_d"
p4350
aa(lp4351
I13
aV"2_f"
p4352
aV"2_d"
p4353
aa(lp4354
I13
aV"2_g"
p4355
aV"2_d"
p4356
aa(lp4357
I13
aV"2_b"
p4358
aV"2_f"
p4359
aa(lp4360
I13
aV"2_d"
p4361
aV"2_f"
p4362
aa(lp4363
I13
aV"2_g"
p4364
aV"2_f"
p4365
aa(lp4366
I13
aV"2_b"
p4367
aV"2_g"
p4368
aa(lp4369
I13
aV"2_d"
p4370
aV"2_g"
p4371
aa(lp4372
I13
aV"2_f"
p4373
aV"2_g"
p4374
aa(lp4375
I13
aV"1_c"
p4376
aV"2_d"
p4377
aa(lp4378
I13
aV"1_c"
p4379
aV"2_b"
p4380
aa(lp4381
I13
aV"1_b"
p4382
aV"2_g"
p4383
aa(lp4384
I13
aV"1_d"
p4385
aV"2_g"
p4386
aa(lp4387
I13
aV"1_b"
p4388
aV"2_d"
p4389
aa(lp4390
I13
aV"1_e"
p4391
aV"2_d"
p4392
aa(lp4393
I13
aV"1_d"
p4394
aV"2_b"
p4395
aa(lp4396
I13
aV"1_e"
p4397
aV"2_b"
p4398
aa(lp4399
I13
aV"1_d"
p4400
aV"2_f"
p4401
aa(lp4402
I13
aV"1_b"
p4403
aV"2_f"
p4404
aa(lp4405
I13
aV"2_f"
p4406
aV"1_b"
p4407
aa(lp4408
I13
aV"2_f"
p4409
aV"1_d"
p4410
aa(lp4411
I13
aV"2_b"
p4412
aV"1_e"
p4413
aa(lp4414
I13
aV"2_b"
p4415
aV"1_d"
p4416
aa(lp4417
I13
aV"2_d"
p4418
aV"1_e"
p4419
aa(lp4420
I13
aV"2_d"
p4421
aV"1_b"
p4422
aa(lp4423
I13
aV"2_g"
p4424
aV"1_d"
p4425
aa(lp4426
I13
aV"2_g"
p4427
aV"1_b"
p4428
aa(lp4429
I13
aV"2_b"
p4430
aV"1_c"
p4431
aa(lp4432
I13
aV"2_d"
p4433
aV"1_c"
p4434
aa(lp4435
I13
aV"1_c"
p4436
aV"2_g"
p4437
aa(lp4438
I13
aV"2_g"
p4439
aV"1_c"
p4440
aaa(lp4441
(lp4442
I13
aV"1_b"
p4443
aV"1_a"
p4444
aa(lp4445
I13
aV"1_c"
p4446
aV"1_a"
p4447
aa(lp4448
I13
aV"1_d"
p4449
aV"1_a"
p4450
aa(lp4451
I13
aV"1_e"
p4452
aV"1_a"
p4453
aa(lp4454
I13
aV"2_b"
p4455
aV"2_a"
p4456
aa(lp4457
I13
aV"2_d"
p4458
aV"2_a"
p4459
aa(lp4460
I13
aV"2_f"
p4461
aV"2_a"
p4462
aa(lp4463
I13
aV"2_g"
p4464
aV"2_a"
p4465
aa(lp4466
I13
aV"1_b"
p4467
aV"2_a"
p4468
aa(lp4469
I13
aV"1_d"
p4470
aV"2_a"
p4471
aa(lp4472
I13
aV"2_d"
p4473
aV"1_a"
p4474
aa(lp4475
I13
aV"2_b"
p4476
aV"1_a"
p4477
aa(lp4478
I13
aV"1_c"
p4479
aV"2_a"
p4480
aa(lp4481
I13
aV"1_e"
p4482
aV"2_a"
p4483
aa(lp4484
I13
aV"2_f"
p4485
aV"1_a"
p4486
aa(lp4487
I13
aV"2_g"
p4488
aV"1_a"
p4489
aaa(lp4490
(lp4491
I13
aV"2_a"
p4492
aV"2_g"
p4493
aa(lp4494
I13
aV"2_a"
p4495
aV"2_f"
p4496
aa(lp4497
I13
aV"2_a"
p4498
aV"2_d"
p4499
aa(lp4500
I13
aV"2_a"
p4501
aV"2_b"
p4502
aa(lp4503
I13
aV"1_a"
p4504
aV"1_e"
p4505
aa(lp4506
I13
aV"1_a"
p4507
aV"1_d"
p4508
aa(lp4509
I13
aV"1_a"
p4510
aV"1_c"
p4511
aa(lp4512
I13
aV"1_a"
p4513
aV"1_b"
p4514
aa(lp4515
I13
aV"2_a"
p4516
aV"1_d"
p4517
aa(lp4518
I13
aV"2_a"
p4519
aV"1_b"
p4520
aa(lp4521
I13
aV"1_a"
p4522
aV"2_b"
p4523
aa(lp4524
I13
aV"1_a"
p4525
aV"2_d"
p4526
aa(lp4527
I13
aV"2_a"
p4528
aV"1_e"
p4529
aa(lp4530
I13
aV"2_a"
p4531
aV"1_c"
p4532
aa(lp4533
I13
aV"1_a"
p4534
aV"2_g"
p4535
aa(lp4536
I13
aV"1_a"
p4537
aV"2_f"
p4538
aaa(lp4539
(lp4540
I13
aV"1_b"
p4541
aa(lp4542
I13
aV"1_c"
p4543
aa(lp4544
I13
aV"1_d"
p4545
aa(lp4546
I13
aV"1_e"
p4547
aa(lp4548
I13
aV"2_b"
p4549
aa(lp4550
I13
aV"2_d"
p4551
aa(lp4552
I13
aV"2_f"
p4553
aa(lp4554
I13
aV"2_g"
p4555
aa(lp4556
I13
aV"1_a"
p4557
aa(lp4558
I13
aV"2_a"
p4559
aaa(lp4560
(lp4561
I13
aV"1_a"
p4562
aV"1_b"
p4563
aa(lp4564
I13
aV"1_a"
p4565
aV"1_c"
p4566
aa(lp4567
I13
aV"1_a"
p4568
aV"1_d"
p4569
aa(lp4570
I13
aV"1_a"
p4571
aV"1_e"
p4572
aa(lp4573
I13
aV"2_a"
p4574
aV"2_b"
p4575
aa(lp4576
I13
aV"2_a"
p4577
aV"2_d"
p4578
aa(lp4579
I13
aV"2_a"
p4580
aV"2_f"
p4581
aa(lp4582
I13
aV"2_a"
p4583
aV"2_g"
p4584
aaa(lp4585
(lp4586
I13
aV"2_f"
p4587
aV"1_c"
p4588
aa(lp4589
I13
aV"1_c"
p4590
aV"2_f"
p4591
aa(lp4592
I13
aV"2_g"
p4593
aV"1_e"
p4594
aa(lp4595
I13
aV"1_e"
p4596
aV"2_g"
p4597
aa(lp4598
I13
aV"1_e"
p4599
aV"2_f"
p4600
aa(lp4601
I13
aV"2_f"
p4602
aV"1_e"
p4603
aaasba(ihelper
PossibleWorld
p4604
(dp4605
g3
I14
sg4
I0
sg5
(lp4606
(lp4607
(lp4608
I14
aV"1_b"
p4609
aV"2_b"
p4610
aa(lp4611
I14
aV"1_d"
p4612
aV"2_d"
p4613
aa(lp4614
I14
aV"2_d"
p4615
aV"1_d"
p4616
aa(lp4617
I14
aV"2_b"
p4618
aV"1_b"
p4619
aa(lp4620
I14
aV"2_a"
p4621
aV"2_a"
p4622
aa(lp4623
I14
aV"1_a"
p4624
aV"1_a"
p4625
aa(lp4626
I14
aV"2_g"
p4627
aV"2_g"
p4628
aa(lp4629
I14
aV"2_f"
p4630
aV"2_f"
p4631
aa(lp4632
I14
aV"2_d"
p4633
aV"2_d"
p4634
aa(lp4635
I14
aV"2_b"
p4636
aV"2_b"
p4637
aa(lp4638
I14
aV"1_e"
p4639
aV"1_e"
p4640
aa(lp4641
I14
aV"1_d"
p4642
aV"1_d"
p4643
aa(lp4644
I14
aV"1_c"
p4645
aV"1_c"
p4646
aa(lp4647
I14
aV"1_b"
p4648
aV"1_b"
p4649
aaa(lp4650
(lp4651
I14
aV"1_c"
p4652
aV"1_b"
p4653
aa(lp4654
I14
aV"1_d"
p4655
aV"1_b"
p4656
aa(lp4657
I14
aV"1_e"
p4658
aV"1_b"
p4659
aa(lp4660
I14
aV"1_b"
p4661
aV"1_c"
p4662
aa(lp4663
I14
aV"1_d"
p4664
aV"1_c"
p4665
aa(lp4666
I14
aV"1_e"
p4667
aV"1_c"
p4668
aa(lp4669
I14
aV"1_b"
p4670
aV"1_d"
p4671
aa(lp4672
I14
aV"1_c"
p4673
aV"1_d"
p4674
aa(lp4675
I14
aV"1_e"
p4676
aV"1_d"
p4677
aa(lp4678
I14
aV"1_b"
p4679
aV"1_e"
p4680
aa(lp4681
I14
aV"1_c"
p4682
aV"1_e"
p4683
aa(lp4684
I14
aV"1_d"
p4685
aV"1_e"
p4686
aa(lp4687
I14
aV"2_d"
p4688
aV"2_b"
p4689
aa(lp4690
I14
aV"2_f"
p4691
aV"2_b"
p4692
aa(lp4693
I14
aV"2_g"
p4694
aV"2_b"
p4695
aa(lp4696
I14
aV"2_b"
p4697
aV"2_d"
p4698
aa(lp4699
I14
aV"2_f"
p4700
aV"2_d"
p4701
aa(lp4702
I14
aV"2_g"
p4703
aV"2_d"
p4704
aa(lp4705
I14
aV"2_b"
p4706
aV"2_f"
p4707
aa(lp4708
I14
aV"2_d"
p4709
aV"2_f"
p4710
aa(lp4711
I14
aV"2_g"
p4712
aV"2_f"
p4713
aa(lp4714
I14
aV"2_b"
p4715
aV"2_g"
p4716
aa(lp4717
I14
aV"2_d"
p4718
aV"2_g"
p4719
aa(lp4720
I14
aV"2_f"
p4721
aV"2_g"
p4722
aa(lp4723
I14
aV"1_c"
p4724
aV"2_d"
p4725
aa(lp4726
I14
aV"1_c"
p4727
aV"2_b"
p4728
aa(lp4729
I14
aV"1_b"
p4730
aV"2_g"
p4731
aa(lp4732
I14
aV"1_d"
p4733
aV"2_g"
p4734
aa(lp4735
I14
aV"1_b"
p4736
aV"2_d"
p4737
aa(lp4738
I14
aV"1_e"
p4739
aV"2_d"
p4740
aa(lp4741
I14
aV"1_d"
p4742
aV"2_b"
p4743
aa(lp4744
I14
aV"1_e"
p4745
aV"2_b"
p4746
aa(lp4747
I14
aV"1_d"
p4748
aV"2_f"
p4749
aa(lp4750
I14
aV"1_b"
p4751
aV"2_f"
p4752
aa(lp4753
I14
aV"2_f"
p4754
aV"1_b"
p4755
aa(lp4756
I14
aV"2_f"
p4757
aV"1_d"
p4758
aa(lp4759
I14
aV"2_b"
p4760
aV"1_e"
p4761
aa(lp4762
I14
aV"2_b"
p4763
aV"1_d"
p4764
aa(lp4765
I14
aV"2_d"
p4766
aV"1_e"
p4767
aa(lp4768
I14
aV"2_d"
p4769
aV"1_b"
p4770
aa(lp4771
I14
aV"2_g"
p4772
aV"1_d"
p4773
aa(lp4774
I14
aV"2_g"
p4775
aV"1_b"
p4776
aa(lp4777
I14
aV"2_b"
p4778
aV"1_c"
p4779
aa(lp4780
I14
aV"2_d"
p4781
aV"1_c"
p4782
aa(lp4783
I14
aV"1_c"
p4784
aV"2_g"
p4785
aa(lp4786
I14
aV"2_g"
p4787
aV"1_c"
p4788
aaa(lp4789
(lp4790
I14
aV"1_b"
p4791
aV"1_a"
p4792
aa(lp4793
I14
aV"1_c"
p4794
aV"1_a"
p4795
aa(lp4796
I14
aV"1_d"
p4797
aV"1_a"
p4798
aa(lp4799
I14
aV"1_e"
p4800
aV"1_a"
p4801
aa(lp4802
I14
aV"2_b"
p4803
aV"2_a"
p4804
aa(lp4805
I14
aV"2_d"
p4806
aV"2_a"
p4807
aa(lp4808
I14
aV"2_f"
p4809
aV"2_a"
p4810
aa(lp4811
I14
aV"2_g"
p4812
aV"2_a"
p4813
aa(lp4814
I14
aV"1_b"
p4815
aV"2_a"
p4816
aa(lp4817
I14
aV"1_d"
p4818
aV"2_a"
p4819
aa(lp4820
I14
aV"2_d"
p4821
aV"1_a"
p4822
aa(lp4823
I14
aV"2_b"
p4824
aV"1_a"
p4825
aa(lp4826
I14
aV"1_a"
p4827
aV"2_a"
p4828
aa(lp4829
I14
aV"1_c"
p4830
aV"2_a"
p4831
aa(lp4832
I14
aV"1_e"
p4833
aV"2_a"
p4834
aa(lp4835
I14
aV"2_f"
p4836
aV"1_a"
p4837
aa(lp4838
I14
aV"2_g"
p4839
aV"1_a"
p4840
aaa(lp4841
(lp4842
I14
aV"2_a"
p4843
aV"2_g"
p4844
aa(lp4845
I14
aV"2_a"
p4846
aV"2_f"
p4847
aa(lp4848
I14
aV"2_a"
p4849
aV"2_d"
p4850
aa(lp4851
I14
aV"2_a"
p4852
aV"2_b"
p4853
aa(lp4854
I14
aV"1_a"
p4855
aV"1_e"
p4856
aa(lp4857
I14
aV"1_a"
p4858
aV"1_d"
p4859
aa(lp4860
I14
aV"1_a"
p4861
aV"1_c"
p4862
aa(lp4863
I14
aV"1_a"
p4864
aV"1_b"
p4865
aa(lp4866
I14
aV"2_a"
p4867
aV"1_d"
p4868
aa(lp4869
I14
aV"2_a"
p4870
aV"1_b"
p4871
aa(lp4872
I14
aV"1_a"
p4873
aV"2_b"
p4874
aa(lp4875
I14
aV"1_a"
p4876
aV"2_d"
p4877
aa(lp4878
I14
aV"2_a"
p4879
aV"1_a"
p4880
aa(lp4881
I14
aV"2_a"
p4882
aV"1_e"
p4883
aa(lp4884
I14
aV"2_a"
p4885
aV"1_c"
p4886
aa(lp4887
I14
aV"1_a"
p4888
aV"2_g"
p4889
aa(lp4890
I14
aV"1_a"
p4891
aV"2_f"
p4892
aaa(lp4893
(lp4894
I14
aV"1_b"
p4895
aa(lp4896
I14
aV"1_c"
p4897
aa(lp4898
I14
aV"1_d"
p4899
aa(lp4900
I14
aV"1_e"
p4901
aa(lp4902
I14
aV"2_b"
p4903
aa(lp4904
I14
aV"2_d"
p4905
aa(lp4906
I14
aV"2_f"
p4907
aa(lp4908
I14
aV"2_g"
p4909
aa(lp4910
I14
aV"1_a"
p4911
aa(lp4912
I14
aV"2_a"
p4913
aaa(lp4914
(lp4915
I14
aV"1_a"
p4916
aV"1_b"
p4917
aa(lp4918
I14
aV"1_a"
p4919
aV"1_c"
p4920
aa(lp4921
I14
aV"1_a"
p4922
aV"1_d"
p4923
aa(lp4924
I14
aV"1_a"
p4925
aV"1_e"
p4926
aa(lp4927
I14
aV"2_a"
p4928
aV"2_b"
p4929
aa(lp4930
I14
aV"2_a"
p4931
aV"2_d"
p4932
aa(lp4933
I14
aV"2_a"
p4934
aV"2_f"
p4935
aa(lp4936
I14
aV"2_a"
p4937
aV"2_g"
p4938
aaa(lp4939
(lp4940
I14
aV"2_f"
p4941
aV"1_c"
p4942
aa(lp4943
I14
aV"1_c"
p4944
aV"2_f"
p4945
aa(lp4946
I14
aV"2_g"
p4947
aV"1_e"
p4948
aa(lp4949
I14
aV"1_e"
p4950
aV"2_g"
p4951
aa(lp4952
I14
aV"1_e"
p4953
aV"2_f"
p4954
aa(lp4955
I14
aV"2_f"
p4956
aV"1_e"
p4957
aaasba(ihelper
PossibleWorld
p4958
(dp4959
g3
I15
sg4
I0
sg5
(lp4960
(lp4961
(lp4962
I15
aV"1_b"
p4963
aV"2_b"
p4964
aa(lp4965
I15
aV"1_d"
p4966
aV"2_d"
p4967
aa(lp4968
I15
aV"2_d"
p4969
aV"1_d"
p4970
aa(lp4971
I15
aV"2_b"
p4972
aV"1_b"
p4973
aa(lp4974
I15
aV"2_a"
p4975
aV"2_a"
p4976
aa(lp4977
I15
aV"1_a"
p4978
aV"1_a"
p4979
aa(lp4980
I15
aV"2_g"
p4981
aV"2_g"
p4982
aa(lp4983
I15
aV"2_f"
p4984
aV"2_f"
p4985
aa(lp4986
I15
aV"2_d"
p4987
aV"2_d"
p4988
aa(lp4989
I15
aV"2_b"
p4990
aV"2_b"
p4991
aa(lp4992
I15
aV"1_e"
p4993
aV"1_e"
p4994
aa(lp4995
I15
aV"1_d"
p4996
aV"1_d"
p4997
aa(lp4998
I15
aV"1_c"
p4999
aV"1_c"
p5000
aa(lp5001
I15
aV"1_b"
p5002
aV"1_b"
p5003
aa(lp5004
I15
aV"1_a"
p5005
aV"2_a"
p5006
aa(lp5007
I15
aV"2_a"
p5008
aV"1_a"
p5009
aaa(lp5010
(lp5011
I15
aV"1_c"
p5012
aV"1_b"
p5013
aa(lp5014
I15
aV"1_d"
p5015
aV"1_b"
p5016
aa(lp5017
I15
aV"1_e"
p5018
aV"1_b"
p5019
aa(lp5020
I15
aV"1_b"
p5021
aV"1_c"
p5022
aa(lp5023
I15
aV"1_d"
p5024
aV"1_c"
p5025
aa(lp5026
I15
aV"1_e"
p5027
aV"1_c"
p5028
aa(lp5029
I15
aV"1_b"
p5030
aV"1_d"
p5031
aa(lp5032
I15
aV"1_c"
p5033
aV"1_d"
p5034
aa(lp5035
I15
aV"1_e"
p5036
aV"1_d"
p5037
aa(lp5038
I15
aV"1_b"
p5039
aV"1_e"
p5040
aa(lp5041
I15
aV"1_c"
p5042
aV"1_e"
p5043
aa(lp5044
I15
aV"1_d"
p5045
aV"1_e"
p5046
aa(lp5047
I15
aV"2_d"
p5048
aV"2_b"
p5049
aa(lp5050
I15
aV"2_f"
p5051
aV"2_b"
p5052
aa(lp5053
I15
aV"2_g"
p5054
aV"2_b"
p5055
aa(lp5056
I15
aV"2_b"
p5057
aV"2_d"
p5058
aa(lp5059
I15
aV"2_f"
p5060
aV"2_d"
p5061
aa(lp5062
I15
aV"2_g"
p5063
aV"2_d"
p5064
aa(lp5065
I15
aV"2_b"
p5066
aV"2_f"
p5067
aa(lp5068
I15
aV"2_d"
p5069
aV"2_f"
p5070
aa(lp5071
I15
aV"2_g"
p5072
aV"2_f"
p5073
aa(lp5074
I15
aV"2_b"
p5075
aV"2_g"
p5076
aa(lp5077
I15
aV"2_d"
p5078
aV"2_g"
p5079
aa(lp5080
I15
aV"2_f"
p5081
aV"2_g"
p5082
aa(lp5083
I15
aV"1_c"
p5084
aV"2_d"
p5085
aa(lp5086
I15
aV"1_c"
p5087
aV"2_b"
p5088
aa(lp5089
I15
aV"1_b"
p5090
aV"2_g"
p5091
aa(lp5092
I15
aV"1_d"
p5093
aV"2_g"
p5094
aa(lp5095
I15
aV"1_b"
p5096
aV"2_d"
p5097
aa(lp5098
I15
aV"1_e"
p5099
aV"2_d"
p5100
aa(lp5101
I15
aV"1_d"
p5102
aV"2_b"
p5103
aa(lp5104
I15
aV"1_e"
p5105
aV"2_b"
p5106
aa(lp5107
I15
aV"1_d"
p5108
aV"2_f"
p5109
aa(lp5110
I15
aV"1_b"
p5111
aV"2_f"
p5112
aa(lp5113
I15
aV"2_f"
p5114
aV"1_b"
p5115
aa(lp5116
I15
aV"2_f"
p5117
aV"1_d"
p5118
aa(lp5119
I15
aV"2_b"
p5120
aV"1_e"
p5121
aa(lp5122
I15
aV"2_b"
p5123
aV"1_d"
p5124
aa(lp5125
I15
aV"2_d"
p5126
aV"1_e"
p5127
aa(lp5128
I15
aV"2_d"
p5129
aV"1_b"
p5130
aa(lp5131
I15
aV"2_g"
p5132
aV"1_d"
p5133
aa(lp5134
I15
aV"2_g"
p5135
aV"1_b"
p5136
aa(lp5137
I15
aV"2_b"
p5138
aV"1_c"
p5139
aa(lp5140
I15
aV"2_d"
p5141
aV"1_c"
p5142
aaa(lp5143
(lp5144
I15
aV"1_b"
p5145
aV"1_a"
p5146
aa(lp5147
I15
aV"1_c"
p5148
aV"1_a"
p5149
aa(lp5150
I15
aV"1_d"
p5151
aV"1_a"
p5152
aa(lp5153
I15
aV"1_e"
p5154
aV"1_a"
p5155
aa(lp5156
I15
aV"2_b"
p5157
aV"2_a"
p5158
aa(lp5159
I15
aV"2_d"
p5160
aV"2_a"
p5161
aa(lp5162
I15
aV"2_f"
p5163
aV"2_a"
p5164
aa(lp5165
I15
aV"2_g"
p5166
aV"2_a"
p5167
aa(lp5168
I15
aV"1_b"
p5169
aV"2_a"
p5170
aa(lp5171
I15
aV"1_d"
p5172
aV"2_a"
p5173
aa(lp5174
I15
aV"2_d"
p5175
aV"1_a"
p5176
aa(lp5177
I15
aV"2_b"
p5178
aV"1_a"
p5179
aa(lp5180
I15
aV"1_c"
p5181
aV"2_a"
p5182
aa(lp5183
I15
aV"1_e"
p5184
aV"2_a"
p5185
aa(lp5186
I15
aV"2_f"
p5187
aV"1_a"
p5188
aa(lp5189
I15
aV"2_g"
p5190
aV"1_a"
p5191
aaa(lp5192
(lp5193
I15
aV"2_a"
p5194
aV"2_g"
p5195
aa(lp5196
I15
aV"2_a"
p5197
aV"2_f"
p5198
aa(lp5199
I15
aV"2_a"
p5200
aV"2_d"
p5201
aa(lp5202
I15
aV"2_a"
p5203
aV"2_b"
p5204
aa(lp5205
I15
aV"1_a"
p5206
aV"1_e"
p5207
aa(lp5208
I15
aV"1_a"
p5209
aV"1_d"
p5210
aa(lp5211
I15
aV"1_a"
p5212
aV"1_c"
p5213
aa(lp5214
I15
aV"1_a"
p5215
aV"1_b"
p5216
aa(lp5217
I15
aV"2_a"
p5218
aV"1_d"
p5219
aa(lp5220
I15
aV"2_a"
p5221
aV"1_b"
p5222
aa(lp5223
I15
aV"1_a"
p5224
aV"2_b"
p5225
aa(lp5226
I15
aV"1_a"
p5227
aV"2_d"
p5228
aa(lp5229
I15
aV"2_a"
p5230
aV"1_e"
p5231
aa(lp5232
I15
aV"2_a"
p5233
aV"1_c"
p5234
aa(lp5235
I15
aV"1_a"
p5236
aV"2_g"
p5237
aa(lp5238
I15
aV"1_a"
p5239
aV"2_f"
p5240
aaa(lp5241
(lp5242
I15
aV"1_b"
p5243
aa(lp5244
I15
aV"1_c"
p5245
aa(lp5246
I15
aV"1_d"
p5247
aa(lp5248
I15
aV"1_e"
p5249
aa(lp5250
I15
aV"2_b"
p5251
aa(lp5252
I15
aV"2_d"
p5253
aa(lp5254
I15
aV"2_f"
p5255
aa(lp5256
I15
aV"2_g"
p5257
aa(lp5258
I15
aV"1_a"
p5259
aa(lp5260
I15
aV"2_a"
p5261
aaa(lp5262
(lp5263
I15
aV"1_a"
p5264
aV"1_b"
p5265
aa(lp5266
I15
aV"1_a"
p5267
aV"1_c"
p5268
aa(lp5269
I15
aV"1_a"
p5270
aV"1_d"
p5271
aa(lp5272
I15
aV"1_a"
p5273
aV"1_e"
p5274
aa(lp5275
I15
aV"2_a"
p5276
aV"2_b"
p5277
aa(lp5278
I15
aV"2_a"
p5279
aV"2_d"
p5280
aa(lp5281
I15
aV"2_a"
p5282
aV"2_f"
p5283
aa(lp5284
I15
aV"2_a"
p5285
aV"2_g"
p5286
aaa(lp5287
(lp5288
I15
aV"2_f"
p5289
aV"1_c"
p5290
aa(lp5291
I15
aV"1_c"
p5292
aV"2_f"
p5293
aa(lp5294
I15
aV"2_g"
p5295
aV"1_e"
p5296
aa(lp5297
I15
aV"1_e"
p5298
aV"2_g"
p5299
aa(lp5300
I15
aV"1_e"
p5301
aV"2_f"
p5302
aa(lp5303
I15
aV"1_c"
p5304
aV"2_g"
p5305
aa(lp5306
I15
aV"2_f"
p5307
aV"1_e"
p5308
aa(lp5309
I15
aV"2_g"
p5310
aV"1_c"
p5311
aaasba(ihelper
PossibleWorld
p5312
(dp5313
g3
I16
sg4
I0
sg5
(lp5314
(lp5315
(lp5316
I16
aV"1_b"
p5317
aV"2_b"
p5318
aa(lp5319
I16
aV"1_d"
p5320
aV"2_d"
p5321
aa(lp5322
I16
aV"2_d"
p5323
aV"1_d"
p5324
aa(lp5325
I16
aV"2_b"
p5326
aV"1_b"
p5327
aa(lp5328
I16
aV"2_a"
p5329
aV"2_a"
p5330
aa(lp5331
I16
aV"1_a"
p5332
aV"1_a"
p5333
aa(lp5334
I16
aV"2_g"
p5335
aV"2_g"
p5336
aa(lp5337
I16
aV"2_f"
p5338
aV"2_f"
p5339
aa(lp5340
I16
aV"2_d"
p5341
aV"2_d"
p5342
aa(lp5343
I16
aV"2_b"
p5344
aV"2_b"
p5345
aa(lp5346
I16
aV"1_e"
p5347
aV"1_e"
p5348
aa(lp5349
I16
aV"1_d"
p5350
aV"1_d"
p5351
aa(lp5352
I16
aV"1_c"
p5353
aV"1_c"
p5354
aa(lp5355
I16
aV"1_b"
p5356
aV"1_b"
p5357
aaa(lp5358
(lp5359
I16
aV"1_c"
p5360
aV"1_b"
p5361
aa(lp5362
I16
aV"1_d"
p5363
aV"1_b"
p5364
aa(lp5365
I16
aV"1_e"
p5366
aV"1_b"
p5367
aa(lp5368
I16
aV"1_b"
p5369
aV"1_c"
p5370
aa(lp5371
I16
aV"1_d"
p5372
aV"1_c"
p5373
aa(lp5374
I16
aV"1_e"
p5375
aV"1_c"
p5376
aa(lp5377
I16
aV"1_b"
p5378
aV"1_d"
p5379
aa(lp5380
I16
aV"1_c"
p5381
aV"1_d"
p5382
aa(lp5383
I16
aV"1_e"
p5384
aV"1_d"
p5385
aa(lp5386
I16
aV"1_b"
p5387
aV"1_e"
p5388
aa(lp5389
I16
aV"1_c"
p5390
aV"1_e"
p5391
aa(lp5392
I16
aV"1_d"
p5393
aV"1_e"
p5394
aa(lp5395
I16
aV"2_d"
p5396
aV"2_b"
p5397
aa(lp5398
I16
aV"2_f"
p5399
aV"2_b"
p5400
aa(lp5401
I16
aV"2_g"
p5402
aV"2_b"
p5403
aa(lp5404
I16
aV"2_b"
p5405
aV"2_d"
p5406
aa(lp5407
I16
aV"2_f"
p5408
aV"2_d"
p5409
aa(lp5410
I16
aV"2_g"
p5411
aV"2_d"
p5412
aa(lp5413
I16
aV"2_b"
p5414
aV"2_f"
p5415
aa(lp5416
I16
aV"2_d"
p5417
aV"2_f"
p5418
aa(lp5419
I16
aV"2_g"
p5420
aV"2_f"
p5421
aa(lp5422
I16
aV"2_b"
p5423
aV"2_g"
p5424
aa(lp5425
I16
aV"2_d"
p5426
aV"2_g"
p5427
aa(lp5428
I16
aV"2_f"
p5429
aV"2_g"
p5430
aa(lp5431
I16
aV"1_c"
p5432
aV"2_d"
p5433
aa(lp5434
I16
aV"1_c"
p5435
aV"2_b"
p5436
aa(lp5437
I16
aV"1_b"
p5438
aV"2_g"
p5439
aa(lp5440
I16
aV"1_d"
p5441
aV"2_g"
p5442
aa(lp5443
I16
aV"1_b"
p5444
aV"2_d"
p5445
aa(lp5446
I16
aV"1_e"
p5447
aV"2_d"
p5448
aa(lp5449
I16
aV"1_d"
p5450
aV"2_b"
p5451
aa(lp5452
I16
aV"1_e"
p5453
aV"2_b"
p5454
aa(lp5455
I16
aV"1_d"
p5456
aV"2_f"
p5457
aa(lp5458
I16
aV"1_b"
p5459
aV"2_f"
p5460
aa(lp5461
I16
aV"2_f"
p5462
aV"1_b"
p5463
aa(lp5464
I16
aV"2_f"
p5465
aV"1_d"
p5466
aa(lp5467
I16
aV"2_b"
p5468
aV"1_e"
p5469
aa(lp5470
I16
aV"2_b"
p5471
aV"1_d"
p5472
aa(lp5473
I16
aV"2_d"
p5474
aV"1_e"
p5475
aa(lp5476
I16
aV"2_d"
p5477
aV"1_b"
p5478
aa(lp5479
I16
aV"2_g"
p5480
aV"1_d"
p5481
aa(lp5482
I16
aV"2_g"
p5483
aV"1_b"
p5484
aa(lp5485
I16
aV"2_b"
p5486
aV"1_c"
p5487
aa(lp5488
I16
aV"2_d"
p5489
aV"1_c"
p5490
aaa(lp5491
(lp5492
I16
aV"1_b"
p5493
aV"1_a"
p5494
aa(lp5495
I16
aV"1_c"
p5496
aV"1_a"
p5497
aa(lp5498
I16
aV"1_d"
p5499
aV"1_a"
p5500
aa(lp5501
I16
aV"1_e"
p5502
aV"1_a"
p5503
aa(lp5504
I16
aV"2_b"
p5505
aV"2_a"
p5506
aa(lp5507
I16
aV"2_d"
p5508
aV"2_a"
p5509
aa(lp5510
I16
aV"2_f"
p5511
aV"2_a"
p5512
aa(lp5513
I16
aV"2_g"
p5514
aV"2_a"
p5515
aa(lp5516
I16
aV"1_b"
p5517
aV"2_a"
p5518
aa(lp5519
I16
aV"1_d"
p5520
aV"2_a"
p5521
aa(lp5522
I16
aV"2_d"
p5523
aV"1_a"
p5524
aa(lp5525
I16
aV"2_b"
p5526
aV"1_a"
p5527
aa(lp5528
I16
aV"1_a"
p5529
aV"2_a"
p5530
aa(lp5531
I16
aV"1_c"
p5532
aV"2_a"
p5533
aa(lp5534
I16
aV"1_e"
p5535
aV"2_a"
p5536
aa(lp5537
I16
aV"2_f"
p5538
aV"1_a"
p5539
aa(lp5540
I16
aV"2_g"
p5541
aV"1_a"
p5542
aaa(lp5543
(lp5544
I16
aV"2_a"
p5545
aV"2_g"
p5546
aa(lp5547
I16
aV"2_a"
p5548
aV"2_f"
p5549
aa(lp5550
I16
aV"2_a"
p5551
aV"2_d"
p5552
aa(lp5553
I16
aV"2_a"
p5554
aV"2_b"
p5555
aa(lp5556
I16
aV"1_a"
p5557
aV"1_e"
p5558
aa(lp5559
I16
aV"1_a"
p5560
aV"1_d"
p5561
aa(lp5562
I16
aV"1_a"
p5563
aV"1_c"
p5564
aa(lp5565
I16
aV"1_a"
p5566
aV"1_b"
p5567
aa(lp5568
I16
aV"2_a"
p5569
aV"1_d"
p5570
aa(lp5571
I16
aV"2_a"
p5572
aV"1_b"
p5573
aa(lp5574
I16
aV"1_a"
p5575
aV"2_b"
p5576
aa(lp5577
I16
aV"1_a"
p5578
aV"2_d"
p5579
aa(lp5580
I16
aV"2_a"
p5581
aV"1_a"
p5582
aa(lp5583
I16
aV"2_a"
p5584
aV"1_e"
p5585
aa(lp5586
I16
aV"2_a"
p5587
aV"1_c"
p5588
aa(lp5589
I16
aV"1_a"
p5590
aV"2_g"
p5591
aa(lp5592
I16
aV"1_a"
p5593
aV"2_f"
p5594
aaa(lp5595
(lp5596
I16
aV"1_b"
p5597
aa(lp5598
I16
aV"1_c"
p5599
aa(lp5600
I16
aV"1_d"
p5601
aa(lp5602
I16
aV"1_e"
p5603
aa(lp5604
I16
aV"2_b"
p5605
aa(lp5606
I16
aV"2_d"
p5607
aa(lp5608
I16
aV"2_f"
p5609
aa(lp5610
I16
aV"2_g"
p5611
aa(lp5612
I16
aV"1_a"
p5613
aa(lp5614
I16
aV"2_a"
p5615
aaa(lp5616
(lp5617
I16
aV"1_a"
p5618
aV"1_b"
p5619
aa(lp5620
I16
aV"1_a"
p5621
aV"1_c"
p5622
aa(lp5623
I16
aV"1_a"
p5624
aV"1_d"
p5625
aa(lp5626
I16
aV"1_a"
p5627
aV"1_e"
p5628
aa(lp5629
I16
aV"2_a"
p5630
aV"2_b"
p5631
aa(lp5632
I16
aV"2_a"
p5633
aV"2_d"
p5634
aa(lp5635
I16
aV"2_a"
p5636
aV"2_f"
p5637
aa(lp5638
I16
aV"2_a"
p5639
aV"2_g"
p5640
aaa(lp5641
(lp5642
I16
aV"2_f"
p5643
aV"1_c"
p5644
aa(lp5645
I16
aV"1_c"
p5646
aV"2_f"
p5647
aa(lp5648
I16
aV"2_g"
p5649
aV"1_e"
p5650
aa(lp5651
I16
aV"1_e"
p5652
aV"2_g"
p5653
aa(lp5654
I16
aV"1_e"
p5655
aV"2_f"
p5656
aa(lp5657
I16
aV"1_c"
p5658
aV"2_g"
p5659
aa(lp5660
I16
aV"2_f"
p5661
aV"1_e"
p5662
aa(lp5663
I16
aV"2_g"
p5664
aV"1_c"
p5665
aaasba(ihelper
PossibleWorld
p5666
(dp5667
g3
I17
sg4
I0
sg5
(lp5668
(lp5669
(lp5670
I17
aV"1_b"
p5671
aV"2_b"
p5672
aa(lp5673
I17
aV"1_d"
p5674
aV"2_d"
p5675
aa(lp5676
I17
aV"2_d"
p5677
aV"1_d"
p5678
aa(lp5679
I17
aV"2_b"
p5680
aV"1_b"
p5681
aa(lp5682
I17
aV"2_a"
p5683
aV"2_a"
p5684
aa(lp5685
I17
aV"1_a"
p5686
aV"1_a"
p5687
aa(lp5688
I17
aV"2_g"
p5689
aV"2_g"
p5690
aa(lp5691
I17
aV"2_f"
p5692
aV"2_f"
p5693
aa(lp5694
I17
aV"2_d"
p5695
aV"2_d"
p5696
aa(lp5697
I17
aV"2_b"
p5698
aV"2_b"
p5699
aa(lp5700
I17
aV"1_e"
p5701
aV"1_e"
p5702
aa(lp5703
I17
aV"1_d"
p5704
aV"1_d"
p5705
aa(lp5706
I17
aV"1_c"
p5707
aV"1_c"
p5708
aa(lp5709
I17
aV"1_b"
p5710
aV"1_b"
p5711
aaa(lp5712
(lp5713
I17
aV"1_c"
p5714
aV"1_b"
p5715
aa(lp5716
I17
aV"1_d"
p5717
aV"1_b"
p5718
aa(lp5719
I17
aV"1_e"
p5720
aV"1_b"
p5721
aa(lp5722
I17
aV"1_b"
p5723
aV"1_c"
p5724
aa(lp5725
I17
aV"1_d"
p5726
aV"1_c"
p5727
aa(lp5728
I17
aV"1_e"
p5729
aV"1_c"
p5730
aa(lp5731
I17
aV"1_b"
p5732
aV"1_d"
p5733
aa(lp5734
I17
aV"1_c"
p5735
aV"1_d"
p5736
aa(lp5737
I17
aV"1_e"
p5738
aV"1_d"
p5739
aa(lp5740
I17
aV"1_b"
p5741
aV"1_e"
p5742
aa(lp5743
I17
aV"1_c"
p5744
aV"1_e"
p5745
aa(lp5746
I17
aV"1_d"
p5747
aV"1_e"
p5748
aa(lp5749
I17
aV"2_d"
p5750
aV"2_b"
p5751
aa(lp5752
I17
aV"2_f"
p5753
aV"2_b"
p5754
aa(lp5755
I17
aV"2_g"
p5756
aV"2_b"
p5757
aa(lp5758
I17
aV"2_b"
p5759
aV"2_d"
p5760
aa(lp5761
I17
aV"2_f"
p5762
aV"2_d"
p5763
aa(lp5764
I17
aV"2_g"
p5765
aV"2_d"
p5766
aa(lp5767
I17
aV"2_b"
p5768
aV"2_f"
p5769
aa(lp5770
I17
aV"2_d"
p5771
aV"2_f"
p5772
aa(lp5773
I17
aV"2_g"
p5774
aV"2_f"
p5775
aa(lp5776
I17
aV"2_b"
p5777
aV"2_g"
p5778
aa(lp5779
I17
aV"2_d"
p5780
aV"2_g"
p5781
aa(lp5782
I17
aV"2_f"
p5783
aV"2_g"
p5784
aa(lp5785
I17
aV"1_c"
p5786
aV"2_d"
p5787
aa(lp5788
I17
aV"1_c"
p5789
aV"2_b"
p5790
aa(lp5791
I17
aV"1_b"
p5792
aV"2_g"
p5793
aa(lp5794
I17
aV"1_d"
p5795
aV"2_g"
p5796
aa(lp5797
I17
aV"1_b"
p5798
aV"2_d"
p5799
aa(lp5800
I17
aV"1_e"
p5801
aV"2_d"
p5802
aa(lp5803
I17
aV"1_d"
p5804
aV"2_b"
p5805
aa(lp5806
I17
aV"1_e"
p5807
aV"2_b"
p5808
aa(lp5809
I17
aV"1_d"
p5810
aV"2_f"
p5811
aa(lp5812
I17
aV"1_b"
p5813
aV"2_f"
p5814
aa(lp5815
I17
aV"2_f"
p5816
aV"1_b"
p5817
aa(lp5818
I17
aV"2_f"
p5819
aV"1_d"
p5820
aa(lp5821
I17
aV"2_b"
p5822
aV"1_e"
p5823
aa(lp5824
I17
aV"2_b"
p5825
aV"1_d"
p5826
aa(lp5827
I17
aV"2_d"
p5828
aV"1_e"
p5829
aa(lp5830
I17
aV"2_d"
p5831
aV"1_b"
p5832
aa(lp5833
I17
aV"2_g"
p5834
aV"1_d"
p5835
aa(lp5836
I17
aV"2_g"
p5837
aV"1_b"
p5838
aa(lp5839
I17
aV"2_b"
p5840
aV"1_c"
p5841
aa(lp5842
I17
aV"2_d"
p5843
aV"1_c"
p5844
aa(lp5845
I17
aV"1_c"
p5846
aV"2_g"
p5847
aa(lp5848
I17
aV"1_e"
p5849
aV"2_f"
p5850
aa(lp5851
I17
aV"2_f"
p5852
aV"1_e"
p5853
aa(lp5854
I17
aV"2_g"
p5855
aV"1_c"
p5856
aaa(lp5857
(lp5858
I17
aV"1_b"
p5859
aV"1_a"
p5860
aa(lp5861
I17
aV"1_c"
p5862
aV"1_a"
p5863
aa(lp5864
I17
aV"1_d"
p5865
aV"1_a"
p5866
aa(lp5867
I17
aV"1_e"
p5868
aV"1_a"
p5869
aa(lp5870
I17
aV"2_b"
p5871
aV"2_a"
p5872
aa(lp5873
I17
aV"2_d"
p5874
aV"2_a"
p5875
aa(lp5876
I17
aV"2_f"
p5877
aV"2_a"
p5878
aa(lp5879
I17
aV"2_g"
p5880
aV"2_a"
p5881
aa(lp5882
I17
aV"1_b"
p5883
aV"2_a"
p5884
aa(lp5885
I17
aV"1_d"
p5886
aV"2_a"
p5887
aa(lp5888
I17
aV"2_d"
p5889
aV"1_a"
p5890
aa(lp5891
I17
aV"2_b"
p5892
aV"1_a"
p5893
aa(lp5894
I17
aV"1_a"
p5895
aV"2_a"
p5896
aa(lp5897
I17
aV"1_c"
p5898
aV"2_a"
p5899
aa(lp5900
I17
aV"1_e"
p5901
aV"2_a"
p5902
aa(lp5903
I17
aV"1_c"
p5904
aV"2_f"
p5905
aa(lp5906
I17
aV"2_f"
p5907
aV"1_a"
p5908
aaa(lp5909
(lp5910
I17
aV"2_a"
p5911
aV"2_g"
p5912
aa(lp5913
I17
aV"2_a"
p5914
aV"2_f"
p5915
aa(lp5916
I17
aV"2_a"
p5917
aV"2_d"
p5918
aa(lp5919
I17
aV"2_a"
p5920
aV"2_b"
p5921
aa(lp5922
I17
aV"1_a"
p5923
aV"1_e"
p5924
aa(lp5925
I17
aV"1_a"
p5926
aV"1_d"
p5927
aa(lp5928
I17
aV"1_a"
p5929
aV"1_c"
p5930
aa(lp5931
I17
aV"1_a"
p5932
aV"1_b"
p5933
aa(lp5934
I17
aV"2_a"
p5935
aV"1_d"
p5936
aa(lp5937
I17
aV"2_a"
p5938
aV"1_b"
p5939
aa(lp5940
I17
aV"1_a"
p5941
aV"2_b"
p5942
aa(lp5943
I17
aV"1_a"
p5944
aV"2_d"
p5945
aa(lp5946
I17
aV"2_f"
p5947
aV"1_c"
p5948
aa(lp5949
I17
aV"2_a"
p5950
aV"1_a"
p5951
aa(lp5952
I17
aV"2_a"
p5953
aV"1_e"
p5954
aa(lp5955
I17
aV"2_a"
p5956
aV"1_c"
p5957
aa(lp5958
I17
aV"1_a"
p5959
aV"2_f"
p5960
aaa(lp5961
(lp5962
I17
aV"1_b"
p5963
aa(lp5964
I17
aV"1_c"
p5965
aa(lp5966
I17
aV"1_d"
p5967
aa(lp5968
I17
aV"1_e"
p5969
aa(lp5970
I17
aV"2_b"
p5971
aa(lp5972
I17
aV"2_d"
p5973
aa(lp5974
I17
aV"2_f"
p5975
aa(lp5976
I17
aV"2_g"
p5977
aa(lp5978
I17
aV"1_a"
p5979
aa(lp5980
I17
aV"2_a"
p5981
aaa(lp5982
(lp5983
I17
aV"1_a"
p5984
aV"1_b"
p5985
aa(lp5986
I17
aV"1_a"
p5987
aV"1_c"
p5988
aa(lp5989
I17
aV"1_a"
p5990
aV"1_d"
p5991
aa(lp5992
I17
aV"1_a"
p5993
aV"1_e"
p5994
aa(lp5995
I17
aV"2_a"
p5996
aV"2_b"
p5997
aa(lp5998
I17
aV"2_a"
p5999
aV"2_d"
p6000
aa(lp6001
I17
aV"2_a"
p6002
aV"2_f"
p6003
aa(lp6004
I17
aV"2_a"
p6005
aV"2_g"
p6006
aaa(lp6007
(lp6008
I17
aV"2_g"
p6009
aV"1_e"
p6010
aa(lp6011
I17
aV"1_e"
p6012
aV"2_g"
p6013
aa(lp6014
I17
aV"2_g"
p6015
aV"1_a"
p6016
aa(lp6017
I17
aV"1_a"
p6018
aV"2_g"
p6019
aaasba(ihelper
PossibleWorld
p6020
(dp6021
g3
I18
sg4
I0
sg5
(lp6022
(lp6023
(lp6024
I18
aV"1_b"
p6025
aV"2_b"
p6026
aa(lp6027
I18
aV"1_d"
p6028
aV"2_d"
p6029
aa(lp6030
I18
aV"2_d"
p6031
aV"1_d"
p6032
aa(lp6033
I18
aV"2_b"
p6034
aV"1_b"
p6035
aa(lp6036
I18
aV"2_a"
p6037
aV"2_a"
p6038
aa(lp6039
I18
aV"1_a"
p6040
aV"1_a"
p6041
aa(lp6042
I18
aV"2_g"
p6043
aV"2_g"
p6044
aa(lp6045
I18
aV"2_f"
p6046
aV"2_f"
p6047
aa(lp6048
I18
aV"2_d"
p6049
aV"2_d"
p6050
aa(lp6051
I18
aV"2_b"
p6052
aV"2_b"
p6053
aa(lp6054
I18
aV"1_e"
p6055
aV"1_e"
p6056
aa(lp6057
I18
aV"1_d"
p6058
aV"1_d"
p6059
aa(lp6060
I18
aV"1_c"
p6061
aV"1_c"
p6062
aa(lp6063
I18
aV"1_b"
p6064
aV"1_b"
p6065
aaa(lp6066
(lp6067
I18
aV"1_c"
p6068
aV"1_b"
p6069
aa(lp6070
I18
aV"1_d"
p6071
aV"1_b"
p6072
aa(lp6073
I18
aV"1_e"
p6074
aV"1_b"
p6075
aa(lp6076
I18
aV"1_b"
p6077
aV"1_c"
p6078
aa(lp6079
I18
aV"1_d"
p6080
aV"1_c"
p6081
aa(lp6082
I18
aV"1_e"
p6083
aV"1_c"
p6084
aa(lp6085
I18
aV"1_b"
p6086
aV"1_d"
p6087
aa(lp6088
I18
aV"1_c"
p6089
aV"1_d"
p6090
aa(lp6091
I18
aV"1_e"
p6092
aV"1_d"
p6093
aa(lp6094
I18
aV"1_b"
p6095
aV"1_e"
p6096
aa(lp6097
I18
aV"1_c"
p6098
aV"1_e"
p6099
aa(lp6100
I18
aV"1_d"
p6101
aV"1_e"
p6102
aa(lp6103
I18
aV"2_d"
p6104
aV"2_b"
p6105
aa(lp6106
I18
aV"2_f"
p6107
aV"2_b"
p6108
aa(lp6109
I18
aV"2_g"
p6110
aV"2_b"
p6111
aa(lp6112
I18
aV"2_b"
p6113
aV"2_d"
p6114
aa(lp6115
I18
aV"2_f"
p6116
aV"2_d"
p6117
aa(lp6118
I18
aV"2_g"
p6119
aV"2_d"
p6120
aa(lp6121
I18
aV"2_b"
p6122
aV"2_f"
p6123
aa(lp6124
I18
aV"2_d"
p6125
aV"2_f"
p6126
aa(lp6127
I18
aV"2_g"
p6128
aV"2_f"
p6129
aa(lp6130
I18
aV"2_b"
p6131
aV"2_g"
p6132
aa(lp6133
I18
aV"2_d"
p6134
aV"2_g"
p6135
aa(lp6136
I18
aV"2_f"
p6137
aV"2_g"
p6138
aa(lp6139
I18
aV"1_c"
p6140
aV"2_d"
p6141
aa(lp6142
I18
aV"1_c"
p6143
aV"2_b"
p6144
aa(lp6145
I18
aV"1_b"
p6146
aV"2_g"
p6147
aa(lp6148
I18
aV"1_d"
p6149
aV"2_g"
p6150
aa(lp6151
I18
aV"1_b"
p6152
aV"2_d"
p6153
aa(lp6154
I18
aV"1_e"
p6155
aV"2_d"
p6156
aa(lp6157
I18
aV"1_d"
p6158
aV"2_b"
p6159
aa(lp6160
I18
aV"1_e"
p6161
aV"2_b"
p6162
aa(lp6163
I18
aV"1_d"
p6164
aV"2_f"
p6165
aa(lp6166
I18
aV"1_b"
p6167
aV"2_f"
p6168
aa(lp6169
I18
aV"2_f"
p6170
aV"1_b"
p6171
aa(lp6172
I18
aV"2_f"
p6173
aV"1_d"
p6174
aa(lp6175
I18
aV"2_b"
p6176
aV"1_e"
p6177
aa(lp6178
I18
aV"2_b"
p6179
aV"1_d"
p6180
aa(lp6181
I18
aV"2_d"
p6182
aV"1_e"
p6183
aa(lp6184
I18
aV"2_d"
p6185
aV"1_b"
p6186
aa(lp6187
I18
aV"2_g"
p6188
aV"1_d"
p6189
aa(lp6190
I18
aV"2_g"
p6191
aV"1_b"
p6192
aa(lp6193
I18
aV"2_b"
p6194
aV"1_c"
p6195
aa(lp6196
I18
aV"2_d"
p6197
aV"1_c"
p6198
aa(lp6199
I18
aV"1_c"
p6200
aV"2_g"
p6201
aa(lp6202
I18
aV"2_g"
p6203
aV"1_c"
p6204
aaa(lp6205
(lp6206
I18
aV"1_b"
p6207
aV"1_a"
p6208
aa(lp6209
I18
aV"1_c"
p6210
aV"1_a"
p6211
aa(lp6212
I18
aV"1_d"
p6213
aV"1_a"
p6214
aa(lp6215
I18
aV"1_e"
p6216
aV"1_a"
p6217
aa(lp6218
I18
aV"2_b"
p6219
aV"2_a"
p6220
aa(lp6221
I18
aV"2_d"
p6222
aV"2_a"
p6223
aa(lp6224
I18
aV"2_f"
p6225
aV"2_a"
p6226
aa(lp6227
I18
aV"2_g"
p6228
aV"2_a"
p6229
aa(lp6230
I18
aV"1_b"
p6231
aV"2_a"
p6232
aa(lp6233
I18
aV"1_d"
p6234
aV"2_a"
p6235
aa(lp6236
I18
aV"2_d"
p6237
aV"1_a"
p6238
aa(lp6239
I18
aV"2_b"
p6240
aV"1_a"
p6241
aa(lp6242
I18
aV"1_a"
p6243
aV"2_a"
p6244
aa(lp6245
I18
aV"1_c"
p6246
aV"2_a"
p6247
aa(lp6248
I18
aV"1_e"
p6249
aV"2_a"
p6250
aa(lp6251
I18
aV"1_c"
p6252
aV"2_f"
p6253
aa(lp6254
I18
aV"2_f"
p6255
aV"1_a"
p6256
aaa(lp6257
(lp6258
I18
aV"2_a"
p6259
aV"2_g"
p6260
aa(lp6261
I18
aV"2_a"
p6262
aV"2_f"
p6263
aa(lp6264
I18
aV"2_a"
p6265
aV"2_d"
p6266
aa(lp6267
I18
aV"2_a"
p6268
aV"2_b"
p6269
aa(lp6270
I18
aV"1_a"
p6271
aV"1_e"
p6272
aa(lp6273
I18
aV"1_a"
p6274
aV"1_d"
p6275
aa(lp6276
I18
aV"1_a"
p6277
aV"1_c"
p6278
aa(lp6279
I18
aV"1_a"
p6280
aV"1_b"
p6281
aa(lp6282
I18
aV"2_a"
p6283
aV"1_d"
p6284
aa(lp6285
I18
aV"2_a"
p6286
aV"1_b"
p6287
aa(lp6288
I18
aV"1_a"
p6289
aV"2_b"
p6290
aa(lp6291
I18
aV"1_a"
p6292
aV"2_d"
p6293
aa(lp6294
I18
aV"2_f"
p6295
aV"1_c"
p6296
aa(lp6297
I18
aV"2_a"
p6298
aV"1_a"
p6299
aa(lp6300
I18
aV"2_a"
p6301
aV"1_e"
p6302
aa(lp6303
I18
aV"2_a"
p6304
aV"1_c"
p6305
aa(lp6306
I18
aV"1_a"
p6307
aV"2_f"
p6308
aaa(lp6309
(lp6310
I18
aV"1_b"
p6311
aa(lp6312
I18
aV"1_c"
p6313
aa(lp6314
I18
aV"1_d"
p6315
aa(lp6316
I18
aV"1_e"
p6317
aa(lp6318
I18
aV"2_b"
p6319
aa(lp6320
I18
aV"2_d"
p6321
aa(lp6322
I18
aV"2_f"
p6323
aa(lp6324
I18
aV"2_g"
p6325
aa(lp6326
I18
aV"1_a"
p6327
aa(lp6328
I18
aV"2_a"
p6329
aaa(lp6330
(lp6331
I18
aV"1_a"
p6332
aV"1_b"
p6333
aa(lp6334
I18
aV"1_a"
p6335
aV"1_c"
p6336
aa(lp6337
I18
aV"1_a"
p6338
aV"1_d"
p6339
aa(lp6340
I18
aV"1_a"
p6341
aV"1_e"
p6342
aa(lp6343
I18
aV"2_a"
p6344
aV"2_b"
p6345
aa(lp6346
I18
aV"2_a"
p6347
aV"2_d"
p6348
aa(lp6349
I18
aV"2_a"
p6350
aV"2_f"
p6351
aa(lp6352
I18
aV"2_a"
p6353
aV"2_g"
p6354
aaa(lp6355
(lp6356
I18
aV"2_g"
p6357
aV"1_e"
p6358
aa(lp6359
I18
aV"1_e"
p6360
aV"2_g"
p6361
aa(lp6362
I18
aV"2_g"
p6363
aV"1_a"
p6364
aa(lp6365
I18
aV"1_e"
p6366
aV"2_f"
p6367
aa(lp6368
I18
aV"1_a"
p6369
aV"2_g"
p6370
aa(lp6371
I18
aV"2_f"
p6372
aV"1_e"
p6373
aaasba(ihelper
PossibleWorld
p6374
(dp6375
g3
I19
sg4
I0
sg5
(lp6376
(lp6377
(lp6378
I19
aV"1_b"
p6379
aV"2_b"
p6380
aa(lp6381
I19
aV"1_d"
p6382
aV"2_d"
p6383
aa(lp6384
I19
aV"2_d"
p6385
aV"1_d"
p6386
aa(lp6387
I19
aV"2_b"
p6388
aV"1_b"
p6389
aa(lp6390
I19
aV"2_a"
p6391
aV"2_a"
p6392
aa(lp6393
I19
aV"1_a"
p6394
aV"1_a"
p6395
aa(lp6396
I19
aV"2_g"
p6397
aV"2_g"
p6398
aa(lp6399
I19
aV"2_f"
p6400
aV"2_f"
p6401
aa(lp6402
I19
aV"2_d"
p6403
aV"2_d"
p6404
aa(lp6405
I19
aV"2_b"
p6406
aV"2_b"
p6407
aa(lp6408
I19
aV"1_e"
p6409
aV"1_e"
p6410
aa(lp6411
I19
aV"1_d"
p6412
aV"1_d"
p6413
aa(lp6414
I19
aV"1_c"
p6415
aV"1_c"
p6416
aa(lp6417
I19
aV"1_b"
p6418
aV"1_b"
p6419
aaa(lp6420
(lp6421
I19
aV"1_c"
p6422
aV"1_b"
p6423
aa(lp6424
I19
aV"1_d"
p6425
aV"1_b"
p6426
aa(lp6427
I19
aV"1_e"
p6428
aV"1_b"
p6429
aa(lp6430
I19
aV"1_b"
p6431
aV"1_c"
p6432
aa(lp6433
I19
aV"1_d"
p6434
aV"1_c"
p6435
aa(lp6436
I19
aV"1_e"
p6437
aV"1_c"
p6438
aa(lp6439
I19
aV"1_b"
p6440
aV"1_d"
p6441
aa(lp6442
I19
aV"1_c"
p6443
aV"1_d"
p6444
aa(lp6445
I19
aV"1_e"
p6446
aV"1_d"
p6447
aa(lp6448
I19
aV"1_b"
p6449
aV"1_e"
p6450
aa(lp6451
I19
aV"1_c"
p6452
aV"1_e"
p6453
aa(lp6454
I19
aV"1_d"
p6455
aV"1_e"
p6456
aa(lp6457
I19
aV"2_d"
p6458
aV"2_b"
p6459
aa(lp6460
I19
aV"2_f"
p6461
aV"2_b"
p6462
aa(lp6463
I19
aV"2_g"
p6464
aV"2_b"
p6465
aa(lp6466
I19
aV"2_b"
p6467
aV"2_d"
p6468
aa(lp6469
I19
aV"2_f"
p6470
aV"2_d"
p6471
aa(lp6472
I19
aV"2_g"
p6473
aV"2_d"
p6474
aa(lp6475
I19
aV"2_b"
p6476
aV"2_f"
p6477
aa(lp6478
I19
aV"2_d"
p6479
aV"2_f"
p6480
aa(lp6481
I19
aV"2_g"
p6482
aV"2_f"
p6483
aa(lp6484
I19
aV"2_b"
p6485
aV"2_g"
p6486
aa(lp6487
I19
aV"2_d"
p6488
aV"2_g"
p6489
aa(lp6490
I19
aV"2_f"
p6491
aV"2_g"
p6492
aa(lp6493
I19
aV"1_c"
p6494
aV"2_d"
p6495
aa(lp6496
I19
aV"1_c"
p6497
aV"2_b"
p6498
aa(lp6499
I19
aV"1_b"
p6500
aV"2_g"
p6501
aa(lp6502
I19
aV"1_d"
p6503
aV"2_g"
p6504
aa(lp6505
I19
aV"1_b"
p6506
aV"2_d"
p6507
aa(lp6508
I19
aV"1_e"
p6509
aV"2_d"
p6510
aa(lp6511
I19
aV"1_d"
p6512
aV"2_b"
p6513
aa(lp6514
I19
aV"1_e"
p6515
aV"2_b"
p6516
aa(lp6517
I19
aV"1_d"
p6518
aV"2_f"
p6519
aa(lp6520
I19
aV"1_b"
p6521
aV"2_f"
p6522
aa(lp6523
I19
aV"2_f"
p6524
aV"1_b"
p6525
aa(lp6526
I19
aV"2_f"
p6527
aV"1_d"
p6528
aa(lp6529
I19
aV"2_b"
p6530
aV"1_e"
p6531
aa(lp6532
I19
aV"2_b"
p6533
aV"1_d"
p6534
aa(lp6535
I19
aV"2_d"
p6536
aV"1_e"
p6537
aa(lp6538
I19
aV"2_d"
p6539
aV"1_b"
p6540
aa(lp6541
I19
aV"2_g"
p6542
aV"1_d"
p6543
aa(lp6544
I19
aV"2_g"
p6545
aV"1_b"
p6546
aa(lp6547
I19
aV"2_b"
p6548
aV"1_c"
p6549
aa(lp6550
I19
aV"2_d"
p6551
aV"1_c"
p6552
aa(lp6553
I19
aV"1_c"
p6554
aV"2_g"
p6555
aa(lp6556
I19
aV"1_e"
p6557
aV"2_f"
p6558
aa(lp6559
I19
aV"2_f"
p6560
aV"1_e"
p6561
aa(lp6562
I19
aV"2_g"
p6563
aV"1_c"
p6564
aaa(lp6565
(lp6566
I19
aV"1_b"
p6567
aV"1_a"
p6568
aa(lp6569
I19
aV"1_c"
p6570
aV"1_a"
p6571
aa(lp6572
I19
aV"1_d"
p6573
aV"1_a"
p6574
aa(lp6575
I19
aV"1_e"
p6576
aV"1_a"
p6577
aa(lp6578
I19
aV"2_b"
p6579
aV"2_a"
p6580
aa(lp6581
I19
aV"2_d"
p6582
aV"2_a"
p6583
aa(lp6584
I19
aV"2_f"
p6585
aV"2_a"
p6586
aa(lp6587
I19
aV"2_g"
p6588
aV"2_a"
p6589
aa(lp6590
I19
aV"1_b"
p6591
aV"2_a"
p6592
aa(lp6593
I19
aV"1_d"
p6594
aV"2_a"
p6595
aa(lp6596
I19
aV"2_d"
p6597
aV"1_a"
p6598
aa(lp6599
I19
aV"2_b"
p6600
aV"1_a"
p6601
aa(lp6602
I19
aV"1_a"
p6603
aV"2_a"
p6604
aa(lp6605
I19
aV"1_c"
p6606
aV"2_a"
p6607
aa(lp6608
I19
aV"1_e"
p6609
aV"2_a"
p6610
aa(lp6611
I19
aV"2_f"
p6612
aV"1_a"
p6613
aaa(lp6614
(lp6615
I19
aV"2_a"
p6616
aV"2_g"
p6617
aa(lp6618
I19
aV"2_a"
p6619
aV"2_f"
p6620
aa(lp6621
I19
aV"2_a"
p6622
aV"2_d"
p6623
aa(lp6624
I19
aV"2_a"
p6625
aV"2_b"
p6626
aa(lp6627
I19
aV"1_a"
p6628
aV"1_e"
p6629
aa(lp6630
I19
aV"1_a"
p6631
aV"1_d"
p6632
aa(lp6633
I19
aV"1_a"
p6634
aV"1_c"
p6635
aa(lp6636
I19
aV"1_a"
p6637
aV"1_b"
p6638
aa(lp6639
I19
aV"2_a"
p6640
aV"1_d"
p6641
aa(lp6642
I19
aV"2_a"
p6643
aV"1_b"
p6644
aa(lp6645
I19
aV"1_a"
p6646
aV"2_b"
p6647
aa(lp6648
I19
aV"1_a"
p6649
aV"2_d"
p6650
aa(lp6651
I19
aV"2_a"
p6652
aV"1_a"
p6653
aa(lp6654
I19
aV"2_a"
p6655
aV"1_e"
p6656
aa(lp6657
I19
aV"2_a"
p6658
aV"1_c"
p6659
aa(lp6660
I19
aV"1_a"
p6661
aV"2_f"
p6662
aaa(lp6663
(lp6664
I19
aV"1_b"
p6665
aa(lp6666
I19
aV"1_c"
p6667
aa(lp6668
I19
aV"1_d"
p6669
aa(lp6670
I19
aV"1_e"
p6671
aa(lp6672
I19
aV"2_b"
p6673
aa(lp6674
I19
aV"2_d"
p6675
aa(lp6676
I19
aV"2_f"
p6677
aa(lp6678
I19
aV"2_g"
p6679
aa(lp6680
I19
aV"1_a"
p6681
aa(lp6682
I19
aV"2_a"
p6683
aaa(lp6684
(lp6685
I19
aV"1_a"
p6686
aV"1_b"
p6687
aa(lp6688
I19
aV"1_a"
p6689
aV"1_c"
p6690
aa(lp6691
I19
aV"1_a"
p6692
aV"1_d"
p6693
aa(lp6694
I19
aV"1_a"
p6695
aV"1_e"
p6696
aa(lp6697
I19
aV"2_a"
p6698
aV"2_b"
p6699
aa(lp6700
I19
aV"2_a"
p6701
aV"2_d"
p6702
aa(lp6703
I19
aV"2_a"
p6704
aV"2_f"
p6705
aa(lp6706
I19
aV"2_a"
p6707
aV"2_g"
p6708
aaa(lp6709
(lp6710
I19
aV"2_f"
p6711
aV"1_c"
p6712
aa(lp6713
I19
aV"1_c"
p6714
aV"2_f"
p6715
aa(lp6716
I19
aV"2_g"
p6717
aV"1_e"
p6718
aa(lp6719
I19
aV"1_e"
p6720
aV"2_g"
p6721
aa(lp6722
I19
aV"2_g"
p6723
aV"1_a"
p6724
aa(lp6725
I19
aV"1_a"
p6726
aV"2_g"
p6727
aaasba(ihelper
PossibleWorld
p6728
(dp6729
g3
I20
sg4
I0
sg5
(lp6730
(lp6731
(lp6732
I20
aV"1_b"
p6733
aV"2_b"
p6734
aa(lp6735
I20
aV"1_d"
p6736
aV"2_d"
p6737
aa(lp6738
I20
aV"2_d"
p6739
aV"1_d"
p6740
aa(lp6741
I20
aV"2_b"
p6742
aV"1_b"
p6743
aa(lp6744
I20
aV"2_a"
p6745
aV"2_a"
p6746
aa(lp6747
I20
aV"1_a"
p6748
aV"1_a"
p6749
aa(lp6750
I20
aV"2_g"
p6751
aV"2_g"
p6752
aa(lp6753
I20
aV"2_f"
p6754
aV"2_f"
p6755
aa(lp6756
I20
aV"2_d"
p6757
aV"2_d"
p6758
aa(lp6759
I20
aV"2_b"
p6760
aV"2_b"
p6761
aa(lp6762
I20
aV"1_e"
p6763
aV"1_e"
p6764
aa(lp6765
I20
aV"1_d"
p6766
aV"1_d"
p6767
aa(lp6768
I20
aV"1_c"
p6769
aV"1_c"
p6770
aa(lp6771
I20
aV"1_b"
p6772
aV"1_b"
p6773
aaa(lp6774
(lp6775
I20
aV"1_c"
p6776
aV"1_b"
p6777
aa(lp6778
I20
aV"1_d"
p6779
aV"1_b"
p6780
aa(lp6781
I20
aV"1_e"
p6782
aV"1_b"
p6783
aa(lp6784
I20
aV"1_b"
p6785
aV"1_c"
p6786
aa(lp6787
I20
aV"1_d"
p6788
aV"1_c"
p6789
aa(lp6790
I20
aV"1_e"
p6791
aV"1_c"
p6792
aa(lp6793
I20
aV"1_b"
p6794
aV"1_d"
p6795
aa(lp6796
I20
aV"1_c"
p6797
aV"1_d"
p6798
aa(lp6799
I20
aV"1_e"
p6800
aV"1_d"
p6801
aa(lp6802
I20
aV"1_b"
p6803
aV"1_e"
p6804
aa(lp6805
I20
aV"1_c"
p6806
aV"1_e"
p6807
aa(lp6808
I20
aV"1_d"
p6809
aV"1_e"
p6810
aa(lp6811
I20
aV"2_d"
p6812
aV"2_b"
p6813
aa(lp6814
I20
aV"2_f"
p6815
aV"2_b"
p6816
aa(lp6817
I20
aV"2_g"
p6818
aV"2_b"
p6819
aa(lp6820
I20
aV"2_b"
p6821
aV"2_d"
p6822
aa(lp6823
I20
aV"2_f"
p6824
aV"2_d"
p6825
aa(lp6826
I20
aV"2_g"
p6827
aV"2_d"
p6828
aa(lp6829
I20
aV"2_b"
p6830
aV"2_f"
p6831
aa(lp6832
I20
aV"2_d"
p6833
aV"2_f"
p6834
aa(lp6835
I20
aV"2_g"
p6836
aV"2_f"
p6837
aa(lp6838
I20
aV"2_b"
p6839
aV"2_g"
p6840
aa(lp6841
I20
aV"2_d"
p6842
aV"2_g"
p6843
aa(lp6844
I20
aV"2_f"
p6845
aV"2_g"
p6846
aa(lp6847
I20
aV"1_c"
p6848
aV"2_d"
p6849
aa(lp6850
I20
aV"1_c"
p6851
aV"2_b"
p6852
aa(lp6853
I20
aV"1_b"
p6854
aV"2_g"
p6855
aa(lp6856
I20
aV"1_d"
p6857
aV"2_g"
p6858
aa(lp6859
I20
aV"1_b"
p6860
aV"2_d"
p6861
aa(lp6862
I20
aV"1_e"
p6863
aV"2_d"
p6864
aa(lp6865
I20
aV"1_d"
p6866
aV"2_b"
p6867
aa(lp6868
I20
aV"1_e"
p6869
aV"2_b"
p6870
aa(lp6871
I20
aV"1_d"
p6872
aV"2_f"
p6873
aa(lp6874
I20
aV"1_b"
p6875
aV"2_f"
p6876
aa(lp6877
I20
aV"2_f"
p6878
aV"1_b"
p6879
aa(lp6880
I20
aV"2_f"
p6881
aV"1_d"
p6882
aa(lp6883
I20
aV"2_b"
p6884
aV"1_e"
p6885
aa(lp6886
I20
aV"2_b"
p6887
aV"1_d"
p6888
aa(lp6889
I20
aV"2_d"
p6890
aV"1_e"
p6891
aa(lp6892
I20
aV"2_d"
p6893
aV"1_b"
p6894
aa(lp6895
I20
aV"2_g"
p6896
aV"1_d"
p6897
aa(lp6898
I20
aV"2_g"
p6899
aV"1_b"
p6900
aa(lp6901
I20
aV"2_b"
p6902
aV"1_c"
p6903
aa(lp6904
I20
aV"2_d"
p6905
aV"1_c"
p6906
aa(lp6907
I20
aV"1_e"
p6908
aV"2_f"
p6909
aa(lp6910
I20
aV"2_f"
p6911
aV"1_e"
p6912
aaa(lp6913
(lp6914
I20
aV"1_b"
p6915
aV"1_a"
p6916
aa(lp6917
I20
aV"1_c"
p6918
aV"1_a"
p6919
aa(lp6920
I20
aV"1_d"
p6921
aV"1_a"
p6922
aa(lp6923
I20
aV"1_e"
p6924
aV"1_a"
p6925
aa(lp6926
I20
aV"2_b"
p6927
aV"2_a"
p6928
aa(lp6929
I20
aV"2_d"
p6930
aV"2_a"
p6931
aa(lp6932
I20
aV"2_f"
p6933
aV"2_a"
p6934
aa(lp6935
I20
aV"2_g"
p6936
aV"2_a"
p6937
aa(lp6938
I20
aV"1_b"
p6939
aV"2_a"
p6940
aa(lp6941
I20
aV"1_d"
p6942
aV"2_a"
p6943
aa(lp6944
I20
aV"2_d"
p6945
aV"1_a"
p6946
aa(lp6947
I20
aV"2_b"
p6948
aV"1_a"
p6949
aa(lp6950
I20
aV"1_a"
p6951
aV"2_a"
p6952
aa(lp6953
I20
aV"1_c"
p6954
aV"2_a"
p6955
aa(lp6956
I20
aV"1_e"
p6957
aV"2_a"
p6958
aa(lp6959
I20
aV"2_f"
p6960
aV"1_a"
p6961
aaa(lp6962
(lp6963
I20
aV"2_a"
p6964
aV"2_g"
p6965
aa(lp6966
I20
aV"2_a"
p6967
aV"2_f"
p6968
aa(lp6969
I20
aV"2_a"
p6970
aV"2_d"
p6971
aa(lp6972
I20
aV"2_a"
p6973
aV"2_b"
p6974
aa(lp6975
I20
aV"1_a"
p6976
aV"1_e"
p6977
aa(lp6978
I20
aV"1_a"
p6979
aV"1_d"
p6980
aa(lp6981
I20
aV"1_a"
p6982
aV"1_c"
p6983
aa(lp6984
I20
aV"1_a"
p6985
aV"1_b"
p6986
aa(lp6987
I20
aV"2_a"
p6988
aV"1_d"
p6989
aa(lp6990
I20
aV"2_a"
p6991
aV"1_b"
p6992
aa(lp6993
I20
aV"1_a"
p6994
aV"2_b"
p6995
aa(lp6996
I20
aV"1_a"
p6997
aV"2_d"
p6998
aa(lp6999
I20
aV"2_a"
p7000
aV"1_a"
p7001
aa(lp7002
I20
aV"2_a"
p7003
aV"1_e"
p7004
aa(lp7005
I20
aV"2_a"
p7006
aV"1_c"
p7007
aa(lp7008
I20
aV"1_a"
p7009
aV"2_f"
p7010
aaa(lp7011
(lp7012
I20
aV"1_b"
p7013
aa(lp7014
I20
aV"1_c"
p7015
aa(lp7016
I20
aV"1_d"
p7017
aa(lp7018
I20
aV"1_e"
p7019
aa(lp7020
I20
aV"2_b"
p7021
aa(lp7022
I20
aV"2_d"
p7023
aa(lp7024
I20
aV"2_f"
p7025
aa(lp7026
I20
aV"2_g"
p7027
aa(lp7028
I20
aV"1_a"
p7029
aa(lp7030
I20
aV"2_a"
p7031
aaa(lp7032
(lp7033
I20
aV"1_a"
p7034
aV"1_b"
p7035
aa(lp7036
I20
aV"1_a"
p7037
aV"1_c"
p7038
aa(lp7039
I20
aV"1_a"
p7040
aV"1_d"
p7041
aa(lp7042
I20
aV"1_a"
p7043
aV"1_e"
p7044
aa(lp7045
I20
aV"2_a"
p7046
aV"2_b"
p7047
aa(lp7048
I20
aV"2_a"
p7049
aV"2_d"
p7050
aa(lp7051
I20
aV"2_a"
p7052
aV"2_f"
p7053
aa(lp7054
I20
aV"2_a"
p7055
aV"2_g"
p7056
aaa(lp7057
(lp7058
I20
aV"2_f"
p7059
aV"1_c"
p7060
aa(lp7061
I20
aV"1_c"
p7062
aV"2_f"
p7063
aa(lp7064
I20
aV"2_g"
p7065
aV"1_e"
p7066
aa(lp7067
I20
aV"1_e"
p7068
aV"2_g"
p7069
aa(lp7070
I20
aV"2_g"
p7071
aV"1_a"
p7072
aa(lp7073
I20
aV"1_c"
p7074
aV"2_g"
p7075
aa(lp7076
I20
aV"1_a"
p7077
aV"2_g"
p7078
aa(lp7079
I20
aV"2_g"
p7080
aV"1_c"
p7081
aaasba(ihelper
PossibleWorld
p7082
(dp7083
g3
I21
sg4
I0
sg5
(lp7084
(lp7085
(lp7086
I21
aV"1_b"
p7087
aV"2_b"
p7088
aa(lp7089
I21
aV"1_d"
p7090
aV"2_d"
p7091
aa(lp7092
I21
aV"2_d"
p7093
aV"1_d"
p7094
aa(lp7095
I21
aV"2_b"
p7096
aV"1_b"
p7097
aa(lp7098
I21
aV"2_a"
p7099
aV"2_a"
p7100
aa(lp7101
I21
aV"1_a"
p7102
aV"1_a"
p7103
aa(lp7104
I21
aV"2_g"
p7105
aV"2_g"
p7106
aa(lp7107
I21
aV"2_f"
p7108
aV"2_f"
p7109
aa(lp7110
I21
aV"2_d"
p7111
aV"2_d"
p7112
aa(lp7113
I21
aV"2_b"
p7114
aV"2_b"
p7115
aa(lp7116
I21
aV"1_e"
p7117
aV"1_e"
p7118
aa(lp7119
I21
aV"1_d"
p7120
aV"1_d"
p7121
aa(lp7122
I21
aV"1_c"
p7123
aV"1_c"
p7124
aa(lp7125
I21
aV"1_b"
p7126
aV"1_b"
p7127
aaa(lp7128
(lp7129
I21
aV"1_c"
p7130
aV"1_b"
p7131
aa(lp7132
I21
aV"1_d"
p7133
aV"1_b"
p7134
aa(lp7135
I21
aV"1_e"
p7136
aV"1_b"
p7137
aa(lp7138
I21
aV"1_b"
p7139
aV"1_c"
p7140
aa(lp7141
I21
aV"1_d"
p7142
aV"1_c"
p7143
aa(lp7144
I21
aV"1_e"
p7145
aV"1_c"
p7146
aa(lp7147
I21
aV"1_b"
p7148
aV"1_d"
p7149
aa(lp7150
I21
aV"1_c"
p7151
aV"1_d"
p7152
aa(lp7153
I21
aV"1_e"
p7154
aV"1_d"
p7155
aa(lp7156
I21
aV"1_b"
p7157
aV"1_e"
p7158
aa(lp7159
I21
aV"1_c"
p7160
aV"1_e"
p7161
aa(lp7162
I21
aV"1_d"
p7163
aV"1_e"
p7164
aa(lp7165
I21
aV"2_d"
p7166
aV"2_b"
p7167
aa(lp7168
I21
aV"2_f"
p7169
aV"2_b"
p7170
aa(lp7171
I21
aV"2_g"
p7172
aV"2_b"
p7173
aa(lp7174
I21
aV"2_b"
p7175
aV"2_d"
p7176
aa(lp7177
I21
aV"2_f"
p7178
aV"2_d"
p7179
aa(lp7180
I21
aV"2_g"
p7181
aV"2_d"
p7182
aa(lp7183
I21
aV"2_b"
p7184
aV"2_f"
p7185
aa(lp7186
I21
aV"2_d"
p7187
aV"2_f"
p7188
aa(lp7189
I21
aV"2_g"
p7190
aV"2_f"
p7191
aa(lp7192
I21
aV"2_b"
p7193
aV"2_g"
p7194
aa(lp7195
I21
aV"2_d"
p7196
aV"2_g"
p7197
aa(lp7198
I21
aV"2_f"
p7199
aV"2_g"
p7200
aa(lp7201
I21
aV"1_c"
p7202
aV"2_d"
p7203
aa(lp7204
I21
aV"1_c"
p7205
aV"2_b"
p7206
aa(lp7207
I21
aV"1_b"
p7208
aV"2_g"
p7209
aa(lp7210
I21
aV"1_d"
p7211
aV"2_g"
p7212
aa(lp7213
I21
aV"1_b"
p7214
aV"2_d"
p7215
aa(lp7216
I21
aV"1_e"
p7217
aV"2_d"
p7218
aa(lp7219
I21
aV"1_d"
p7220
aV"2_b"
p7221
aa(lp7222
I21
aV"1_e"
p7223
aV"2_b"
p7224
aa(lp7225
I21
aV"1_d"
p7226
aV"2_f"
p7227
aa(lp7228
I21
aV"1_b"
p7229
aV"2_f"
p7230
aa(lp7231
I21
aV"2_f"
p7232
aV"1_b"
p7233
aa(lp7234
I21
aV"2_f"
p7235
aV"1_d"
p7236
aa(lp7237
I21
aV"2_b"
p7238
aV"1_e"
p7239
aa(lp7240
I21
aV"2_b"
p7241
aV"1_d"
p7242
aa(lp7243
I21
aV"2_d"
p7244
aV"1_e"
p7245
aa(lp7246
I21
aV"2_d"
p7247
aV"1_b"
p7248
aa(lp7249
I21
aV"2_g"
p7250
aV"1_d"
p7251
aa(lp7252
I21
aV"2_g"
p7253
aV"1_b"
p7254
aa(lp7255
I21
aV"2_b"
p7256
aV"1_c"
p7257
aa(lp7258
I21
aV"2_d"
p7259
aV"1_c"
p7260
aa(lp7261
I21
aV"1_c"
p7262
aV"2_g"
p7263
aa(lp7264
I21
aV"2_g"
p7265
aV"1_c"
p7266
aaa(lp7267
(lp7268
I21
aV"1_b"
p7269
aV"1_a"
p7270
aa(lp7271
I21
aV"1_c"
p7272
aV"1_a"
p7273
aa(lp7274
I21
aV"1_d"
p7275
aV"1_a"
p7276
aa(lp7277
I21
aV"1_e"
p7278
aV"1_a"
p7279
aa(lp7280
I21
aV"2_b"
p7281
aV"2_a"
p7282
aa(lp7283
I21
aV"2_d"
p7284
aV"2_a"
p7285
aa(lp7286
I21
aV"2_f"
p7287
aV"2_a"
p7288
aa(lp7289
I21
aV"2_g"
p7290
aV"2_a"
p7291
aa(lp7292
I21
aV"1_b"
p7293
aV"2_a"
p7294
aa(lp7295
I21
aV"1_d"
p7296
aV"2_a"
p7297
aa(lp7298
I21
aV"2_d"
p7299
aV"1_a"
p7300
aa(lp7301
I21
aV"2_b"
p7302
aV"1_a"
p7303
aa(lp7304
I21
aV"1_a"
p7305
aV"2_a"
p7306
aa(lp7307
I21
aV"1_c"
p7308
aV"2_a"
p7309
aa(lp7310
I21
aV"1_e"
p7311
aV"2_a"
p7312
aa(lp7313
I21
aV"2_f"
p7314
aV"1_a"
p7315
aaa(lp7316
(lp7317
I21
aV"2_a"
p7318
aV"2_g"
p7319
aa(lp7320
I21
aV"2_a"
p7321
aV"2_f"
p7322
aa(lp7323
I21
aV"2_a"
p7324
aV"2_d"
p7325
aa(lp7326
I21
aV"2_a"
p7327
aV"2_b"
p7328
aa(lp7329
I21
aV"1_a"
p7330
aV"1_e"
p7331
aa(lp7332
I21
aV"1_a"
p7333
aV"1_d"
p7334
aa(lp7335
I21
aV"1_a"
p7336
aV"1_c"
p7337
aa(lp7338
I21
aV"1_a"
p7339
aV"1_b"
p7340
aa(lp7341
I21
aV"2_a"
p7342
aV"1_d"
p7343
aa(lp7344
I21
aV"2_a"
p7345
aV"1_b"
p7346
aa(lp7347
I21
aV"1_a"
p7348
aV"2_b"
p7349
aa(lp7350
I21
aV"1_a"
p7351
aV"2_d"
p7352
aa(lp7353
I21
aV"2_a"
p7354
aV"1_a"
p7355
aa(lp7356
I21
aV"2_a"
p7357
aV"1_e"
p7358
aa(lp7359
I21
aV"2_a"
p7360
aV"1_c"
p7361
aa(lp7362
I21
aV"1_a"
p7363
aV"2_f"
p7364
aaa(lp7365
(lp7366
I21
aV"1_b"
p7367
aa(lp7368
I21
aV"1_c"
p7369
aa(lp7370
I21
aV"1_d"
p7371
aa(lp7372
I21
aV"1_e"
p7373
aa(lp7374
I21
aV"2_b"
p7375
aa(lp7376
I21
aV"2_d"
p7377
aa(lp7378
I21
aV"2_f"
p7379
aa(lp7380
I21
aV"2_g"
p7381
aa(lp7382
I21
aV"1_a"
p7383
aa(lp7384
I21
aV"2_a"
p7385
aaa(lp7386
(lp7387
I21
aV"1_a"
p7388
aV"1_b"
p7389
aa(lp7390
I21
aV"1_a"
p7391
aV"1_c"
p7392
aa(lp7393
I21
aV"1_a"
p7394
aV"1_d"
p7395
aa(lp7396
I21
aV"1_a"
p7397
aV"1_e"
p7398
aa(lp7399
I21
aV"2_a"
p7400
aV"2_b"
p7401
aa(lp7402
I21
aV"2_a"
p7403
aV"2_d"
p7404
aa(lp7405
I21
aV"2_a"
p7406
aV"2_f"
p7407
aa(lp7408
I21
aV"2_a"
p7409
aV"2_g"
p7410
aaa(lp7411
(lp7412
I21
aV"2_f"
p7413
aV"1_c"
p7414
aa(lp7415
I21
aV"1_c"
p7416
aV"2_f"
p7417
aa(lp7418
I21
aV"2_g"
p7419
aV"1_e"
p7420
aa(lp7421
I21
aV"1_e"
p7422
aV"2_g"
p7423
aa(lp7424
I21
aV"2_g"
p7425
aV"1_a"
p7426
aa(lp7427
I21
aV"1_e"
p7428
aV"2_f"
p7429
aa(lp7430
I21
aV"1_a"
p7431
aV"2_g"
p7432
aa(lp7433
I21
aV"2_f"
p7434
aV"1_e"
p7435
aaasba(ihelper
PossibleWorld
p7436
(dp7437
g3
I22
sg4
I0
sg5
(lp7438
(lp7439
(lp7440
I22
aV"1_b"
p7441
aV"2_b"
p7442
aa(lp7443
I22
aV"1_d"
p7444
aV"2_d"
p7445
aa(lp7446
I22
aV"2_d"
p7447
aV"1_d"
p7448
aa(lp7449
I22
aV"2_b"
p7450
aV"1_b"
p7451
aa(lp7452
I22
aV"2_a"
p7453
aV"2_a"
p7454
aa(lp7455
I22
aV"1_a"
p7456
aV"1_a"
p7457
aa(lp7458
I22
aV"2_g"
p7459
aV"2_g"
p7460
aa(lp7461
I22
aV"2_f"
p7462
aV"2_f"
p7463
aa(lp7464
I22
aV"2_d"
p7465
aV"2_d"
p7466
aa(lp7467
I22
aV"2_b"
p7468
aV"2_b"
p7469
aa(lp7470
I22
aV"1_e"
p7471
aV"1_e"
p7472
aa(lp7473
I22
aV"1_d"
p7474
aV"1_d"
p7475
aa(lp7476
I22
aV"1_c"
p7477
aV"1_c"
p7478
aa(lp7479
I22
aV"1_b"
p7480
aV"1_b"
p7481
aaa(lp7482
(lp7483
I22
aV"1_c"
p7484
aV"1_b"
p7485
aa(lp7486
I22
aV"1_d"
p7487
aV"1_b"
p7488
aa(lp7489
I22
aV"1_e"
p7490
aV"1_b"
p7491
aa(lp7492
I22
aV"1_b"
p7493
aV"1_c"
p7494
aa(lp7495
I22
aV"1_d"
p7496
aV"1_c"
p7497
aa(lp7498
I22
aV"1_e"
p7499
aV"1_c"
p7500
aa(lp7501
I22
aV"1_b"
p7502
aV"1_d"
p7503
aa(lp7504
I22
aV"1_c"
p7505
aV"1_d"
p7506
aa(lp7507
I22
aV"1_e"
p7508
aV"1_d"
p7509
aa(lp7510
I22
aV"1_b"
p7511
aV"1_e"
p7512
aa(lp7513
I22
aV"1_c"
p7514
aV"1_e"
p7515
aa(lp7516
I22
aV"1_d"
p7517
aV"1_e"
p7518
aa(lp7519
I22
aV"2_d"
p7520
aV"2_b"
p7521
aa(lp7522
I22
aV"2_f"
p7523
aV"2_b"
p7524
aa(lp7525
I22
aV"2_g"
p7526
aV"2_b"
p7527
aa(lp7528
I22
aV"2_b"
p7529
aV"2_d"
p7530
aa(lp7531
I22
aV"2_f"
p7532
aV"2_d"
p7533
aa(lp7534
I22
aV"2_g"
p7535
aV"2_d"
p7536
aa(lp7537
I22
aV"2_b"
p7538
aV"2_f"
p7539
aa(lp7540
I22
aV"2_d"
p7541
aV"2_f"
p7542
aa(lp7543
I22
aV"2_g"
p7544
aV"2_f"
p7545
aa(lp7546
I22
aV"2_b"
p7547
aV"2_g"
p7548
aa(lp7549
I22
aV"2_d"
p7550
aV"2_g"
p7551
aa(lp7552
I22
aV"2_f"
p7553
aV"2_g"
p7554
aa(lp7555
I22
aV"1_c"
p7556
aV"2_d"
p7557
aa(lp7558
I22
aV"1_c"
p7559
aV"2_b"
p7560
aa(lp7561
I22
aV"1_b"
p7562
aV"2_g"
p7563
aa(lp7564
I22
aV"1_d"
p7565
aV"2_g"
p7566
aa(lp7567
I22
aV"1_b"
p7568
aV"2_d"
p7569
aa(lp7570
I22
aV"1_e"
p7571
aV"2_d"
p7572
aa(lp7573
I22
aV"1_d"
p7574
aV"2_b"
p7575
aa(lp7576
I22
aV"1_e"
p7577
aV"2_b"
p7578
aa(lp7579
I22
aV"1_d"
p7580
aV"2_f"
p7581
aa(lp7582
I22
aV"1_b"
p7583
aV"2_f"
p7584
aa(lp7585
I22
aV"2_f"
p7586
aV"1_b"
p7587
aa(lp7588
I22
aV"2_f"
p7589
aV"1_d"
p7590
aa(lp7591
I22
aV"2_b"
p7592
aV"1_e"
p7593
aa(lp7594
I22
aV"2_b"
p7595
aV"1_d"
p7596
aa(lp7597
I22
aV"2_d"
p7598
aV"1_e"
p7599
aa(lp7600
I22
aV"2_d"
p7601
aV"1_b"
p7602
aa(lp7603
I22
aV"2_g"
p7604
aV"1_d"
p7605
aa(lp7606
I22
aV"2_g"
p7607
aV"1_b"
p7608
aa(lp7609
I22
aV"2_b"
p7610
aV"1_c"
p7611
aa(lp7612
I22
aV"2_d"
p7613
aV"1_c"
p7614
aaa(lp7615
(lp7616
I22
aV"1_b"
p7617
aV"1_a"
p7618
aa(lp7619
I22
aV"1_c"
p7620
aV"1_a"
p7621
aa(lp7622
I22
aV"1_d"
p7623
aV"1_a"
p7624
aa(lp7625
I22
aV"1_e"
p7626
aV"1_a"
p7627
aa(lp7628
I22
aV"2_b"
p7629
aV"2_a"
p7630
aa(lp7631
I22
aV"2_d"
p7632
aV"2_a"
p7633
aa(lp7634
I22
aV"2_f"
p7635
aV"2_a"
p7636
aa(lp7637
I22
aV"2_g"
p7638
aV"2_a"
p7639
aa(lp7640
I22
aV"1_b"
p7641
aV"2_a"
p7642
aa(lp7643
I22
aV"1_d"
p7644
aV"2_a"
p7645
aa(lp7646
I22
aV"2_d"
p7647
aV"1_a"
p7648
aa(lp7649
I22
aV"2_b"
p7650
aV"1_a"
p7651
aa(lp7652
I22
aV"1_a"
p7653
aV"2_a"
p7654
aa(lp7655
I22
aV"1_c"
p7656
aV"2_a"
p7657
aa(lp7658
I22
aV"1_e"
p7659
aV"2_a"
p7660
aa(lp7661
I22
aV"2_f"
p7662
aV"1_a"
p7663
aaa(lp7664
(lp7665
I22
aV"2_a"
p7666
aV"2_g"
p7667
aa(lp7668
I22
aV"2_a"
p7669
aV"2_f"
p7670
aa(lp7671
I22
aV"2_a"
p7672
aV"2_d"
p7673
aa(lp7674
I22
aV"2_a"
p7675
aV"2_b"
p7676
aa(lp7677
I22
aV"1_a"
p7678
aV"1_e"
p7679
aa(lp7680
I22
aV"1_a"
p7681
aV"1_d"
p7682
aa(lp7683
I22
aV"1_a"
p7684
aV"1_c"
p7685
aa(lp7686
I22
aV"1_a"
p7687
aV"1_b"
p7688
aa(lp7689
I22
aV"2_a"
p7690
aV"1_d"
p7691
aa(lp7692
I22
aV"2_a"
p7693
aV"1_b"
p7694
aa(lp7695
I22
aV"1_a"
p7696
aV"2_b"
p7697
aa(lp7698
I22
aV"1_a"
p7699
aV"2_d"
p7700
aa(lp7701
I22
aV"2_a"
p7702
aV"1_a"
p7703
aa(lp7704
I22
aV"2_a"
p7705
aV"1_e"
p7706
aa(lp7707
I22
aV"2_a"
p7708
aV"1_c"
p7709
aa(lp7710
I22
aV"1_a"
p7711
aV"2_f"
p7712
aaa(lp7713
(lp7714
I22
aV"1_b"
p7715
aa(lp7716
I22
aV"1_c"
p7717
aa(lp7718
I22
aV"1_d"
p7719
aa(lp7720
I22
aV"1_e"
p7721
aa(lp7722
I22
aV"2_b"
p7723
aa(lp7724
I22
aV"2_d"
p7725
aa(lp7726
I22
aV"2_f"
p7727
aa(lp7728
I22
aV"2_g"
p7729
aa(lp7730
I22
aV"1_a"
p7731
aa(lp7732
I22
aV"2_a"
p7733
aaa(lp7734
(lp7735
I22
aV"1_a"
p7736
aV"1_b"
p7737
aa(lp7738
I22
aV"1_a"
p7739
aV"1_c"
p7740
aa(lp7741
I22
aV"1_a"
p7742
aV"1_d"
p7743
aa(lp7744
I22
aV"1_a"
p7745
aV"1_e"
p7746
aa(lp7747
I22
aV"2_a"
p7748
aV"2_b"
p7749
aa(lp7750
I22
aV"2_a"
p7751
aV"2_d"
p7752
aa(lp7753
I22
aV"2_a"
p7754
aV"2_f"
p7755
aa(lp7756
I22
aV"2_a"
p7757
aV"2_g"
p7758
aaa(lp7759
(lp7760
I22
aV"2_f"
p7761
aV"1_c"
p7762
aa(lp7763
I22
aV"1_c"
p7764
aV"2_f"
p7765
aa(lp7766
I22
aV"2_g"
p7767
aV"1_e"
p7768
aa(lp7769
I22
aV"1_e"
p7770
aV"2_g"
p7771
aa(lp7772
I22
aV"2_g"
p7773
aV"1_a"
p7774
aa(lp7775
I22
aV"1_e"
p7776
aV"2_f"
p7777
aa(lp7778
I22
aV"1_c"
p7779
aV"2_g"
p7780
aa(lp7781
I22
aV"1_a"
p7782
aV"2_g"
p7783
aa(lp7784
I22
aV"2_f"
p7785
aV"1_e"
p7786
aa(lp7787
I22
aV"2_g"
p7788
aV"1_c"
p7789
aaasba(ihelper
PossibleWorld
p7790
(dp7791
g3
I23
sg4
I0
sg5
(lp7792
(lp7793
(lp7794
I23
aV"1_b"
p7795
aV"2_b"
p7796
aa(lp7797
I23
aV"1_d"
p7798
aV"2_d"
p7799
aa(lp7800
I23
aV"2_d"
p7801
aV"1_d"
p7802
aa(lp7803
I23
aV"2_b"
p7804
aV"1_b"
p7805
aa(lp7806
I23
aV"2_a"
p7807
aV"2_a"
p7808
aa(lp7809
I23
aV"1_a"
p7810
aV"1_a"
p7811
aa(lp7812
I23
aV"2_g"
p7813
aV"2_g"
p7814
aa(lp7815
I23
aV"2_f"
p7816
aV"2_f"
p7817
aa(lp7818
I23
aV"2_d"
p7819
aV"2_d"
p7820
aa(lp7821
I23
aV"2_b"
p7822
aV"2_b"
p7823
aa(lp7824
I23
aV"1_e"
p7825
aV"1_e"
p7826
aa(lp7827
I23
aV"1_d"
p7828
aV"1_d"
p7829
aa(lp7830
I23
aV"1_c"
p7831
aV"1_c"
p7832
aa(lp7833
I23
aV"1_b"
p7834
aV"1_b"
p7835
aa(lp7836
I23
aV"1_e"
p7837
aV"2_g"
p7838
aa(lp7839
I23
aV"2_g"
p7840
aV"1_e"
p7841
aaa(lp7842
(lp7843
I23
aV"1_c"
p7844
aV"1_b"
p7845
aa(lp7846
I23
aV"1_d"
p7847
aV"1_b"
p7848
aa(lp7849
I23
aV"1_e"
p7850
aV"1_b"
p7851
aa(lp7852
I23
aV"1_b"
p7853
aV"1_c"
p7854
aa(lp7855
I23
aV"1_d"
p7856
aV"1_c"
p7857
aa(lp7858
I23
aV"1_e"
p7859
aV"1_c"
p7860
aa(lp7861
I23
aV"1_b"
p7862
aV"1_d"
p7863
aa(lp7864
I23
aV"1_c"
p7865
aV"1_d"
p7866
aa(lp7867
I23
aV"1_e"
p7868
aV"1_d"
p7869
aa(lp7870
I23
aV"1_b"
p7871
aV"1_e"
p7872
aa(lp7873
I23
aV"1_c"
p7874
aV"1_e"
p7875
aa(lp7876
I23
aV"1_d"
p7877
aV"1_e"
p7878
aa(lp7879
I23
aV"2_d"
p7880
aV"2_b"
p7881
aa(lp7882
I23
aV"2_f"
p7883
aV"2_b"
p7884
aa(lp7885
I23
aV"2_g"
p7886
aV"2_b"
p7887
aa(lp7888
I23
aV"2_b"
p7889
aV"2_d"
p7890
aa(lp7891
I23
aV"2_f"
p7892
aV"2_d"
p7893
aa(lp7894
I23
aV"2_g"
p7895
aV"2_d"
p7896
aa(lp7897
I23
aV"2_b"
p7898
aV"2_f"
p7899
aa(lp7900
I23
aV"2_d"
p7901
aV"2_f"
p7902
aa(lp7903
I23
aV"2_g"
p7904
aV"2_f"
p7905
aa(lp7906
I23
aV"2_b"
p7907
aV"2_g"
p7908
aa(lp7909
I23
aV"2_d"
p7910
aV"2_g"
p7911
aa(lp7912
I23
aV"2_f"
p7913
aV"2_g"
p7914
aa(lp7915
I23
aV"1_c"
p7916
aV"2_d"
p7917
aa(lp7918
I23
aV"1_c"
p7919
aV"2_b"
p7920
aa(lp7921
I23
aV"1_b"
p7922
aV"2_g"
p7923
aa(lp7924
I23
aV"1_d"
p7925
aV"2_g"
p7926
aa(lp7927
I23
aV"1_b"
p7928
aV"2_d"
p7929
aa(lp7930
I23
aV"1_e"
p7931
aV"2_d"
p7932
aa(lp7933
I23
aV"1_d"
p7934
aV"2_b"
p7935
aa(lp7936
I23
aV"1_e"
p7937
aV"2_b"
p7938
aa(lp7939
I23
aV"1_d"
p7940
aV"2_f"
p7941
aa(lp7942
I23
aV"1_b"
p7943
aV"2_f"
p7944
aa(lp7945
I23
aV"2_f"
p7946
aV"1_b"
p7947
aa(lp7948
I23
aV"2_f"
p7949
aV"1_d"
p7950
aa(lp7951
I23
aV"2_b"
p7952
aV"1_e"
p7953
aa(lp7954
I23
aV"2_b"
p7955
aV"1_d"
p7956
aa(lp7957
I23
aV"2_d"
p7958
aV"1_e"
p7959
aa(lp7960
I23
aV"2_d"
p7961
aV"1_b"
p7962
aa(lp7963
I23
aV"2_g"
p7964
aV"1_d"
p7965
aa(lp7966
I23
aV"2_g"
p7967
aV"1_b"
p7968
aa(lp7969
I23
aV"2_b"
p7970
aV"1_c"
p7971
aa(lp7972
I23
aV"2_d"
p7973
aV"1_c"
p7974
aa(lp7975
I23
aV"1_c"
p7976
aV"2_g"
p7977
aa(lp7978
I23
aV"1_e"
p7979
aV"2_f"
p7980
aa(lp7981
I23
aV"2_f"
p7982
aV"1_e"
p7983
aa(lp7984
I23
aV"2_g"
p7985
aV"1_c"
p7986
aaa(lp7987
(lp7988
I23
aV"1_b"
p7989
aV"1_a"
p7990
aa(lp7991
I23
aV"1_c"
p7992
aV"1_a"
p7993
aa(lp7994
I23
aV"1_d"
p7995
aV"1_a"
p7996
aa(lp7997
I23
aV"1_e"
p7998
aV"1_a"
p7999
aa(lp8000
I23
aV"2_b"
p8001
aV"2_a"
p8002
aa(lp8003
I23
aV"2_d"
p8004
aV"2_a"
p8005
aa(lp8006
I23
aV"2_f"
p8007
aV"2_a"
p8008
aa(lp8009
I23
aV"2_g"
p8010
aV"2_a"
p8011
aa(lp8012
I23
aV"1_b"
p8013
aV"2_a"
p8014
aa(lp8015
I23
aV"1_d"
p8016
aV"2_a"
p8017
aa(lp8018
I23
aV"2_d"
p8019
aV"1_a"
p8020
aa(lp8021
I23
aV"2_b"
p8022
aV"1_a"
p8023
aa(lp8024
I23
aV"1_a"
p8025
aV"2_a"
p8026
aa(lp8027
I23
aV"1_c"
p8028
aV"2_a"
p8029
aa(lp8030
I23
aV"1_e"
p8031
aV"2_a"
p8032
aa(lp8033
I23
aV"1_c"
p8034
aV"2_f"
p8035
aa(lp8036
I23
aV"2_g"
p8037
aV"1_a"
p8038
aaa(lp8039
(lp8040
I23
aV"2_a"
p8041
aV"2_g"
p8042
aa(lp8043
I23
aV"2_a"
p8044
aV"2_f"
p8045
aa(lp8046
I23
aV"2_a"
p8047
aV"2_d"
p8048
aa(lp8049
I23
aV"2_a"
p8050
aV"2_b"
p8051
aa(lp8052
I23
aV"1_a"
p8053
aV"1_e"
p8054
aa(lp8055
I23
aV"1_a"
p8056
aV"1_d"
p8057
aa(lp8058
I23
aV"1_a"
p8059
aV"1_c"
p8060
aa(lp8061
I23
aV"1_a"
p8062
aV"1_b"
p8063
aa(lp8064
I23
aV"2_a"
p8065
aV"1_d"
p8066
aa(lp8067
I23
aV"2_a"
p8068
aV"1_b"
p8069
aa(lp8070
I23
aV"1_a"
p8071
aV"2_b"
p8072
aa(lp8073
I23
aV"1_a"
p8074
aV"2_d"
p8075
aa(lp8076
I23
aV"2_f"
p8077
aV"1_c"
p8078
aa(lp8079
I23
aV"2_a"
p8080
aV"1_a"
p8081
aa(lp8082
I23
aV"2_a"
p8083
aV"1_e"
p8084
aa(lp8085
I23
aV"2_a"
p8086
aV"1_c"
p8087
aa(lp8088
I23
aV"1_a"
p8089
aV"2_g"
p8090
aaa(lp8091
(lp8092
I23
aV"1_b"
p8093
aa(lp8094
I23
aV"1_c"
p8095
aa(lp8096
I23
aV"1_d"
p8097
aa(lp8098
I23
aV"1_e"
p8099
aa(lp8100
I23
aV"2_b"
p8101
aa(lp8102
I23
aV"2_d"
p8103
aa(lp8104
I23
aV"2_f"
p8105
aa(lp8106
I23
aV"2_g"
p8107
aa(lp8108
I23
aV"1_a"
p8109
aa(lp8110
I23
aV"2_a"
p8111
aaa(lp8112
(lp8113
I23
aV"1_a"
p8114
aV"1_b"
p8115
aa(lp8116
I23
aV"1_a"
p8117
aV"1_c"
p8118
aa(lp8119
I23
aV"1_a"
p8120
aV"1_d"
p8121
aa(lp8122
I23
aV"1_a"
p8123
aV"1_e"
p8124
aa(lp8125
I23
aV"2_a"
p8126
aV"2_b"
p8127
aa(lp8128
I23
aV"2_a"
p8129
aV"2_d"
p8130
aa(lp8131
I23
aV"2_a"
p8132
aV"2_f"
p8133
aa(lp8134
I23
aV"2_a"
p8135
aV"2_g"
p8136
aaa(lp8137
(lp8138
I23
aV"2_f"
p8139
aV"1_a"
p8140
aa(lp8141
I23
aV"1_a"
p8142
aV"2_f"
p8143
aaasba(ihelper
PossibleWorld
p8144
(dp8145
g3
I24
sg4
I0
sg5
(lp8146
(lp8147
(lp8148
I24
aV"1_b"
p8149
aV"2_b"
p8150
aa(lp8151
I24
aV"1_d"
p8152
aV"2_d"
p8153
aa(lp8154
I24
aV"2_d"
p8155
aV"1_d"
p8156
aa(lp8157
I24
aV"2_b"
p8158
aV"1_b"
p8159
aa(lp8160
I24
aV"2_a"
p8161
aV"2_a"
p8162
aa(lp8163
I24
aV"1_a"
p8164
aV"1_a"
p8165
aa(lp8166
I24
aV"2_g"
p8167
aV"2_g"
p8168
aa(lp8169
I24
aV"2_f"
p8170
aV"2_f"
p8171
aa(lp8172
I24
aV"2_d"
p8173
aV"2_d"
p8174
aa(lp8175
I24
aV"2_b"
p8176
aV"2_b"
p8177
aa(lp8178
I24
aV"1_e"
p8179
aV"1_e"
p8180
aa(lp8181
I24
aV"1_d"
p8182
aV"1_d"
p8183
aa(lp8184
I24
aV"1_c"
p8185
aV"1_c"
p8186
aa(lp8187
I24
aV"1_b"
p8188
aV"1_b"
p8189
aa(lp8190
I24
aV"1_e"
p8191
aV"2_g"
p8192
aa(lp8193
I24
aV"2_g"
p8194
aV"1_e"
p8195
aaa(lp8196
(lp8197
I24
aV"1_c"
p8198
aV"1_b"
p8199
aa(lp8200
I24
aV"1_d"
p8201
aV"1_b"
p8202
aa(lp8203
I24
aV"1_e"
p8204
aV"1_b"
p8205
aa(lp8206
I24
aV"1_b"
p8207
aV"1_c"
p8208
aa(lp8209
I24
aV"1_d"
p8210
aV"1_c"
p8211
aa(lp8212
I24
aV"1_e"
p8213
aV"1_c"
p8214
aa(lp8215
I24
aV"1_b"
p8216
aV"1_d"
p8217
aa(lp8218
I24
aV"1_c"
p8219
aV"1_d"
p8220
aa(lp8221
I24
aV"1_e"
p8222
aV"1_d"
p8223
aa(lp8224
I24
aV"1_b"
p8225
aV"1_e"
p8226
aa(lp8227
I24
aV"1_c"
p8228
aV"1_e"
p8229
aa(lp8230
I24
aV"1_d"
p8231
aV"1_e"
p8232
aa(lp8233
I24
aV"2_d"
p8234
aV"2_b"
p8235
aa(lp8236
I24
aV"2_f"
p8237
aV"2_b"
p8238
aa(lp8239
I24
aV"2_g"
p8240
aV"2_b"
p8241
aa(lp8242
I24
aV"2_b"
p8243
aV"2_d"
p8244
aa(lp8245
I24
aV"2_f"
p8246
aV"2_d"
p8247
aa(lp8248
I24
aV"2_g"
p8249
aV"2_d"
p8250
aa(lp8251
I24
aV"2_b"
p8252
aV"2_f"
p8253
aa(lp8254
I24
aV"2_d"
p8255
aV"2_f"
p8256
aa(lp8257
I24
aV"2_g"
p8258
aV"2_f"
p8259
aa(lp8260
I24
aV"2_b"
p8261
aV"2_g"
p8262
aa(lp8263
I24
aV"2_d"
p8264
aV"2_g"
p8265
aa(lp8266
I24
aV"2_f"
p8267
aV"2_g"
p8268
aa(lp8269
I24
aV"1_c"
p8270
aV"2_d"
p8271
aa(lp8272
I24
aV"1_c"
p8273
aV"2_b"
p8274
aa(lp8275
I24
aV"1_b"
p8276
aV"2_g"
p8277
aa(lp8278
I24
aV"1_d"
p8279
aV"2_g"
p8280
aa(lp8281
I24
aV"1_b"
p8282
aV"2_d"
p8283
aa(lp8284
I24
aV"1_e"
p8285
aV"2_d"
p8286
aa(lp8287
I24
aV"1_d"
p8288
aV"2_b"
p8289
aa(lp8290
I24
aV"1_e"
p8291
aV"2_b"
p8292
aa(lp8293
I24
aV"1_d"
p8294
aV"2_f"
p8295
aa(lp8296
I24
aV"1_b"
p8297
aV"2_f"
p8298
aa(lp8299
I24
aV"2_f"
p8300
aV"1_b"
p8301
aa(lp8302
I24
aV"2_f"
p8303
aV"1_d"
p8304
aa(lp8305
I24
aV"2_b"
p8306
aV"1_e"
p8307
aa(lp8308
I24
aV"2_b"
p8309
aV"1_d"
p8310
aa(lp8311
I24
aV"2_d"
p8312
aV"1_e"
p8313
aa(lp8314
I24
aV"2_d"
p8315
aV"1_b"
p8316
aa(lp8317
I24
aV"2_g"
p8318
aV"1_d"
p8319
aa(lp8320
I24
aV"2_g"
p8321
aV"1_b"
p8322
aa(lp8323
I24
aV"2_b"
p8324
aV"1_c"
p8325
aa(lp8326
I24
aV"2_d"
p8327
aV"1_c"
p8328
aa(lp8329
I24
aV"1_c"
p8330
aV"2_g"
p8331
aa(lp8332
I24
aV"1_e"
p8333
aV"2_f"
p8334
aa(lp8335
I24
aV"2_f"
p8336
aV"1_e"
p8337
aa(lp8338
I24
aV"2_g"
p8339
aV"1_c"
p8340
aaa(lp8341
(lp8342
I24
aV"1_b"
p8343
aV"1_a"
p8344
aa(lp8345
I24
aV"1_c"
p8346
aV"1_a"
p8347
aa(lp8348
I24
aV"1_d"
p8349
aV"1_a"
p8350
aa(lp8351
I24
aV"1_e"
p8352
aV"1_a"
p8353
aa(lp8354
I24
aV"2_b"
p8355
aV"2_a"
p8356
aa(lp8357
I24
aV"2_d"
p8358
aV"2_a"
p8359
aa(lp8360
I24
aV"2_f"
p8361
aV"2_a"
p8362
aa(lp8363
I24
aV"2_g"
p8364
aV"2_a"
p8365
aa(lp8366
I24
aV"1_b"
p8367
aV"2_a"
p8368
aa(lp8369
I24
aV"1_d"
p8370
aV"2_a"
p8371
aa(lp8372
I24
aV"2_d"
p8373
aV"1_a"
p8374
aa(lp8375
I24
aV"2_b"
p8376
aV"1_a"
p8377
aa(lp8378
I24
aV"1_a"
p8379
aV"2_a"
p8380
aa(lp8381
I24
aV"1_c"
p8382
aV"2_a"
p8383
aa(lp8384
I24
aV"1_e"
p8385
aV"2_a"
p8386
aa(lp8387
I24
aV"2_g"
p8388
aV"1_a"
p8389
aaa(lp8390
(lp8391
I24
aV"2_a"
p8392
aV"2_g"
p8393
aa(lp8394
I24
aV"2_a"
p8395
aV"2_f"
p8396
aa(lp8397
I24
aV"2_a"
p8398
aV"2_d"
p8399
aa(lp8400
I24
aV"2_a"
p8401
aV"2_b"
p8402
aa(lp8403
I24
aV"1_a"
p8404
aV"1_e"
p8405
aa(lp8406
I24
aV"1_a"
p8407
aV"1_d"
p8408
aa(lp8409
I24
aV"1_a"
p8410
aV"1_c"
p8411
aa(lp8412
I24
aV"1_a"
p8413
aV"1_b"
p8414
aa(lp8415
I24
aV"2_a"
p8416
aV"1_d"
p8417
aa(lp8418
I24
aV"2_a"
p8419
aV"1_b"
p8420
aa(lp8421
I24
aV"1_a"
p8422
aV"2_b"
p8423
aa(lp8424
I24
aV"1_a"
p8425
aV"2_d"
p8426
aa(lp8427
I24
aV"2_a"
p8428
aV"1_a"
p8429
aa(lp8430
I24
aV"2_a"
p8431
aV"1_e"
p8432
aa(lp8433
I24
aV"2_a"
p8434
aV"1_c"
p8435
aa(lp8436
I24
aV"1_a"
p8437
aV"2_g"
p8438
aaa(lp8439
(lp8440
I24
aV"1_b"
p8441
aa(lp8442
I24
aV"1_c"
p8443
aa(lp8444
I24
aV"1_d"
p8445
aa(lp8446
I24
aV"1_e"
p8447
aa(lp8448
I24
aV"2_b"
p8449
aa(lp8450
I24
aV"2_d"
p8451
aa(lp8452
I24
aV"2_f"
p8453
aa(lp8454
I24
aV"2_g"
p8455
aa(lp8456
I24
aV"1_a"
p8457
aa(lp8458
I24
aV"2_a"
p8459
aaa(lp8460
(lp8461
I24
aV"1_a"
p8462
aV"1_b"
p8463
aa(lp8464
I24
aV"1_a"
p8465
aV"1_c"
p8466
aa(lp8467
I24
aV"1_a"
p8468
aV"1_d"
p8469
aa(lp8470
I24
aV"1_a"
p8471
aV"1_e"
p8472
aa(lp8473
I24
aV"2_a"
p8474
aV"2_b"
p8475
aa(lp8476
I24
aV"2_a"
p8477
aV"2_d"
p8478
aa(lp8479
I24
aV"2_a"
p8480
aV"2_f"
p8481
aa(lp8482
I24
aV"2_a"
p8483
aV"2_g"
p8484
aaa(lp8485
(lp8486
I24
aV"2_f"
p8487
aV"1_c"
p8488
aa(lp8489
I24
aV"1_c"
p8490
aV"2_f"
p8491
aa(lp8492
I24
aV"2_f"
p8493
aV"1_a"
p8494
aa(lp8495
I24
aV"1_a"
p8496
aV"2_f"
p8497
aaasba(ihelper
PossibleWorld
p8498
(dp8499
g3
I25
sg4
I0
sg5
(lp8500
(lp8501
(lp8502
I25
aV"1_b"
p8503
aV"2_b"
p8504
aa(lp8505
I25
aV"1_d"
p8506
aV"2_d"
p8507
aa(lp8508
I25
aV"2_d"
p8509
aV"1_d"
p8510
aa(lp8511
I25
aV"2_b"
p8512
aV"1_b"
p8513
aa(lp8514
I25
aV"2_a"
p8515
aV"2_a"
p8516
aa(lp8517
I25
aV"1_a"
p8518
aV"1_a"
p8519
aa(lp8520
I25
aV"2_g"
p8521
aV"2_g"
p8522
aa(lp8523
I25
aV"2_f"
p8524
aV"2_f"
p8525
aa(lp8526
I25
aV"2_d"
p8527
aV"2_d"
p8528
aa(lp8529
I25
aV"2_b"
p8530
aV"2_b"
p8531
aa(lp8532
I25
aV"1_e"
p8533
aV"1_e"
p8534
aa(lp8535
I25
aV"1_d"
p8536
aV"1_d"
p8537
aa(lp8538
I25
aV"1_c"
p8539
aV"1_c"
p8540
aa(lp8541
I25
aV"1_b"
p8542
aV"1_b"
p8543
aaa(lp8544
(lp8545
I25
aV"1_c"
p8546
aV"1_b"
p8547
aa(lp8548
I25
aV"1_d"
p8549
aV"1_b"
p8550
aa(lp8551
I25
aV"1_e"
p8552
aV"1_b"
p8553
aa(lp8554
I25
aV"1_b"
p8555
aV"1_c"
p8556
aa(lp8557
I25
aV"1_d"
p8558
aV"1_c"
p8559
aa(lp8560
I25
aV"1_e"
p8561
aV"1_c"
p8562
aa(lp8563
I25
aV"1_b"
p8564
aV"1_d"
p8565
aa(lp8566
I25
aV"1_c"
p8567
aV"1_d"
p8568
aa(lp8569
I25
aV"1_e"
p8570
aV"1_d"
p8571
aa(lp8572
I25
aV"1_b"
p8573
aV"1_e"
p8574
aa(lp8575
I25
aV"1_c"
p8576
aV"1_e"
p8577
aa(lp8578
I25
aV"1_d"
p8579
aV"1_e"
p8580
aa(lp8581
I25
aV"2_d"
p8582
aV"2_b"
p8583
aa(lp8584
I25
aV"2_f"
p8585
aV"2_b"
p8586
aa(lp8587
I25
aV"2_g"
p8588
aV"2_b"
p8589
aa(lp8590
I25
aV"2_b"
p8591
aV"2_d"
p8592
aa(lp8593
I25
aV"2_f"
p8594
aV"2_d"
p8595
aa(lp8596
I25
aV"2_g"
p8597
aV"2_d"
p8598
aa(lp8599
I25
aV"2_b"
p8600
aV"2_f"
p8601
aa(lp8602
I25
aV"2_d"
p8603
aV"2_f"
p8604
aa(lp8605
I25
aV"2_g"
p8606
aV"2_f"
p8607
aa(lp8608
I25
aV"2_b"
p8609
aV"2_g"
p8610
aa(lp8611
I25
aV"2_d"
p8612
aV"2_g"
p8613
aa(lp8614
I25
aV"2_f"
p8615
aV"2_g"
p8616
aa(lp8617
I25
aV"1_c"
p8618
aV"2_d"
p8619
aa(lp8620
I25
aV"1_c"
p8621
aV"2_b"
p8622
aa(lp8623
I25
aV"1_b"
p8624
aV"2_g"
p8625
aa(lp8626
I25
aV"1_d"
p8627
aV"2_g"
p8628
aa(lp8629
I25
aV"1_b"
p8630
aV"2_d"
p8631
aa(lp8632
I25
aV"1_e"
p8633
aV"2_d"
p8634
aa(lp8635
I25
aV"1_d"
p8636
aV"2_b"
p8637
aa(lp8638
I25
aV"1_e"
p8639
aV"2_b"
p8640
aa(lp8641
I25
aV"1_d"
p8642
aV"2_f"
p8643
aa(lp8644
I25
aV"1_b"
p8645
aV"2_f"
p8646
aa(lp8647
I25
aV"2_f"
p8648
aV"1_b"
p8649
aa(lp8650
I25
aV"2_f"
p8651
aV"1_d"
p8652
aa(lp8653
I25
aV"2_b"
p8654
aV"1_e"
p8655
aa(lp8656
I25
aV"2_b"
p8657
aV"1_d"
p8658
aa(lp8659
I25
aV"2_d"
p8660
aV"1_e"
p8661
aa(lp8662
I25
aV"2_d"
p8663
aV"1_b"
p8664
aa(lp8665
I25
aV"2_g"
p8666
aV"1_d"
p8667
aa(lp8668
I25
aV"2_g"
p8669
aV"1_b"
p8670
aa(lp8671
I25
aV"2_b"
p8672
aV"1_c"
p8673
aa(lp8674
I25
aV"2_d"
p8675
aV"1_c"
p8676
aa(lp8677
I25
aV"1_c"
p8678
aV"2_g"
p8679
aa(lp8680
I25
aV"1_e"
p8681
aV"2_f"
p8682
aa(lp8683
I25
aV"2_f"
p8684
aV"1_e"
p8685
aa(lp8686
I25
aV"2_g"
p8687
aV"1_c"
p8688
aaa(lp8689
(lp8690
I25
aV"1_b"
p8691
aV"1_a"
p8692
aa(lp8693
I25
aV"1_c"
p8694
aV"1_a"
p8695
aa(lp8696
I25
aV"1_d"
p8697
aV"1_a"
p8698
aa(lp8699
I25
aV"1_e"
p8700
aV"1_a"
p8701
aa(lp8702
I25
aV"2_b"
p8703
aV"2_a"
p8704
aa(lp8705
I25
aV"2_d"
p8706
aV"2_a"
p8707
aa(lp8708
I25
aV"2_f"
p8709
aV"2_a"
p8710
aa(lp8711
I25
aV"2_g"
p8712
aV"2_a"
p8713
aa(lp8714
I25
aV"1_b"
p8715
aV"2_a"
p8716
aa(lp8717
I25
aV"1_d"
p8718
aV"2_a"
p8719
aa(lp8720
I25
aV"2_d"
p8721
aV"1_a"
p8722
aa(lp8723
I25
aV"2_b"
p8724
aV"1_a"
p8725
aa(lp8726
I25
aV"1_a"
p8727
aV"2_a"
p8728
aa(lp8729
I25
aV"1_c"
p8730
aV"2_a"
p8731
aa(lp8732
I25
aV"1_e"
p8733
aV"2_a"
p8734
aa(lp8735
I25
aV"1_c"
p8736
aV"2_f"
p8737
aa(lp8738
I25
aV"2_g"
p8739
aV"1_a"
p8740
aaa(lp8741
(lp8742
I25
aV"2_a"
p8743
aV"2_g"
p8744
aa(lp8745
I25
aV"2_a"
p8746
aV"2_f"
p8747
aa(lp8748
I25
aV"2_a"
p8749
aV"2_d"
p8750
aa(lp8751
I25
aV"2_a"
p8752
aV"2_b"
p8753
aa(lp8754
I25
aV"1_a"
p8755
aV"1_e"
p8756
aa(lp8757
I25
aV"1_a"
p8758
aV"1_d"
p8759
aa(lp8760
I25
aV"1_a"
p8761
aV"1_c"
p8762
aa(lp8763
I25
aV"1_a"
p8764
aV"1_b"
p8765
aa(lp8766
I25
aV"2_a"
p8767
aV"1_d"
p8768
aa(lp8769
I25
aV"2_a"
p8770
aV"1_b"
p8771
aa(lp8772
I25
aV"1_a"
p8773
aV"2_b"
p8774
aa(lp8775
I25
aV"1_a"
p8776
aV"2_d"
p8777
aa(lp8778
I25
aV"2_f"
p8779
aV"1_c"
p8780
aa(lp8781
I25
aV"2_a"
p8782
aV"1_a"
p8783
aa(lp8784
I25
aV"2_a"
p8785
aV"1_e"
p8786
aa(lp8787
I25
aV"2_a"
p8788
aV"1_c"
p8789
aa(lp8790
I25
aV"1_a"
p8791
aV"2_g"
p8792
aaa(lp8793
(lp8794
I25
aV"1_b"
p8795
aa(lp8796
I25
aV"1_c"
p8797
aa(lp8798
I25
aV"1_d"
p8799
aa(lp8800
I25
aV"1_e"
p8801
aa(lp8802
I25
aV"2_b"
p8803
aa(lp8804
I25
aV"2_d"
p8805
aa(lp8806
I25
aV"2_f"
p8807
aa(lp8808
I25
aV"2_g"
p8809
aa(lp8810
I25
aV"1_a"
p8811
aa(lp8812
I25
aV"2_a"
p8813
aaa(lp8814
(lp8815
I25
aV"1_a"
p8816
aV"1_b"
p8817
aa(lp8818
I25
aV"1_a"
p8819
aV"1_c"
p8820
aa(lp8821
I25
aV"1_a"
p8822
aV"1_d"
p8823
aa(lp8824
I25
aV"1_a"
p8825
aV"1_e"
p8826
aa(lp8827
I25
aV"2_a"
p8828
aV"2_b"
p8829
aa(lp8830
I25
aV"2_a"
p8831
aV"2_d"
p8832
aa(lp8833
I25
aV"2_a"
p8834
aV"2_f"
p8835
aa(lp8836
I25
aV"2_a"
p8837
aV"2_g"
p8838
aaa(lp8839
(lp8840
I25
aV"2_g"
p8841
aV"1_e"
p8842
aa(lp8843
I25
aV"1_e"
p8844
aV"2_g"
p8845
aa(lp8846
I25
aV"2_f"
p8847
aV"1_a"
p8848
aa(lp8849
I25
aV"1_a"
p8850
aV"2_f"
p8851
aaasba(ihelper
PossibleWorld
p8852
(dp8853
g3
I26
sg4
I0
sg5
(lp8854
(lp8855
(lp8856
I26
aV"1_b"
p8857
aV"2_b"
p8858
aa(lp8859
I26
aV"1_d"
p8860
aV"2_d"
p8861
aa(lp8862
I26
aV"2_d"
p8863
aV"1_d"
p8864
aa(lp8865
I26
aV"2_b"
p8866
aV"1_b"
p8867
aa(lp8868
I26
aV"2_a"
p8869
aV"2_a"
p8870
aa(lp8871
I26
aV"1_a"
p8872
aV"1_a"
p8873
aa(lp8874
I26
aV"2_g"
p8875
aV"2_g"
p8876
aa(lp8877
I26
aV"2_f"
p8878
aV"2_f"
p8879
aa(lp8880
I26
aV"2_d"
p8881
aV"2_d"
p8882
aa(lp8883
I26
aV"2_b"
p8884
aV"2_b"
p8885
aa(lp8886
I26
aV"1_e"
p8887
aV"1_e"
p8888
aa(lp8889
I26
aV"1_d"
p8890
aV"1_d"
p8891
aa(lp8892
I26
aV"1_c"
p8893
aV"1_c"
p8894
aa(lp8895
I26
aV"1_b"
p8896
aV"1_b"
p8897
aaa(lp8898
(lp8899
I26
aV"1_c"
p8900
aV"1_b"
p8901
aa(lp8902
I26
aV"1_d"
p8903
aV"1_b"
p8904
aa(lp8905
I26
aV"1_e"
p8906
aV"1_b"
p8907
aa(lp8908
I26
aV"1_b"
p8909
aV"1_c"
p8910
aa(lp8911
I26
aV"1_d"
p8912
aV"1_c"
p8913
aa(lp8914
I26
aV"1_e"
p8915
aV"1_c"
p8916
aa(lp8917
I26
aV"1_b"
p8918
aV"1_d"
p8919
aa(lp8920
I26
aV"1_c"
p8921
aV"1_d"
p8922
aa(lp8923
I26
aV"1_e"
p8924
aV"1_d"
p8925
aa(lp8926
I26
aV"1_b"
p8927
aV"1_e"
p8928
aa(lp8929
I26
aV"1_c"
p8930
aV"1_e"
p8931
aa(lp8932
I26
aV"1_d"
p8933
aV"1_e"
p8934
aa(lp8935
I26
aV"2_d"
p8936
aV"2_b"
p8937
aa(lp8938
I26
aV"2_f"
p8939
aV"2_b"
p8940
aa(lp8941
I26
aV"2_g"
p8942
aV"2_b"
p8943
aa(lp8944
I26
aV"2_b"
p8945
aV"2_d"
p8946
aa(lp8947
I26
aV"2_f"
p8948
aV"2_d"
p8949
aa(lp8950
I26
aV"2_g"
p8951
aV"2_d"
p8952
aa(lp8953
I26
aV"2_b"
p8954
aV"2_f"
p8955
aa(lp8956
I26
aV"2_d"
p8957
aV"2_f"
p8958
aa(lp8959
I26
aV"2_g"
p8960
aV"2_f"
p8961
aa(lp8962
I26
aV"2_b"
p8963
aV"2_g"
p8964
aa(lp8965
I26
aV"2_d"
p8966
aV"2_g"
p8967
aa(lp8968
I26
aV"2_f"
p8969
aV"2_g"
p8970
aa(lp8971
I26
aV"1_c"
p8972
aV"2_d"
p8973
aa(lp8974
I26
aV"1_c"
p8975
aV"2_b"
p8976
aa(lp8977
I26
aV"1_b"
p8978
aV"2_g"
p8979
aa(lp8980
I26
aV"1_d"
p8981
aV"2_g"
p8982
aa(lp8983
I26
aV"1_b"
p8984
aV"2_d"
p8985
aa(lp8986
I26
aV"1_e"
p8987
aV"2_d"
p8988
aa(lp8989
I26
aV"1_d"
p8990
aV"2_b"
p8991
aa(lp8992
I26
aV"1_e"
p8993
aV"2_b"
p8994
aa(lp8995
I26
aV"1_d"
p8996
aV"2_f"
p8997
aa(lp8998
I26
aV"1_b"
p8999
aV"2_f"
p9000
aa(lp9001
I26
aV"2_f"
p9002
aV"1_b"
p9003
aa(lp9004
I26
aV"2_f"
p9005
aV"1_d"
p9006
aa(lp9007
I26
aV"2_b"
p9008
aV"1_e"
p9009
aa(lp9010
I26
aV"2_b"
p9011
aV"1_d"
p9012
aa(lp9013
I26
aV"2_d"
p9014
aV"1_e"
p9015
aa(lp9016
I26
aV"2_d"
p9017
aV"1_b"
p9018
aa(lp9019
I26
aV"2_g"
p9020
aV"1_d"
p9021
aa(lp9022
I26
aV"2_g"
p9023
aV"1_b"
p9024
aa(lp9025
I26
aV"2_b"
p9026
aV"1_c"
p9027
aa(lp9028
I26
aV"2_d"
p9029
aV"1_c"
p9030
aa(lp9031
I26
aV"1_c"
p9032
aV"2_g"
p9033
aa(lp9034
I26
aV"2_g"
p9035
aV"1_c"
p9036
aaa(lp9037
(lp9038
I26
aV"1_b"
p9039
aV"1_a"
p9040
aa(lp9041
I26
aV"1_c"
p9042
aV"1_a"
p9043
aa(lp9044
I26
aV"1_d"
p9045
aV"1_a"
p9046
aa(lp9047
I26
aV"1_e"
p9048
aV"1_a"
p9049
aa(lp9050
I26
aV"2_b"
p9051
aV"2_a"
p9052
aa(lp9053
I26
aV"2_d"
p9054
aV"2_a"
p9055
aa(lp9056
I26
aV"2_f"
p9057
aV"2_a"
p9058
aa(lp9059
I26
aV"2_g"
p9060
aV"2_a"
p9061
aa(lp9062
I26
aV"1_b"
p9063
aV"2_a"
p9064
aa(lp9065
I26
aV"1_d"
p9066
aV"2_a"
p9067
aa(lp9068
I26
aV"2_d"
p9069
aV"1_a"
p9070
aa(lp9071
I26
aV"2_b"
p9072
aV"1_a"
p9073
aa(lp9074
I26
aV"1_a"
p9075
aV"2_a"
p9076
aa(lp9077
I26
aV"1_c"
p9078
aV"2_a"
p9079
aa(lp9080
I26
aV"1_e"
p9081
aV"2_a"
p9082
aa(lp9083
I26
aV"1_c"
p9084
aV"2_f"
p9085
aa(lp9086
I26
aV"2_g"
p9087
aV"1_a"
p9088
aaa(lp9089
(lp9090
I26
aV"2_a"
p9091
aV"2_g"
p9092
aa(lp9093
I26
aV"2_a"
p9094
aV"2_f"
p9095
aa(lp9096
I26
aV"2_a"
p9097
aV"2_d"
p9098
aa(lp9099
I26
aV"2_a"
p9100
aV"2_b"
p9101
aa(lp9102
I26
aV"1_a"
p9103
aV"1_e"
p9104
aa(lp9105
I26
aV"1_a"
p9106
aV"1_d"
p9107
aa(lp9108
I26
aV"1_a"
p9109
aV"1_c"
p9110
aa(lp9111
I26
aV"1_a"
p9112
aV"1_b"
p9113
aa(lp9114
I26
aV"2_a"
p9115
aV"1_d"
p9116
aa(lp9117
I26
aV"2_a"
p9118
aV"1_b"
p9119
aa(lp9120
I26
aV"1_a"
p9121
aV"2_b"
p9122
aa(lp9123
I26
aV"1_a"
p9124
aV"2_d"
p9125
aa(lp9126
I26
aV"2_f"
p9127
aV"1_c"
p9128
aa(lp9129
I26
aV"2_a"
p9130
aV"1_a"
p9131
aa(lp9132
I26
aV"2_a"
p9133
aV"1_e"
p9134
aa(lp9135
I26
aV"2_a"
p9136
aV"1_c"
p9137
aa(lp9138
I26
aV"1_a"
p9139
aV"2_g"
p9140
aaa(lp9141
(lp9142
I26
aV"1_b"
p9143
aa(lp9144
I26
aV"1_c"
p9145
aa(lp9146
I26
aV"1_d"
p9147
aa(lp9148
I26
aV"1_e"
p9149
aa(lp9150
I26
aV"2_b"
p9151
aa(lp9152
I26
aV"2_d"
p9153
aa(lp9154
I26
aV"2_f"
p9155
aa(lp9156
I26
aV"2_g"
p9157
aa(lp9158
I26
aV"1_a"
p9159
aa(lp9160
I26
aV"2_a"
p9161
aaa(lp9162
(lp9163
I26
aV"1_a"
p9164
aV"1_b"
p9165
aa(lp9166
I26
aV"1_a"
p9167
aV"1_c"
p9168
aa(lp9169
I26
aV"1_a"
p9170
aV"1_d"
p9171
aa(lp9172
I26
aV"1_a"
p9173
aV"1_e"
p9174
aa(lp9175
I26
aV"2_a"
p9176
aV"2_b"
p9177
aa(lp9178
I26
aV"2_a"
p9179
aV"2_d"
p9180
aa(lp9181
I26
aV"2_a"
p9182
aV"2_f"
p9183
aa(lp9184
I26
aV"2_a"
p9185
aV"2_g"
p9186
aaa(lp9187
(lp9188
I26
aV"2_g"
p9189
aV"1_e"
p9190
aa(lp9191
I26
aV"1_e"
p9192
aV"2_g"
p9193
aa(lp9194
I26
aV"2_f"
p9195
aV"1_a"
p9196
aa(lp9197
I26
aV"1_e"
p9198
aV"2_f"
p9199
aa(lp9200
I26
aV"1_a"
p9201
aV"2_f"
p9202
aa(lp9203
I26
aV"2_f"
p9204
aV"1_e"
p9205
aaasba(ihelper
PossibleWorld
p9206
(dp9207
g3
I27
sg4
I0
sg5
(lp9208
(lp9209
(lp9210
I27
aV"1_b"
p9211
aV"2_b"
p9212
aa(lp9213
I27
aV"1_d"
p9214
aV"2_d"
p9215
aa(lp9216
I27
aV"2_d"
p9217
aV"1_d"
p9218
aa(lp9219
I27
aV"2_b"
p9220
aV"1_b"
p9221
aa(lp9222
I27
aV"2_a"
p9223
aV"2_a"
p9224
aa(lp9225
I27
aV"1_a"
p9226
aV"1_a"
p9227
aa(lp9228
I27
aV"2_g"
p9229
aV"2_g"
p9230
aa(lp9231
I27
aV"2_f"
p9232
aV"2_f"
p9233
aa(lp9234
I27
aV"2_d"
p9235
aV"2_d"
p9236
aa(lp9237
I27
aV"2_b"
p9238
aV"2_b"
p9239
aa(lp9240
I27
aV"1_e"
p9241
aV"1_e"
p9242
aa(lp9243
I27
aV"1_d"
p9244
aV"1_d"
p9245
aa(lp9246
I27
aV"1_c"
p9247
aV"1_c"
p9248
aa(lp9249
I27
aV"1_b"
p9250
aV"1_b"
p9251
aaa(lp9252
(lp9253
I27
aV"1_c"
p9254
aV"1_b"
p9255
aa(lp9256
I27
aV"1_d"
p9257
aV"1_b"
p9258
aa(lp9259
I27
aV"1_e"
p9260
aV"1_b"
p9261
aa(lp9262
I27
aV"1_b"
p9263
aV"1_c"
p9264
aa(lp9265
I27
aV"1_d"
p9266
aV"1_c"
p9267
aa(lp9268
I27
aV"1_e"
p9269
aV"1_c"
p9270
aa(lp9271
I27
aV"1_b"
p9272
aV"1_d"
p9273
aa(lp9274
I27
aV"1_c"
p9275
aV"1_d"
p9276
aa(lp9277
I27
aV"1_e"
p9278
aV"1_d"
p9279
aa(lp9280
I27
aV"1_b"
p9281
aV"1_e"
p9282
aa(lp9283
I27
aV"1_c"
p9284
aV"1_e"
p9285
aa(lp9286
I27
aV"1_d"
p9287
aV"1_e"
p9288
aa(lp9289
I27
aV"2_d"
p9290
aV"2_b"
p9291
aa(lp9292
I27
aV"2_f"
p9293
aV"2_b"
p9294
aa(lp9295
I27
aV"2_g"
p9296
aV"2_b"
p9297
aa(lp9298
I27
aV"2_b"
p9299
aV"2_d"
p9300
aa(lp9301
I27
aV"2_f"
p9302
aV"2_d"
p9303
aa(lp9304
I27
aV"2_g"
p9305
aV"2_d"
p9306
aa(lp9307
I27
aV"2_b"
p9308
aV"2_f"
p9309
aa(lp9310
I27
aV"2_d"
p9311
aV"2_f"
p9312
aa(lp9313
I27
aV"2_g"
p9314
aV"2_f"
p9315
aa(lp9316
I27
aV"2_b"
p9317
aV"2_g"
p9318
aa(lp9319
I27
aV"2_d"
p9320
aV"2_g"
p9321
aa(lp9322
I27
aV"2_f"
p9323
aV"2_g"
p9324
aa(lp9325
I27
aV"1_c"
p9326
aV"2_d"
p9327
aa(lp9328
I27
aV"1_c"
p9329
aV"2_b"
p9330
aa(lp9331
I27
aV"1_b"
p9332
aV"2_g"
p9333
aa(lp9334
I27
aV"1_d"
p9335
aV"2_g"
p9336
aa(lp9337
I27
aV"1_b"
p9338
aV"2_d"
p9339
aa(lp9340
I27
aV"1_e"
p9341
aV"2_d"
p9342
aa(lp9343
I27
aV"1_d"
p9344
aV"2_b"
p9345
aa(lp9346
I27
aV"1_e"
p9347
aV"2_b"
p9348
aa(lp9349
I27
aV"1_d"
p9350
aV"2_f"
p9351
aa(lp9352
I27
aV"1_b"
p9353
aV"2_f"
p9354
aa(lp9355
I27
aV"2_f"
p9356
aV"1_b"
p9357
aa(lp9358
I27
aV"2_f"
p9359
aV"1_d"
p9360
aa(lp9361
I27
aV"2_b"
p9362
aV"1_e"
p9363
aa(lp9364
I27
aV"2_b"
p9365
aV"1_d"
p9366
aa(lp9367
I27
aV"2_d"
p9368
aV"1_e"
p9369
aa(lp9370
I27
aV"2_d"
p9371
aV"1_b"
p9372
aa(lp9373
I27
aV"2_g"
p9374
aV"1_d"
p9375
aa(lp9376
I27
aV"2_g"
p9377
aV"1_b"
p9378
aa(lp9379
I27
aV"2_b"
p9380
aV"1_c"
p9381
aa(lp9382
I27
aV"2_d"
p9383
aV"1_c"
p9384
aa(lp9385
I27
aV"1_c"
p9386
aV"2_g"
p9387
aa(lp9388
I27
aV"1_e"
p9389
aV"2_f"
p9390
aa(lp9391
I27
aV"2_f"
p9392
aV"1_e"
p9393
aa(lp9394
I27
aV"2_g"
p9395
aV"1_c"
p9396
aaa(lp9397
(lp9398
I27
aV"1_b"
p9399
aV"1_a"
p9400
aa(lp9401
I27
aV"1_c"
p9402
aV"1_a"
p9403
aa(lp9404
I27
aV"1_d"
p9405
aV"1_a"
p9406
aa(lp9407
I27
aV"1_e"
p9408
aV"1_a"
p9409
aa(lp9410
I27
aV"2_b"
p9411
aV"2_a"
p9412
aa(lp9413
I27
aV"2_d"
p9414
aV"2_a"
p9415
aa(lp9416
I27
aV"2_f"
p9417
aV"2_a"
p9418
aa(lp9419
I27
aV"2_g"
p9420
aV"2_a"
p9421
aa(lp9422
I27
aV"1_b"
p9423
aV"2_a"
p9424
aa(lp9425
I27
aV"1_d"
p9426
aV"2_a"
p9427
aa(lp9428
I27
aV"2_d"
p9429
aV"1_a"
p9430
aa(lp9431
I27
aV"2_b"
p9432
aV"1_a"
p9433
aa(lp9434
I27
aV"1_a"
p9435
aV"2_a"
p9436
aa(lp9437
I27
aV"1_c"
p9438
aV"2_a"
p9439
aa(lp9440
I27
aV"1_e"
p9441
aV"2_a"
p9442
aa(lp9443
I27
aV"2_g"
p9444
aV"1_a"
p9445
aaa(lp9446
(lp9447
I27
aV"2_a"
p9448
aV"2_g"
p9449
aa(lp9450
I27
aV"2_a"
p9451
aV"2_f"
p9452
aa(lp9453
I27
aV"2_a"
p9454
aV"2_d"
p9455
aa(lp9456
I27
aV"2_a"
p9457
aV"2_b"
p9458
aa(lp9459
I27
aV"1_a"
p9460
aV"1_e"
p9461
aa(lp9462
I27
aV"1_a"
p9463
aV"1_d"
p9464
aa(lp9465
I27
aV"1_a"
p9466
aV"1_c"
p9467
aa(lp9468
I27
aV"1_a"
p9469
aV"1_b"
p9470
aa(lp9471
I27
aV"2_a"
p9472
aV"1_d"
p9473
aa(lp9474
I27
aV"2_a"
p9475
aV"1_b"
p9476
aa(lp9477
I27
aV"1_a"
p9478
aV"2_b"
p9479
aa(lp9480
I27
aV"1_a"
p9481
aV"2_d"
p9482
aa(lp9483
I27
aV"2_a"
p9484
aV"1_a"
p9485
aa(lp9486
I27
aV"2_a"
p9487
aV"1_e"
p9488
aa(lp9489
I27
aV"2_a"
p9490
aV"1_c"
p9491
aa(lp9492
I27
aV"1_a"
p9493
aV"2_g"
p9494
aaa(lp9495
(lp9496
I27
aV"1_b"
p9497
aa(lp9498
I27
aV"1_c"
p9499
aa(lp9500
I27
aV"1_d"
p9501
aa(lp9502
I27
aV"1_e"
p9503
aa(lp9504
I27
aV"2_b"
p9505
aa(lp9506
I27
aV"2_d"
p9507
aa(lp9508
I27
aV"2_f"
p9509
aa(lp9510
I27
aV"2_g"
p9511
aa(lp9512
I27
aV"1_a"
p9513
aa(lp9514
I27
aV"2_a"
p9515
aaa(lp9516
(lp9517
I27
aV"1_a"
p9518
aV"1_b"
p9519
aa(lp9520
I27
aV"1_a"
p9521
aV"1_c"
p9522
aa(lp9523
I27
aV"1_a"
p9524
aV"1_d"
p9525
aa(lp9526
I27
aV"1_a"
p9527
aV"1_e"
p9528
aa(lp9529
I27
aV"2_a"
p9530
aV"2_b"
p9531
aa(lp9532
I27
aV"2_a"
p9533
aV"2_d"
p9534
aa(lp9535
I27
aV"2_a"
p9536
aV"2_f"
p9537
aa(lp9538
I27
aV"2_a"
p9539
aV"2_g"
p9540
aaa(lp9541
(lp9542
I27
aV"2_f"
p9543
aV"1_c"
p9544
aa(lp9545
I27
aV"1_c"
p9546
aV"2_f"
p9547
aa(lp9548
I27
aV"2_g"
p9549
aV"1_e"
p9550
aa(lp9551
I27
aV"1_e"
p9552
aV"2_g"
p9553
aa(lp9554
I27
aV"2_f"
p9555
aV"1_a"
p9556
aa(lp9557
I27
aV"1_a"
p9558
aV"2_f"
p9559
aaasba(ihelper
PossibleWorld
p9560
(dp9561
g3
I28
sg4
I0
sg5
(lp9562
(lp9563
(lp9564
I28
aV"1_b"
p9565
aV"2_b"
p9566
aa(lp9567
I28
aV"1_d"
p9568
aV"2_d"
p9569
aa(lp9570
I28
aV"2_d"
p9571
aV"1_d"
p9572
aa(lp9573
I28
aV"2_b"
p9574
aV"1_b"
p9575
aa(lp9576
I28
aV"2_a"
p9577
aV"2_a"
p9578
aa(lp9579
I28
aV"1_a"
p9580
aV"1_a"
p9581
aa(lp9582
I28
aV"2_g"
p9583
aV"2_g"
p9584
aa(lp9585
I28
aV"2_f"
p9586
aV"2_f"
p9587
aa(lp9588
I28
aV"2_d"
p9589
aV"2_d"
p9590
aa(lp9591
I28
aV"2_b"
p9592
aV"2_b"
p9593
aa(lp9594
I28
aV"1_e"
p9595
aV"1_e"
p9596
aa(lp9597
I28
aV"1_d"
p9598
aV"1_d"
p9599
aa(lp9600
I28
aV"1_c"
p9601
aV"1_c"
p9602
aa(lp9603
I28
aV"1_b"
p9604
aV"1_b"
p9605
aaa(lp9606
(lp9607
I28
aV"1_c"
p9608
aV"1_b"
p9609
aa(lp9610
I28
aV"1_d"
p9611
aV"1_b"
p9612
aa(lp9613
I28
aV"1_e"
p9614
aV"1_b"
p9615
aa(lp9616
I28
aV"1_b"
p9617
aV"1_c"
p9618
aa(lp9619
I28
aV"1_d"
p9620
aV"1_c"
p9621
aa(lp9622
I28
aV"1_e"
p9623
aV"1_c"
p9624
aa(lp9625
I28
aV"1_b"
p9626
aV"1_d"
p9627
aa(lp9628
I28
aV"1_c"
p9629
aV"1_d"
p9630
aa(lp9631
I28
aV"1_e"
p9632
aV"1_d"
p9633
aa(lp9634
I28
aV"1_b"
p9635
aV"1_e"
p9636
aa(lp9637
I28
aV"1_c"
p9638
aV"1_e"
p9639
aa(lp9640
I28
aV"1_d"
p9641
aV"1_e"
p9642
aa(lp9643
I28
aV"2_d"
p9644
aV"2_b"
p9645
aa(lp9646
I28
aV"2_f"
p9647
aV"2_b"
p9648
aa(lp9649
I28
aV"2_g"
p9650
aV"2_b"
p9651
aa(lp9652
I28
aV"2_b"
p9653
aV"2_d"
p9654
aa(lp9655
I28
aV"2_f"
p9656
aV"2_d"
p9657
aa(lp9658
I28
aV"2_g"
p9659
aV"2_d"
p9660
aa(lp9661
I28
aV"2_b"
p9662
aV"2_f"
p9663
aa(lp9664
I28
aV"2_d"
p9665
aV"2_f"
p9666
aa(lp9667
I28
aV"2_g"
p9668
aV"2_f"
p9669
aa(lp9670
I28
aV"2_b"
p9671
aV"2_g"
p9672
aa(lp9673
I28
aV"2_d"
p9674
aV"2_g"
p9675
aa(lp9676
I28
aV"2_f"
p9677
aV"2_g"
p9678
aa(lp9679
I28
aV"1_c"
p9680
aV"2_d"
p9681
aa(lp9682
I28
aV"1_c"
p9683
aV"2_b"
p9684
aa(lp9685
I28
aV"1_b"
p9686
aV"2_g"
p9687
aa(lp9688
I28
aV"1_d"
p9689
aV"2_g"
p9690
aa(lp9691
I28
aV"1_b"
p9692
aV"2_d"
p9693
aa(lp9694
I28
aV"1_e"
p9695
aV"2_d"
p9696
aa(lp9697
I28
aV"1_d"
p9698
aV"2_b"
p9699
aa(lp9700
I28
aV"1_e"
p9701
aV"2_b"
p9702
aa(lp9703
I28
aV"1_d"
p9704
aV"2_f"
p9705
aa(lp9706
I28
aV"1_b"
p9707
aV"2_f"
p9708
aa(lp9709
I28
aV"2_f"
p9710
aV"1_b"
p9711
aa(lp9712
I28
aV"2_f"
p9713
aV"1_d"
p9714
aa(lp9715
I28
aV"2_b"
p9716
aV"1_e"
p9717
aa(lp9718
I28
aV"2_b"
p9719
aV"1_d"
p9720
aa(lp9721
I28
aV"2_d"
p9722
aV"1_e"
p9723
aa(lp9724
I28
aV"2_d"
p9725
aV"1_b"
p9726
aa(lp9727
I28
aV"2_g"
p9728
aV"1_d"
p9729
aa(lp9730
I28
aV"2_g"
p9731
aV"1_b"
p9732
aa(lp9733
I28
aV"2_b"
p9734
aV"1_c"
p9735
aa(lp9736
I28
aV"2_d"
p9737
aV"1_c"
p9738
aa(lp9739
I28
aV"1_e"
p9740
aV"2_f"
p9741
aa(lp9742
I28
aV"2_f"
p9743
aV"1_e"
p9744
aaa(lp9745
(lp9746
I28
aV"1_b"
p9747
aV"1_a"
p9748
aa(lp9749
I28
aV"1_c"
p9750
aV"1_a"
p9751
aa(lp9752
I28
aV"1_d"
p9753
aV"1_a"
p9754
aa(lp9755
I28
aV"1_e"
p9756
aV"1_a"
p9757
aa(lp9758
I28
aV"2_b"
p9759
aV"2_a"
p9760
aa(lp9761
I28
aV"2_d"
p9762
aV"2_a"
p9763
aa(lp9764
I28
aV"2_f"
p9765
aV"2_a"
p9766
aa(lp9767
I28
aV"2_g"
p9768
aV"2_a"
p9769
aa(lp9770
I28
aV"1_b"
p9771
aV"2_a"
p9772
aa(lp9773
I28
aV"1_d"
p9774
aV"2_a"
p9775
aa(lp9776
I28
aV"2_d"
p9777
aV"1_a"
p9778
aa(lp9779
I28
aV"2_b"
p9780
aV"1_a"
p9781
aa(lp9782
I28
aV"1_a"
p9783
aV"2_a"
p9784
aa(lp9785
I28
aV"1_c"
p9786
aV"2_a"
p9787
aa(lp9788
I28
aV"1_e"
p9789
aV"2_a"
p9790
aa(lp9791
I28
aV"2_g"
p9792
aV"1_a"
p9793
aaa(lp9794
(lp9795
I28
aV"2_a"
p9796
aV"2_g"
p9797
aa(lp9798
I28
aV"2_a"
p9799
aV"2_f"
p9800
aa(lp9801
I28
aV"2_a"
p9802
aV"2_d"
p9803
aa(lp9804
I28
aV"2_a"
p9805
aV"2_b"
p9806
aa(lp9807
I28
aV"1_a"
p9808
aV"1_e"
p9809
aa(lp9810
I28
aV"1_a"
p9811
aV"1_d"
p9812
aa(lp9813
I28
aV"1_a"
p9814
aV"1_c"
p9815
aa(lp9816
I28
aV"1_a"
p9817
aV"1_b"
p9818
aa(lp9819
I28
aV"2_a"
p9820
aV"1_d"
p9821
aa(lp9822
I28
aV"2_a"
p9823
aV"1_b"
p9824
aa(lp9825
I28
aV"1_a"
p9826
aV"2_b"
p9827
aa(lp9828
I28
aV"1_a"
p9829
aV"2_d"
p9830
aa(lp9831
I28
aV"2_a"
p9832
aV"1_a"
p9833
aa(lp9834
I28
aV"2_a"
p9835
aV"1_e"
p9836
aa(lp9837
I28
aV"2_a"
p9838
aV"1_c"
p9839
aa(lp9840
I28
aV"1_a"
p9841
aV"2_g"
p9842
aaa(lp9843
(lp9844
I28
aV"1_b"
p9845
aa(lp9846
I28
aV"1_c"
p9847
aa(lp9848
I28
aV"1_d"
p9849
aa(lp9850
I28
aV"1_e"
p9851
aa(lp9852
I28
aV"2_b"
p9853
aa(lp9854
I28
aV"2_d"
p9855
aa(lp9856
I28
aV"2_f"
p9857
aa(lp9858
I28
aV"2_g"
p9859
aa(lp9860
I28
aV"1_a"
p9861
aa(lp9862
I28
aV"2_a"
p9863
aaa(lp9864
(lp9865
I28
aV"1_a"
p9866
aV"1_b"
p9867
aa(lp9868
I28
aV"1_a"
p9869
aV"1_c"
p9870
aa(lp9871
I28
aV"1_a"
p9872
aV"1_d"
p9873
aa(lp9874
I28
aV"1_a"
p9875
aV"1_e"
p9876
aa(lp9877
I28
aV"2_a"
p9878
aV"2_b"
p9879
aa(lp9880
I28
aV"2_a"
p9881
aV"2_d"
p9882
aa(lp9883
I28
aV"2_a"
p9884
aV"2_f"
p9885
aa(lp9886
I28
aV"2_a"
p9887
aV"2_g"
p9888
aaa(lp9889
(lp9890
I28
aV"2_f"
p9891
aV"1_c"
p9892
aa(lp9893
I28
aV"1_c"
p9894
aV"2_f"
p9895
aa(lp9896
I28
aV"2_g"
p9897
aV"1_e"
p9898
aa(lp9899
I28
aV"1_e"
p9900
aV"2_g"
p9901
aa(lp9902
I28
aV"2_f"
p9903
aV"1_a"
p9904
aa(lp9905
I28
aV"1_a"
p9906
aV"2_f"
p9907
aa(lp9908
I28
aV"1_c"
p9909
aV"2_g"
p9910
aa(lp9911
I28
aV"2_g"
p9912
aV"1_c"
p9913
aaasba(ihelper
PossibleWorld
p9914
(dp9915
g3
I29
sg4
I0
sg5
(lp9916
(lp9917
(lp9918
I29
aV"1_b"
p9919
aV"2_b"
p9920
aa(lp9921
I29
aV"1_d"
p9922
aV"2_d"
p9923
aa(lp9924
I29
aV"2_d"
p9925
aV"1_d"
p9926
aa(lp9927
I29
aV"2_b"
p9928
aV"1_b"
p9929
aa(lp9930
I29
aV"2_a"
p9931
aV"2_a"
p9932
aa(lp9933
I29
aV"1_a"
p9934
aV"1_a"
p9935
aa(lp9936
I29
aV"2_g"
p9937
aV"2_g"
p9938
aa(lp9939
I29
aV"2_f"
p9940
aV"2_f"
p9941
aa(lp9942
I29
aV"2_d"
p9943
aV"2_d"
p9944
aa(lp9945
I29
aV"2_b"
p9946
aV"2_b"
p9947
aa(lp9948
I29
aV"1_e"
p9949
aV"1_e"
p9950
aa(lp9951
I29
aV"1_d"
p9952
aV"1_d"
p9953
aa(lp9954
I29
aV"1_c"
p9955
aV"1_c"
p9956
aa(lp9957
I29
aV"1_b"
p9958
aV"1_b"
p9959
aaa(lp9960
(lp9961
I29
aV"1_c"
p9962
aV"1_b"
p9963
aa(lp9964
I29
aV"1_d"
p9965
aV"1_b"
p9966
aa(lp9967
I29
aV"1_e"
p9968
aV"1_b"
p9969
aa(lp9970
I29
aV"1_b"
p9971
aV"1_c"
p9972
aa(lp9973
I29
aV"1_d"
p9974
aV"1_c"
p9975
aa(lp9976
I29
aV"1_e"
p9977
aV"1_c"
p9978
aa(lp9979
I29
aV"1_b"
p9980
aV"1_d"
p9981
aa(lp9982
I29
aV"1_c"
p9983
aV"1_d"
p9984
aa(lp9985
I29
aV"1_e"
p9986
aV"1_d"
p9987
aa(lp9988
I29
aV"1_b"
p9989
aV"1_e"
p9990
aa(lp9991
I29
aV"1_c"
p9992
aV"1_e"
p9993
aa(lp9994
I29
aV"1_d"
p9995
aV"1_e"
p9996
aa(lp9997
I29
aV"2_d"
p9998
aV"2_b"
p9999
aa(lp10000
I29
aV"2_f"
p10001
aV"2_b"
p10002
aa(lp10003
I29
aV"2_g"
p10004
aV"2_b"
p10005
aa(lp10006
I29
aV"2_b"
p10007
aV"2_d"
p10008
aa(lp10009
I29
aV"2_f"
p10010
aV"2_d"
p10011
aa(lp10012
I29
aV"2_g"
p10013
aV"2_d"
p10014
aa(lp10015
I29
aV"2_b"
p10016
aV"2_f"
p10017
aa(lp10018
I29
aV"2_d"
p10019
aV"2_f"
p10020
aa(lp10021
I29
aV"2_g"
p10022
aV"2_f"
p10023
aa(lp10024
I29
aV"2_b"
p10025
aV"2_g"
p10026
aa(lp10027
I29
aV"2_d"
p10028
aV"2_g"
p10029
aa(lp10030
I29
aV"2_f"
p10031
aV"2_g"
p10032
aa(lp10033
I29
aV"1_c"
p10034
aV"2_d"
p10035
aa(lp10036
I29
aV"1_c"
p10037
aV"2_b"
p10038
aa(lp10039
I29
aV"1_b"
p10040
aV"2_g"
p10041
aa(lp10042
I29
aV"1_d"
p10043
aV"2_g"
p10044
aa(lp10045
I29
aV"1_b"
p10046
aV"2_d"
p10047
aa(lp10048
I29
aV"1_e"
p10049
aV"2_d"
p10050
aa(lp10051
I29
aV"1_d"
p10052
aV"2_b"
p10053
aa(lp10054
I29
aV"1_e"
p10055
aV"2_b"
p10056
aa(lp10057
I29
aV"1_d"
p10058
aV"2_f"
p10059
aa(lp10060
I29
aV"1_b"
p10061
aV"2_f"
p10062
aa(lp10063
I29
aV"2_f"
p10064
aV"1_b"
p10065
aa(lp10066
I29
aV"2_f"
p10067
aV"1_d"
p10068
aa(lp10069
I29
aV"2_b"
p10070
aV"1_e"
p10071
aa(lp10072
I29
aV"2_b"
p10073
aV"1_d"
p10074
aa(lp10075
I29
aV"2_d"
p10076
aV"1_e"
p10077
aa(lp10078
I29
aV"2_d"
p10079
aV"1_b"
p10080
aa(lp10081
I29
aV"2_g"
p10082
aV"1_d"
p10083
aa(lp10084
I29
aV"2_g"
p10085
aV"1_b"
p10086
aa(lp10087
I29
aV"2_b"
p10088
aV"1_c"
p10089
aa(lp10090
I29
aV"2_d"
p10091
aV"1_c"
p10092
aa(lp10093
I29
aV"1_c"
p10094
aV"2_g"
p10095
aa(lp10096
I29
aV"2_g"
p10097
aV"1_c"
p10098
aaa(lp10099
(lp10100
I29
aV"1_b"
p10101
aV"1_a"
p10102
aa(lp10103
I29
aV"1_c"
p10104
aV"1_a"
p10105
aa(lp10106
I29
aV"1_d"
p10107
aV"1_a"
p10108
aa(lp10109
I29
aV"1_e"
p10110
aV"1_a"
p10111
aa(lp10112
I29
aV"2_b"
p10113
aV"2_a"
p10114
aa(lp10115
I29
aV"2_d"
p10116
aV"2_a"
p10117
aa(lp10118
I29
aV"2_f"
p10119
aV"2_a"
p10120
aa(lp10121
I29
aV"2_g"
p10122
aV"2_a"
p10123
aa(lp10124
I29
aV"1_b"
p10125
aV"2_a"
p10126
aa(lp10127
I29
aV"1_d"
p10128
aV"2_a"
p10129
aa(lp10130
I29
aV"2_d"
p10131
aV"1_a"
p10132
aa(lp10133
I29
aV"2_b"
p10134
aV"1_a"
p10135
aa(lp10136
I29
aV"1_a"
p10137
aV"2_a"
p10138
aa(lp10139
I29
aV"1_c"
p10140
aV"2_a"
p10141
aa(lp10142
I29
aV"1_e"
p10143
aV"2_a"
p10144
aa(lp10145
I29
aV"2_g"
p10146
aV"1_a"
p10147
aaa(lp10148
(lp10149
I29
aV"2_a"
p10150
aV"2_g"
p10151
aa(lp10152
I29
aV"2_a"
p10153
aV"2_f"
p10154
aa(lp10155
I29
aV"2_a"
p10156
aV"2_d"
p10157
aa(lp10158
I29
aV"2_a"
p10159
aV"2_b"
p10160
aa(lp10161
I29
aV"1_a"
p10162
aV"1_e"
p10163
aa(lp10164
I29
aV"1_a"
p10165
aV"1_d"
p10166
aa(lp10167
I29
aV"1_a"
p10168
aV"1_c"
p10169
aa(lp10170
I29
aV"1_a"
p10171
aV"1_b"
p10172
aa(lp10173
I29
aV"2_a"
p10174
aV"1_d"
p10175
aa(lp10176
I29
aV"2_a"
p10177
aV"1_b"
p10178
aa(lp10179
I29
aV"1_a"
p10180
aV"2_b"
p10181
aa(lp10182
I29
aV"1_a"
p10183
aV"2_d"
p10184
aa(lp10185
I29
aV"2_a"
p10186
aV"1_a"
p10187
aa(lp10188
I29
aV"2_a"
p10189
aV"1_e"
p10190
aa(lp10191
I29
aV"2_a"
p10192
aV"1_c"
p10193
aa(lp10194
I29
aV"1_a"
p10195
aV"2_g"
p10196
aaa(lp10197
(lp10198
I29
aV"1_b"
p10199
aa(lp10200
I29
aV"1_c"
p10201
aa(lp10202
I29
aV"1_d"
p10203
aa(lp10204
I29
aV"1_e"
p10205
aa(lp10206
I29
aV"2_b"
p10207
aa(lp10208
I29
aV"2_d"
p10209
aa(lp10210
I29
aV"2_f"
p10211
aa(lp10212
I29
aV"2_g"
p10213
aa(lp10214
I29
aV"1_a"
p10215
aa(lp10216
I29
aV"2_a"
p10217
aaa(lp10218
(lp10219
I29
aV"1_a"
p10220
aV"1_b"
p10221
aa(lp10222
I29
aV"1_a"
p10223
aV"1_c"
p10224
aa(lp10225
I29
aV"1_a"
p10226
aV"1_d"
p10227
aa(lp10228
I29
aV"1_a"
p10229
aV"1_e"
p10230
aa(lp10231
I29
aV"2_a"
p10232
aV"2_b"
p10233
aa(lp10234
I29
aV"2_a"
p10235
aV"2_d"
p10236
aa(lp10237
I29
aV"2_a"
p10238
aV"2_f"
p10239
aa(lp10240
I29
aV"2_a"
p10241
aV"2_g"
p10242
aaa(lp10243
(lp10244
I29
aV"2_f"
p10245
aV"1_c"
p10246
aa(lp10247
I29
aV"1_c"
p10248
aV"2_f"
p10249
aa(lp10250
I29
aV"2_g"
p10251
aV"1_e"
p10252
aa(lp10253
I29
aV"1_e"
p10254
aV"2_g"
p10255
aa(lp10256
I29
aV"2_f"
p10257
aV"1_a"
p10258
aa(lp10259
I29
aV"1_e"
p10260
aV"2_f"
p10261
aa(lp10262
I29
aV"1_a"
p10263
aV"2_f"
p10264
aa(lp10265
I29
aV"2_f"
p10266
aV"1_e"
p10267
aaasba(ihelper
PossibleWorld
p10268
(dp10269
g3
I30
sg4
I0
sg5
(lp10270
(lp10271
(lp10272
I30
aV"1_b"
p10273
aV"2_b"
p10274
aa(lp10275
I30
aV"1_d"
p10276
aV"2_d"
p10277
aa(lp10278
I30
aV"2_d"
p10279
aV"1_d"
p10280
aa(lp10281
I30
aV"2_b"
p10282
aV"1_b"
p10283
aa(lp10284
I30
aV"2_a"
p10285
aV"2_a"
p10286
aa(lp10287
I30
aV"1_a"
p10288
aV"1_a"
p10289
aa(lp10290
I30
aV"2_g"
p10291
aV"2_g"
p10292
aa(lp10293
I30
aV"2_f"
p10294
aV"2_f"
p10295
aa(lp10296
I30
aV"2_d"
p10297
aV"2_d"
p10298
aa(lp10299
I30
aV"2_b"
p10300
aV"2_b"
p10301
aa(lp10302
I30
aV"1_e"
p10303
aV"1_e"
p10304
aa(lp10305
I30
aV"1_d"
p10306
aV"1_d"
p10307
aa(lp10308
I30
aV"1_c"
p10309
aV"1_c"
p10310
aa(lp10311
I30
aV"1_b"
p10312
aV"1_b"
p10313
aaa(lp10314
(lp10315
I30
aV"1_c"
p10316
aV"1_b"
p10317
aa(lp10318
I30
aV"1_d"
p10319
aV"1_b"
p10320
aa(lp10321
I30
aV"1_e"
p10322
aV"1_b"
p10323
aa(lp10324
I30
aV"1_b"
p10325
aV"1_c"
p10326
aa(lp10327
I30
aV"1_d"
p10328
aV"1_c"
p10329
aa(lp10330
I30
aV"1_e"
p10331
aV"1_c"
p10332
aa(lp10333
I30
aV"1_b"
p10334
aV"1_d"
p10335
aa(lp10336
I30
aV"1_c"
p10337
aV"1_d"
p10338
aa(lp10339
I30
aV"1_e"
p10340
aV"1_d"
p10341
aa(lp10342
I30
aV"1_b"
p10343
aV"1_e"
p10344
aa(lp10345
I30
aV"1_c"
p10346
aV"1_e"
p10347
aa(lp10348
I30
aV"1_d"
p10349
aV"1_e"
p10350
aa(lp10351
I30
aV"2_d"
p10352
aV"2_b"
p10353
aa(lp10354
I30
aV"2_f"
p10355
aV"2_b"
p10356
aa(lp10357
I30
aV"2_g"
p10358
aV"2_b"
p10359
aa(lp10360
I30
aV"2_b"
p10361
aV"2_d"
p10362
aa(lp10363
I30
aV"2_f"
p10364
aV"2_d"
p10365
aa(lp10366
I30
aV"2_g"
p10367
aV"2_d"
p10368
aa(lp10369
I30
aV"2_b"
p10370
aV"2_f"
p10371
aa(lp10372
I30
aV"2_d"
p10373
aV"2_f"
p10374
aa(lp10375
I30
aV"2_g"
p10376
aV"2_f"
p10377
aa(lp10378
I30
aV"2_b"
p10379
aV"2_g"
p10380
aa(lp10381
I30
aV"2_d"
p10382
aV"2_g"
p10383
aa(lp10384
I30
aV"2_f"
p10385
aV"2_g"
p10386
aa(lp10387
I30
aV"1_c"
p10388
aV"2_d"
p10389
aa(lp10390
I30
aV"1_c"
p10391
aV"2_b"
p10392
aa(lp10393
I30
aV"1_b"
p10394
aV"2_g"
p10395
aa(lp10396
I30
aV"1_d"
p10397
aV"2_g"
p10398
aa(lp10399
I30
aV"1_b"
p10400
aV"2_d"
p10401
aa(lp10402
I30
aV"1_e"
p10403
aV"2_d"
p10404
aa(lp10405
I30
aV"1_d"
p10406
aV"2_b"
p10407
aa(lp10408
I30
aV"1_e"
p10409
aV"2_b"
p10410
aa(lp10411
I30
aV"1_d"
p10412
aV"2_f"
p10413
aa(lp10414
I30
aV"1_b"
p10415
aV"2_f"
p10416
aa(lp10417
I30
aV"2_f"
p10418
aV"1_b"
p10419
aa(lp10420
I30
aV"2_f"
p10421
aV"1_d"
p10422
aa(lp10423
I30
aV"2_b"
p10424
aV"1_e"
p10425
aa(lp10426
I30
aV"2_b"
p10427
aV"1_d"
p10428
aa(lp10429
I30
aV"2_d"
p10430
aV"1_e"
p10431
aa(lp10432
I30
aV"2_d"
p10433
aV"1_b"
p10434
aa(lp10435
I30
aV"2_g"
p10436
aV"1_d"
p10437
aa(lp10438
I30
aV"2_g"
p10439
aV"1_b"
p10440
aa(lp10441
I30
aV"2_b"
p10442
aV"1_c"
p10443
aa(lp10444
I30
aV"2_d"
p10445
aV"1_c"
p10446
aaa(lp10447
(lp10448
I30
aV"1_b"
p10449
aV"1_a"
p10450
aa(lp10451
I30
aV"1_c"
p10452
aV"1_a"
p10453
aa(lp10454
I30
aV"1_d"
p10455
aV"1_a"
p10456
aa(lp10457
I30
aV"1_e"
p10458
aV"1_a"
p10459
aa(lp10460
I30
aV"2_b"
p10461
aV"2_a"
p10462
aa(lp10463
I30
aV"2_d"
p10464
aV"2_a"
p10465
aa(lp10466
I30
aV"2_f"
p10467
aV"2_a"
p10468
aa(lp10469
I30
aV"2_g"
p10470
aV"2_a"
p10471
aa(lp10472
I30
aV"1_b"
p10473
aV"2_a"
p10474
aa(lp10475
I30
aV"1_d"
p10476
aV"2_a"
p10477
aa(lp10478
I30
aV"2_d"
p10479
aV"1_a"
p10480
aa(lp10481
I30
aV"2_b"
p10482
aV"1_a"
p10483
aa(lp10484
I30
aV"1_a"
p10485
aV"2_a"
p10486
aa(lp10487
I30
aV"1_c"
p10488
aV"2_a"
p10489
aa(lp10490
I30
aV"1_e"
p10491
aV"2_a"
p10492
aa(lp10493
I30
aV"2_g"
p10494
aV"1_a"
p10495
aaa(lp10496
(lp10497
I30
aV"2_a"
p10498
aV"2_g"
p10499
aa(lp10500
I30
aV"2_a"
p10501
aV"2_f"
p10502
aa(lp10503
I30
aV"2_a"
p10504
aV"2_d"
p10505
aa(lp10506
I30
aV"2_a"
p10507
aV"2_b"
p10508
aa(lp10509
I30
aV"1_a"
p10510
aV"1_e"
p10511
aa(lp10512
I30
aV"1_a"
p10513
aV"1_d"
p10514
aa(lp10515
I30
aV"1_a"
p10516
aV"1_c"
p10517
aa(lp10518
I30
aV"1_a"
p10519
aV"1_b"
p10520
aa(lp10521
I30
aV"2_a"
p10522
aV"1_d"
p10523
aa(lp10524
I30
aV"2_a"
p10525
aV"1_b"
p10526
aa(lp10527
I30
aV"1_a"
p10528
aV"2_b"
p10529
aa(lp10530
I30
aV"1_a"
p10531
aV"2_d"
p10532
aa(lp10533
I30
aV"2_a"
p10534
aV"1_a"
p10535
aa(lp10536
I30
aV"2_a"
p10537
aV"1_e"
p10538
aa(lp10539
I30
aV"2_a"
p10540
aV"1_c"
p10541
aa(lp10542
I30
aV"1_a"
p10543
aV"2_g"
p10544
aaa(lp10545
(lp10546
I30
aV"1_b"
p10547
aa(lp10548
I30
aV"1_c"
p10549
aa(lp10550
I30
aV"1_d"
p10551
aa(lp10552
I30
aV"1_e"
p10553
aa(lp10554
I30
aV"2_b"
p10555
aa(lp10556
I30
aV"2_d"
p10557
aa(lp10558
I30
aV"2_f"
p10559
aa(lp10560
I30
aV"2_g"
p10561
aa(lp10562
I30
aV"1_a"
p10563
aa(lp10564
I30
aV"2_a"
p10565
aaa(lp10566
(lp10567
I30
aV"1_a"
p10568
aV"1_b"
p10569
aa(lp10570
I30
aV"1_a"
p10571
aV"1_c"
p10572
aa(lp10573
I30
aV"1_a"
p10574
aV"1_d"
p10575
aa(lp10576
I30
aV"1_a"
p10577
aV"1_e"
p10578
aa(lp10579
I30
aV"2_a"
p10580
aV"2_b"
p10581
aa(lp10582
I30
aV"2_a"
p10583
aV"2_d"
p10584
aa(lp10585
I30
aV"2_a"
p10586
aV"2_f"
p10587
aa(lp10588
I30
aV"2_a"
p10589
aV"2_g"
p10590
aaa(lp10591
(lp10592
I30
aV"2_f"
p10593
aV"1_c"
p10594
aa(lp10595
I30
aV"1_c"
p10596
aV"2_f"
p10597
aa(lp10598
I30
aV"2_g"
p10599
aV"1_e"
p10600
aa(lp10601
I30
aV"1_e"
p10602
aV"2_g"
p10603
aa(lp10604
I30
aV"2_f"
p10605
aV"1_a"
p10606
aa(lp10607
I30
aV"1_e"
p10608
aV"2_f"
p10609
aa(lp10610
I30
aV"1_a"
p10611
aV"2_f"
p10612
aa(lp10613
I30
aV"1_c"
p10614
aV"2_g"
p10615
aa(lp10616
I30
aV"2_f"
p10617
aV"1_e"
p10618
aa(lp10619
I30
aV"2_g"
p10620
aV"1_c"
p10621
aaasba(ihelper
PossibleWorld
p10622
(dp10623
g3
I31
sg4
I0
sg5
(lp10624
(lp10625
(lp10626
I31
aV"1_b"
p10627
aV"2_b"
p10628
aa(lp10629
I31
aV"1_d"
p10630
aV"2_d"
p10631
aa(lp10632
I31
aV"2_d"
p10633
aV"1_d"
p10634
aa(lp10635
I31
aV"2_b"
p10636
aV"1_b"
p10637
aa(lp10638
I31
aV"2_a"
p10639
aV"2_a"
p10640
aa(lp10641
I31
aV"1_a"
p10642
aV"1_a"
p10643
aa(lp10644
I31
aV"2_g"
p10645
aV"2_g"
p10646
aa(lp10647
I31
aV"2_f"
p10648
aV"2_f"
p10649
aa(lp10650
I31
aV"2_d"
p10651
aV"2_d"
p10652
aa(lp10653
I31
aV"2_b"
p10654
aV"2_b"
p10655
aa(lp10656
I31
aV"1_e"
p10657
aV"1_e"
p10658
aa(lp10659
I31
aV"1_d"
p10660
aV"1_d"
p10661
aa(lp10662
I31
aV"1_c"
p10663
aV"1_c"
p10664
aa(lp10665
I31
aV"1_b"
p10666
aV"1_b"
p10667
aaa(lp10668
(lp10669
I31
aV"1_c"
p10670
aV"1_b"
p10671
aa(lp10672
I31
aV"1_d"
p10673
aV"1_b"
p10674
aa(lp10675
I31
aV"1_e"
p10676
aV"1_b"
p10677
aa(lp10678
I31
aV"1_b"
p10679
aV"1_c"
p10680
aa(lp10681
I31
aV"1_d"
p10682
aV"1_c"
p10683
aa(lp10684
I31
aV"1_e"
p10685
aV"1_c"
p10686
aa(lp10687
I31
aV"1_b"
p10688
aV"1_d"
p10689
aa(lp10690
I31
aV"1_c"
p10691
aV"1_d"
p10692
aa(lp10693
I31
aV"1_e"
p10694
aV"1_d"
p10695
aa(lp10696
I31
aV"1_b"
p10697
aV"1_e"
p10698
aa(lp10699
I31
aV"1_c"
p10700
aV"1_e"
p10701
aa(lp10702
I31
aV"1_d"
p10703
aV"1_e"
p10704
aa(lp10705
I31
aV"2_d"
p10706
aV"2_b"
p10707
aa(lp10708
I31
aV"2_f"
p10709
aV"2_b"
p10710
aa(lp10711
I31
aV"2_g"
p10712
aV"2_b"
p10713
aa(lp10714
I31
aV"2_b"
p10715
aV"2_d"
p10716
aa(lp10717
I31
aV"2_f"
p10718
aV"2_d"
p10719
aa(lp10720
I31
aV"2_g"
p10721
aV"2_d"
p10722
aa(lp10723
I31
aV"2_b"
p10724
aV"2_f"
p10725
aa(lp10726
I31
aV"2_d"
p10727
aV"2_f"
p10728
aa(lp10729
I31
aV"2_g"
p10730
aV"2_f"
p10731
aa(lp10732
I31
aV"2_b"
p10733
aV"2_g"
p10734
aa(lp10735
I31
aV"2_d"
p10736
aV"2_g"
p10737
aa(lp10738
I31
aV"2_f"
p10739
aV"2_g"
p10740
aa(lp10741
I31
aV"1_c"
p10742
aV"2_d"
p10743
aa(lp10744
I31
aV"1_c"
p10745
aV"2_b"
p10746
aa(lp10747
I31
aV"1_b"
p10748
aV"2_g"
p10749
aa(lp10750
I31
aV"1_d"
p10751
aV"2_g"
p10752
aa(lp10753
I31
aV"1_b"
p10754
aV"2_d"
p10755
aa(lp10756
I31
aV"1_e"
p10757
aV"2_d"
p10758
aa(lp10759
I31
aV"1_d"
p10760
aV"2_b"
p10761
aa(lp10762
I31
aV"1_e"
p10763
aV"2_b"
p10764
aa(lp10765
I31
aV"1_d"
p10766
aV"2_f"
p10767
aa(lp10768
I31
aV"1_b"
p10769
aV"2_f"
p10770
aa(lp10771
I31
aV"2_f"
p10772
aV"1_b"
p10773
aa(lp10774
I31
aV"2_f"
p10775
aV"1_d"
p10776
aa(lp10777
I31
aV"2_b"
p10778
aV"1_e"
p10779
aa(lp10780
I31
aV"2_b"
p10781
aV"1_d"
p10782
aa(lp10783
I31
aV"2_d"
p10784
aV"1_e"
p10785
aa(lp10786
I31
aV"2_d"
p10787
aV"1_b"
p10788
aa(lp10789
I31
aV"2_g"
p10790
aV"1_d"
p10791
aa(lp10792
I31
aV"2_g"
p10793
aV"1_b"
p10794
aa(lp10795
I31
aV"2_b"
p10796
aV"1_c"
p10797
aa(lp10798
I31
aV"2_d"
p10799
aV"1_c"
p10800
aa(lp10801
I31
aV"1_c"
p10802
aV"2_g"
p10803
aa(lp10804
I31
aV"1_e"
p10805
aV"2_f"
p10806
aa(lp10807
I31
aV"2_f"
p10808
aV"1_e"
p10809
aa(lp10810
I31
aV"2_g"
p10811
aV"1_c"
p10812
aaa(lp10813
(lp10814
I31
aV"1_b"
p10815
aV"1_a"
p10816
aa(lp10817
I31
aV"1_c"
p10818
aV"1_a"
p10819
aa(lp10820
I31
aV"1_d"
p10821
aV"1_a"
p10822
aa(lp10823
I31
aV"1_e"
p10824
aV"1_a"
p10825
aa(lp10826
I31
aV"2_b"
p10827
aV"2_a"
p10828
aa(lp10829
I31
aV"2_d"
p10830
aV"2_a"
p10831
aa(lp10832
I31
aV"2_f"
p10833
aV"2_a"
p10834
aa(lp10835
I31
aV"2_g"
p10836
aV"2_a"
p10837
aa(lp10838
I31
aV"1_b"
p10839
aV"2_a"
p10840
aa(lp10841
I31
aV"1_d"
p10842
aV"2_a"
p10843
aa(lp10844
I31
aV"2_d"
p10845
aV"1_a"
p10846
aa(lp10847
I31
aV"2_b"
p10848
aV"1_a"
p10849
aa(lp10850
I31
aV"1_a"
p10851
aV"2_a"
p10852
aa(lp10853
I31
aV"1_c"
p10854
aV"2_a"
p10855
aa(lp10856
I31
aV"1_e"
p10857
aV"2_a"
p10858
aa(lp10859
I31
aV"1_c"
p10860
aV"2_f"
p10861
aaa(lp10862
(lp10863
I31
aV"2_a"
p10864
aV"2_g"
p10865
aa(lp10866
I31
aV"2_a"
p10867
aV"2_f"
p10868
aa(lp10869
I31
aV"2_a"
p10870
aV"2_d"
p10871
aa(lp10872
I31
aV"2_a"
p10873
aV"2_b"
p10874
aa(lp10875
I31
aV"1_a"
p10876
aV"1_e"
p10877
aa(lp10878
I31
aV"1_a"
p10879
aV"1_d"
p10880
aa(lp10881
I31
aV"1_a"
p10882
aV"1_c"
p10883
aa(lp10884
I31
aV"1_a"
p10885
aV"1_b"
p10886
aa(lp10887
I31
aV"2_a"
p10888
aV"1_d"
p10889
aa(lp10890
I31
aV"2_a"
p10891
aV"1_b"
p10892
aa(lp10893
I31
aV"1_a"
p10894
aV"2_b"
p10895
aa(lp10896
I31
aV"1_a"
p10897
aV"2_d"
p10898
aa(lp10899
I31
aV"2_f"
p10900
aV"1_c"
p10901
aa(lp10902
I31
aV"2_a"
p10903
aV"1_a"
p10904
aa(lp10905
I31
aV"2_a"
p10906
aV"1_e"
p10907
aa(lp10908
I31
aV"2_a"
p10909
aV"1_c"
p10910
aaa(lp10911
(lp10912
I31
aV"1_b"
p10913
aa(lp10914
I31
aV"1_c"
p10915
aa(lp10916
I31
aV"1_d"
p10917
aa(lp10918
I31
aV"1_e"
p10919
aa(lp10920
I31
aV"2_b"
p10921
aa(lp10922
I31
aV"2_d"
p10923
aa(lp10924
I31
aV"2_f"
p10925
aa(lp10926
I31
aV"2_g"
p10927
aa(lp10928
I31
aV"1_a"
p10929
aa(lp10930
I31
aV"2_a"
p10931
aaa(lp10932
(lp10933
I31
aV"1_a"
p10934
aV"1_b"
p10935
aa(lp10936
I31
aV"1_a"
p10937
aV"1_c"
p10938
aa(lp10939
I31
aV"1_a"
p10940
aV"1_d"
p10941
aa(lp10942
I31
aV"1_a"
p10943
aV"1_e"
p10944
aa(lp10945
I31
aV"2_a"
p10946
aV"2_b"
p10947
aa(lp10948
I31
aV"2_a"
p10949
aV"2_d"
p10950
aa(lp10951
I31
aV"2_a"
p10952
aV"2_f"
p10953
aa(lp10954
I31
aV"2_a"
p10955
aV"2_g"
p10956
aaa(lp10957
(lp10958
I31
aV"2_g"
p10959
aV"1_e"
p10960
aa(lp10961
I31
aV"1_e"
p10962
aV"2_g"
p10963
aa(lp10964
I31
aV"2_f"
p10965
aV"1_a"
p10966
aa(lp10967
I31
aV"2_g"
p10968
aV"1_a"
p10969
aa(lp10970
I31
aV"1_a"
p10971
aV"2_f"
p10972
aa(lp10973
I31
aV"1_a"
p10974
aV"2_g"
p10975
aaasba(ihelper
PossibleWorld
p10976
(dp10977
g3
I32
sg4
I0
sg5
(lp10978
(lp10979
(lp10980
I32
aV"1_b"
p10981
aV"2_b"
p10982
aa(lp10983
I32
aV"1_d"
p10984
aV"2_d"
p10985
aa(lp10986
I32
aV"2_d"
p10987
aV"1_d"
p10988
aa(lp10989
I32
aV"2_b"
p10990
aV"1_b"
p10991
aa(lp10992
I32
aV"2_a"
p10993
aV"2_a"
p10994
aa(lp10995
I32
aV"1_a"
p10996
aV"1_a"
p10997
aa(lp10998
I32
aV"2_g"
p10999
aV"2_g"
p11000
aa(lp11001
I32
aV"2_f"
p11002
aV"2_f"
p11003
aa(lp11004
I32
aV"2_d"
p11005
aV"2_d"
p11006
aa(lp11007
I32
aV"2_b"
p11008
aV"2_b"
p11009
aa(lp11010
I32
aV"1_e"
p11011
aV"1_e"
p11012
aa(lp11013
I32
aV"1_d"
p11014
aV"1_d"
p11015
aa(lp11016
I32
aV"1_c"
p11017
aV"1_c"
p11018
aa(lp11019
I32
aV"1_b"
p11020
aV"1_b"
p11021
aaa(lp11022
(lp11023
I32
aV"1_c"
p11024
aV"1_b"
p11025
aa(lp11026
I32
aV"1_d"
p11027
aV"1_b"
p11028
aa(lp11029
I32
aV"1_e"
p11030
aV"1_b"
p11031
aa(lp11032
I32
aV"1_b"
p11033
aV"1_c"
p11034
aa(lp11035
I32
aV"1_d"
p11036
aV"1_c"
p11037
aa(lp11038
I32
aV"1_e"
p11039
aV"1_c"
p11040
aa(lp11041
I32
aV"1_b"
p11042
aV"1_d"
p11043
aa(lp11044
I32
aV"1_c"
p11045
aV"1_d"
p11046
aa(lp11047
I32
aV"1_e"
p11048
aV"1_d"
p11049
aa(lp11050
I32
aV"1_b"
p11051
aV"1_e"
p11052
aa(lp11053
I32
aV"1_c"
p11054
aV"1_e"
p11055
aa(lp11056
I32
aV"1_d"
p11057
aV"1_e"
p11058
aa(lp11059
I32
aV"2_d"
p11060
aV"2_b"
p11061
aa(lp11062
I32
aV"2_f"
p11063
aV"2_b"
p11064
aa(lp11065
I32
aV"2_g"
p11066
aV"2_b"
p11067
aa(lp11068
I32
aV"2_b"
p11069
aV"2_d"
p11070
aa(lp11071
I32
aV"2_f"
p11072
aV"2_d"
p11073
aa(lp11074
I32
aV"2_g"
p11075
aV"2_d"
p11076
aa(lp11077
I32
aV"2_b"
p11078
aV"2_f"
p11079
aa(lp11080
I32
aV"2_d"
p11081
aV"2_f"
p11082
aa(lp11083
I32
aV"2_g"
p11084
aV"2_f"
p11085
aa(lp11086
I32
aV"2_b"
p11087
aV"2_g"
p11088
aa(lp11089
I32
aV"2_d"
p11090
aV"2_g"
p11091
aa(lp11092
I32
aV"2_f"
p11093
aV"2_g"
p11094
aa(lp11095
I32
aV"1_c"
p11096
aV"2_d"
p11097
aa(lp11098
I32
aV"1_c"
p11099
aV"2_b"
p11100
aa(lp11101
I32
aV"1_b"
p11102
aV"2_g"
p11103
aa(lp11104
I32
aV"1_d"
p11105
aV"2_g"
p11106
aa(lp11107
I32
aV"1_b"
p11108
aV"2_d"
p11109
aa(lp11110
I32
aV"1_e"
p11111
aV"2_d"
p11112
aa(lp11113
I32
aV"1_d"
p11114
aV"2_b"
p11115
aa(lp11116
I32
aV"1_e"
p11117
aV"2_b"
p11118
aa(lp11119
I32
aV"1_d"
p11120
aV"2_f"
p11121
aa(lp11122
I32
aV"1_b"
p11123
aV"2_f"
p11124
aa(lp11125
I32
aV"2_f"
p11126
aV"1_b"
p11127
aa(lp11128
I32
aV"2_f"
p11129
aV"1_d"
p11130
aa(lp11131
I32
aV"2_b"
p11132
aV"1_e"
p11133
aa(lp11134
I32
aV"2_b"
p11135
aV"1_d"
p11136
aa(lp11137
I32
aV"2_d"
p11138
aV"1_e"
p11139
aa(lp11140
I32
aV"2_d"
p11141
aV"1_b"
p11142
aa(lp11143
I32
aV"2_g"
p11144
aV"1_d"
p11145
aa(lp11146
I32
aV"2_g"
p11147
aV"1_b"
p11148
aa(lp11149
I32
aV"2_b"
p11150
aV"1_c"
p11151
aa(lp11152
I32
aV"2_d"
p11153
aV"1_c"
p11154
aa(lp11155
I32
aV"1_c"
p11156
aV"2_g"
p11157
aa(lp11158
I32
aV"2_g"
p11159
aV"1_c"
p11160
aaa(lp11161
(lp11162
I32
aV"1_b"
p11163
aV"1_a"
p11164
aa(lp11165
I32
aV"1_c"
p11166
aV"1_a"
p11167
aa(lp11168
I32
aV"1_d"
p11169
aV"1_a"
p11170
aa(lp11171
I32
aV"1_e"
p11172
aV"1_a"
p11173
aa(lp11174
I32
aV"2_b"
p11175
aV"2_a"
p11176
aa(lp11177
I32
aV"2_d"
p11178
aV"2_a"
p11179
aa(lp11180
I32
aV"2_f"
p11181
aV"2_a"
p11182
aa(lp11183
I32
aV"2_g"
p11184
aV"2_a"
p11185
aa(lp11186
I32
aV"1_b"
p11187
aV"2_a"
p11188
aa(lp11189
I32
aV"1_d"
p11190
aV"2_a"
p11191
aa(lp11192
I32
aV"2_d"
p11193
aV"1_a"
p11194
aa(lp11195
I32
aV"2_b"
p11196
aV"1_a"
p11197
aa(lp11198
I32
aV"1_a"
p11199
aV"2_a"
p11200
aa(lp11201
I32
aV"1_c"
p11202
aV"2_a"
p11203
aa(lp11204
I32
aV"1_e"
p11205
aV"2_a"
p11206
aa(lp11207
I32
aV"1_c"
p11208
aV"2_f"
p11209
aaa(lp11210
(lp11211
I32
aV"2_a"
p11212
aV"2_g"
p11213
aa(lp11214
I32
aV"2_a"
p11215
aV"2_f"
p11216
aa(lp11217
I32
aV"2_a"
p11218
aV"2_d"
p11219
aa(lp11220
I32
aV"2_a"
p11221
aV"2_b"
p11222
aa(lp11223
I32
aV"1_a"
p11224
aV"1_e"
p11225
aa(lp11226
I32
aV"1_a"
p11227
aV"1_d"
p11228
aa(lp11229
I32
aV"1_a"
p11230
aV"1_c"
p11231
aa(lp11232
I32
aV"1_a"
p11233
aV"1_b"
p11234
aa(lp11235
I32
aV"2_a"
p11236
aV"1_d"
p11237
aa(lp11238
I32
aV"2_a"
p11239
aV"1_b"
p11240
aa(lp11241
I32
aV"1_a"
p11242
aV"2_b"
p11243
aa(lp11244
I32
aV"1_a"
p11245
aV"2_d"
p11246
aa(lp11247
I32
aV"2_f"
p11248
aV"1_c"
p11249
aa(lp11250
I32
aV"2_a"
p11251
aV"1_a"
p11252
aa(lp11253
I32
aV"2_a"
p11254
aV"1_e"
p11255
aa(lp11256
I32
aV"2_a"
p11257
aV"1_c"
p11258
aaa(lp11259
(lp11260
I32
aV"1_b"
p11261
aa(lp11262
I32
aV"1_c"
p11263
aa(lp11264
I32
aV"1_d"
p11265
aa(lp11266
I32
aV"1_e"
p11267
aa(lp11268
I32
aV"2_b"
p11269
aa(lp11270
I32
aV"2_d"
p11271
aa(lp11272
I32
aV"2_f"
p11273
aa(lp11274
I32
aV"2_g"
p11275
aa(lp11276
I32
aV"1_a"
p11277
aa(lp11278
I32
aV"2_a"
p11279
aaa(lp11280
(lp11281
I32
aV"1_a"
p11282
aV"1_b"
p11283
aa(lp11284
I32
aV"1_a"
p11285
aV"1_c"
p11286
aa(lp11287
I32
aV"1_a"
p11288
aV"1_d"
p11289
aa(lp11290
I32
aV"1_a"
p11291
aV"1_e"
p11292
aa(lp11293
I32
aV"2_a"
p11294
aV"2_b"
p11295
aa(lp11296
I32
aV"2_a"
p11297
aV"2_d"
p11298
aa(lp11299
I32
aV"2_a"
p11300
aV"2_f"
p11301
aa(lp11302
I32
aV"2_a"
p11303
aV"2_g"
p11304
aaa(lp11305
(lp11306
I32
aV"2_g"
p11307
aV"1_e"
p11308
aa(lp11309
I32
aV"1_e"
p11310
aV"2_g"
p11311
aa(lp11312
I32
aV"2_f"
p11313
aV"1_a"
p11314
aa(lp11315
I32
aV"2_g"
p11316
aV"1_a"
p11317
aa(lp11318
I32
aV"1_e"
p11319
aV"2_f"
p11320
aa(lp11321
I32
aV"1_a"
p11322
aV"2_f"
p11323
aa(lp11324
I32
aV"1_a"
p11325
aV"2_g"
p11326
aa(lp11327
I32
aV"2_f"
p11328
aV"1_e"
p11329
aaasba(ihelper
PossibleWorld
p11330
(dp11331
g3
I33
sg4
I0
sg5
(lp11332
(lp11333
(lp11334
I33
aV"1_b"
p11335
aV"2_b"
p11336
aa(lp11337
I33
aV"1_d"
p11338
aV"2_d"
p11339
aa(lp11340
I33
aV"2_d"
p11341
aV"1_d"
p11342
aa(lp11343
I33
aV"2_b"
p11344
aV"1_b"
p11345
aa(lp11346
I33
aV"2_a"
p11347
aV"2_a"
p11348
aa(lp11349
I33
aV"1_a"
p11350
aV"1_a"
p11351
aa(lp11352
I33
aV"2_g"
p11353
aV"2_g"
p11354
aa(lp11355
I33
aV"2_f"
p11356
aV"2_f"
p11357
aa(lp11358
I33
aV"2_d"
p11359
aV"2_d"
p11360
aa(lp11361
I33
aV"2_b"
p11362
aV"2_b"
p11363
aa(lp11364
I33
aV"1_e"
p11365
aV"1_e"
p11366
aa(lp11367
I33
aV"1_d"
p11368
aV"1_d"
p11369
aa(lp11370
I33
aV"1_c"
p11371
aV"1_c"
p11372
aa(lp11373
I33
aV"1_b"
p11374
aV"1_b"
p11375
aaa(lp11376
(lp11377
I33
aV"1_c"
p11378
aV"1_b"
p11379
aa(lp11380
I33
aV"1_d"
p11381
aV"1_b"
p11382
aa(lp11383
I33
aV"1_e"
p11384
aV"1_b"
p11385
aa(lp11386
I33
aV"1_b"
p11387
aV"1_c"
p11388
aa(lp11389
I33
aV"1_d"
p11390
aV"1_c"
p11391
aa(lp11392
I33
aV"1_e"
p11393
aV"1_c"
p11394
aa(lp11395
I33
aV"1_b"
p11396
aV"1_d"
p11397
aa(lp11398
I33
aV"1_c"
p11399
aV"1_d"
p11400
aa(lp11401
I33
aV"1_e"
p11402
aV"1_d"
p11403
aa(lp11404
I33
aV"1_b"
p11405
aV"1_e"
p11406
aa(lp11407
I33
aV"1_c"
p11408
aV"1_e"
p11409
aa(lp11410
I33
aV"1_d"
p11411
aV"1_e"
p11412
aa(lp11413
I33
aV"2_d"
p11414
aV"2_b"
p11415
aa(lp11416
I33
aV"2_f"
p11417
aV"2_b"
p11418
aa(lp11419
I33
aV"2_g"
p11420
aV"2_b"
p11421
aa(lp11422
I33
aV"2_b"
p11423
aV"2_d"
p11424
aa(lp11425
I33
aV"2_f"
p11426
aV"2_d"
p11427
aa(lp11428
I33
aV"2_g"
p11429
aV"2_d"
p11430
aa(lp11431
I33
aV"2_b"
p11432
aV"2_f"
p11433
aa(lp11434
I33
aV"2_d"
p11435
aV"2_f"
p11436
aa(lp11437
I33
aV"2_g"
p11438
aV"2_f"
p11439
aa(lp11440
I33
aV"2_b"
p11441
aV"2_g"
p11442
aa(lp11443
I33
aV"2_d"
p11444
aV"2_g"
p11445
aa(lp11446
I33
aV"2_f"
p11447
aV"2_g"
p11448
aa(lp11449
I33
aV"1_c"
p11450
aV"2_d"
p11451
aa(lp11452
I33
aV"1_c"
p11453
aV"2_b"
p11454
aa(lp11455
I33
aV"1_b"
p11456
aV"2_g"
p11457
aa(lp11458
I33
aV"1_d"
p11459
aV"2_g"
p11460
aa(lp11461
I33
aV"1_b"
p11462
aV"2_d"
p11463
aa(lp11464
I33
aV"1_e"
p11465
aV"2_d"
p11466
aa(lp11467
I33
aV"1_d"
p11468
aV"2_b"
p11469
aa(lp11470
I33
aV"1_e"
p11471
aV"2_b"
p11472
aa(lp11473
I33
aV"1_d"
p11474
aV"2_f"
p11475
aa(lp11476
I33
aV"1_b"
p11477
aV"2_f"
p11478
aa(lp11479
I33
aV"2_f"
p11480
aV"1_b"
p11481
aa(lp11482
I33
aV"2_f"
p11483
aV"1_d"
p11484
aa(lp11485
I33
aV"2_b"
p11486
aV"1_e"
p11487
aa(lp11488
I33
aV"2_b"
p11489
aV"1_d"
p11490
aa(lp11491
I33
aV"2_d"
p11492
aV"1_e"
p11493
aa(lp11494
I33
aV"2_d"
p11495
aV"1_b"
p11496
aa(lp11497
I33
aV"2_g"
p11498
aV"1_d"
p11499
aa(lp11500
I33
aV"2_g"
p11501
aV"1_b"
p11502
aa(lp11503
I33
aV"2_b"
p11504
aV"1_c"
p11505
aa(lp11506
I33
aV"2_d"
p11507
aV"1_c"
p11508
aa(lp11509
I33
aV"1_c"
p11510
aV"2_g"
p11511
aa(lp11512
I33
aV"1_e"
p11513
aV"2_f"
p11514
aa(lp11515
I33
aV"2_f"
p11516
aV"1_e"
p11517
aa(lp11518
I33
aV"2_g"
p11519
aV"1_c"
p11520
aaa(lp11521
(lp11522
I33
aV"1_b"
p11523
aV"1_a"
p11524
aa(lp11525
I33
aV"1_c"
p11526
aV"1_a"
p11527
aa(lp11528
I33
aV"1_d"
p11529
aV"1_a"
p11530
aa(lp11531
I33
aV"1_e"
p11532
aV"1_a"
p11533
aa(lp11534
I33
aV"2_b"
p11535
aV"2_a"
p11536
aa(lp11537
I33
aV"2_d"
p11538
aV"2_a"
p11539
aa(lp11540
I33
aV"2_f"
p11541
aV"2_a"
p11542
aa(lp11543
I33
aV"2_g"
p11544
aV"2_a"
p11545
aa(lp11546
I33
aV"1_b"
p11547
aV"2_a"
p11548
aa(lp11549
I33
aV"1_d"
p11550
aV"2_a"
p11551
aa(lp11552
I33
aV"2_d"
p11553
aV"1_a"
p11554
aa(lp11555
I33
aV"2_b"
p11556
aV"1_a"
p11557
aa(lp11558
I33
aV"1_a"
p11559
aV"2_a"
p11560
aa(lp11561
I33
aV"1_c"
p11562
aV"2_a"
p11563
aa(lp11564
I33
aV"1_e"
p11565
aV"2_a"
p11566
aaa(lp11567
(lp11568
I33
aV"2_a"
p11569
aV"2_g"
p11570
aa(lp11571
I33
aV"2_a"
p11572
aV"2_f"
p11573
aa(lp11574
I33
aV"2_a"
p11575
aV"2_d"
p11576
aa(lp11577
I33
aV"2_a"
p11578
aV"2_b"
p11579
aa(lp11580
I33
aV"1_a"
p11581
aV"1_e"
p11582
aa(lp11583
I33
aV"1_a"
p11584
aV"1_d"
p11585
aa(lp11586
I33
aV"1_a"
p11587
aV"1_c"
p11588
aa(lp11589
I33
aV"1_a"
p11590
aV"1_b"
p11591
aa(lp11592
I33
aV"2_a"
p11593
aV"1_d"
p11594
aa(lp11595
I33
aV"2_a"
p11596
aV"1_b"
p11597
aa(lp11598
I33
aV"1_a"
p11599
aV"2_b"
p11600
aa(lp11601
I33
aV"1_a"
p11602
aV"2_d"
p11603
aa(lp11604
I33
aV"2_a"
p11605
aV"1_a"
p11606
aa(lp11607
I33
aV"2_a"
p11608
aV"1_e"
p11609
aa(lp11610
I33
aV"2_a"
p11611
aV"1_c"
p11612
aaa(lp11613
(lp11614
I33
aV"1_b"
p11615
aa(lp11616
I33
aV"1_c"
p11617
aa(lp11618
I33
aV"1_d"
p11619
aa(lp11620
I33
aV"1_e"
p11621
aa(lp11622
I33
aV"2_b"
p11623
aa(lp11624
I33
aV"2_d"
p11625
aa(lp11626
I33
aV"2_f"
p11627
aa(lp11628
I33
aV"2_g"
p11629
aa(lp11630
I33
aV"1_a"
p11631
aa(lp11632
I33
aV"2_a"
p11633
aaa(lp11634
(lp11635
I33
aV"1_a"
p11636
aV"1_b"
p11637
aa(lp11638
I33
aV"1_a"
p11639
aV"1_c"
p11640
aa(lp11641
I33
aV"1_a"
p11642
aV"1_d"
p11643
aa(lp11644
I33
aV"1_a"
p11645
aV"1_e"
p11646
aa(lp11647
I33
aV"2_a"
p11648
aV"2_b"
p11649
aa(lp11650
I33
aV"2_a"
p11651
aV"2_d"
p11652
aa(lp11653
I33
aV"2_a"
p11654
aV"2_f"
p11655
aa(lp11656
I33
aV"2_a"
p11657
aV"2_g"
p11658
aaa(lp11659
(lp11660
I33
aV"2_f"
p11661
aV"1_c"
p11662
aa(lp11663
I33
aV"1_c"
p11664
aV"2_f"
p11665
aa(lp11666
I33
aV"2_g"
p11667
aV"1_e"
p11668
aa(lp11669
I33
aV"1_e"
p11670
aV"2_g"
p11671
aa(lp11672
I33
aV"2_f"
p11673
aV"1_a"
p11674
aa(lp11675
I33
aV"2_g"
p11676
aV"1_a"
p11677
aa(lp11678
I33
aV"1_a"
p11679
aV"2_f"
p11680
aa(lp11681
I33
aV"1_a"
p11682
aV"2_g"
p11683
aaasba(ihelper
PossibleWorld
p11684
(dp11685
g3
I34
sg4
I0
sg5
(lp11686
(lp11687
(lp11688
I34
aV"1_b"
p11689
aV"2_b"
p11690
aa(lp11691
I34
aV"1_d"
p11692
aV"2_d"
p11693
aa(lp11694
I34
aV"2_d"
p11695
aV"1_d"
p11696
aa(lp11697
I34
aV"2_b"
p11698
aV"1_b"
p11699
aa(lp11700
I34
aV"2_a"
p11701
aV"2_a"
p11702
aa(lp11703
I34
aV"1_a"
p11704
aV"1_a"
p11705
aa(lp11706
I34
aV"2_g"
p11707
aV"2_g"
p11708
aa(lp11709
I34
aV"2_f"
p11710
aV"2_f"
p11711
aa(lp11712
I34
aV"2_d"
p11713
aV"2_d"
p11714
aa(lp11715
I34
aV"2_b"
p11716
aV"2_b"
p11717
aa(lp11718
I34
aV"1_e"
p11719
aV"1_e"
p11720
aa(lp11721
I34
aV"1_d"
p11722
aV"1_d"
p11723
aa(lp11724
I34
aV"1_c"
p11725
aV"1_c"
p11726
aa(lp11727
I34
aV"1_b"
p11728
aV"1_b"
p11729
aaa(lp11730
(lp11731
I34
aV"1_c"
p11732
aV"1_b"
p11733
aa(lp11734
I34
aV"1_d"
p11735
aV"1_b"
p11736
aa(lp11737
I34
aV"1_e"
p11738
aV"1_b"
p11739
aa(lp11740
I34
aV"1_b"
p11741
aV"1_c"
p11742
aa(lp11743
I34
aV"1_d"
p11744
aV"1_c"
p11745
aa(lp11746
I34
aV"1_e"
p11747
aV"1_c"
p11748
aa(lp11749
I34
aV"1_b"
p11750
aV"1_d"
p11751
aa(lp11752
I34
aV"1_c"
p11753
aV"1_d"
p11754
aa(lp11755
I34
aV"1_e"
p11756
aV"1_d"
p11757
aa(lp11758
I34
aV"1_b"
p11759
aV"1_e"
p11760
aa(lp11761
I34
aV"1_c"
p11762
aV"1_e"
p11763
aa(lp11764
I34
aV"1_d"
p11765
aV"1_e"
p11766
aa(lp11767
I34
aV"2_d"
p11768
aV"2_b"
p11769
aa(lp11770
I34
aV"2_f"
p11771
aV"2_b"
p11772
aa(lp11773
I34
aV"2_g"
p11774
aV"2_b"
p11775
aa(lp11776
I34
aV"2_b"
p11777
aV"2_d"
p11778
aa(lp11779
I34
aV"2_f"
p11780
aV"2_d"
p11781
aa(lp11782
I34
aV"2_g"
p11783
aV"2_d"
p11784
aa(lp11785
I34
aV"2_b"
p11786
aV"2_f"
p11787
aa(lp11788
I34
aV"2_d"
p11789
aV"2_f"
p11790
aa(lp11791
I34
aV"2_g"
p11792
aV"2_f"
p11793
aa(lp11794
I34
aV"2_b"
p11795
aV"2_g"
p11796
aa(lp11797
I34
aV"2_d"
p11798
aV"2_g"
p11799
aa(lp11800
I34
aV"2_f"
p11801
aV"2_g"
p11802
aa(lp11803
I34
aV"1_c"
p11804
aV"2_d"
p11805
aa(lp11806
I34
aV"1_c"
p11807
aV"2_b"
p11808
aa(lp11809
I34
aV"1_b"
p11810
aV"2_g"
p11811
aa(lp11812
I34
aV"1_d"
p11813
aV"2_g"
p11814
aa(lp11815
I34
aV"1_b"
p11816
aV"2_d"
p11817
aa(lp11818
I34
aV"1_e"
p11819
aV"2_d"
p11820
aa(lp11821
I34
aV"1_d"
p11822
aV"2_b"
p11823
aa(lp11824
I34
aV"1_e"
p11825
aV"2_b"
p11826
aa(lp11827
I34
aV"1_d"
p11828
aV"2_f"
p11829
aa(lp11830
I34
aV"1_b"
p11831
aV"2_f"
p11832
aa(lp11833
I34
aV"2_f"
p11834
aV"1_b"
p11835
aa(lp11836
I34
aV"2_f"
p11837
aV"1_d"
p11838
aa(lp11839
I34
aV"2_b"
p11840
aV"1_e"
p11841
aa(lp11842
I34
aV"2_b"
p11843
aV"1_d"
p11844
aa(lp11845
I34
aV"2_d"
p11846
aV"1_e"
p11847
aa(lp11848
I34
aV"2_d"
p11849
aV"1_b"
p11850
aa(lp11851
I34
aV"2_g"
p11852
aV"1_d"
p11853
aa(lp11854
I34
aV"2_g"
p11855
aV"1_b"
p11856
aa(lp11857
I34
aV"2_b"
p11858
aV"1_c"
p11859
aa(lp11860
I34
aV"2_d"
p11861
aV"1_c"
p11862
aa(lp11863
I34
aV"1_e"
p11864
aV"2_f"
p11865
aa(lp11866
I34
aV"2_f"
p11867
aV"1_e"
p11868
aaa(lp11869
(lp11870
I34
aV"1_b"
p11871
aV"1_a"
p11872
aa(lp11873
I34
aV"1_c"
p11874
aV"1_a"
p11875
aa(lp11876
I34
aV"1_d"
p11877
aV"1_a"
p11878
aa(lp11879
I34
aV"1_e"
p11880
aV"1_a"
p11881
aa(lp11882
I34
aV"2_b"
p11883
aV"2_a"
p11884
aa(lp11885
I34
aV"2_d"
p11886
aV"2_a"
p11887
aa(lp11888
I34
aV"2_f"
p11889
aV"2_a"
p11890
aa(lp11891
I34
aV"2_g"
p11892
aV"2_a"
p11893
aa(lp11894
I34
aV"1_b"
p11895
aV"2_a"
p11896
aa(lp11897
I34
aV"1_d"
p11898
aV"2_a"
p11899
aa(lp11900
I34
aV"2_d"
p11901
aV"1_a"
p11902
aa(lp11903
I34
aV"2_b"
p11904
aV"1_a"
p11905
aa(lp11906
I34
aV"1_a"
p11907
aV"2_a"
p11908
aa(lp11909
I34
aV"1_c"
p11910
aV"2_a"
p11911
aa(lp11912
I34
aV"1_e"
p11913
aV"2_a"
p11914
aaa(lp11915
(lp11916
I34
aV"2_a"
p11917
aV"2_g"
p11918
aa(lp11919
I34
aV"2_a"
p11920
aV"2_f"
p11921
aa(lp11922
I34
aV"2_a"
p11923
aV"2_d"
p11924
aa(lp11925
I34
aV"2_a"
p11926
aV"2_b"
p11927
aa(lp11928
I34
aV"1_a"
p11929
aV"1_e"
p11930
aa(lp11931
I34
aV"1_a"
p11932
aV"1_d"
p11933
aa(lp11934
I34
aV"1_a"
p11935
aV"1_c"
p11936
aa(lp11937
I34
aV"1_a"
p11938
aV"1_b"
p11939
aa(lp11940
I34
aV"2_a"
p11941
aV"1_d"
p11942
aa(lp11943
I34
aV"2_a"
p11944
aV"1_b"
p11945
aa(lp11946
I34
aV"1_a"
p11947
aV"2_b"
p11948
aa(lp11949
I34
aV"1_a"
p11950
aV"2_d"
p11951
aa(lp11952
I34
aV"2_a"
p11953
aV"1_a"
p11954
aa(lp11955
I34
aV"2_a"
p11956
aV"1_e"
p11957
aa(lp11958
I34
aV"2_a"
p11959
aV"1_c"
p11960
aaa(lp11961
(lp11962
I34
aV"1_b"
p11963
aa(lp11964
I34
aV"1_c"
p11965
aa(lp11966
I34
aV"1_d"
p11967
aa(lp11968
I34
aV"1_e"
p11969
aa(lp11970
I34
aV"2_b"
p11971
aa(lp11972
I34
aV"2_d"
p11973
aa(lp11974
I34
aV"2_f"
p11975
aa(lp11976
I34
aV"2_g"
p11977
aa(lp11978
I34
aV"1_a"
p11979
aa(lp11980
I34
aV"2_a"
p11981
aaa(lp11982
(lp11983
I34
aV"1_a"
p11984
aV"1_b"
p11985
aa(lp11986
I34
aV"1_a"
p11987
aV"1_c"
p11988
aa(lp11989
I34
aV"1_a"
p11990
aV"1_d"
p11991
aa(lp11992
I34
aV"1_a"
p11993
aV"1_e"
p11994
aa(lp11995
I34
aV"2_a"
p11996
aV"2_b"
p11997
aa(lp11998
I34
aV"2_a"
p11999
aV"2_d"
p12000
aa(lp12001
I34
aV"2_a"
p12002
aV"2_f"
p12003
aa(lp12004
I34
aV"2_a"
p12005
aV"2_g"
p12006
aaa(lp12007
(lp12008
I34
aV"2_f"
p12009
aV"1_c"
p12010
aa(lp12011
I34
aV"1_c"
p12012
aV"2_f"
p12013
aa(lp12014
I34
aV"2_g"
p12015
aV"1_e"
p12016
aa(lp12017
I34
aV"1_e"
p12018
aV"2_g"
p12019
aa(lp12020
I34
aV"2_f"
p12021
aV"1_a"
p12022
aa(lp12023
I34
aV"2_g"
p12024
aV"1_a"
p12025
aa(lp12026
I34
aV"1_a"
p12027
aV"2_f"
p12028
aa(lp12029
I34
aV"1_c"
p12030
aV"2_g"
p12031
aa(lp12032
I34
aV"1_a"
p12033
aV"2_g"
p12034
aa(lp12035
I34
aV"2_g"
p12036
aV"1_c"
p12037
aaasba(ihelper
PossibleWorld
p12038
(dp12039
g3
I35
sg4
I0
sg5
(lp12040
(lp12041
(lp12042
I35
aV"1_b"
p12043
aV"2_b"
p12044
aa(lp12045
I35
aV"1_d"
p12046
aV"2_d"
p12047
aa(lp12048
I35
aV"2_d"
p12049
aV"1_d"
p12050
aa(lp12051
I35
aV"2_b"
p12052
aV"1_b"
p12053
aa(lp12054
I35
aV"2_a"
p12055
aV"2_a"
p12056
aa(lp12057
I35
aV"1_a"
p12058
aV"1_a"
p12059
aa(lp12060
I35
aV"2_g"
p12061
aV"2_g"
p12062
aa(lp12063
I35
aV"2_f"
p12064
aV"2_f"
p12065
aa(lp12066
I35
aV"2_d"
p12067
aV"2_d"
p12068
aa(lp12069
I35
aV"2_b"
p12070
aV"2_b"
p12071
aa(lp12072
I35
aV"1_e"
p12073
aV"1_e"
p12074
aa(lp12075
I35
aV"1_d"
p12076
aV"1_d"
p12077
aa(lp12078
I35
aV"1_c"
p12079
aV"1_c"
p12080
aa(lp12081
I35
aV"1_b"
p12082
aV"1_b"
p12083
aaa(lp12084
(lp12085
I35
aV"1_c"
p12086
aV"1_b"
p12087
aa(lp12088
I35
aV"1_d"
p12089
aV"1_b"
p12090
aa(lp12091
I35
aV"1_e"
p12092
aV"1_b"
p12093
aa(lp12094
I35
aV"1_b"
p12095
aV"1_c"
p12096
aa(lp12097
I35
aV"1_d"
p12098
aV"1_c"
p12099
aa(lp12100
I35
aV"1_e"
p12101
aV"1_c"
p12102
aa(lp12103
I35
aV"1_b"
p12104
aV"1_d"
p12105
aa(lp12106
I35
aV"1_c"
p12107
aV"1_d"
p12108
aa(lp12109
I35
aV"1_e"
p12110
aV"1_d"
p12111
aa(lp12112
I35
aV"1_b"
p12113
aV"1_e"
p12114
aa(lp12115
I35
aV"1_c"
p12116
aV"1_e"
p12117
aa(lp12118
I35
aV"1_d"
p12119
aV"1_e"
p12120
aa(lp12121
I35
aV"2_d"
p12122
aV"2_b"
p12123
aa(lp12124
I35
aV"2_f"
p12125
aV"2_b"
p12126
aa(lp12127
I35
aV"2_g"
p12128
aV"2_b"
p12129
aa(lp12130
I35
aV"2_b"
p12131
aV"2_d"
p12132
aa(lp12133
I35
aV"2_f"
p12134
aV"2_d"
p12135
aa(lp12136
I35
aV"2_g"
p12137
aV"2_d"
p12138
aa(lp12139
I35
aV"2_b"
p12140
aV"2_f"
p12141
aa(lp12142
I35
aV"2_d"
p12143
aV"2_f"
p12144
aa(lp12145
I35
aV"2_g"
p12146
aV"2_f"
p12147
aa(lp12148
I35
aV"2_b"
p12149
aV"2_g"
p12150
aa(lp12151
I35
aV"2_d"
p12152
aV"2_g"
p12153
aa(lp12154
I35
aV"2_f"
p12155
aV"2_g"
p12156
aa(lp12157
I35
aV"1_c"
p12158
aV"2_d"
p12159
aa(lp12160
I35
aV"1_c"
p12161
aV"2_b"
p12162
aa(lp12163
I35
aV"1_b"
p12164
aV"2_g"
p12165
aa(lp12166
I35
aV"1_d"
p12167
aV"2_g"
p12168
aa(lp12169
I35
aV"1_b"
p12170
aV"2_d"
p12171
aa(lp12172
I35
aV"1_e"
p12173
aV"2_d"
p12174
aa(lp12175
I35
aV"1_d"
p12176
aV"2_b"
p12177
aa(lp12178
I35
aV"1_e"
p12179
aV"2_b"
p12180
aa(lp12181
I35
aV"1_d"
p12182
aV"2_f"
p12183
aa(lp12184
I35
aV"1_b"
p12185
aV"2_f"
p12186
aa(lp12187
I35
aV"2_f"
p12188
aV"1_b"
p12189
aa(lp12190
I35
aV"2_f"
p12191
aV"1_d"
p12192
aa(lp12193
I35
aV"2_b"
p12194
aV"1_e"
p12195
aa(lp12196
I35
aV"2_b"
p12197
aV"1_d"
p12198
aa(lp12199
I35
aV"2_d"
p12200
aV"1_e"
p12201
aa(lp12202
I35
aV"2_d"
p12203
aV"1_b"
p12204
aa(lp12205
I35
aV"2_g"
p12206
aV"1_d"
p12207
aa(lp12208
I35
aV"2_g"
p12209
aV"1_b"
p12210
aa(lp12211
I35
aV"2_b"
p12212
aV"1_c"
p12213
aa(lp12214
I35
aV"2_d"
p12215
aV"1_c"
p12216
aa(lp12217
I35
aV"1_c"
p12218
aV"2_g"
p12219
aa(lp12220
I35
aV"2_g"
p12221
aV"1_c"
p12222
aaa(lp12223
(lp12224
I35
aV"1_b"
p12225
aV"1_a"
p12226
aa(lp12227
I35
aV"1_c"
p12228
aV"1_a"
p12229
aa(lp12230
I35
aV"1_d"
p12231
aV"1_a"
p12232
aa(lp12233
I35
aV"1_e"
p12234
aV"1_a"
p12235
aa(lp12236
I35
aV"2_b"
p12237
aV"2_a"
p12238
aa(lp12239
I35
aV"2_d"
p12240
aV"2_a"
p12241
aa(lp12242
I35
aV"2_f"
p12243
aV"2_a"
p12244
aa(lp12245
I35
aV"2_g"
p12246
aV"2_a"
p12247
aa(lp12248
I35
aV"1_b"
p12249
aV"2_a"
p12250
aa(lp12251
I35
aV"1_d"
p12252
aV"2_a"
p12253
aa(lp12254
I35
aV"2_d"
p12255
aV"1_a"
p12256
aa(lp12257
I35
aV"2_b"
p12258
aV"1_a"
p12259
aa(lp12260
I35
aV"1_a"
p12261
aV"2_a"
p12262
aa(lp12263
I35
aV"1_c"
p12264
aV"2_a"
p12265
aa(lp12266
I35
aV"1_e"
p12267
aV"2_a"
p12268
aaa(lp12269
(lp12270
I35
aV"2_a"
p12271
aV"2_g"
p12272
aa(lp12273
I35
aV"2_a"
p12274
aV"2_f"
p12275
aa(lp12276
I35
aV"2_a"
p12277
aV"2_d"
p12278
aa(lp12279
I35
aV"2_a"
p12280
aV"2_b"
p12281
aa(lp12282
I35
aV"1_a"
p12283
aV"1_e"
p12284
aa(lp12285
I35
aV"1_a"
p12286
aV"1_d"
p12287
aa(lp12288
I35
aV"1_a"
p12289
aV"1_c"
p12290
aa(lp12291
I35
aV"1_a"
p12292
aV"1_b"
p12293
aa(lp12294
I35
aV"2_a"
p12295
aV"1_d"
p12296
aa(lp12297
I35
aV"2_a"
p12298
aV"1_b"
p12299
aa(lp12300
I35
aV"1_a"
p12301
aV"2_b"
p12302
aa(lp12303
I35
aV"1_a"
p12304
aV"2_d"
p12305
aa(lp12306
I35
aV"2_a"
p12307
aV"1_a"
p12308
aa(lp12309
I35
aV"2_a"
p12310
aV"1_e"
p12311
aa(lp12312
I35
aV"2_a"
p12313
aV"1_c"
p12314
aaa(lp12315
(lp12316
I35
aV"1_b"
p12317
aa(lp12318
I35
aV"1_c"
p12319
aa(lp12320
I35
aV"1_d"
p12321
aa(lp12322
I35
aV"1_e"
p12323
aa(lp12324
I35
aV"2_b"
p12325
aa(lp12326
I35
aV"2_d"
p12327
aa(lp12328
I35
aV"2_f"
p12329
aa(lp12330
I35
aV"2_g"
p12331
aa(lp12332
I35
aV"1_a"
p12333
aa(lp12334
I35
aV"2_a"
p12335
aaa(lp12336
(lp12337
I35
aV"1_a"
p12338
aV"1_b"
p12339
aa(lp12340
I35
aV"1_a"
p12341
aV"1_c"
p12342
aa(lp12343
I35
aV"1_a"
p12344
aV"1_d"
p12345
aa(lp12346
I35
aV"1_a"
p12347
aV"1_e"
p12348
aa(lp12349
I35
aV"2_a"
p12350
aV"2_b"
p12351
aa(lp12352
I35
aV"2_a"
p12353
aV"2_d"
p12354
aa(lp12355
I35
aV"2_a"
p12356
aV"2_f"
p12357
aa(lp12358
I35
aV"2_a"
p12359
aV"2_g"
p12360
aaa(lp12361
(lp12362
I35
aV"2_f"
p12363
aV"1_c"
p12364
aa(lp12365
I35
aV"1_c"
p12366
aV"2_f"
p12367
aa(lp12368
I35
aV"2_g"
p12369
aV"1_e"
p12370
aa(lp12371
I35
aV"1_e"
p12372
aV"2_g"
p12373
aa(lp12374
I35
aV"2_f"
p12375
aV"1_a"
p12376
aa(lp12377
I35
aV"2_g"
p12378
aV"1_a"
p12379
aa(lp12380
I35
aV"1_e"
p12381
aV"2_f"
p12382
aa(lp12383
I35
aV"1_a"
p12384
aV"2_f"
p12385
aa(lp12386
I35
aV"1_a"
p12387
aV"2_g"
p12388
aa(lp12389
I35
aV"2_f"
p12390
aV"1_e"
p12391
aaasba(ihelper
PossibleWorld
p12392
(dp12393
g3
I36
sg4
I0
sg5
(lp12394
(lp12395
(lp12396
I36
aV"1_b"
p12397
aV"2_b"
p12398
aa(lp12399
I36
aV"1_d"
p12400
aV"2_d"
p12401
aa(lp12402
I36
aV"2_d"
p12403
aV"1_d"
p12404
aa(lp12405
I36
aV"2_b"
p12406
aV"1_b"
p12407
aa(lp12408
I36
aV"2_a"
p12409
aV"2_a"
p12410
aa(lp12411
I36
aV"1_a"
p12412
aV"1_a"
p12413
aa(lp12414
I36
aV"2_g"
p12415
aV"2_g"
p12416
aa(lp12417
I36
aV"2_f"
p12418
aV"2_f"
p12419
aa(lp12420
I36
aV"2_d"
p12421
aV"2_d"
p12422
aa(lp12423
I36
aV"2_b"
p12424
aV"2_b"
p12425
aa(lp12426
I36
aV"1_e"
p12427
aV"1_e"
p12428
aa(lp12429
I36
aV"1_d"
p12430
aV"1_d"
p12431
aa(lp12432
I36
aV"1_c"
p12433
aV"1_c"
p12434
aa(lp12435
I36
aV"1_b"
p12436
aV"1_b"
p12437
aaa(lp12438
(lp12439
I36
aV"1_c"
p12440
aV"1_b"
p12441
aa(lp12442
I36
aV"1_d"
p12443
aV"1_b"
p12444
aa(lp12445
I36
aV"1_e"
p12446
aV"1_b"
p12447
aa(lp12448
I36
aV"1_b"
p12449
aV"1_c"
p12450
aa(lp12451
I36
aV"1_d"
p12452
aV"1_c"
p12453
aa(lp12454
I36
aV"1_e"
p12455
aV"1_c"
p12456
aa(lp12457
I36
aV"1_b"
p12458
aV"1_d"
p12459
aa(lp12460
I36
aV"1_c"
p12461
aV"1_d"
p12462
aa(lp12463
I36
aV"1_e"
p12464
aV"1_d"
p12465
aa(lp12466
I36
aV"1_b"
p12467
aV"1_e"
p12468
aa(lp12469
I36
aV"1_c"
p12470
aV"1_e"
p12471
aa(lp12472
I36
aV"1_d"
p12473
aV"1_e"
p12474
aa(lp12475
I36
aV"2_d"
p12476
aV"2_b"
p12477
aa(lp12478
I36
aV"2_f"
p12479
aV"2_b"
p12480
aa(lp12481
I36
aV"2_g"
p12482
aV"2_b"
p12483
aa(lp12484
I36
aV"2_b"
p12485
aV"2_d"
p12486
aa(lp12487
I36
aV"2_f"
p12488
aV"2_d"
p12489
aa(lp12490
I36
aV"2_g"
p12491
aV"2_d"
p12492
aa(lp12493
I36
aV"2_b"
p12494
aV"2_f"
p12495
aa(lp12496
I36
aV"2_d"
p12497
aV"2_f"
p12498
aa(lp12499
I36
aV"2_g"
p12500
aV"2_f"
p12501
aa(lp12502
I36
aV"2_b"
p12503
aV"2_g"
p12504
aa(lp12505
I36
aV"2_d"
p12506
aV"2_g"
p12507
aa(lp12508
I36
aV"2_f"
p12509
aV"2_g"
p12510
aa(lp12511
I36
aV"1_c"
p12512
aV"2_d"
p12513
aa(lp12514
I36
aV"1_c"
p12515
aV"2_b"
p12516
aa(lp12517
I36
aV"1_b"
p12518
aV"2_g"
p12519
aa(lp12520
I36
aV"1_d"
p12521
aV"2_g"
p12522
aa(lp12523
I36
aV"1_b"
p12524
aV"2_d"
p12525
aa(lp12526
I36
aV"1_e"
p12527
aV"2_d"
p12528
aa(lp12529
I36
aV"1_d"
p12530
aV"2_b"
p12531
aa(lp12532
I36
aV"1_e"
p12533
aV"2_b"
p12534
aa(lp12535
I36
aV"1_d"
p12536
aV"2_f"
p12537
aa(lp12538
I36
aV"1_b"
p12539
aV"2_f"
p12540
aa(lp12541
I36
aV"2_f"
p12542
aV"1_b"
p12543
aa(lp12544
I36
aV"2_f"
p12545
aV"1_d"
p12546
aa(lp12547
I36
aV"2_b"
p12548
aV"1_e"
p12549
aa(lp12550
I36
aV"2_b"
p12551
aV"1_d"
p12552
aa(lp12553
I36
aV"2_d"
p12554
aV"1_e"
p12555
aa(lp12556
I36
aV"2_d"
p12557
aV"1_b"
p12558
aa(lp12559
I36
aV"2_g"
p12560
aV"1_d"
p12561
aa(lp12562
I36
aV"2_g"
p12563
aV"1_b"
p12564
aa(lp12565
I36
aV"2_b"
p12566
aV"1_c"
p12567
aa(lp12568
I36
aV"2_d"
p12569
aV"1_c"
p12570
aaa(lp12571
(lp12572
I36
aV"1_b"
p12573
aV"1_a"
p12574
aa(lp12575
I36
aV"1_c"
p12576
aV"1_a"
p12577
aa(lp12578
I36
aV"1_d"
p12579
aV"1_a"
p12580
aa(lp12581
I36
aV"1_e"
p12582
aV"1_a"
p12583
aa(lp12584
I36
aV"2_b"
p12585
aV"2_a"
p12586
aa(lp12587
I36
aV"2_d"
p12588
aV"2_a"
p12589
aa(lp12590
I36
aV"2_f"
p12591
aV"2_a"
p12592
aa(lp12593
I36
aV"2_g"
p12594
aV"2_a"
p12595
aa(lp12596
I36
aV"1_b"
p12597
aV"2_a"
p12598
aa(lp12599
I36
aV"1_d"
p12600
aV"2_a"
p12601
aa(lp12602
I36
aV"2_d"
p12603
aV"1_a"
p12604
aa(lp12605
I36
aV"2_b"
p12606
aV"1_a"
p12607
aa(lp12608
I36
aV"1_a"
p12609
aV"2_a"
p12610
aa(lp12611
I36
aV"1_c"
p12612
aV"2_a"
p12613
aa(lp12614
I36
aV"1_e"
p12615
aV"2_a"
p12616
aaa(lp12617
(lp12618
I36
aV"2_a"
p12619
aV"2_g"
p12620
aa(lp12621
I36
aV"2_a"
p12622
aV"2_f"
p12623
aa(lp12624
I36
aV"2_a"
p12625
aV"2_d"
p12626
aa(lp12627
I36
aV"2_a"
p12628
aV"2_b"
p12629
aa(lp12630
I36
aV"1_a"
p12631
aV"1_e"
p12632
aa(lp12633
I36
aV"1_a"
p12634
aV"1_d"
p12635
aa(lp12636
I36
aV"1_a"
p12637
aV"1_c"
p12638
aa(lp12639
I36
aV"1_a"
p12640
aV"1_b"
p12641
aa(lp12642
I36
aV"2_a"
p12643
aV"1_d"
p12644
aa(lp12645
I36
aV"2_a"
p12646
aV"1_b"
p12647
aa(lp12648
I36
aV"1_a"
p12649
aV"2_b"
p12650
aa(lp12651
I36
aV"1_a"
p12652
aV"2_d"
p12653
aa(lp12654
I36
aV"2_a"
p12655
aV"1_a"
p12656
aa(lp12657
I36
aV"2_a"
p12658
aV"1_e"
p12659
aa(lp12660
I36
aV"2_a"
p12661
aV"1_c"
p12662
aaa(lp12663
(lp12664
I36
aV"1_b"
p12665
aa(lp12666
I36
aV"1_c"
p12667
aa(lp12668
I36
aV"1_d"
p12669
aa(lp12670
I36
aV"1_e"
p12671
aa(lp12672
I36
aV"2_b"
p12673
aa(lp12674
I36
aV"2_d"
p12675
aa(lp12676
I36
aV"2_f"
p12677
aa(lp12678
I36
aV"2_g"
p12679
aa(lp12680
I36
aV"1_a"
p12681
aa(lp12682
I36
aV"2_a"
p12683
aaa(lp12684
(lp12685
I36
aV"1_a"
p12686
aV"1_b"
p12687
aa(lp12688
I36
aV"1_a"
p12689
aV"1_c"
p12690
aa(lp12691
I36
aV"1_a"
p12692
aV"1_d"
p12693
aa(lp12694
I36
aV"1_a"
p12695
aV"1_e"
p12696
aa(lp12697
I36
aV"2_a"
p12698
aV"2_b"
p12699
aa(lp12700
I36
aV"2_a"
p12701
aV"2_d"
p12702
aa(lp12703
I36
aV"2_a"
p12704
aV"2_f"
p12705
aa(lp12706
I36
aV"2_a"
p12707
aV"2_g"
p12708
aaa(lp12709
(lp12710
I36
aV"2_f"
p12711
aV"1_c"
p12712
aa(lp12713
I36
aV"1_c"
p12714
aV"2_f"
p12715
aa(lp12716
I36
aV"2_g"
p12717
aV"1_e"
p12718
aa(lp12719
I36
aV"1_e"
p12720
aV"2_g"
p12721
aa(lp12722
I36
aV"2_f"
p12723
aV"1_a"
p12724
aa(lp12725
I36
aV"2_g"
p12726
aV"1_a"
p12727
aa(lp12728
I36
aV"1_e"
p12729
aV"2_f"
p12730
aa(lp12731
I36
aV"1_a"
p12732
aV"2_f"
p12733
aa(lp12734
I36
aV"1_c"
p12735
aV"2_g"
p12736
aa(lp12737
I36
aV"1_a"
p12738
aV"2_g"
p12739
aa(lp12740
I36
aV"2_f"
p12741
aV"1_e"
p12742
aa(lp12743
I36
aV"2_g"
p12744
aV"1_c"
p12745
aaasba.