(lp0
(ihelper
PossibleWorld
p1
(dp2
S'pw_id'
p3
I1
sS'pw_soln'
p4
I0
sS'rls'
p5
(lp6
(lp7
(lp8
I1
aVcCEN_West
p9
aVcNDC_USA
p10
aV"<"
p11
aa(lp12
I1
aVcCEN_Northeast
p13
aVcNDC_Northeast
p14
aV"<"
p15
aa(lp16
I1
aVcCEN_Northeast
p17
aVcNDC_USA
p18
aV"<"
p19
aa(lp20
I1
aVcCEN_Midwest
p21
aVcNDC_USA
p22
aV"<"
p23
aa(lp24
I1
aVcCEN_South
p25
aVcNDC_USA
p26
aV"<"
p27
aa(lp28
I1
aVcCEN_USA
p29
aVcNDC_USA
p30
aV"="
p31
aa(lp32
I1
aVcCEN_Midwest
p33
aVcNDC_Midwest
p34
aV"="
p35
aa(lp36
I1
aVcCEN_USA
p37
aVcNDC_Northeast
p38
aV">"
p39
aa(lp40
I1
aVcCEN_USA
p41
aVcNDC_West
p42
aV">"
p43
aa(lp44
I1
aVcCEN_USA
p45
aVcNDC_Southeast
p46
aV">"
p47
aa(lp48
I1
aVcCEN_USA
p49
aVcNDC_Midwest
p50
aV">"
p51
aa(lp52
I1
aVcCEN_USA
p53
aVcNDC_Southwest
p54
aV">"
p55
aa(lp56
I1
aVcCEN_West
p57
aVcNDC_West
p58
aV">"
p59
aa(lp60
I1
aVcCEN_South
p61
aVcNDC_Southeast
p62
aV">"
p63
aa(lp64
I1
aVcCEN_South
p65
aVcNDC_Northeast
p66
aV"><"
p67
aa(lp68
I1
aVcCEN_West
p69
aVcNDC_Northeast
p70
aV"!"
p71
aa(lp72
I1
aVcCEN_West
p73
aVcNDC_Southeast
p74
aV"!"
p75
aa(lp76
I1
aVcCEN_West
p77
aVcNDC_Midwest
p78
aV"!"
p79
aa(lp80
I1
aVcCEN_Northeast
p81
aVcNDC_West
p82
aV"!"
p83
aa(lp84
I1
aVcCEN_Northeast
p85
aVcNDC_Southeast
p86
aV"!"
p87
aa(lp88
I1
aVcCEN_Northeast
p89
aVcNDC_Midwest
p90
aV"!"
p91
aa(lp92
I1
aVcCEN_Northeast
p93
aVcNDC_Southwest
p94
aV"!"
p95
aa(lp96
I1
aVcCEN_Midwest
p97
aVcNDC_Northeast
p98
aV"!"
p99
aa(lp100
I1
aVcCEN_Midwest
p101
aVcNDC_West
p102
aV"!"
p103
aa(lp104
I1
aVcCEN_Midwest
p105
aVcNDC_Southeast
p106
aV"!"
p107
aa(lp108
I1
aVcCEN_Midwest
p109
aVcNDC_Southwest
p110
aV"!"
p111
aa(lp112
I1
aVcCEN_South
p113
aVcNDC_West
p114
aV"!"
p115
aa(lp116
I1
aVcCEN_South
p117
aVcNDC_Midwest
p118
aV"!"
p119
aa(lp120
I1
aVcCEN_West
p121
aVcNDC_Southwest
p122
aV">"
p123
aa(lp124
I1
aVcCEN_South
p125
aVcNDC_Southwest
p126
aV"!"
p127
aaasba(ihelper
PossibleWorld
p128
(dp129
g3
I2
sg4
I0
sg5
(lp130
(lp131
(lp132
I2
aVcCEN_West
p133
aVcNDC_USA
p134
aV"<"
p135
aa(lp136
I2
aVcCEN_Northeast
p137
aVcNDC_Northeast
p138
aV"<"
p139
aa(lp140
I2
aVcCEN_Northeast
p141
aVcNDC_USA
p142
aV"<"
p143
aa(lp144
I2
aVcCEN_Midwest
p145
aVcNDC_USA
p146
aV"<"
p147
aa(lp148
I2
aVcCEN_South
p149
aVcNDC_USA
p150
aV"<"
p151
aa(lp152
I2
aVcCEN_USA
p153
aVcNDC_USA
p154
aV"="
p155
aa(lp156
I2
aVcCEN_Midwest
p157
aVcNDC_Midwest
p158
aV"="
p159
aa(lp160
I2
aVcCEN_USA
p161
aVcNDC_Northeast
p162
aV">"
p163
aa(lp164
I2
aVcCEN_USA
p165
aVcNDC_West
p166
aV">"
p167
aa(lp168
I2
aVcCEN_USA
p169
aVcNDC_Southeast
p170
aV">"
p171
aa(lp172
I2
aVcCEN_USA
p173
aVcNDC_Midwest
p174
aV">"
p175
aa(lp176
I2
aVcCEN_USA
p177
aVcNDC_Southwest
p178
aV">"
p179
aa(lp180
I2
aVcCEN_West
p181
aVcNDC_West
p182
aV">"
p183
aa(lp184
I2
aVcCEN_South
p185
aVcNDC_Southeast
p186
aV">"
p187
aa(lp188
I2
aVcCEN_South
p189
aVcNDC_Northeast
p190
aV"><"
p191
aa(lp192
I2
aVcCEN_West
p193
aVcNDC_Northeast
p194
aV"!"
p195
aa(lp196
I2
aVcCEN_West
p197
aVcNDC_Southeast
p198
aV"!"
p199
aa(lp200
I2
aVcCEN_West
p201
aVcNDC_Midwest
p202
aV"!"
p203
aa(lp204
I2
aVcCEN_Northeast
p205
aVcNDC_West
p206
aV"!"
p207
aa(lp208
I2
aVcCEN_Northeast
p209
aVcNDC_Southeast
p210
aV"!"
p211
aa(lp212
I2
aVcCEN_Northeast
p213
aVcNDC_Midwest
p214
aV"!"
p215
aa(lp216
I2
aVcCEN_Northeast
p217
aVcNDC_Southwest
p218
aV"!"
p219
aa(lp220
I2
aVcCEN_Midwest
p221
aVcNDC_Northeast
p222
aV"!"
p223
aa(lp224
I2
aVcCEN_Midwest
p225
aVcNDC_West
p226
aV"!"
p227
aa(lp228
I2
aVcCEN_Midwest
p229
aVcNDC_Southeast
p230
aV"!"
p231
aa(lp232
I2
aVcCEN_Midwest
p233
aVcNDC_Southwest
p234
aV"!"
p235
aa(lp236
I2
aVcCEN_South
p237
aVcNDC_West
p238
aV"!"
p239
aa(lp240
I2
aVcCEN_South
p241
aVcNDC_Midwest
p242
aV"!"
p243
aa(lp244
I2
aVcCEN_West
p245
aVcNDC_Southwest
p246
aV"><"
p247
aa(lp248
I2
aVcCEN_South
p249
aVcNDC_Southwest
p250
aV"><"
p251
aaasba.