(lp0
(ihelper
PossibleWorld
p1
(dp2
S'pw_id'
p3
I1
sS'pw_soln'
p4
I0
sS'rls'
p5
(lp6
(lp7
(lp8
I1
aVcCEN_West
p9
aVcNDC_USA
p10
aV"<"
p11
aa(lp12
I1
aVcCEN_Northeast
p13
aVcNDC_Northeast
p14
aV"<"
p15
aa(lp16
I1
aVcCEN_Northeast
p17
aVcNDC_USA
p18
aV"<"
p19
aa(lp20
I1
aVcCEN_Midwest
p21
aVcNDC_USA
p22
aV"<"
p23
aa(lp24
I1
aVcCEN_South
p25
aVcNDC_USA
p26
aV"<"
p27
aa(lp28
I1
aVcCEN_USA
p29
aVcNDC_USA
p30
aV"="
p31
aa(lp32
I1
aVcCEN_Midwest
p33
aVcNDC_Midwest
p34
aV"="
p35
aa(lp36
I1
aVcCEN_USA
p37
aVcNDC_Northeast
p38
aV">"
p39
aa(lp40
I1
aVcCEN_USA
p41
aVcNDC_West
p42
aV">"
p43
aa(lp44
I1
aVcCEN_USA
p45
aVcNDC_Southeast
p46
aV">"
p47
aa(lp48
I1
aVcCEN_USA
p49
aVcNDC_Midwest
p50
aV">"
p51
aa(lp52
I1
aVcCEN_USA
p53
aVcNDC_Southwest
p54
aV">"
p55
aa(lp56
I1
aVcCEN_West
p57
aVcNDC_West
p58
aV">"
p59
aa(lp60
I1
aVcCEN_South
p61
aVcNDC_Southeast
p62
aV">"
p63
aa(lp64
I1
aVcCEN_West
p65
aVcNDC_Southwest
p66
aV"><"
p67
aa(lp68
I1
aVcCEN_South
p69
aVcNDC_Northeast
p70
aV"><"
p71
aa(lp72
I1
aVcCEN_South
p73
aVcNDC_Southwest
p74
aV"><"
p75
aa(lp76
I1
aVcCEN_West
p77
aVcNDC_Northeast
p78
aV"!"
p79
aa(lp80
I1
aVcCEN_West
p81
aVcNDC_Southeast
p82
aV"!"
p83
aa(lp84
I1
aVcCEN_West
p85
aVcNDC_Midwest
p86
aV"!"
p87
aa(lp88
I1
aVcCEN_Northeast
p89
aVcNDC_West
p90
aV"!"
p91
aa(lp92
I1
aVcCEN_Northeast
p93
aVcNDC_Southeast
p94
aV"!"
p95
aa(lp96
I1
aVcCEN_Northeast
p97
aVcNDC_Midwest
p98
aV"!"
p99
aa(lp100
I1
aVcCEN_Northeast
p101
aVcNDC_Southwest
p102
aV"!"
p103
aa(lp104
I1
aVcCEN_Midwest
p105
aVcNDC_Northeast
p106
aV"!"
p107
aa(lp108
I1
aVcCEN_Midwest
p109
aVcNDC_West
p110
aV"!"
p111
aa(lp112
I1
aVcCEN_Midwest
p113
aVcNDC_Southeast
p114
aV"!"
p115
aa(lp116
I1
aVcCEN_Midwest
p117
aVcNDC_Southwest
p118
aV"!"
p119
aa(lp120
I1
aVcCEN_South
p121
aVcNDC_West
p122
aV"!"
p123
aa(lp124
I1
aVcCEN_South
p125
aVcNDC_Midwest
p126
aV"!"
p127
aaasba.