(lp0
(ihelper
PossibleWorld
p1
(dp2
S'pw_id'
p3
I1
sS'pw_soln'
p4
I0
sS'rls'
p5
(lp6
(lp7
(lp8
I1
aV5
p9
aVg
p10
aa(lp11
I1
aV1
p12
aVb
p13
aa(lp14
I1
aV2
p15
aVr
p16
aa(lp17
I1
aV3
p18
ag10
aa(lp19
I1
aV4
p20
ag16
aaasba(ihelper
PossibleWorld
p21
(dp22
g3
I2
sg4
I0
sg5
(lp23
(lp24
(lp25
I2
ag12
ag10
aa(lp26
I2
ag9
ag13
aa(lp27
I2
ag15
ag16
aa(lp28
I2
ag18
ag10
aa(lp29
I2
ag20
ag16
aaasba(ihelper
PossibleWorld
p30
(dp31
g3
I3
sg4
I0
sg5
(lp32
(lp33
(lp34
I3
ag9
ag10
aa(lp35
I3
ag12
aVy
p36
aa(lp37
I3
ag15
ag16
aa(lp38
I3
ag18
ag10
aa(lp39
I3
ag20
ag16
aaasba(ihelper
PossibleWorld
p40
(dp41
g3
I4
sg4
I0
sg5
(lp42
(lp43
(lp44
I4
ag9
ag13
aa(lp45
I4
ag12
ag36
aa(lp46
I4
ag15
ag16
aa(lp47
I4
ag18
ag10
aa(lp48
I4
ag20
ag16
aaasba(ihelper
PossibleWorld
p49
(dp50
g3
I5
sg4
I0
sg5
(lp51
(lp52
(lp53
I5
ag12
ag10
aa(lp54
I5
ag9
ag36
aa(lp55
I5
ag15
ag16
aa(lp56
I5
ag18
ag10
aa(lp57
I5
ag20
ag16
aaasba(ihelper
PossibleWorld
p58
(dp59
g3
I6
sg4
I0
sg5
(lp60
(lp61
(lp62
I6
ag12
ag13
aa(lp63
I6
ag9
ag36
aa(lp64
I6
ag15
ag16
aa(lp65
I6
ag18
ag10
aa(lp66
I6
ag20
ag16
aaasba(ihelper
PossibleWorld
p67
(dp68
g3
I7
sg4
I0
sg5
(lp69
(lp70
(lp71
I7
ag12
ag10
aa(lp72
I7
ag9
ag36
aa(lp73
I7
ag15
ag13
aa(lp74
I7
ag18
ag10
aa(lp75
I7
ag20
ag16
aaasba(ihelper
PossibleWorld
p76
(dp77
g3
I8
sg4
I0
sg5
(lp78
(lp79
(lp80
I8
ag9
ag10
aa(lp81
I8
ag12
ag36
aa(lp82
I8
ag15
ag13
aa(lp83
I8
ag18
ag10
aa(lp84
I8
ag20
ag16
aaasba(ihelper
PossibleWorld
p85
(dp86
g3
I9
sg4
I0
sg5
(lp87
(lp88
(lp89
I9
ag12
ag10
aa(lp90
I9
ag9
ag13
aa(lp91
I9
ag15
ag13
aa(lp92
I9
ag18
ag10
aa(lp93
I9
ag20
ag16
aaasba(ihelper
PossibleWorld
p94
(dp95
g3
I10
sg4
I0
sg5
(lp96
(lp97
(lp98
I10
ag9
ag13
aa(lp99
I10
ag12
ag36
aa(lp100
I10
ag15
ag13
aa(lp101
I10
ag18
ag10
aa(lp102
I10
ag20
ag16
aaasba(ihelper
PossibleWorld
p103
(dp104
g3
I11
sg4
I0
sg5
(lp105
(lp106
(lp107
I11
ag12
ag10
aa(lp108
I11
ag9
ag36
aa(lp109
I11
ag15
ag36
aa(lp110
I11
ag18
ag10
aa(lp111
I11
ag20
ag16
aaasba(ihelper
PossibleWorld
p112
(dp113
g3
I12
sg4
I0
sg5
(lp114
(lp115
(lp116
I12
ag12
ag10
aa(lp117
I12
ag9
ag13
aa(lp118
I12
ag15
ag36
aa(lp119
I12
ag18
ag10
aa(lp120
I12
ag20
ag16
aaasba(ihelper
PossibleWorld
p121
(dp122
g3
I13
sg4
I0
sg5
(lp123
(lp124
(lp125
I13
ag9
ag10
aa(lp126
I13
ag12
ag13
aa(lp127
I13
ag15
ag36
aa(lp128
I13
ag18
ag10
aa(lp129
I13
ag20
ag16
aaasba(ihelper
PossibleWorld
p130
(dp131
g3
I14
sg4
I0
sg5
(lp132
(lp133
(lp134
I14
ag12
ag13
aa(lp135
I14
ag9
ag36
aa(lp136
I14
ag15
ag36
aa(lp137
I14
ag18
ag10
aa(lp138
I14
ag20
ag16
aaasba(ihelper
PossibleWorld
p139
(dp140
g3
I15
sg4
I0
sg5
(lp141
(lp142
(lp143
I15
ag9
ag10
aa(lp144
I15
ag12
ag36
aa(lp145
I15
ag15
ag16
aa(lp146
I15
ag18
ag13
aa(lp147
I15
ag20
ag16
aaasba(ihelper
PossibleWorld
p148
(dp149
g3
I16
sg4
I0
sg5
(lp150
(lp151
(lp152
I16
ag9
ag10
aa(lp153
I16
ag12
ag36
aa(lp154
I16
ag15
ag10
aa(lp155
I16
ag18
ag13
aa(lp156
I16
ag20
ag16
aaasba(ihelper
PossibleWorld
p157
(dp158
g3
I17
sg4
I0
sg5
(lp159
(lp160
(lp161
I17
ag9
ag10
aa(lp162
I17
ag12
ag13
aa(lp163
I17
ag15
ag16
aa(lp164
I17
ag18
ag13
aa(lp165
I17
ag20
ag16
aaasba(ihelper
PossibleWorld
p166
(dp167
g3
I18
sg4
I0
sg5
(lp168
(lp169
(lp170
I18
ag9
ag10
aa(lp171
I18
ag12
ag13
aa(lp172
I18
ag15
ag36
aa(lp173
I18
ag18
ag13
aa(lp174
I18
ag20
ag16
aaasba(ihelper
PossibleWorld
p175
(dp176
g3
I19
sg4
I0
sg5
(lp177
(lp178
(lp179
I19
ag9
ag10
aa(lp180
I19
ag12
ag13
aa(lp181
I19
ag15
ag10
aa(lp182
I19
ag18
ag13
aa(lp183
I19
ag20
ag16
aaasba(ihelper
PossibleWorld
p184
(dp185
g3
I20
sg4
I0
sg5
(lp186
(lp187
(lp188
I20
ag12
ag10
aa(lp189
I20
ag9
ag13
aa(lp190
I20
ag15
ag16
aa(lp191
I20
ag18
ag13
aa(lp192
I20
ag20
ag16
aaasba(ihelper
PossibleWorld
p193
(dp194
g3
I21
sg4
I0
sg5
(lp195
(lp196
(lp197
I21
ag9
ag13
aa(lp198
I21
ag12
ag36
aa(lp199
I21
ag15
ag16
aa(lp200
I21
ag18
ag13
aa(lp201
I21
ag20
ag16
aaasba(ihelper
PossibleWorld
p202
(dp203
g3
I22
sg4
I0
sg5
(lp204
(lp205
(lp206
I22
ag9
ag13
aa(lp207
I22
ag12
ag36
aa(lp208
I22
ag15
ag10
aa(lp209
I22
ag18
ag13
aa(lp210
I22
ag20
ag16
aaasba(ihelper
PossibleWorld
p211
(dp212
g3
I23
sg4
I0
sg5
(lp213
(lp214
(lp215
I23
ag12
ag10
aa(lp216
I23
ag9
ag13
aa(lp217
I23
ag15
ag36
aa(lp218
I23
ag18
ag13
aa(lp219
I23
ag20
ag16
aaasba(ihelper
PossibleWorld
p220
(dp221
g3
I24
sg4
I0
sg5
(lp222
(lp223
(lp224
I24
ag12
ag10
aa(lp225
I24
ag9
ag36
aa(lp226
I24
ag15
ag16
aa(lp227
I24
ag18
ag13
aa(lp228
I24
ag20
ag16
aaasba(ihelper
PossibleWorld
p229
(dp230
g3
I25
sg4
I0
sg5
(lp231
(lp232
(lp233
I25
ag12
ag13
aa(lp234
I25
ag9
ag36
aa(lp235
I25
ag15
ag16
aa(lp236
I25
ag18
ag13
aa(lp237
I25
ag20
ag16
aaasba(ihelper
PossibleWorld
p238
(dp239
g3
I26
sg4
I0
sg5
(lp240
(lp241
(lp242
I26
ag12
ag13
aa(lp243
I26
ag9
ag36
aa(lp244
I26
ag15
ag10
aa(lp245
I26
ag18
ag13
aa(lp246
I26
ag20
ag16
aaasba(ihelper
PossibleWorld
p247
(dp248
g3
I27
sg4
I0
sg5
(lp249
(lp250
(lp251
I27
ag12
ag10
aa(lp252
I27
ag9
ag36
aa(lp253
I27
ag15
ag36
aa(lp254
I27
ag18
ag13
aa(lp255
I27
ag20
ag16
aaasba(ihelper
PossibleWorld
p256
(dp257
g3
I28
sg4
I0
sg5
(lp258
(lp259
(lp260
I28
ag12
ag13
aa(lp261
I28
ag9
ag36
aa(lp262
I28
ag15
ag36
aa(lp263
I28
ag18
ag13
aa(lp264
I28
ag20
ag16
aaasba(ihelper
PossibleWorld
p265
(dp266
g3
I29
sg4
I0
sg5
(lp267
(lp268
(lp269
I29
ag12
ag10
aa(lp270
I29
ag9
ag36
aa(lp271
I29
ag15
ag13
aa(lp272
I29
ag18
ag36
aa(lp273
I29
ag20
ag16
aaasba(ihelper
PossibleWorld
p274
(dp275
g3
I30
sg4
I0
sg5
(lp276
(lp277
(lp278
I30
ag12
ag10
aa(lp279
I30
ag9
ag36
aa(lp280
I30
ag15
ag16
aa(lp281
I30
ag18
ag36
aa(lp282
I30
ag20
ag16
aaasba(ihelper
PossibleWorld
p283
(dp284
g3
I31
sg4
I0
sg5
(lp285
(lp286
(lp287
I31
ag9
ag10
aa(lp288
I31
ag12
ag36
aa(lp289
I31
ag15
ag13
aa(lp290
I31
ag18
ag36
aa(lp291
I31
ag20
ag16
aaasba(ihelper
PossibleWorld
p292
(dp293
g3
I32
sg4
I0
sg5
(lp294
(lp295
(lp296
I32
ag9
ag10
aa(lp297
I32
ag12
ag36
aa(lp298
I32
ag15
ag10
aa(lp299
I32
ag18
ag36
aa(lp300
I32
ag20
ag16
aaasba(ihelper
PossibleWorld
p301
(dp302
g3
I33
sg4
I0
sg5
(lp303
(lp304
(lp305
I33
ag9
ag10
aa(lp306
I33
ag12
ag36
aa(lp307
I33
ag15
ag16
aa(lp308
I33
ag18
ag36
aa(lp309
I33
ag20
ag16
aaasba(ihelper
PossibleWorld
p310
(dp311
g3
I34
sg4
I0
sg5
(lp312
(lp313
(lp314
I34
ag12
ag10
aa(lp315
I34
ag9
ag13
aa(lp316
I34
ag15
ag13
aa(lp317
I34
ag18
ag36
aa(lp318
I34
ag20
ag16
aaasba(ihelper
PossibleWorld
p319
(dp320
g3
I35
sg4
I0
sg5
(lp321
(lp322
(lp323
I35
ag9
ag13
aa(lp324
I35
ag12
ag36
aa(lp325
I35
ag15
ag13
aa(lp326
I35
ag18
ag36
aa(lp327
I35
ag20
ag16
aaasba(ihelper
PossibleWorld
p328
(dp329
g3
I36
sg4
I0
sg5
(lp330
(lp331
(lp332
I36
ag12
ag10
aa(lp333
I36
ag9
ag13
aa(lp334
I36
ag15
ag16
aa(lp335
I36
ag18
ag36
aa(lp336
I36
ag20
ag16
aaasba(ihelper
PossibleWorld
p337
(dp338
g3
I37
sg4
I0
sg5
(lp339
(lp340
(lp341
I37
ag9
ag13
aa(lp342
I37
ag12
ag36
aa(lp343
I37
ag15
ag16
aa(lp344
I37
ag18
ag36
aa(lp345
I37
ag20
ag16
aaasba(ihelper
PossibleWorld
p346
(dp347
g3
I38
sg4
I0
sg5
(lp348
(lp349
(lp350
I38
ag9
ag13
aa(lp351
I38
ag12
ag36
aa(lp352
I38
ag15
ag10
aa(lp353
I38
ag18
ag36
aa(lp354
I38
ag20
ag16
aaasba(ihelper
PossibleWorld
p355
(dp356
g3
I39
sg4
I0
sg5
(lp357
(lp358
(lp359
I39
ag9
ag10
aa(lp360
I39
ag12
ag13
aa(lp361
I39
ag15
ag16
aa(lp362
I39
ag18
ag36
aa(lp363
I39
ag20
ag16
aaasba(ihelper
PossibleWorld
p364
(dp365
g3
I40
sg4
I0
sg5
(lp366
(lp367
(lp368
I40
ag9
ag10
aa(lp369
I40
ag12
ag13
aa(lp370
I40
ag15
ag10
aa(lp371
I40
ag18
ag36
aa(lp372
I40
ag20
ag16
aaasba(ihelper
PossibleWorld
p373
(dp374
g3
I41
sg4
I0
sg5
(lp375
(lp376
(lp377
I41
ag12
ag13
aa(lp378
I41
ag9
ag36
aa(lp379
I41
ag15
ag16
aa(lp380
I41
ag18
ag36
aa(lp381
I41
ag20
ag16
aaasba(ihelper
PossibleWorld
p382
(dp383
g3
I42
sg4
I0
sg5
(lp384
(lp385
(lp386
I42
ag12
ag13
aa(lp387
I42
ag9
ag36
aa(lp388
I42
ag15
ag10
aa(lp389
I42
ag18
ag36
aa(lp390
I42
ag20
ag16
aaasba(ihelper
PossibleWorld
p391
(dp392
g3
I43
sg4
I0
sg5
(lp393
(lp394
(lp395
I43
ag9
ag16
aa(lp396
I43
ag12
ag10
aa(lp397
I43
ag15
ag13
aa(lp398
I43
ag18
ag16
aa(lp399
I43
ag20
ag10
aaasba(ihelper
PossibleWorld
p400
(dp401
g3
I44
sg4
I0
sg5
(lp402
(lp403
(lp404
I44
ag12
ag10
aa(lp405
I44
ag9
ag36
aa(lp406
I44
ag15
ag13
aa(lp407
I44
ag18
ag16
aa(lp408
I44
ag20
ag10
aaasba(ihelper
PossibleWorld
p409
(dp410
g3
I45
sg4
I0
sg5
(lp411
(lp412
(lp413
I45
ag9
ag16
aa(lp414
I45
ag12
ag10
aa(lp415
I45
ag15
ag13
aa(lp416
I45
ag18
ag36
aa(lp417
I45
ag20
ag10
aaasba(ihelper
PossibleWorld
p418
(dp419
g3
I46
sg4
I0
sg5
(lp420
(lp421
(lp422
I46
ag9
ag16
aa(lp423
I46
ag12
ag10
aa(lp424
I46
ag15
ag16
aa(lp425
I46
ag18
ag36
aa(lp426
I46
ag20
ag10
aaasba(ihelper
PossibleWorld
p427
(dp428
g3
I47
sg4
I0
sg5
(lp429
(lp430
(lp431
I47
ag12
ag10
aa(lp432
I47
ag9
ag36
aa(lp433
I47
ag15
ag13
aa(lp434
I47
ag18
ag36
aa(lp435
I47
ag20
ag10
aaasba(ihelper
PossibleWorld
p436
(dp437
g3
I48
sg4
I0
sg5
(lp438
(lp439
(lp440
I48
ag12
ag10
aa(lp441
I48
ag9
ag36
aa(lp442
I48
ag15
ag16
aa(lp443
I48
ag18
ag36
aa(lp444
I48
ag20
ag10
aaasba(ihelper
PossibleWorld
p445
(dp446
g3
I49
sg4
I0
sg5
(lp447
(lp448
(lp449
I49
ag9
ag16
aa(lp450
I49
ag12
ag10
aa(lp451
I49
ag15
ag36
aa(lp452
I49
ag18
ag16
aa(lp453
I49
ag20
ag10
aaasba(ihelper
PossibleWorld
p454
(dp455
g3
I50
sg4
I0
sg5
(lp456
(lp457
(lp458
I50
ag12
ag10
aa(lp459
I50
ag9
ag36
aa(lp460
I50
ag15
ag36
aa(lp461
I50
ag18
ag16
aa(lp462
I50
ag20
ag10
aaasba(ihelper
PossibleWorld
p463
(dp464
g3
I51
sg4
I0
sg5
(lp465
(lp466
(lp467
I51
ag9
ag16
aa(lp468
I51
ag12
ag10
aa(lp469
I51
ag15
ag36
aa(lp470
I51
ag18
ag13
aa(lp471
I51
ag20
ag10
aaasba(ihelper
PossibleWorld
p472
(dp473
g3
I52
sg4
I0
sg5
(lp474
(lp475
(lp476
I52
ag9
ag16
aa(lp477
I52
ag12
ag10
aa(lp478
I52
ag15
ag16
aa(lp479
I52
ag18
ag13
aa(lp480
I52
ag20
ag10
aaasba(ihelper
PossibleWorld
p481
(dp482
g3
I53
sg4
I0
sg5
(lp483
(lp484
(lp485
I53
ag12
ag10
aa(lp486
I53
ag9
ag36
aa(lp487
I53
ag15
ag36
aa(lp488
I53
ag18
ag13
aa(lp489
I53
ag20
ag10
aaasba(ihelper
PossibleWorld
p490
(dp491
g3
I54
sg4
I0
sg5
(lp492
(lp493
(lp494
I54
ag12
ag10
aa(lp495
I54
ag9
ag36
aa(lp496
I54
ag15
ag16
aa(lp497
I54
ag18
ag13
aa(lp498
I54
ag20
ag10
aaasba(ihelper
PossibleWorld
p499
(dp500
g3
I55
sg4
I0
sg5
(lp501
(lp502
(lp503
I55
ag9
ag16
aa(lp504
I55
ag12
ag13
aa(lp505
I55
ag15
ag36
aa(lp506
I55
ag18
ag13
aa(lp507
I55
ag20
ag10
aaasba(ihelper
PossibleWorld
p508
(dp509
g3
I56
sg4
I0
sg5
(lp510
(lp511
(lp512
I56
ag12
ag13
aa(lp513
I56
ag9
ag36
aa(lp514
I56
ag15
ag36
aa(lp515
I56
ag18
ag13
aa(lp516
I56
ag20
ag10
aaasba(ihelper
PossibleWorld
p517
(dp518
g3
I57
sg4
I0
sg5
(lp519
(lp520
(lp521
I57
ag9
ag16
aa(lp522
I57
ag12
ag13
aa(lp523
I57
ag15
ag36
aa(lp524
I57
ag18
ag16
aa(lp525
I57
ag20
ag10
aaasba(ihelper
PossibleWorld
p526
(dp527
g3
I58
sg4
I0
sg5
(lp528
(lp529
(lp530
I58
ag12
ag13
aa(lp531
I58
ag9
ag36
aa(lp532
I58
ag15
ag36
aa(lp533
I58
ag18
ag16
aa(lp534
I58
ag20
ag10
aaasba(ihelper
PossibleWorld
p535
(dp536
g3
I59
sg4
I0
sg5
(lp537
(lp538
(lp539
I59
ag9
ag16
aa(lp540
I59
ag12
ag13
aa(lp541
I59
ag15
ag16
aa(lp542
I59
ag18
ag13
aa(lp543
I59
ag20
ag10
aaasba(ihelper
PossibleWorld
p544
(dp545
g3
I60
sg4
I0
sg5
(lp546
(lp547
(lp548
I60
ag9
ag16
aa(lp549
I60
ag12
ag13
aa(lp550
I60
ag15
ag16
aa(lp551
I60
ag18
ag36
aa(lp552
I60
ag20
ag10
aaasba(ihelper
PossibleWorld
p553
(dp554
g3
I61
sg4
I0
sg5
(lp555
(lp556
(lp557
I61
ag12
ag13
aa(lp558
I61
ag9
ag36
aa(lp559
I61
ag15
ag16
aa(lp560
I61
ag18
ag13
aa(lp561
I61
ag20
ag10
aaasba(ihelper
PossibleWorld
p562
(dp563
g3
I62
sg4
I0
sg5
(lp564
(lp565
(lp566
I62
ag12
ag13
aa(lp567
I62
ag9
ag36
aa(lp568
I62
ag15
ag16
aa(lp569
I62
ag18
ag36
aa(lp570
I62
ag20
ag10
aaasba(ihelper
PossibleWorld
p571
(dp572
g3
I63
sg4
I0
sg5
(lp573
(lp574
(lp575
I63
ag12
ag10
aa(lp576
I63
ag9
ag13
aa(lp577
I63
ag15
ag36
aa(lp578
I63
ag18
ag13
aa(lp579
I63
ag20
ag10
aaasba(ihelper
PossibleWorld
p580
(dp581
g3
I64
sg4
I0
sg5
(lp582
(lp583
(lp584
I64
ag12
ag10
aa(lp585
I64
ag9
ag13
aa(lp586
I64
ag15
ag16
aa(lp587
I64
ag18
ag13
aa(lp588
I64
ag20
ag10
aaasba(ihelper
PossibleWorld
p589
(dp590
g3
I65
sg4
I0
sg5
(lp591
(lp592
(lp593
I65
ag12
ag10
aa(lp594
I65
ag9
ag13
aa(lp595
I65
ag15
ag13
aa(lp596
I65
ag18
ag16
aa(lp597
I65
ag20
ag10
aaasba(ihelper
PossibleWorld
p598
(dp599
g3
I66
sg4
I0
sg5
(lp600
(lp601
(lp602
I66
ag12
ag10
aa(lp603
I66
ag9
ag13
aa(lp604
I66
ag15
ag36
aa(lp605
I66
ag18
ag16
aa(lp606
I66
ag20
ag10
aaasba(ihelper
PossibleWorld
p607
(dp608
g3
I67
sg4
I0
sg5
(lp609
(lp610
(lp611
I67
ag12
ag10
aa(lp612
I67
ag9
ag13
aa(lp613
I67
ag15
ag13
aa(lp614
I67
ag18
ag36
aa(lp615
I67
ag20
ag10
aaasba(ihelper
PossibleWorld
p616
(dp617
g3
I68
sg4
I0
sg5
(lp618
(lp619
(lp620
I68
ag12
ag10
aa(lp621
I68
ag9
ag13
aa(lp622
I68
ag15
ag16
aa(lp623
I68
ag18
ag36
aa(lp624
I68
ag20
ag10
aaasba(ihelper
PossibleWorld
p625
(dp626
g3
I69
sg4
I0
sg5
(lp627
(lp628
(lp629
I69
ag9
ag16
aa(lp630
I69
ag12
ag36
aa(lp631
I69
ag15
ag13
aa(lp632
I69
ag18
ag36
aa(lp633
I69
ag20
ag10
aaasba(ihelper
PossibleWorld
p634
(dp635
g3
I70
sg4
I0
sg5
(lp636
(lp637
(lp638
I70
ag9
ag16
aa(lp639
I70
ag12
ag36
aa(lp640
I70
ag15
ag13
aa(lp641
I70
ag18
ag16
aa(lp642
I70
ag20
ag10
aaasba(ihelper
PossibleWorld
p643
(dp644
g3
I71
sg4
I0
sg5
(lp645
(lp646
(lp647
I71
ag9
ag13
aa(lp648
I71
ag12
ag36
aa(lp649
I71
ag15
ag13
aa(lp650
I71
ag18
ag36
aa(lp651
I71
ag20
ag10
aaasba(ihelper
PossibleWorld
p652
(dp653
g3
I72
sg4
I0
sg5
(lp654
(lp655
(lp656
I72
ag9
ag13
aa(lp657
I72
ag12
ag36
aa(lp658
I72
ag15
ag13
aa(lp659
I72
ag18
ag16
aa(lp660
I72
ag20
ag10
aaasba(ihelper
PossibleWorld
p661
(dp662
g3
I73
sg4
I0
sg5
(lp663
(lp664
(lp665
I73
ag9
ag16
aa(lp666
I73
ag12
ag36
aa(lp667
I73
ag15
ag16
aa(lp668
I73
ag18
ag13
aa(lp669
I73
ag20
ag10
aaasba(ihelper
PossibleWorld
p670
(dp671
g3
I74
sg4
I0
sg5
(lp672
(lp673
(lp674
I74
ag9
ag16
aa(lp675
I74
ag12
ag36
aa(lp676
I74
ag15
ag16
aa(lp677
I74
ag18
ag36
aa(lp678
I74
ag20
ag10
aaasba(ihelper
PossibleWorld
p679
(dp680
g3
I75
sg4
I0
sg5
(lp681
(lp682
(lp683
I75
ag9
ag13
aa(lp684
I75
ag12
ag36
aa(lp685
I75
ag15
ag16
aa(lp686
I75
ag18
ag13
aa(lp687
I75
ag20
ag10
aaasba(ihelper
PossibleWorld
p688
(dp689
g3
I76
sg4
I0
sg5
(lp690
(lp691
(lp692
I76
ag9
ag13
aa(lp693
I76
ag12
ag36
aa(lp694
I76
ag15
ag16
aa(lp695
I76
ag18
ag36
aa(lp696
I76
ag20
ag10
aaasba(ihelper
PossibleWorld
p697
(dp698
g3
I77
sg4
I0
sg5
(lp699
(lp700
(lp701
I77
ag9
ag16
aa(lp702
I77
ag12
ag36
aa(lp703
I77
ag15
ag10
aa(lp704
I77
ag18
ag13
aa(lp705
I77
ag20
ag10
aaasba(ihelper
PossibleWorld
p706
(dp707
g3
I78
sg4
I0
sg5
(lp708
(lp709
(lp710
I78
ag9
ag13
aa(lp711
I78
ag12
ag36
aa(lp712
I78
ag15
ag10
aa(lp713
I78
ag18
ag13
aa(lp714
I78
ag20
ag10
aaasba(ihelper
PossibleWorld
p715
(dp716
g3
I79
sg4
I0
sg5
(lp717
(lp718
(lp719
I79
ag9
ag16
aa(lp720
I79
ag12
ag13
aa(lp721
I79
ag15
ag10
aa(lp722
I79
ag18
ag13
aa(lp723
I79
ag20
ag10
aaasba(ihelper
PossibleWorld
p724
(dp725
g3
I80
sg4
I0
sg5
(lp726
(lp727
(lp728
I80
ag12
ag13
aa(lp729
I80
ag9
ag36
aa(lp730
I80
ag15
ag10
aa(lp731
I80
ag18
ag13
aa(lp732
I80
ag20
ag10
aaasba(ihelper
PossibleWorld
p733
(dp734
g3
I81
sg4
I0
sg5
(lp735
(lp736
(lp737
I81
ag9
ag16
aa(lp738
I81
ag12
ag13
aa(lp739
I81
ag15
ag10
aa(lp740
I81
ag18
ag16
aa(lp741
I81
ag20
ag10
aaasba(ihelper
PossibleWorld
p742
(dp743
g3
I82
sg4
I0
sg5
(lp744
(lp745
(lp746
I82
ag9
ag16
aa(lp747
I82
ag12
ag36
aa(lp748
I82
ag15
ag10
aa(lp749
I82
ag18
ag16
aa(lp750
I82
ag20
ag10
aaasba(ihelper
PossibleWorld
p751
(dp752
g3
I83
sg4
I0
sg5
(lp753
(lp754
(lp755
I83
ag9
ag13
aa(lp756
I83
ag12
ag36
aa(lp757
I83
ag15
ag10
aa(lp758
I83
ag18
ag16
aa(lp759
I83
ag20
ag10
aaasba(ihelper
PossibleWorld
p760
(dp761
g3
I84
sg4
I0
sg5
(lp762
(lp763
(lp764
I84
ag12
ag13
aa(lp765
I84
ag9
ag36
aa(lp766
I84
ag15
ag10
aa(lp767
I84
ag18
ag16
aa(lp768
I84
ag20
ag10
aaasba(ihelper
PossibleWorld
p769
(dp770
g3
I85
sg4
I0
sg5
(lp771
(lp772
(lp773
I85
ag9
ag16
aa(lp774
I85
ag12
ag13
aa(lp775
I85
ag15
ag10
aa(lp776
I85
ag18
ag36
aa(lp777
I85
ag20
ag10
aaasba(ihelper
PossibleWorld
p778
(dp779
g3
I86
sg4
I0
sg5
(lp780
(lp781
(lp782
I86
ag12
ag13
aa(lp783
I86
ag9
ag36
aa(lp784
I86
ag15
ag10
aa(lp785
I86
ag18
ag36
aa(lp786
I86
ag20
ag10
aaasba(ihelper
PossibleWorld
p787
(dp788
g3
I87
sg4
I0
sg5
(lp789
(lp790
(lp791
I87
ag9
ag16
aa(lp792
I87
ag12
ag36
aa(lp793
I87
ag15
ag10
aa(lp794
I87
ag18
ag36
aa(lp795
I87
ag20
ag10
aaasba(ihelper
PossibleWorld
p796
(dp797
g3
I88
sg4
I0
sg5
(lp798
(lp799
(lp800
I88
ag9
ag13
aa(lp801
I88
ag12
ag36
aa(lp802
I88
ag15
ag10
aa(lp803
I88
ag18
ag36
aa(lp804
I88
ag20
ag10
aaasba(ihelper
PossibleWorld
p805
(dp806
g3
I89
sg4
I0
sg5
(lp807
(lp808
(lp809
I89
ag9
ag16
aa(lp810
I89
ag12
ag10
aa(lp811
I89
ag15
ag13
aa(lp812
I89
ag18
ag10
aa(lp813
I89
ag20
ag13
aaasba(ihelper
PossibleWorld
p814
(dp815
g3
I90
sg4
I0
sg5
(lp816
(lp817
(lp818
I90
ag9
ag16
aa(lp819
I90
ag12
ag10
aa(lp820
I90
ag15
ag16
aa(lp821
I90
ag18
ag10
aa(lp822
I90
ag20
ag13
aaasba(ihelper
PossibleWorld
p823
(dp824
g3
I91
sg4
I0
sg5
(lp825
(lp826
(lp827
I91
ag9
ag16
aa(lp828
I91
ag12
ag13
aa(lp829
I91
ag15
ag16
aa(lp830
I91
ag18
ag10
aa(lp831
I91
ag20
ag13
aaasba(ihelper
PossibleWorld
p832
(dp833
g3
I92
sg4
I0
sg5
(lp834
(lp835
(lp836
I92
ag9
ag10
aa(lp837
I92
ag12
ag13
aa(lp838
I92
ag15
ag16
aa(lp839
I92
ag18
ag10
aa(lp840
I92
ag20
ag13
aaasba(ihelper
PossibleWorld
p841
(dp842
g3
I93
sg4
I0
sg5
(lp843
(lp844
(lp845
I93
ag9
ag16
aa(lp846
I93
ag12
ag10
aa(lp847
I93
ag15
ag36
aa(lp848
I93
ag18
ag10
aa(lp849
I93
ag20
ag13
aaasba(ihelper
PossibleWorld
p850
(dp851
g3
I94
sg4
I0
sg5
(lp852
(lp853
(lp854
I94
ag9
ag16
aa(lp855
I94
ag12
ag13
aa(lp856
I94
ag15
ag36
aa(lp857
I94
ag18
ag10
aa(lp858
I94
ag20
ag13
aaasba(ihelper
PossibleWorld
p859
(dp860
g3
I95
sg4
I0
sg5
(lp861
(lp862
(lp863
I95
ag9
ag10
aa(lp864
I95
ag12
ag13
aa(lp865
I95
ag15
ag36
aa(lp866
I95
ag18
ag10
aa(lp867
I95
ag20
ag13
aaasba(ihelper
PossibleWorld
p868
(dp869
g3
I96
sg4
I0
sg5
(lp870
(lp871
(lp872
I96
ag9
ag16
aa(lp873
I96
ag12
ag10
aa(lp874
I96
ag15
ag16
aa(lp875
I96
ag18
ag36
aa(lp876
I96
ag20
ag13
aaasba(ihelper
PossibleWorld
p877
(dp878
g3
I97
sg4
I0
sg5
(lp879
(lp880
(lp881
I97
ag9
ag16
aa(lp882
I97
ag12
ag10
aa(lp883
I97
ag15
ag13
aa(lp884
I97
ag18
ag36
aa(lp885
I97
ag20
ag13
aaasba(ihelper
PossibleWorld
p886
(dp887
g3
I98
sg4
I0
sg5
(lp888
(lp889
(lp890
I98
ag9
ag16
aa(lp891
I98
ag12
ag13
aa(lp892
I98
ag15
ag16
aa(lp893
I98
ag18
ag36
aa(lp894
I98
ag20
ag13
aaasba(ihelper
PossibleWorld
p895
(dp896
g3
I99
sg4
I0
sg5
(lp897
(lp898
(lp899
I99
ag9
ag10
aa(lp900
I99
ag12
ag13
aa(lp901
I99
ag15
ag16
aa(lp902
I99
ag18
ag36
aa(lp903
I99
ag20
ag13
aaasba(ihelper
PossibleWorld
p904
(dp905
g3
I100
sg4
I0
sg5
(lp906
(lp907
(lp908
I100
ag9
ag16
aa(lp909
I100
ag12
ag13
aa(lp910
I100
ag15
ag10
aa(lp911
I100
ag18
ag36
aa(lp912
I100
ag20
ag13
aaasba(ihelper
PossibleWorld
p913
(dp914
g3
I101
sg4
I0
sg5
(lp915
(lp916
(lp917
I101
ag9
ag10
aa(lp918
I101
ag12
ag13
aa(lp919
I101
ag15
ag10
aa(lp920
I101
ag18
ag36
aa(lp921
I101
ag20
ag13
aaasba(ihelper
PossibleWorld
p922
(dp923
g3
I102
sg4
I0
sg5
(lp924
(lp925
(lp926
I102
ag9
ag16
aa(lp927
I102
ag12
ag10
aa(lp928
I102
ag15
ag36
aa(lp929
I102
ag18
ag16
aa(lp930
I102
ag20
ag13
aaasba(ihelper
PossibleWorld
p931
(dp932
g3
I103
sg4
I0
sg5
(lp933
(lp934
(lp935
I103
ag9
ag16
aa(lp936
I103
ag12
ag13
aa(lp937
I103
ag15
ag36
aa(lp938
I103
ag18
ag16
aa(lp939
I103
ag20
ag13
aaasba(ihelper
PossibleWorld
p940
(dp941
g3
I104
sg4
I0
sg5
(lp942
(lp943
(lp944
I104
ag9
ag16
aa(lp945
I104
ag12
ag13
aa(lp946
I104
ag15
ag10
aa(lp947
I104
ag18
ag16
aa(lp948
I104
ag20
ag13
aaasba(ihelper
PossibleWorld
p949
(dp950
g3
I105
sg4
I0
sg5
(lp951
(lp952
(lp953
I105
ag9
ag16
aa(lp954
I105
ag12
ag10
aa(lp955
I105
ag15
ag13
aa(lp956
I105
ag18
ag16
aa(lp957
I105
ag20
ag13
aaasba(ihelper
PossibleWorld
p958
(dp959
g3
I106
sg4
I0
sg5
(lp960
(lp961
(lp962
I106
ag9
ag10
aa(lp963
I106
ag12
ag13
aa(lp964
I106
ag15
ag36
aa(lp965
I106
ag18
ag16
aa(lp966
I106
ag20
ag13
aaasba(ihelper
PossibleWorld
p967
(dp968
g3
I107
sg4
I0
sg5
(lp969
(lp970
(lp971
I107
ag9
ag10
aa(lp972
I107
ag12
ag13
aa(lp973
I107
ag15
ag10
aa(lp974
I107
ag18
ag16
aa(lp975
I107
ag20
ag13
aaasba(ihelper
PossibleWorld
p976
(dp977
g3
I108
sg4
I0
sg5
(lp978
(lp979
(lp980
I108
ag9
ag16
aa(lp981
I108
ag12
ag36
aa(lp982
I108
ag15
ag16
aa(lp983
I108
ag18
ag10
aa(lp984
I108
ag20
ag13
aaasba(ihelper
PossibleWorld
p985
(dp986
g3
I109
sg4
I0
sg5
(lp987
(lp988
(lp989
I109
ag9
ag16
aa(lp990
I109
ag12
ag36
aa(lp991
I109
ag15
ag16
aa(lp992
I109
ag18
ag36
aa(lp993
I109
ag20
ag13
aaasba(ihelper
PossibleWorld
p994
(dp995
g3
I110
sg4
I0
sg5
(lp996
(lp997
(lp998
I110
ag9
ag10
aa(lp999
I110
ag12
ag36
aa(lp1000
I110
ag15
ag16
aa(lp1001
I110
ag18
ag10
aa(lp1002
I110
ag20
ag13
aaasba(ihelper
PossibleWorld
p1003
(dp1004
g3
I111
sg4
I0
sg5
(lp1005
(lp1006
(lp1007
I111
ag9
ag10
aa(lp1008
I111
ag12
ag36
aa(lp1009
I111
ag15
ag16
aa(lp1010
I111
ag18
ag36
aa(lp1011
I111
ag20
ag13
aaasba(ihelper
PossibleWorld
p1012
(dp1013
g3
I112
sg4
I0
sg5
(lp1014
(lp1015
(lp1016
I112
ag9
ag16
aa(lp1017
I112
ag12
ag36
aa(lp1018
I112
ag15
ag13
aa(lp1019
I112
ag18
ag16
aa(lp1020
I112
ag20
ag13
aaasba(ihelper
PossibleWorld
p1021
(dp1022
g3
I113
sg4
I0
sg5
(lp1023
(lp1024
(lp1025
I113
ag9
ag16
aa(lp1026
I113
ag12
ag36
aa(lp1027
I113
ag15
ag13
aa(lp1028
I113
ag18
ag10
aa(lp1029
I113
ag20
ag13
aaasba(ihelper
PossibleWorld
p1030
(dp1031
g3
I114
sg4
I0
sg5
(lp1032
(lp1033
(lp1034
I114
ag9
ag10
aa(lp1035
I114
ag12
ag36
aa(lp1036
I114
ag15
ag13
aa(lp1037
I114
ag18
ag16
aa(lp1038
I114
ag20
ag13
aaasba(ihelper
PossibleWorld
p1039
(dp1040
g3
I115
sg4
I0
sg5
(lp1041
(lp1042
(lp1043
I115
ag9
ag10
aa(lp1044
I115
ag12
ag36
aa(lp1045
I115
ag15
ag13
aa(lp1046
I115
ag18
ag10
aa(lp1047
I115
ag20
ag13
aaasba(ihelper
PossibleWorld
p1048
(dp1049
g3
I116
sg4
I0
sg5
(lp1050
(lp1051
(lp1052
I116
ag9
ag16
aa(lp1053
I116
ag12
ag36
aa(lp1054
I116
ag15
ag13
aa(lp1055
I116
ag18
ag36
aa(lp1056
I116
ag20
ag13
aaasba(ihelper
PossibleWorld
p1057
(dp1058
g3
I117
sg4
I0
sg5
(lp1059
(lp1060
(lp1061
I117
ag9
ag10
aa(lp1062
I117
ag12
ag36
aa(lp1063
I117
ag15
ag13
aa(lp1064
I117
ag18
ag36
aa(lp1065
I117
ag20
ag13
aaasba(ihelper
PossibleWorld
p1066
(dp1067
g3
I118
sg4
I0
sg5
(lp1068
(lp1069
(lp1070
I118
ag9
ag16
aa(lp1071
I118
ag12
ag36
aa(lp1072
I118
ag15
ag10
aa(lp1073
I118
ag18
ag16
aa(lp1074
I118
ag20
ag13
aaasba(ihelper
PossibleWorld
p1075
(dp1076
g3
I119
sg4
I0
sg5
(lp1077
(lp1078
(lp1079
I119
ag9
ag16
aa(lp1080
I119
ag12
ag36
aa(lp1081
I119
ag15
ag10
aa(lp1082
I119
ag18
ag36
aa(lp1083
I119
ag20
ag13
aaasba(ihelper
PossibleWorld
p1084
(dp1085
g3
I120
sg4
I0
sg5
(lp1086
(lp1087
(lp1088
I120
ag9
ag10
aa(lp1089
I120
ag12
ag36
aa(lp1090
I120
ag15
ag10
aa(lp1091
I120
ag18
ag16
aa(lp1092
I120
ag20
ag13
aaasba(ihelper
PossibleWorld
p1093
(dp1094
g3
I121
sg4
I0
sg5
(lp1095
(lp1096
(lp1097
I121
ag9
ag10
aa(lp1098
I121
ag12
ag36
aa(lp1099
I121
ag15
ag10
aa(lp1100
I121
ag18
ag36
aa(lp1101
I121
ag20
ag13
aaasba(ihelper
PossibleWorld
p1102
(dp1103
g3
I122
sg4
I0
sg5
(lp1104
(lp1105
(lp1106
I122
ag12
ag10
aa(lp1107
I122
ag9
ag36
aa(lp1108
I122
ag15
ag36
aa(lp1109
I122
ag18
ag16
aa(lp1110
I122
ag20
ag13
aaasba(ihelper
PossibleWorld
p1111
(dp1112
g3
I123
sg4
I0
sg5
(lp1113
(lp1114
(lp1115
I123
ag12
ag10
aa(lp1116
I123
ag9
ag36
aa(lp1117
I123
ag15
ag13
aa(lp1118
I123
ag18
ag16
aa(lp1119
I123
ag20
ag13
aaasba(ihelper
PossibleWorld
p1120
(dp1121
g3
I124
sg4
I0
sg5
(lp1122
(lp1123
(lp1124
I124
ag12
ag13
aa(lp1125
I124
ag9
ag36
aa(lp1126
I124
ag15
ag36
aa(lp1127
I124
ag18
ag16
aa(lp1128
I124
ag20
ag13
aaasba(ihelper
PossibleWorld
p1129
(dp1130
g3
I125
sg4
I0
sg5
(lp1131
(lp1132
(lp1133
I125
ag12
ag13
aa(lp1134
I125
ag9
ag36
aa(lp1135
I125
ag15
ag10
aa(lp1136
I125
ag18
ag16
aa(lp1137
I125
ag20
ag13
aaasba(ihelper
PossibleWorld
p1138
(dp1139
g3
I126
sg4
I0
sg5
(lp1140
(lp1141
(lp1142
I126
ag12
ag10
aa(lp1143
I126
ag9
ag36
aa(lp1144
I126
ag15
ag36
aa(lp1145
I126
ag18
ag10
aa(lp1146
I126
ag20
ag13
aaasba(ihelper
PossibleWorld
p1147
(dp1148
g3
I127
sg4
I0
sg5
(lp1149
(lp1150
(lp1151
I127
ag12
ag10
aa(lp1152
I127
ag9
ag36
aa(lp1153
I127
ag15
ag16
aa(lp1154
I127
ag18
ag10
aa(lp1155
I127
ag20
ag13
aaasba(ihelper
PossibleWorld
p1156
(dp1157
g3
I128
sg4
I0
sg5
(lp1158
(lp1159
(lp1160
I128
ag12
ag13
aa(lp1161
I128
ag9
ag36
aa(lp1162
I128
ag15
ag36
aa(lp1163
I128
ag18
ag10
aa(lp1164
I128
ag20
ag13
aaasba(ihelper
PossibleWorld
p1165
(dp1166
g3
I129
sg4
I0
sg5
(lp1167
(lp1168
(lp1169
I129
ag12
ag13
aa(lp1170
I129
ag9
ag36
aa(lp1171
I129
ag15
ag16
aa(lp1172
I129
ag18
ag10
aa(lp1173
I129
ag20
ag13
aaasba(ihelper
PossibleWorld
p1174
(dp1175
g3
I130
sg4
I0
sg5
(lp1176
(lp1177
(lp1178
I130
ag12
ag10
aa(lp1179
I130
ag9
ag36
aa(lp1180
I130
ag15
ag13
aa(lp1181
I130
ag18
ag10
aa(lp1182
I130
ag20
ag13
aaasba(ihelper
PossibleWorld
p1183
(dp1184
g3
I131
sg4
I0
sg5
(lp1185
(lp1186
(lp1187
I131
ag12
ag10
aa(lp1188
I131
ag9
ag36
aa(lp1189
I131
ag15
ag13
aa(lp1190
I131
ag18
ag36
aa(lp1191
I131
ag20
ag13
aaasba(ihelper
PossibleWorld
p1192
(dp1193
g3
I132
sg4
I0
sg5
(lp1194
(lp1195
(lp1196
I132
ag12
ag13
aa(lp1197
I132
ag9
ag36
aa(lp1198
I132
ag15
ag10
aa(lp1199
I132
ag18
ag36
aa(lp1200
I132
ag20
ag13
aaasba(ihelper
PossibleWorld
p1201
(dp1202
g3
I133
sg4
I0
sg5
(lp1203
(lp1204
(lp1205
I133
ag12
ag10
aa(lp1206
I133
ag9
ag36
aa(lp1207
I133
ag15
ag16
aa(lp1208
I133
ag18
ag36
aa(lp1209
I133
ag20
ag13
aaasba(ihelper
PossibleWorld
p1210
(dp1211
g3
I134
sg4
I0
sg5
(lp1212
(lp1213
(lp1214
I134
ag12
ag13
aa(lp1215
I134
ag9
ag36
aa(lp1216
I134
ag15
ag16
aa(lp1217
I134
ag18
ag36
aa(lp1218
I134
ag20
ag13
aaasba(ihelper
PossibleWorld
p1219
(dp1220
g3
I135
sg4
I0
sg5
(lp1221
(lp1222
(lp1223
I135
ag9
ag16
aa(lp1224
I135
ag12
ag10
aa(lp1225
I135
ag15
ag36
aa(lp1226
I135
ag18
ag13
aa(lp1227
I135
ag20
ag36
aaasba(ihelper
PossibleWorld
p1228
(dp1229
g3
I136
sg4
I0
sg5
(lp1230
(lp1231
(lp1232
I136
ag12
ag10
aa(lp1233
I136
ag9
ag13
aa(lp1234
I136
ag15
ag36
aa(lp1235
I136
ag18
ag13
aa(lp1236
I136
ag20
ag36
aaasba(ihelper
PossibleWorld
p1237
(dp1238
g3
I137
sg4
I0
sg5
(lp1239
(lp1240
(lp1241
I137
ag9
ag16
aa(lp1242
I137
ag12
ag10
aa(lp1243
I137
ag15
ag36
aa(lp1244
I137
ag18
ag16
aa(lp1245
I137
ag20
ag36
aaasba(ihelper
PossibleWorld
p1246
(dp1247
g3
I138
sg4
I0
sg5
(lp1248
(lp1249
(lp1250
I138
ag12
ag10
aa(lp1251
I138
ag9
ag13
aa(lp1252
I138
ag15
ag36
aa(lp1253
I138
ag18
ag16
aa(lp1254
I138
ag20
ag36
aaasba(ihelper
PossibleWorld
p1255
(dp1256
g3
I139
sg4
I0
sg5
(lp1257
(lp1258
(lp1259
I139
ag9
ag16
aa(lp1260
I139
ag12
ag10
aa(lp1261
I139
ag15
ag36
aa(lp1262
I139
ag18
ag10
aa(lp1263
I139
ag20
ag36
aaasba(ihelper
PossibleWorld
p1264
(dp1265
g3
I140
sg4
I0
sg5
(lp1266
(lp1267
(lp1268
I140
ag12
ag10
aa(lp1269
I140
ag9
ag13
aa(lp1270
I140
ag15
ag36
aa(lp1271
I140
ag18
ag10
aa(lp1272
I140
ag20
ag36
aaasba(ihelper
PossibleWorld
p1273
(dp1274
g3
I141
sg4
I0
sg5
(lp1275
(lp1276
(lp1277
I141
ag9
ag16
aa(lp1278
I141
ag12
ag10
aa(lp1279
I141
ag15
ag16
aa(lp1280
I141
ag18
ag13
aa(lp1281
I141
ag20
ag36
aaasba(ihelper
PossibleWorld
p1282
(dp1283
g3
I142
sg4
I0
sg5
(lp1284
(lp1285
(lp1286
I142
ag9
ag16
aa(lp1287
I142
ag12
ag10
aa(lp1288
I142
ag15
ag16
aa(lp1289
I142
ag18
ag10
aa(lp1290
I142
ag20
ag36
aaasba(ihelper
PossibleWorld
p1291
(dp1292
g3
I143
sg4
I0
sg5
(lp1293
(lp1294
(lp1295
I143
ag9
ag16
aa(lp1296
I143
ag12
ag36
aa(lp1297
I143
ag15
ag16
aa(lp1298
I143
ag18
ag13
aa(lp1299
I143
ag20
ag36
aaasba(ihelper
PossibleWorld
p1300
(dp1301
g3
I144
sg4
I0
sg5
(lp1302
(lp1303
(lp1304
I144
ag9
ag16
aa(lp1305
I144
ag12
ag36
aa(lp1306
I144
ag15
ag16
aa(lp1307
I144
ag18
ag10
aa(lp1308
I144
ag20
ag36
aaasba(ihelper
PossibleWorld
p1309
(dp1310
g3
I145
sg4
I0
sg5
(lp1311
(lp1312
(lp1313
I145
ag9
ag10
aa(lp1314
I145
ag12
ag36
aa(lp1315
I145
ag15
ag16
aa(lp1316
I145
ag18
ag13
aa(lp1317
I145
ag20
ag36
aaasba(ihelper
PossibleWorld
p1318
(dp1319
g3
I146
sg4
I0
sg5
(lp1320
(lp1321
(lp1322
I146
ag9
ag10
aa(lp1323
I146
ag12
ag36
aa(lp1324
I146
ag15
ag16
aa(lp1325
I146
ag18
ag10
aa(lp1326
I146
ag20
ag36
aaasba(ihelper
PossibleWorld
p1327
(dp1328
g3
I147
sg4
I0
sg5
(lp1329
(lp1330
(lp1331
I147
ag12
ag10
aa(lp1332
I147
ag9
ag13
aa(lp1333
I147
ag15
ag16
aa(lp1334
I147
ag18
ag13
aa(lp1335
I147
ag20
ag36
aaasba(ihelper
PossibleWorld
p1336
(dp1337
g3
I148
sg4
I0
sg5
(lp1338
(lp1339
(lp1340
I148
ag9
ag13
aa(lp1341
I148
ag12
ag36
aa(lp1342
I148
ag15
ag16
aa(lp1343
I148
ag18
ag13
aa(lp1344
I148
ag20
ag36
aaasba(ihelper
PossibleWorld
p1345
(dp1346
g3
I149
sg4
I0
sg5
(lp1347
(lp1348
(lp1349
I149
ag12
ag10
aa(lp1350
I149
ag9
ag13
aa(lp1351
I149
ag15
ag16
aa(lp1352
I149
ag18
ag10
aa(lp1353
I149
ag20
ag36
aaasba(ihelper
PossibleWorld
p1354
(dp1355
g3
I150
sg4
I0
sg5
(lp1356
(lp1357
(lp1358
I150
ag9
ag13
aa(lp1359
I150
ag12
ag36
aa(lp1360
I150
ag15
ag16
aa(lp1361
I150
ag18
ag10
aa(lp1362
I150
ag20
ag36
aaasba(ihelper
PossibleWorld
p1363
(dp1364
g3
I151
sg4
I0
sg5
(lp1365
(lp1366
(lp1367
I151
ag9
ag16
aa(lp1368
I151
ag12
ag36
aa(lp1369
I151
ag15
ag10
aa(lp1370
I151
ag18
ag13
aa(lp1371
I151
ag20
ag36
aaasba(ihelper
PossibleWorld
p1372
(dp1373
g3
I152
sg4
I0
sg5
(lp1374
(lp1375
(lp1376
I152
ag9
ag16
aa(lp1377
I152
ag12
ag36
aa(lp1378
I152
ag15
ag10
aa(lp1379
I152
ag18
ag16
aa(lp1380
I152
ag20
ag36
aaasba(ihelper
PossibleWorld
p1381
(dp1382
g3
I153
sg4
I0
sg5
(lp1383
(lp1384
(lp1385
I153
ag9
ag13
aa(lp1386
I153
ag12
ag36
aa(lp1387
I153
ag15
ag10
aa(lp1388
I153
ag18
ag13
aa(lp1389
I153
ag20
ag36
aaasba(ihelper
PossibleWorld
p1390
(dp1391
g3
I154
sg4
I0
sg5
(lp1392
(lp1393
(lp1394
I154
ag9
ag13
aa(lp1395
I154
ag12
ag36
aa(lp1396
I154
ag15
ag10
aa(lp1397
I154
ag18
ag16
aa(lp1398
I154
ag20
ag36
aaasba(ihelper
PossibleWorld
p1399
(dp1400
g3
I155
sg4
I0
sg5
(lp1401
(lp1402
(lp1403
I155
ag9
ag10
aa(lp1404
I155
ag12
ag36
aa(lp1405
I155
ag15
ag10
aa(lp1406
I155
ag18
ag13
aa(lp1407
I155
ag20
ag36
aaasba(ihelper
PossibleWorld
p1408
(dp1409
g3
I156
sg4
I0
sg5
(lp1410
(lp1411
(lp1412
I156
ag9
ag10
aa(lp1413
I156
ag12
ag36
aa(lp1414
I156
ag15
ag10
aa(lp1415
I156
ag18
ag16
aa(lp1416
I156
ag20
ag36
aaasba(ihelper
PossibleWorld
p1417
(dp1418
g3
I157
sg4
I0
sg5
(lp1419
(lp1420
(lp1421
I157
ag9
ag16
aa(lp1422
I157
ag12
ag10
aa(lp1423
I157
ag15
ag13
aa(lp1424
I157
ag18
ag10
aa(lp1425
I157
ag20
ag36
aaasba(ihelper
PossibleWorld
p1426
(dp1427
g3
I158
sg4
I0
sg5
(lp1428
(lp1429
(lp1430
I158
ag12
ag10
aa(lp1431
I158
ag9
ag13
aa(lp1432
I158
ag15
ag13
aa(lp1433
I158
ag18
ag10
aa(lp1434
I158
ag20
ag36
aaasba(ihelper
PossibleWorld
p1435
(dp1436
g3
I159
sg4
I0
sg5
(lp1437
(lp1438
(lp1439
I159
ag9
ag16
aa(lp1440
I159
ag12
ag36
aa(lp1441
I159
ag15
ag13
aa(lp1442
I159
ag18
ag10
aa(lp1443
I159
ag20
ag36
aaasba(ihelper
PossibleWorld
p1444
(dp1445
g3
I160
sg4
I0
sg5
(lp1446
(lp1447
(lp1448
I160
ag9
ag10
aa(lp1449
I160
ag12
ag36
aa(lp1450
I160
ag15
ag13
aa(lp1451
I160
ag18
ag10
aa(lp1452
I160
ag20
ag36
aaasba(ihelper
PossibleWorld
p1453
(dp1454
g3
I161
sg4
I0
sg5
(lp1455
(lp1456
(lp1457
I161
ag9
ag13
aa(lp1458
I161
ag12
ag36
aa(lp1459
I161
ag15
ag13
aa(lp1460
I161
ag18
ag10
aa(lp1461
I161
ag20
ag36
aaasba(ihelper
PossibleWorld
p1462
(dp1463
g3
I162
sg4
I0
sg5
(lp1464
(lp1465
(lp1466
I162
ag9
ag16
aa(lp1467
I162
ag12
ag10
aa(lp1468
I162
ag15
ag13
aa(lp1469
I162
ag18
ag16
aa(lp1470
I162
ag20
ag36
aaasba(ihelper
PossibleWorld
p1471
(dp1472
g3
I163
sg4
I0
sg5
(lp1473
(lp1474
(lp1475
I163
ag9
ag16
aa(lp1476
I163
ag12
ag36
aa(lp1477
I163
ag15
ag13
aa(lp1478
I163
ag18
ag16
aa(lp1479
I163
ag20
ag36
aaasba(ihelper
PossibleWorld
p1480
(dp1481
g3
I164
sg4
I0
sg5
(lp1482
(lp1483
(lp1484
I164
ag12
ag10
aa(lp1485
I164
ag9
ag13
aa(lp1486
I164
ag15
ag13
aa(lp1487
I164
ag18
ag16
aa(lp1488
I164
ag20
ag36
aaasba(ihelper
PossibleWorld
p1489
(dp1490
g3
I165
sg4
I0
sg5
(lp1491
(lp1492
(lp1493
I165
ag9
ag13
aa(lp1494
I165
ag12
ag36
aa(lp1495
I165
ag15
ag13
aa(lp1496
I165
ag18
ag16
aa(lp1497
I165
ag20
ag36
aaasba(ihelper
PossibleWorld
p1498
(dp1499
g3
I166
sg4
I0
sg5
(lp1500
(lp1501
(lp1502
I166
ag9
ag10
aa(lp1503
I166
ag12
ag36
aa(lp1504
I166
ag15
ag13
aa(lp1505
I166
ag18
ag16
aa(lp1506
I166
ag20
ag36
aaasba(ihelper
PossibleWorld
p1507
(dp1508
g3
I167
sg4
I0
sg5
(lp1509
(lp1510
(lp1511
I167
ag9
ag16
aa(lp1512
I167
ag12
ag13
aa(lp1513
I167
ag15
ag36
aa(lp1514
I167
ag18
ag13
aa(lp1515
I167
ag20
ag36
aaasba(ihelper
PossibleWorld
p1516
(dp1517
g3
I168
sg4
I0
sg5
(lp1518
(lp1519
(lp1520
I168
ag9
ag10
aa(lp1521
I168
ag12
ag13
aa(lp1522
I168
ag15
ag36
aa(lp1523
I168
ag18
ag13
aa(lp1524
I168
ag20
ag36
aaasba(ihelper
PossibleWorld
p1525
(dp1526
g3
I169
sg4
I0
sg5
(lp1527
(lp1528
(lp1529
I169
ag9
ag16
aa(lp1530
I169
ag12
ag13
aa(lp1531
I169
ag15
ag16
aa(lp1532
I169
ag18
ag13
aa(lp1533
I169
ag20
ag36
aaasba(ihelper
PossibleWorld
p1534
(dp1535
g3
I170
sg4
I0
sg5
(lp1536
(lp1537
(lp1538
I170
ag9
ag10
aa(lp1539
I170
ag12
ag13
aa(lp1540
I170
ag15
ag16
aa(lp1541
I170
ag18
ag13
aa(lp1542
I170
ag20
ag36
aaasba(ihelper
PossibleWorld
p1543
(dp1544
g3
I171
sg4
I0
sg5
(lp1545
(lp1546
(lp1547
I171
ag9
ag16
aa(lp1548
I171
ag12
ag13
aa(lp1549
I171
ag15
ag10
aa(lp1550
I171
ag18
ag13
aa(lp1551
I171
ag20
ag36
aaasba(ihelper
PossibleWorld
p1552
(dp1553
g3
I172
sg4
I0
sg5
(lp1554
(lp1555
(lp1556
I172
ag9
ag10
aa(lp1557
I172
ag12
ag13
aa(lp1558
I172
ag15
ag10
aa(lp1559
I172
ag18
ag13
aa(lp1560
I172
ag20
ag36
aaasba(ihelper
PossibleWorld
p1561
(dp1562
g3
I173
sg4
I0
sg5
(lp1563
(lp1564
(lp1565
I173
ag9
ag16
aa(lp1566
I173
ag12
ag13
aa(lp1567
I173
ag15
ag36
aa(lp1568
I173
ag18
ag16
aa(lp1569
I173
ag20
ag36
aaasba(ihelper
PossibleWorld
p1570
(dp1571
g3
I174
sg4
I0
sg5
(lp1572
(lp1573
(lp1574
I174
ag9
ag16
aa(lp1575
I174
ag12
ag13
aa(lp1576
I174
ag15
ag10
aa(lp1577
I174
ag18
ag16
aa(lp1578
I174
ag20
ag36
aaasba(ihelper
PossibleWorld
p1579
(dp1580
g3
I175
sg4
I0
sg5
(lp1581
(lp1582
(lp1583
I175
ag9
ag10
aa(lp1584
I175
ag12
ag13
aa(lp1585
I175
ag15
ag36
aa(lp1586
I175
ag18
ag16
aa(lp1587
I175
ag20
ag36
aaasba(ihelper
PossibleWorld
p1588
(dp1589
g3
I176
sg4
I0
sg5
(lp1590
(lp1591
(lp1592
I176
ag9
ag10
aa(lp1593
I176
ag12
ag13
aa(lp1594
I176
ag15
ag10
aa(lp1595
I176
ag18
ag16
aa(lp1596
I176
ag20
ag36
aaasba(ihelper
PossibleWorld
p1597
(dp1598
g3
I177
sg4
I0
sg5
(lp1599
(lp1600
(lp1601
I177
ag9
ag16
aa(lp1602
I177
ag12
ag13
aa(lp1603
I177
ag15
ag36
aa(lp1604
I177
ag18
ag10
aa(lp1605
I177
ag20
ag36
aaasba(ihelper
PossibleWorld
p1606
(dp1607
g3
I178
sg4
I0
sg5
(lp1608
(lp1609
(lp1610
I178
ag9
ag16
aa(lp1611
I178
ag12
ag13
aa(lp1612
I178
ag15
ag16
aa(lp1613
I178
ag18
ag10
aa(lp1614
I178
ag20
ag36
aaasba(ihelper
PossibleWorld
p1615
(dp1616
g3
I179
sg4
I0
sg5
(lp1617
(lp1618
(lp1619
I179
ag9
ag10
aa(lp1620
I179
ag12
ag13
aa(lp1621
I179
ag15
ag36
aa(lp1622
I179
ag18
ag10
aa(lp1623
I179
ag20
ag36
aaasba(ihelper
PossibleWorld
p1624
(dp1625
g3
I180
sg4
I0
sg5
(lp1626
(lp1627
(lp1628
I180
ag9
ag10
aa(lp1629
I180
ag12
ag13
aa(lp1630
I180
ag15
ag16
aa(lp1631
I180
ag18
ag10
aa(lp1632
I180
ag20
ag36
aaasba(ihelper
PossibleWorld
p1633
(dp1634
g3
I181
sg4
I0
sg5
(lp1635
(lp1636
(lp1637
I181
ag12
ag16
aa(lp1638
I181
ag9
ag13
aa(lp1639
I181
ag15
ag10
aa(lp1640
I181
ag18
ag13
aa(lp1641
I181
ag20
ag36
aaasba(ihelper
PossibleWorld
p1642
(dp1643
g3
I182
sg4
I0
sg5
(lp1644
(lp1645
(lp1646
I182
ag12
ag16
aa(lp1647
I182
ag9
ag13
aa(lp1648
I182
ag15
ag36
aa(lp1649
I182
ag18
ag13
aa(lp1650
I182
ag20
ag36
aaasba(ihelper
PossibleWorld
p1651
(dp1652
g3
I183
sg4
I0
sg5
(lp1653
(lp1654
(lp1655
I183
ag12
ag16
aa(lp1656
I183
ag9
ag10
aa(lp1657
I183
ag15
ag10
aa(lp1658
I183
ag18
ag13
aa(lp1659
I183
ag20
ag36
aaasba(ihelper
PossibleWorld
p1660
(dp1661
g3
I184
sg4
I0
sg5
(lp1662
(lp1663
(lp1664
I184
ag12
ag16
aa(lp1665
I184
ag9
ag10
aa(lp1666
I184
ag15
ag36
aa(lp1667
I184
ag18
ag13
aa(lp1668
I184
ag20
ag36
aaasba(ihelper
PossibleWorld
p1669
(dp1670
g3
I185
sg4
I0
sg5
(lp1671
(lp1672
(lp1673
I185
ag12
ag16
aa(lp1674
I185
ag9
ag10
aa(lp1675
I185
ag15
ag10
aa(lp1676
I185
ag18
ag16
aa(lp1677
I185
ag20
ag13
aaasba(ihelper
PossibleWorld
p1678
(dp1679
g3
I186
sg4
I0
sg5
(lp1680
(lp1681
(lp1682
I186
ag12
ag16
aa(lp1683
I186
ag9
ag10
aa(lp1684
I186
ag15
ag13
aa(lp1685
I186
ag18
ag16
aa(lp1686
I186
ag20
ag13
aaasba(ihelper
PossibleWorld
p1687
(dp1688
g3
I187
sg4
I0
sg5
(lp1689
(lp1690
(lp1691
I187
ag12
ag16
aa(lp1692
I187
ag9
ag13
aa(lp1693
I187
ag15
ag10
aa(lp1694
I187
ag18
ag16
aa(lp1695
I187
ag20
ag36
aaasba(ihelper
PossibleWorld
p1696
(dp1697
g3
I188
sg4
I0
sg5
(lp1698
(lp1699
(lp1700
I188
ag12
ag16
aa(lp1701
I188
ag9
ag10
aa(lp1702
I188
ag15
ag10
aa(lp1703
I188
ag18
ag16
aa(lp1704
I188
ag20
ag36
aaasba(ihelper
PossibleWorld
p1705
(dp1706
g3
I189
sg4
I0
sg5
(lp1707
(lp1708
(lp1709
I189
ag12
ag16
aa(lp1710
I189
ag9
ag13
aa(lp1711
I189
ag15
ag13
aa(lp1712
I189
ag18
ag16
aa(lp1713
I189
ag20
ag36
aaasba(ihelper
PossibleWorld
p1714
(dp1715
g3
I190
sg4
I0
sg5
(lp1716
(lp1717
(lp1718
I190
ag12
ag16
aa(lp1719
I190
ag9
ag10
aa(lp1720
I190
ag15
ag13
aa(lp1721
I190
ag18
ag16
aa(lp1722
I190
ag20
ag36
aaasba(ihelper
PossibleWorld
p1723
(dp1724
g3
I191
sg4
I0
sg5
(lp1725
(lp1726
(lp1727
I191
ag12
ag16
aa(lp1728
I191
ag9
ag13
aa(lp1729
I191
ag15
ag36
aa(lp1730
I191
ag18
ag16
aa(lp1731
I191
ag20
ag36
aaasba(ihelper
PossibleWorld
p1732
(dp1733
g3
I192
sg4
I0
sg5
(lp1734
(lp1735
(lp1736
I192
ag12
ag16
aa(lp1737
I192
ag9
ag10
aa(lp1738
I192
ag15
ag36
aa(lp1739
I192
ag18
ag16
aa(lp1740
I192
ag20
ag36
aaasba(ihelper
PossibleWorld
p1741
(dp1742
g3
I193
sg4
I0
sg5
(lp1743
(lp1744
(lp1745
I193
ag12
ag16
aa(lp1746
I193
ag9
ag10
aa(lp1747
I193
ag15
ag36
aa(lp1748
I193
ag18
ag16
aa(lp1749
I193
ag20
ag13
aaasba(ihelper
PossibleWorld
p1750
(dp1751
g3
I194
sg4
I0
sg5
(lp1752
(lp1753
(lp1754
I194
ag12
ag16
aa(lp1755
I194
ag9
ag10
aa(lp1756
I194
ag15
ag10
aa(lp1757
I194
ag18
ag36
aa(lp1758
I194
ag20
ag13
aaasba(ihelper
PossibleWorld
p1759
(dp1760
g3
I195
sg4
I0
sg5
(lp1761
(lp1762
(lp1763
I195
ag12
ag16
aa(lp1764
I195
ag9
ag10
aa(lp1765
I195
ag15
ag13
aa(lp1766
I195
ag18
ag36
aa(lp1767
I195
ag20
ag13
aaasba(ihelper
PossibleWorld
p1768
(dp1769
g3
I196
sg4
I0
sg5
(lp1770
(lp1771
(lp1772
I196
ag12
ag16
aa(lp1773
I196
ag9
ag36
aa(lp1774
I196
ag15
ag10
aa(lp1775
I196
ag18
ag36
aa(lp1776
I196
ag20
ag13
aaasba(ihelper
PossibleWorld
p1777
(dp1778
g3
I197
sg4
I0
sg5
(lp1779
(lp1780
(lp1781
I197
ag12
ag16
aa(lp1782
I197
ag9
ag36
aa(lp1783
I197
ag15
ag10
aa(lp1784
I197
ag18
ag16
aa(lp1785
I197
ag20
ag13
aaasba(ihelper
PossibleWorld
p1786
(dp1787
g3
I198
sg4
I0
sg5
(lp1788
(lp1789
(lp1790
I198
ag12
ag16
aa(lp1791
I198
ag9
ag36
aa(lp1792
I198
ag15
ag36
aa(lp1793
I198
ag18
ag16
aa(lp1794
I198
ag20
ag13
aaasba(ihelper
PossibleWorld
p1795
(dp1796
g3
I199
sg4
I0
sg5
(lp1797
(lp1798
(lp1799
I199
ag12
ag16
aa(lp1800
I199
ag9
ag36
aa(lp1801
I199
ag15
ag13
aa(lp1802
I199
ag18
ag36
aa(lp1803
I199
ag20
ag13
aaasba(ihelper
PossibleWorld
p1804
(dp1805
g3
I200
sg4
I0
sg5
(lp1806
(lp1807
(lp1808
I200
ag12
ag16
aa(lp1809
I200
ag9
ag36
aa(lp1810
I200
ag15
ag13
aa(lp1811
I200
ag18
ag16
aa(lp1812
I200
ag20
ag13
aaasba(ihelper
PossibleWorld
p1813
(dp1814
g3
I201
sg4
I0
sg5
(lp1815
(lp1816
(lp1817
I201
ag12
ag16
aa(lp1818
I201
ag9
ag36
aa(lp1819
I201
ag15
ag10
aa(lp1820
I201
ag18
ag36
aa(lp1821
I201
ag20
ag16
aaasba(ihelper
PossibleWorld
p1822
(dp1823
g3
I202
sg4
I0
sg5
(lp1824
(lp1825
(lp1826
I202
ag12
ag16
aa(lp1827
I202
ag9
ag36
aa(lp1828
I202
ag15
ag13
aa(lp1829
I202
ag18
ag36
aa(lp1830
I202
ag20
ag16
aaasba(ihelper
PossibleWorld
p1831
(dp1832
g3
I203
sg4
I0
sg5
(lp1833
(lp1834
(lp1835
I203
ag12
ag16
aa(lp1836
I203
ag9
ag10
aa(lp1837
I203
ag15
ag10
aa(lp1838
I203
ag18
ag36
aa(lp1839
I203
ag20
ag16
aaasba(ihelper
PossibleWorld
p1840
(dp1841
g3
I204
sg4
I0
sg5
(lp1842
(lp1843
(lp1844
I204
ag12
ag16
aa(lp1845
I204
ag9
ag10
aa(lp1846
I204
ag15
ag13
aa(lp1847
I204
ag18
ag36
aa(lp1848
I204
ag20
ag16
aaasba(ihelper
PossibleWorld
p1849
(dp1850
g3
I205
sg4
I0
sg5
(lp1851
(lp1852
(lp1853
I205
ag12
ag16
aa(lp1854
I205
ag9
ag13
aa(lp1855
I205
ag15
ag10
aa(lp1856
I205
ag18
ag36
aa(lp1857
I205
ag20
ag16
aaasba(ihelper
PossibleWorld
p1858
(dp1859
g3
I206
sg4
I0
sg5
(lp1860
(lp1861
(lp1862
I206
ag12
ag16
aa(lp1863
I206
ag9
ag13
aa(lp1864
I206
ag15
ag13
aa(lp1865
I206
ag18
ag36
aa(lp1866
I206
ag20
ag16
aaasba(ihelper
PossibleWorld
p1867
(dp1868
g3
I207
sg4
I0
sg5
(lp1869
(lp1870
(lp1871
I207
ag12
ag16
aa(lp1872
I207
ag9
ag10
aa(lp1873
I207
ag15
ag10
aa(lp1874
I207
ag18
ag13
aa(lp1875
I207
ag20
ag16
aaasba(ihelper
PossibleWorld
p1876
(dp1877
g3
I208
sg4
I0
sg5
(lp1878
(lp1879
(lp1880
I208
ag12
ag16
aa(lp1881
I208
ag9
ag10
aa(lp1882
I208
ag15
ag36
aa(lp1883
I208
ag18
ag13
aa(lp1884
I208
ag20
ag16
aaasba(ihelper
PossibleWorld
p1885
(dp1886
g3
I209
sg4
I0
sg5
(lp1887
(lp1888
(lp1889
I209
ag12
ag16
aa(lp1890
I209
ag9
ag36
aa(lp1891
I209
ag15
ag10
aa(lp1892
I209
ag18
ag13
aa(lp1893
I209
ag20
ag16
aaasba(ihelper
PossibleWorld
p1894
(dp1895
g3
I210
sg4
I0
sg5
(lp1896
(lp1897
(lp1898
I210
ag12
ag16
aa(lp1899
I210
ag9
ag36
aa(lp1900
I210
ag15
ag36
aa(lp1901
I210
ag18
ag13
aa(lp1902
I210
ag20
ag16
aaasba(ihelper
PossibleWorld
p1903
(dp1904
g3
I211
sg4
I0
sg5
(lp1905
(lp1906
(lp1907
I211
ag12
ag16
aa(lp1908
I211
ag9
ag13
aa(lp1909
I211
ag15
ag10
aa(lp1910
I211
ag18
ag13
aa(lp1911
I211
ag20
ag16
aaasba(ihelper
PossibleWorld
p1912
(dp1913
g3
I212
sg4
I0
sg5
(lp1914
(lp1915
(lp1916
I212
ag12
ag16
aa(lp1917
I212
ag9
ag13
aa(lp1918
I212
ag15
ag36
aa(lp1919
I212
ag18
ag13
aa(lp1920
I212
ag20
ag16
aaasba(ihelper
PossibleWorld
p1921
(dp1922
g3
I213
sg4
I0
sg5
(lp1923
(lp1924
(lp1925
I213
ag12
ag16
aa(lp1926
I213
ag9
ag36
aa(lp1927
I213
ag15
ag10
aa(lp1928
I213
ag18
ag36
aa(lp1929
I213
ag20
ag10
aaasba(ihelper
PossibleWorld
p1930
(dp1931
g3
I214
sg4
I0
sg5
(lp1932
(lp1933
(lp1934
I214
ag12
ag16
aa(lp1935
I214
ag9
ag13
aa(lp1936
I214
ag15
ag10
aa(lp1937
I214
ag18
ag36
aa(lp1938
I214
ag20
ag10
aaasba(ihelper
PossibleWorld
p1939
(dp1940
g3
I215
sg4
I0
sg5
(lp1941
(lp1942
(lp1943
I215
ag12
ag16
aa(lp1944
I215
ag9
ag36
aa(lp1945
I215
ag15
ag10
aa(lp1946
I215
ag18
ag16
aa(lp1947
I215
ag20
ag10
aaasba(ihelper
PossibleWorld
p1948
(dp1949
g3
I216
sg4
I0
sg5
(lp1950
(lp1951
(lp1952
I216
ag12
ag16
aa(lp1953
I216
ag9
ag13
aa(lp1954
I216
ag15
ag10
aa(lp1955
I216
ag18
ag16
aa(lp1956
I216
ag20
ag10
aaasba(ihelper
PossibleWorld
p1957
(dp1958
g3
I217
sg4
I0
sg5
(lp1959
(lp1960
(lp1961
I217
ag12
ag16
aa(lp1962
I217
ag9
ag36
aa(lp1963
I217
ag15
ag10
aa(lp1964
I217
ag18
ag13
aa(lp1965
I217
ag20
ag10
aaasba(ihelper
PossibleWorld
p1966
(dp1967
g3
I218
sg4
I0
sg5
(lp1968
(lp1969
(lp1970
I218
ag12
ag16
aa(lp1971
I218
ag9
ag13
aa(lp1972
I218
ag15
ag10
aa(lp1973
I218
ag18
ag13
aa(lp1974
I218
ag20
ag10
aaasba(ihelper
PossibleWorld
p1975
(dp1976
g3
I219
sg4
I0
sg5
(lp1977
(lp1978
(lp1979
I219
ag12
ag16
aa(lp1980
I219
ag9
ag36
aa(lp1981
I219
ag15
ag13
aa(lp1982
I219
ag18
ag36
aa(lp1983
I219
ag20
ag10
aaasba(ihelper
PossibleWorld
p1984
(dp1985
g3
I220
sg4
I0
sg5
(lp1986
(lp1987
(lp1988
I220
ag12
ag16
aa(lp1989
I220
ag9
ag36
aa(lp1990
I220
ag15
ag13
aa(lp1991
I220
ag18
ag16
aa(lp1992
I220
ag20
ag10
aaasba(ihelper
PossibleWorld
p1993
(dp1994
g3
I221
sg4
I0
sg5
(lp1995
(lp1996
(lp1997
I221
ag12
ag16
aa(lp1998
I221
ag9
ag13
aa(lp1999
I221
ag15
ag13
aa(lp2000
I221
ag18
ag36
aa(lp2001
I221
ag20
ag10
aaasba(ihelper
PossibleWorld
p2002
(dp2003
g3
I222
sg4
I0
sg5
(lp2004
(lp2005
(lp2006
I222
ag12
ag16
aa(lp2007
I222
ag9
ag13
aa(lp2008
I222
ag15
ag13
aa(lp2009
I222
ag18
ag16
aa(lp2010
I222
ag20
ag10
aaasba(ihelper
PossibleWorld
p2011
(dp2012
g3
I223
sg4
I0
sg5
(lp2013
(lp2014
(lp2015
I223
ag12
ag16
aa(lp2016
I223
ag9
ag36
aa(lp2017
I223
ag15
ag36
aa(lp2018
I223
ag18
ag13
aa(lp2019
I223
ag20
ag10
aaasba(ihelper
PossibleWorld
p2020
(dp2021
g3
I224
sg4
I0
sg5
(lp2022
(lp2023
(lp2024
I224
ag12
ag16
aa(lp2025
I224
ag9
ag13
aa(lp2026
I224
ag15
ag36
aa(lp2027
I224
ag18
ag13
aa(lp2028
I224
ag20
ag10
aaasba(ihelper
PossibleWorld
p2029
(dp2030
g3
I225
sg4
I0
sg5
(lp2031
(lp2032
(lp2033
I225
ag12
ag16
aa(lp2034
I225
ag9
ag36
aa(lp2035
I225
ag15
ag36
aa(lp2036
I225
ag18
ag16
aa(lp2037
I225
ag20
ag10
aaasba(ihelper
PossibleWorld
p2038
(dp2039
g3
I226
sg4
I0
sg5
(lp2040
(lp2041
(lp2042
I226
ag12
ag16
aa(lp2043
I226
ag9
ag13
aa(lp2044
I226
ag15
ag36
aa(lp2045
I226
ag18
ag16
aa(lp2046
I226
ag20
ag10
aaasba(ihelper
PossibleWorld
p2047
(dp2048
g3
I227
sg4
I0
sg5
(lp2049
(lp2050
(lp2051
I227
ag12
ag16
aa(lp2052
I227
ag9
ag10
aa(lp2053
I227
ag15
ag36
aa(lp2054
I227
ag18
ag10
aa(lp2055
I227
ag20
ag36
aaasba(ihelper
PossibleWorld
p2056
(dp2057
g3
I228
sg4
I0
sg5
(lp2058
(lp2059
(lp2060
I228
ag12
ag16
aa(lp2061
I228
ag9
ag10
aa(lp2062
I228
ag15
ag13
aa(lp2063
I228
ag18
ag10
aa(lp2064
I228
ag20
ag36
aaasba(ihelper
PossibleWorld
p2065
(dp2066
g3
I229
sg4
I0
sg5
(lp2067
(lp2068
(lp2069
I229
ag12
ag16
aa(lp2070
I229
ag9
ag36
aa(lp2071
I229
ag15
ag36
aa(lp2072
I229
ag18
ag10
aa(lp2073
I229
ag20
ag16
aaasba(ihelper
PossibleWorld
p2074
(dp2075
g3
I230
sg4
I0
sg5
(lp2076
(lp2077
(lp2078
I230
ag12
ag16
aa(lp2079
I230
ag9
ag10
aa(lp2080
I230
ag15
ag36
aa(lp2081
I230
ag18
ag10
aa(lp2082
I230
ag20
ag16
aaasba(ihelper
PossibleWorld
p2083
(dp2084
g3
I231
sg4
I0
sg5
(lp2085
(lp2086
(lp2087
I231
ag12
ag16
aa(lp2088
I231
ag9
ag36
aa(lp2089
I231
ag15
ag13
aa(lp2090
I231
ag18
ag10
aa(lp2091
I231
ag20
ag16
aaasba(ihelper
PossibleWorld
p2092
(dp2093
g3
I232
sg4
I0
sg5
(lp2094
(lp2095
(lp2096
I232
ag12
ag16
aa(lp2097
I232
ag9
ag10
aa(lp2098
I232
ag15
ag13
aa(lp2099
I232
ag18
ag10
aa(lp2100
I232
ag20
ag16
aaasba(ihelper
PossibleWorld
p2101
(dp2102
g3
I233
sg4
I0
sg5
(lp2103
(lp2104
(lp2105
I233
ag12
ag16
aa(lp2106
I233
ag9
ag36
aa(lp2107
I233
ag15
ag36
aa(lp2108
I233
ag18
ag10
aa(lp2109
I233
ag20
ag13
aaasba(ihelper
PossibleWorld
p2110
(dp2111
g3
I234
sg4
I0
sg5
(lp2112
(lp2113
(lp2114
I234
ag12
ag16
aa(lp2115
I234
ag9
ag36
aa(lp2116
I234
ag15
ag13
aa(lp2117
I234
ag18
ag10
aa(lp2118
I234
ag20
ag13
aaasba(ihelper
PossibleWorld
p2119
(dp2120
g3
I235
sg4
I0
sg5
(lp2121
(lp2122
(lp2123
I235
ag12
ag16
aa(lp2124
I235
ag9
ag10
aa(lp2125
I235
ag15
ag36
aa(lp2126
I235
ag18
ag10
aa(lp2127
I235
ag20
ag13
aaasba(ihelper
PossibleWorld
p2128
(dp2129
g3
I236
sg4
I0
sg5
(lp2130
(lp2131
(lp2132
I236
ag12
ag16
aa(lp2133
I236
ag9
ag10
aa(lp2134
I236
ag15
ag13
aa(lp2135
I236
ag18
ag10
aa(lp2136
I236
ag20
ag13
aaasba(ihelper
PossibleWorld
p2137
(dp2138
g3
I237
sg4
I0
sg5
(lp2139
(lp2140
(lp2141
I237
ag12
ag16
aa(lp2142
I237
ag9
ag13
aa(lp2143
I237
ag15
ag36
aa(lp2144
I237
ag18
ag10
aa(lp2145
I237
ag20
ag36
aaasba(ihelper
PossibleWorld
p2146
(dp2147
g3
I238
sg4
I0
sg5
(lp2148
(lp2149
(lp2150
I238
ag12
ag16
aa(lp2151
I238
ag9
ag13
aa(lp2152
I238
ag15
ag36
aa(lp2153
I238
ag18
ag10
aa(lp2154
I238
ag20
ag16
aaasba(ihelper
PossibleWorld
p2155
(dp2156
g3
I239
sg4
I0
sg5
(lp2157
(lp2158
(lp2159
I239
ag12
ag16
aa(lp2160
I239
ag9
ag13
aa(lp2161
I239
ag15
ag13
aa(lp2162
I239
ag18
ag10
aa(lp2163
I239
ag20
ag36
aaasba(ihelper
PossibleWorld
p2164
(dp2165
g3
I240
sg4
I0
sg5
(lp2166
(lp2167
(lp2168
I240
ag12
ag16
aa(lp2169
I240
ag9
ag13
aa(lp2170
I240
ag15
ag13
aa(lp2171
I240
ag18
ag10
aa(lp2172
I240
ag20
ag16
aaasba.