(lp0
(ihelper
PossibleWorld
p1
(dp2
S'pw_id'
p3
I1
sS'pw_soln'
p4
I0
sS'rls'
p5
(lp6
(lp7
(lp8
I1
aV4
p9
aVg
p10
aa(lp11
I1
aV1
p12
aVb
p13
aa(lp14
I1
aV2
p15
ag10
aa(lp16
I1
aV3
p17
aVr
p18
aaasba(ihelper
PossibleWorld
p19
(dp20
g3
I2
sg4
I0
sg5
(lp21
(lp22
(lp23
I2
ag9
ag10
aa(lp24
I2
ag12
aVy
p25
aa(lp26
I2
ag15
ag10
aa(lp27
I2
ag17
ag18
aaasba(ihelper
PossibleWorld
p28
(dp29
g3
I3
sg4
I0
sg5
(lp30
(lp31
(lp32
I3
ag9
ag13
aa(lp33
I3
ag12
ag25
aa(lp34
I3
ag15
ag10
aa(lp35
I3
ag17
ag18
aaasba(ihelper
PossibleWorld
p36
(dp37
g3
I4
sg4
I0
sg5
(lp38
(lp39
(lp40
I4
ag12
ag13
aa(lp41
I4
ag9
ag25
aa(lp42
I4
ag15
ag10
aa(lp43
I4
ag17
ag18
aaasba(ihelper
PossibleWorld
p44
(dp45
g3
I5
sg4
I0
sg5
(lp46
(lp47
(lp48
I5
ag12
ag10
aa(lp49
I5
ag9
ag25
aa(lp50
I5
ag15
ag13
aa(lp51
I5
ag17
ag18
aaasba(ihelper
PossibleWorld
p52
(dp53
g3
I6
sg4
I0
sg5
(lp54
(lp55
(lp56
I6
ag9
ag10
aa(lp57
I6
ag12
ag25
aa(lp58
I6
ag15
ag13
aa(lp59
I6
ag17
ag18
aaasba(ihelper
PossibleWorld
p60
(dp61
g3
I7
sg4
I0
sg5
(lp62
(lp63
(lp64
I7
ag12
ag10
aa(lp65
I7
ag9
ag13
aa(lp66
I7
ag15
ag13
aa(lp67
I7
ag17
ag18
aaasba(ihelper
PossibleWorld
p68
(dp69
g3
I8
sg4
I0
sg5
(lp70
(lp71
(lp72
I8
ag9
ag13
aa(lp73
I8
ag12
ag25
aa(lp74
I8
ag15
ag13
aa(lp75
I8
ag17
ag18
aaasba(ihelper
PossibleWorld
p76
(dp77
g3
I9
sg4
I0
sg5
(lp78
(lp79
(lp80
I9
ag9
ag10
aa(lp81
I9
ag12
ag13
aa(lp82
I9
ag15
ag25
aa(lp83
I9
ag17
ag18
aaasba(ihelper
PossibleWorld
p84
(dp85
g3
I10
sg4
I0
sg5
(lp86
(lp87
(lp88
I10
ag12
ag10
aa(lp89
I10
ag9
ag25
aa(lp90
I10
ag15
ag25
aa(lp91
I10
ag17
ag18
aaasba(ihelper
PossibleWorld
p92
(dp93
g3
I11
sg4
I0
sg5
(lp94
(lp95
(lp96
I11
ag12
ag13
aa(lp97
I11
ag9
ag25
aa(lp98
I11
ag15
ag25
aa(lp99
I11
ag17
ag18
aaasba(ihelper
PossibleWorld
p100
(dp101
g3
I12
sg4
I0
sg5
(lp102
(lp103
(lp104
I12
ag12
ag10
aa(lp105
I12
ag9
ag13
aa(lp106
I12
ag15
ag25
aa(lp107
I12
ag17
ag18
aaasba(ihelper
PossibleWorld
p108
(dp109
g3
I13
sg4
I0
sg5
(lp110
(lp111
(lp112
I13
ag9
ag18
aa(lp113
I13
ag12
ag10
aa(lp114
I13
ag15
ag18
aa(lp115
I13
ag17
ag10
aaasba(ihelper
PossibleWorld
p116
(dp117
g3
I14
sg4
I0
sg5
(lp118
(lp119
(lp120
I14
ag12
ag10
aa(lp121
I14
ag9
ag13
aa(lp122
I14
ag15
ag18
aa(lp123
I14
ag17
ag10
aaasba(ihelper
PossibleWorld
p124
(dp125
g3
I15
sg4
I0
sg5
(lp126
(lp127
(lp128
I15
ag12
ag10
aa(lp129
I15
ag9
ag25
aa(lp130
I15
ag15
ag18
aa(lp131
I15
ag17
ag10
aaasba(ihelper
PossibleWorld
p132
(dp133
g3
I16
sg4
I0
sg5
(lp134
(lp135
(lp136
I16
ag9
ag18
aa(lp137
I16
ag12
ag10
aa(lp138
I16
ag15
ag25
aa(lp139
I16
ag17
ag10
aaasba(ihelper
PossibleWorld
p140
(dp141
g3
I17
sg4
I0
sg5
(lp142
(lp143
(lp144
I17
ag12
ag10
aa(lp145
I17
ag9
ag25
aa(lp146
I17
ag15
ag25
aa(lp147
I17
ag17
ag10
aaasba(ihelper
PossibleWorld
p148
(dp149
g3
I18
sg4
I0
sg5
(lp150
(lp151
(lp152
I18
ag12
ag10
aa(lp153
I18
ag9
ag13
aa(lp154
I18
ag15
ag25
aa(lp155
I18
ag17
ag10
aaasba(ihelper
PossibleWorld
p156
(dp157
g3
I19
sg4
I0
sg5
(lp158
(lp159
(lp160
I19
ag9
ag18
aa(lp161
I19
ag12
ag25
aa(lp162
I19
ag15
ag18
aa(lp163
I19
ag17
ag10
aaasba(ihelper
PossibleWorld
p164
(dp165
g3
I20
sg4
I0
sg5
(lp166
(lp167
(lp168
I20
ag9
ag13
aa(lp169
I20
ag12
ag25
aa(lp170
I20
ag15
ag18
aa(lp171
I20
ag17
ag10
aaasba(ihelper
PossibleWorld
p172
(dp173
g3
I21
sg4
I0
sg5
(lp174
(lp175
(lp176
I21
ag9
ag18
aa(lp177
I21
ag12
ag10
aa(lp178
I21
ag15
ag13
aa(lp179
I21
ag17
ag10
aaasba(ihelper
PossibleWorld
p180
(dp181
g3
I22
sg4
I0
sg5
(lp182
(lp183
(lp184
I22
ag9
ag18
aa(lp185
I22
ag12
ag25
aa(lp186
I22
ag15
ag13
aa(lp187
I22
ag17
ag10
aaasba(ihelper
PossibleWorld
p188
(dp189
g3
I23
sg4
I0
sg5
(lp190
(lp191
(lp192
I23
ag12
ag10
aa(lp193
I23
ag9
ag25
aa(lp194
I23
ag15
ag13
aa(lp195
I23
ag17
ag10
aaasba(ihelper
PossibleWorld
p196
(dp197
g3
I24
sg4
I0
sg5
(lp198
(lp199
(lp200
I24
ag12
ag10
aa(lp201
I24
ag9
ag13
aa(lp202
I24
ag15
ag13
aa(lp203
I24
ag17
ag10
aaasba(ihelper
PossibleWorld
p204
(dp205
g3
I25
sg4
I0
sg5
(lp206
(lp207
(lp208
I25
ag9
ag13
aa(lp209
I25
ag12
ag25
aa(lp210
I25
ag15
ag13
aa(lp211
I25
ag17
ag10
aaasba(ihelper
PossibleWorld
p212
(dp213
g3
I26
sg4
I0
sg5
(lp214
(lp215
(lp216
I26
ag9
ag18
aa(lp217
I26
ag12
ag13
aa(lp218
I26
ag15
ag18
aa(lp219
I26
ag17
ag10
aaasba(ihelper
PossibleWorld
p220
(dp221
g3
I27
sg4
I0
sg5
(lp222
(lp223
(lp224
I27
ag12
ag13
aa(lp225
I27
ag9
ag25
aa(lp226
I27
ag15
ag18
aa(lp227
I27
ag17
ag10
aaasba(ihelper
PossibleWorld
p228
(dp229
g3
I28
sg4
I0
sg5
(lp230
(lp231
(lp232
I28
ag9
ag18
aa(lp233
I28
ag12
ag13
aa(lp234
I28
ag15
ag25
aa(lp235
I28
ag17
ag10
aaasba(ihelper
PossibleWorld
p236
(dp237
g3
I29
sg4
I0
sg5
(lp238
(lp239
(lp240
I29
ag12
ag13
aa(lp241
I29
ag9
ag25
aa(lp242
I29
ag15
ag25
aa(lp243
I29
ag17
ag10
aaasba(ihelper
PossibleWorld
p244
(dp245
g3
I30
sg4
I0
sg5
(lp246
(lp247
(lp248
I30
ag9
ag18
aa(lp249
I30
ag12
ag10
aa(lp250
I30
ag15
ag25
aa(lp251
I30
ag17
ag13
aaasba(ihelper
PossibleWorld
p252
(dp253
g3
I31
sg4
I0
sg5
(lp254
(lp255
(lp256
I31
ag9
ag18
aa(lp257
I31
ag12
ag10
aa(lp258
I31
ag15
ag18
aa(lp259
I31
ag17
ag13
aaasba(ihelper
PossibleWorld
p260
(dp261
g3
I32
sg4
I0
sg5
(lp262
(lp263
(lp264
I32
ag9
ag18
aa(lp265
I32
ag12
ag13
aa(lp266
I32
ag15
ag25
aa(lp267
I32
ag17
ag13
aaasba(ihelper
PossibleWorld
p268
(dp269
g3
I33
sg4
I0
sg5
(lp270
(lp271
(lp272
I33
ag9
ag10
aa(lp273
I33
ag12
ag13
aa(lp274
I33
ag15
ag25
aa(lp275
I33
ag17
ag13
aaasba(ihelper
PossibleWorld
p276
(dp277
g3
I34
sg4
I0
sg5
(lp278
(lp279
(lp280
I34
ag9
ag18
aa(lp281
I34
ag12
ag13
aa(lp282
I34
ag15
ag10
aa(lp283
I34
ag17
ag13
aaasba(ihelper
PossibleWorld
p284
(dp285
g3
I35
sg4
I0
sg5
(lp286
(lp287
(lp288
I35
ag9
ag10
aa(lp289
I35
ag12
ag13
aa(lp290
I35
ag15
ag10
aa(lp291
I35
ag17
ag13
aaasba(ihelper
PossibleWorld
p292
(dp293
g3
I36
sg4
I0
sg5
(lp294
(lp295
(lp296
I36
ag9
ag18
aa(lp297
I36
ag12
ag13
aa(lp298
I36
ag15
ag18
aa(lp299
I36
ag17
ag13
aaasba(ihelper
PossibleWorld
p300
(dp301
g3
I37
sg4
I0
sg5
(lp302
(lp303
(lp304
I37
ag9
ag10
aa(lp305
I37
ag12
ag13
aa(lp306
I37
ag15
ag18
aa(lp307
I37
ag17
ag13
aaasba(ihelper
PossibleWorld
p308
(dp309
g3
I38
sg4
I0
sg5
(lp310
(lp311
(lp312
I38
ag9
ag18
aa(lp313
I38
ag12
ag25
aa(lp314
I38
ag15
ag10
aa(lp315
I38
ag17
ag13
aaasba(ihelper
PossibleWorld
p316
(dp317
g3
I39
sg4
I0
sg5
(lp318
(lp319
(lp320
I39
ag9
ag18
aa(lp321
I39
ag12
ag25
aa(lp322
I39
ag15
ag18
aa(lp323
I39
ag17
ag13
aaasba(ihelper
PossibleWorld
p324
(dp325
g3
I40
sg4
I0
sg5
(lp326
(lp327
(lp328
I40
ag9
ag10
aa(lp329
I40
ag12
ag25
aa(lp330
I40
ag15
ag10
aa(lp331
I40
ag17
ag13
aaasba(ihelper
PossibleWorld
p332
(dp333
g3
I41
sg4
I0
sg5
(lp334
(lp335
(lp336
I41
ag9
ag10
aa(lp337
I41
ag12
ag25
aa(lp338
I41
ag15
ag18
aa(lp339
I41
ag17
ag13
aaasba(ihelper
PossibleWorld
p340
(dp341
g3
I42
sg4
I0
sg5
(lp342
(lp343
(lp344
I42
ag12
ag10
aa(lp345
I42
ag9
ag25
aa(lp346
I42
ag15
ag25
aa(lp347
I42
ag17
ag13
aaasba(ihelper
PossibleWorld
p348
(dp349
g3
I43
sg4
I0
sg5
(lp350
(lp351
(lp352
I43
ag12
ag13
aa(lp353
I43
ag9
ag25
aa(lp354
I43
ag15
ag10
aa(lp355
I43
ag17
ag13
aaasba(ihelper
PossibleWorld
p356
(dp357
g3
I44
sg4
I0
sg5
(lp358
(lp359
(lp360
I44
ag12
ag13
aa(lp361
I44
ag9
ag25
aa(lp362
I44
ag15
ag25
aa(lp363
I44
ag17
ag13
aaasba(ihelper
PossibleWorld
p364
(dp365
g3
I45
sg4
I0
sg5
(lp366
(lp367
(lp368
I45
ag12
ag10
aa(lp369
I45
ag9
ag25
aa(lp370
I45
ag15
ag18
aa(lp371
I45
ag17
ag13
aaasba(ihelper
PossibleWorld
p372
(dp373
g3
I46
sg4
I0
sg5
(lp374
(lp375
(lp376
I46
ag12
ag13
aa(lp377
I46
ag9
ag25
aa(lp378
I46
ag15
ag18
aa(lp379
I46
ag17
ag13
aaasba(ihelper
PossibleWorld
p380
(dp381
g3
I47
sg4
I0
sg5
(lp382
(lp383
(lp384
I47
ag9
ag18
aa(lp385
I47
ag12
ag10
aa(lp386
I47
ag15
ag18
aa(lp387
I47
ag17
ag25
aaasba(ihelper
PossibleWorld
p388
(dp389
g3
I48
sg4
I0
sg5
(lp390
(lp391
(lp392
I48
ag9
ag18
aa(lp393
I48
ag12
ag10
aa(lp394
I48
ag15
ag13
aa(lp395
I48
ag17
ag25
aaasba(ihelper
PossibleWorld
p396
(dp397
g3
I49
sg4
I0
sg5
(lp398
(lp399
(lp400
I49
ag12
ag10
aa(lp401
I49
ag9
ag13
aa(lp402
I49
ag15
ag18
aa(lp403
I49
ag17
ag25
aaasba(ihelper
PossibleWorld
p404
(dp405
g3
I50
sg4
I0
sg5
(lp406
(lp407
(lp408
I50
ag12
ag10
aa(lp409
I50
ag9
ag13
aa(lp410
I50
ag15
ag13
aa(lp411
I50
ag17
ag25
aaasba(ihelper
PossibleWorld
p412
(dp413
g3
I51
sg4
I0
sg5
(lp414
(lp415
(lp416
I51
ag9
ag18
aa(lp417
I51
ag12
ag25
aa(lp418
I51
ag15
ag10
aa(lp419
I51
ag17
ag25
aaasba(ihelper
PossibleWorld
p420
(dp421
g3
I52
sg4
I0
sg5
(lp422
(lp423
(lp424
I52
ag9
ag18
aa(lp425
I52
ag12
ag25
aa(lp426
I52
ag15
ag18
aa(lp427
I52
ag17
ag25
aaasba(ihelper
PossibleWorld
p428
(dp429
g3
I53
sg4
I0
sg5
(lp430
(lp431
(lp432
I53
ag9
ag13
aa(lp433
I53
ag12
ag25
aa(lp434
I53
ag15
ag10
aa(lp435
I53
ag17
ag25
aaasba(ihelper
PossibleWorld
p436
(dp437
g3
I54
sg4
I0
sg5
(lp438
(lp439
(lp440
I54
ag9
ag13
aa(lp441
I54
ag12
ag25
aa(lp442
I54
ag15
ag18
aa(lp443
I54
ag17
ag25
aaasba(ihelper
PossibleWorld
p444
(dp445
g3
I55
sg4
I0
sg5
(lp446
(lp447
(lp448
I55
ag9
ag18
aa(lp449
I55
ag12
ag25
aa(lp450
I55
ag15
ag13
aa(lp451
I55
ag17
ag25
aaasba(ihelper
PossibleWorld
p452
(dp453
g3
I56
sg4
I0
sg5
(lp454
(lp455
(lp456
I56
ag9
ag13
aa(lp457
I56
ag12
ag25
aa(lp458
I56
ag15
ag13
aa(lp459
I56
ag17
ag25
aaasba(ihelper
PossibleWorld
p460
(dp461
g3
I57
sg4
I0
sg5
(lp462
(lp463
(lp464
I57
ag9
ag10
aa(lp465
I57
ag12
ag25
aa(lp466
I57
ag15
ag10
aa(lp467
I57
ag17
ag25
aaasba(ihelper
PossibleWorld
p468
(dp469
g3
I58
sg4
I0
sg5
(lp470
(lp471
(lp472
I58
ag9
ag10
aa(lp473
I58
ag12
ag25
aa(lp474
I58
ag15
ag13
aa(lp475
I58
ag17
ag25
aaasba(ihelper
PossibleWorld
p476
(dp477
g3
I59
sg4
I0
sg5
(lp478
(lp479
(lp480
I59
ag9
ag10
aa(lp481
I59
ag12
ag25
aa(lp482
I59
ag15
ag18
aa(lp483
I59
ag17
ag25
aaasba(ihelper
PossibleWorld
p484
(dp485
g3
I60
sg4
I0
sg5
(lp486
(lp487
(lp488
I60
ag9
ag18
aa(lp489
I60
ag12
ag13
aa(lp490
I60
ag15
ag10
aa(lp491
I60
ag17
ag25
aaasba(ihelper
PossibleWorld
p492
(dp493
g3
I61
sg4
I0
sg5
(lp494
(lp495
(lp496
I61
ag9
ag10
aa(lp497
I61
ag12
ag13
aa(lp498
I61
ag15
ag10
aa(lp499
I61
ag17
ag25
aaasba(ihelper
PossibleWorld
p500
(dp501
g3
I62
sg4
I0
sg5
(lp502
(lp503
(lp504
I62
ag9
ag18
aa(lp505
I62
ag12
ag13
aa(lp506
I62
ag15
ag18
aa(lp507
I62
ag17
ag25
aaasba(ihelper
PossibleWorld
p508
(dp509
g3
I63
sg4
I0
sg5
(lp510
(lp511
(lp512
I63
ag9
ag10
aa(lp513
I63
ag12
ag13
aa(lp514
I63
ag15
ag18
aa(lp515
I63
ag17
ag25
aaasba(ihelper
PossibleWorld
p516
(dp517
g3
I64
sg4
I0
sg5
(lp518
(lp519
(lp520
I64
ag12
ag18
aa(lp521
I64
ag9
ag13
aa(lp522
I64
ag15
ag13
aa(lp523
I64
ag17
ag10
aaasba(ihelper
PossibleWorld
p524
(dp525
g3
I65
sg4
I0
sg5
(lp526
(lp527
(lp528
I65
ag12
ag18
aa(lp529
I65
ag9
ag13
aa(lp530
I65
ag15
ag13
aa(lp531
I65
ag17
ag25
aaasba(ihelper
PossibleWorld
p532
(dp533
g3
I66
sg4
I0
sg5
(lp534
(lp535
(lp536
I66
ag12
ag18
aa(lp537
I66
ag9
ag13
aa(lp538
I66
ag15
ag10
aa(lp539
I66
ag17
ag25
aaasba(ihelper
PossibleWorld
p540
(dp541
g3
I67
sg4
I0
sg5
(lp542
(lp543
(lp544
I67
ag12
ag18
aa(lp545
I67
ag9
ag13
aa(lp546
I67
ag15
ag25
aa(lp547
I67
ag17
ag10
aaasba(ihelper
PossibleWorld
p548
(dp549
g3
I68
sg4
I0
sg5
(lp550
(lp551
(lp552
I68
ag12
ag18
aa(lp553
I68
ag9
ag25
aa(lp554
I68
ag15
ag25
aa(lp555
I68
ag17
ag13
aaasba(ihelper
PossibleWorld
p556
(dp557
g3
I69
sg4
I0
sg5
(lp558
(lp559
(lp560
I69
ag12
ag18
aa(lp561
I69
ag9
ag25
aa(lp562
I69
ag15
ag13
aa(lp563
I69
ag17
ag10
aaasba(ihelper
PossibleWorld
p564
(dp565
g3
I70
sg4
I0
sg5
(lp566
(lp567
(lp568
I70
ag12
ag18
aa(lp569
I70
ag9
ag25
aa(lp570
I70
ag15
ag25
aa(lp571
I70
ag17
ag10
aaasba(ihelper
PossibleWorld
p572
(dp573
g3
I71
sg4
I0
sg5
(lp574
(lp575
(lp576
I71
ag12
ag18
aa(lp577
I71
ag9
ag25
aa(lp578
I71
ag15
ag10
aa(lp579
I71
ag17
ag13
aaasba(ihelper
PossibleWorld
p580
(dp581
g3
I72
sg4
I0
sg5
(lp582
(lp583
(lp584
I72
ag12
ag18
aa(lp585
I72
ag9
ag25
aa(lp586
I72
ag15
ag13
aa(lp587
I72
ag17
ag18
aaasba(ihelper
PossibleWorld
p588
(dp589
g3
I73
sg4
I0
sg5
(lp590
(lp591
(lp592
I73
ag12
ag18
aa(lp593
I73
ag9
ag25
aa(lp594
I73
ag15
ag10
aa(lp595
I73
ag17
ag18
aaasba(ihelper
PossibleWorld
p596
(dp597
g3
I74
sg4
I0
sg5
(lp598
(lp599
(lp600
I74
ag12
ag18
aa(lp601
I74
ag9
ag13
aa(lp602
I74
ag15
ag13
aa(lp603
I74
ag17
ag18
aaasba(ihelper
PossibleWorld
p604
(dp605
g3
I75
sg4
I0
sg5
(lp606
(lp607
(lp608
I75
ag12
ag18
aa(lp609
I75
ag9
ag13
aa(lp610
I75
ag15
ag10
aa(lp611
I75
ag17
ag18
aaasba(ihelper
PossibleWorld
p612
(dp613
g3
I76
sg4
I0
sg5
(lp614
(lp615
(lp616
I76
ag12
ag18
aa(lp617
I76
ag9
ag13
aa(lp618
I76
ag15
ag25
aa(lp619
I76
ag17
ag18
aaasba(ihelper
PossibleWorld
p620
(dp621
g3
I77
sg4
I0
sg5
(lp622
(lp623
(lp624
I77
ag12
ag18
aa(lp625
I77
ag9
ag25
aa(lp626
I77
ag15
ag25
aa(lp627
I77
ag17
ag18
aaasba(ihelper
PossibleWorld
p628
(dp629
g3
I78
sg4
I0
sg5
(lp630
(lp631
(lp632
I78
ag12
ag18
aa(lp633
I78
ag9
ag10
aa(lp634
I78
ag15
ag25
aa(lp635
I78
ag17
ag13
aaasba(ihelper
PossibleWorld
p636
(dp637
g3
I79
sg4
I0
sg5
(lp638
(lp639
(lp640
I79
ag12
ag18
aa(lp641
I79
ag9
ag10
aa(lp642
I79
ag15
ag10
aa(lp643
I79
ag17
ag13
aaasba(ihelper
PossibleWorld
p644
(dp645
g3
I80
sg4
I0
sg5
(lp646
(lp647
(lp648
I80
ag12
ag18
aa(lp649
I80
ag9
ag10
aa(lp650
I80
ag15
ag13
aa(lp651
I80
ag17
ag18
aaasba(ihelper
PossibleWorld
p652
(dp653
g3
I81
sg4
I0
sg5
(lp654
(lp655
(lp656
I81
ag12
ag18
aa(lp657
I81
ag9
ag10
aa(lp658
I81
ag15
ag25
aa(lp659
I81
ag17
ag18
aaasba(ihelper
PossibleWorld
p660
(dp661
g3
I82
sg4
I0
sg5
(lp662
(lp663
(lp664
I82
ag12
ag18
aa(lp665
I82
ag9
ag10
aa(lp666
I82
ag15
ag10
aa(lp667
I82
ag17
ag18
aaasba(ihelper
PossibleWorld
p668
(dp669
g3
I83
sg4
I0
sg5
(lp670
(lp671
(lp672
I83
ag12
ag18
aa(lp673
I83
ag9
ag10
aa(lp674
I83
ag15
ag13
aa(lp675
I83
ag17
ag25
aaasba(ihelper
PossibleWorld
p676
(dp677
g3
I84
sg4
I0
sg5
(lp678
(lp679
(lp680
I84
ag12
ag18
aa(lp681
I84
ag9
ag10
aa(lp682
I84
ag15
ag10
aa(lp683
I84
ag17
ag25
aaasba.