(lp0
(ihelper
PossibleWorld
p1
(dp2
S'pw_id'
p3
I1
sS'pw_soln'
p4
I0
sS'rls'
p5
(lp6
(lp7
(lp8
I1
aVaCEN_USA
p9
aVbNDC_USA
p10
aa(lp11
I1
aVaCEN_Midwest
p12
aVbNDC_Midwest
p13
aa(lp14
I1
aVbNDC_Midwest
p15
aVaCEN_Midwest
p16
aa(lp17
I1
aVbNDC_USA
p18
aVaCEN_USA
p19
aa(lp20
I1
aVbNDC_USA
p21
aVbNDC_USA
p22
aa(lp23
I1
aVaCEN_USA
p24
aVaCEN_USA
p25
aa(lp26
I1
aVbNDC_West
p27
aVbNDC_West
p28
aa(lp29
I1
aVbNDC_Southwest
p30
aVbNDC_Southwest
p31
aa(lp32
I1
aVbNDC_Southeast
p33
aVbNDC_Southeast
p34
aa(lp35
I1
aVbNDC_Northeast
p36
aVbNDC_Northeast
p37
aa(lp38
I1
aVbNDC_Midwest
p39
aVbNDC_Midwest
p40
aa(lp41
I1
aVaCEN_West
p42
aVaCEN_West
p43
aa(lp44
I1
aVaCEN_South
p45
aVaCEN_South
p46
aa(lp47
I1
aVaCEN_Midwest
p48
aVaCEN_Midwest
p49
aa(lp50
I1
aVaCEN_Northeast
p51
aVaCEN_Northeast
p52
aaa(lp53
(lp54
I1
aVaCEN_Midwest
p55
aVaCEN_Northeast
p56
aa(lp57
I1
aVaCEN_South
p58
aVaCEN_Northeast
p59
aa(lp60
I1
aVaCEN_West
p61
aVaCEN_Northeast
p62
aa(lp63
I1
aVaCEN_Northeast
p64
aVaCEN_Midwest
p65
aa(lp66
I1
aVaCEN_South
p67
aVaCEN_Midwest
p68
aa(lp69
I1
aVaCEN_West
p70
aVaCEN_Midwest
p71
aa(lp72
I1
aVaCEN_Northeast
p73
aVaCEN_South
p74
aa(lp75
I1
aVaCEN_Midwest
p76
aVaCEN_South
p77
aa(lp78
I1
aVaCEN_West
p79
aVaCEN_South
p80
aa(lp81
I1
aVaCEN_Northeast
p82
aVaCEN_West
p83
aa(lp84
I1
aVaCEN_Midwest
p85
aVaCEN_West
p86
aa(lp87
I1
aVaCEN_South
p88
aVaCEN_West
p89
aa(lp90
I1
aVbNDC_Northeast
p91
aVbNDC_Midwest
p92
aa(lp93
I1
aVbNDC_Southeast
p94
aVbNDC_Midwest
p95
aa(lp96
I1
aVbNDC_Southwest
p97
aVbNDC_Midwest
p98
aa(lp99
I1
aVbNDC_West
p100
aVbNDC_Midwest
p101
aa(lp102
I1
aVbNDC_Midwest
p103
aVbNDC_Northeast
p104
aa(lp105
I1
aVbNDC_Southeast
p106
aVbNDC_Northeast
p107
aa(lp108
I1
aVbNDC_Southwest
p109
aVbNDC_Northeast
p110
aa(lp111
I1
aVbNDC_West
p112
aVbNDC_Northeast
p113
aa(lp114
I1
aVbNDC_Midwest
p115
aVbNDC_Southeast
p116
aa(lp117
I1
aVbNDC_Northeast
p118
aVbNDC_Southeast
p119
aa(lp120
I1
aVbNDC_Southwest
p121
aVbNDC_Southeast
p122
aa(lp123
I1
aVbNDC_West
p124
aVbNDC_Southeast
p125
aa(lp126
I1
aVbNDC_Midwest
p127
aVbNDC_Southwest
p128
aa(lp129
I1
aVbNDC_Northeast
p130
aVbNDC_Southwest
p131
aa(lp132
I1
aVbNDC_Southeast
p133
aVbNDC_Southwest
p134
aa(lp135
I1
aVbNDC_West
p136
aVbNDC_Southwest
p137
aa(lp138
I1
aVbNDC_Midwest
p139
aVbNDC_West
p140
aa(lp141
I1
aVbNDC_Northeast
p142
aVbNDC_West
p143
aa(lp144
I1
aVbNDC_Southeast
p145
aVbNDC_West
p146
aa(lp147
I1
aVbNDC_Southwest
p148
aVbNDC_West
p149
aa(lp150
I1
aVaCEN_Northeast
p151
aVbNDC_West
p152
aa(lp153
I1
aVaCEN_Northeast
p154
aVbNDC_Southwest
p155
aa(lp156
I1
aVaCEN_Northeast
p157
aVbNDC_Southeast
p158
aa(lp159
I1
aVaCEN_Northeast
p160
aVbNDC_Midwest
p161
aa(lp162
I1
aVaCEN_South
p163
aVbNDC_Midwest
p164
aa(lp165
I1
aVaCEN_West
p166
aVbNDC_Midwest
p167
aa(lp168
I1
aVaCEN_Midwest
p169
aVbNDC_West
p170
aa(lp171
I1
aVaCEN_Midwest
p172
aVbNDC_Southwest
p173
aa(lp174
I1
aVaCEN_Midwest
p175
aVbNDC_Southeast
p176
aa(lp177
I1
aVaCEN_Midwest
p178
aVbNDC_Northeast
p179
aa(lp180
I1
aVbNDC_Northeast
p181
aVaCEN_Midwest
p182
aa(lp183
I1
aVbNDC_Southeast
p184
aVaCEN_Midwest
p185
aa(lp186
I1
aVbNDC_Southwest
p187
aVaCEN_Midwest
p188
aa(lp189
I1
aVbNDC_West
p190
aVaCEN_Midwest
p191
aa(lp192
I1
aVbNDC_Midwest
p193
aVaCEN_West
p194
aa(lp195
I1
aVbNDC_Midwest
p196
aVaCEN_South
p197
aa(lp198
I1
aVbNDC_Midwest
p199
aVaCEN_Northeast
p200
aa(lp201
I1
aVbNDC_Southeast
p202
aVaCEN_Northeast
p203
aa(lp204
I1
aVbNDC_Southwest
p205
aVaCEN_Northeast
p206
aa(lp207
I1
aVbNDC_West
p208
aVaCEN_Northeast
p209
aa(lp210
I1
aVbNDC_West
p211
aVaCEN_South
p212
aa(lp213
I1
aVbNDC_Southeast
p214
aVaCEN_West
p215
aa(lp216
I1
aVaCEN_South
p217
aVbNDC_West
p218
aa(lp219
I1
aVaCEN_West
p220
aVbNDC_Southeast
p221
aa(lp222
I1
aVaCEN_South
p223
aVbNDC_Northeast
p224
aa(lp225
I1
aVbNDC_Northeast
p226
aVaCEN_South
p227
aa(lp228
I1
aVaCEN_West
p229
aVbNDC_Northeast
p230
aa(lp231
I1
aVbNDC_Northeast
p232
aVaCEN_West
p233
aa(lp234
I1
aVbNDC_Southwest
p235
aVaCEN_West
p236
aa(lp237
I1
aVaCEN_West
p238
aVbNDC_Southwest
p239
aaa(lp240
(lp241
I1
aVaCEN_Northeast
p242
aVbNDC_Northeast
p243
aa(lp244
I1
aVaCEN_Northeast
p245
aVaCEN_USA
p246
aa(lp247
I1
aVaCEN_Midwest
p248
aVaCEN_USA
p249
aa(lp250
I1
aVaCEN_South
p251
aVaCEN_USA
p252
aa(lp253
I1
aVaCEN_West
p254
aVaCEN_USA
p255
aa(lp256
I1
aVbNDC_Midwest
p257
aVbNDC_USA
p258
aa(lp259
I1
aVbNDC_Northeast
p260
aVbNDC_USA
p261
aa(lp262
I1
aVbNDC_Southeast
p263
aVbNDC_USA
p264
aa(lp265
I1
aVbNDC_Southwest
p266
aVbNDC_USA
p267
aa(lp268
I1
aVbNDC_West
p269
aVbNDC_USA
p270
aa(lp271
I1
aVbNDC_Southeast
p272
aVaCEN_South
p273
aa(lp274
I1
aVbNDC_West
p275
aVaCEN_West
p276
aa(lp277
I1
aVaCEN_Northeast
p278
aVbNDC_USA
p279
aa(lp280
I1
aVaCEN_Midwest
p281
aVbNDC_USA
p282
aa(lp283
I1
aVaCEN_South
p284
aVbNDC_USA
p285
aa(lp286
I1
aVaCEN_West
p287
aVbNDC_USA
p288
aa(lp289
I1
aVbNDC_West
p290
aVaCEN_USA
p291
aa(lp292
I1
aVbNDC_Southeast
p293
aVaCEN_USA
p294
aa(lp295
I1
aVbNDC_Southwest
p296
aVaCEN_USA
p297
aa(lp298
I1
aVbNDC_Northeast
p299
aVaCEN_USA
p300
aa(lp301
I1
aVbNDC_Midwest
p302
aVaCEN_USA
p303
aaa(lp304
(lp305
I1
aVaCEN_West
p306
aVbNDC_West
p307
aa(lp308
I1
aVaCEN_South
p309
aVbNDC_Southeast
p310
aa(lp311
I1
aVbNDC_USA
p312
aVbNDC_West
p313
aa(lp314
I1
aVbNDC_USA
p315
aVbNDC_Southwest
p316
aa(lp317
I1
aVbNDC_USA
p318
aVbNDC_Southeast
p319
aa(lp320
I1
aVbNDC_USA
p321
aVbNDC_Northeast
p322
aa(lp323
I1
aVbNDC_USA
p324
aVbNDC_Midwest
p325
aa(lp326
I1
aVaCEN_USA
p327
aVaCEN_West
p328
aa(lp329
I1
aVaCEN_USA
p330
aVaCEN_South
p331
aa(lp332
I1
aVaCEN_USA
p333
aVaCEN_Midwest
p334
aa(lp335
I1
aVaCEN_USA
p336
aVaCEN_Northeast
p337
aa(lp338
I1
aVbNDC_Northeast
p339
aVaCEN_Northeast
p340
aa(lp341
I1
aVbNDC_USA
p342
aVaCEN_West
p343
aa(lp344
I1
aVbNDC_USA
p345
aVaCEN_South
p346
aa(lp347
I1
aVbNDC_USA
p348
aVaCEN_Midwest
p349
aa(lp350
I1
aVbNDC_USA
p351
aVaCEN_Northeast
p352
aa(lp353
I1
aVaCEN_USA
p354
aVbNDC_Southeast
p355
aa(lp356
I1
aVaCEN_USA
p357
aVbNDC_West
p358
aa(lp359
I1
aVaCEN_USA
p360
aVbNDC_Midwest
p361
aa(lp362
I1
aVaCEN_USA
p363
aVbNDC_Northeast
p364
aa(lp365
I1
aVaCEN_USA
p366
aVbNDC_Southwest
p367
aaa(lp368
(lp369
I1
aVaCEN_South
p370
aVbNDC_Southwest
p371
aa(lp372
I1
aVbNDC_Southwest
p373
aVaCEN_South
p374
aaa(lp375
(lp376
I1
aVaCEN_Northeast
p377
aa(lp378
I1
aVaCEN_Midwest
p379
aa(lp380
I1
aVaCEN_South
p381
aa(lp382
I1
aVaCEN_West
p383
aa(lp384
I1
aVbNDC_Midwest
p385
aa(lp386
I1
aVbNDC_Northeast
p387
aa(lp388
I1
aVbNDC_Southeast
p389
aa(lp390
I1
aVbNDC_Southwest
p391
aa(lp392
I1
aVbNDC_West
p393
aa(lp394
I1
aVaCEN_USA
p395
aa(lp396
I1
aVbNDC_USA
p397
aaa(lp398
(lp399
I1
aVaCEN_USA
p400
aVaCEN_Northeast
p401
aa(lp402
I1
aVaCEN_USA
p403
aVaCEN_Midwest
p404
aa(lp405
I1
aVaCEN_USA
p406
aVaCEN_South
p407
aa(lp408
I1
aVaCEN_USA
p409
aVaCEN_West
p410
aa(lp411
I1
aVbNDC_USA
p412
aVbNDC_Midwest
p413
aa(lp414
I1
aVbNDC_USA
p415
aVbNDC_Northeast
p416
aa(lp417
I1
aVbNDC_USA
p418
aVbNDC_Southeast
p419
aa(lp420
I1
aVbNDC_USA
p421
aVbNDC_Southwest
p422
aa(lp423
I1
aVbNDC_USA
p424
aVbNDC_West
p425
aaasba(ihelper
PossibleWorld
p426
(dp427
g3
I2
sg4
I0
sg5
(lp428
(lp429
(lp430
I2
aVaCEN_USA
p431
aVbNDC_USA
p432
aa(lp433
I2
aVaCEN_Midwest
p434
aVbNDC_Midwest
p435
aa(lp436
I2
aVbNDC_Midwest
p437
aVaCEN_Midwest
p438
aa(lp439
I2
aVbNDC_USA
p440
aVaCEN_USA
p441
aa(lp442
I2
aVbNDC_USA
p443
aVbNDC_USA
p444
aa(lp445
I2
aVaCEN_USA
p446
aVaCEN_USA
p447
aa(lp448
I2
aVbNDC_West
p449
aVbNDC_West
p450
aa(lp451
I2
aVbNDC_Southwest
p452
aVbNDC_Southwest
p453
aa(lp454
I2
aVbNDC_Southeast
p455
aVbNDC_Southeast
p456
aa(lp457
I2
aVbNDC_Northeast
p458
aVbNDC_Northeast
p459
aa(lp460
I2
aVbNDC_Midwest
p461
aVbNDC_Midwest
p462
aa(lp463
I2
aVaCEN_West
p464
aVaCEN_West
p465
aa(lp466
I2
aVaCEN_South
p467
aVaCEN_South
p468
aa(lp469
I2
aVaCEN_Midwest
p470
aVaCEN_Midwest
p471
aa(lp472
I2
aVaCEN_Northeast
p473
aVaCEN_Northeast
p474
aaa(lp475
(lp476
I2
aVaCEN_Midwest
p477
aVaCEN_Northeast
p478
aa(lp479
I2
aVaCEN_South
p480
aVaCEN_Northeast
p481
aa(lp482
I2
aVaCEN_West
p483
aVaCEN_Northeast
p484
aa(lp485
I2
aVaCEN_Northeast
p486
aVaCEN_Midwest
p487
aa(lp488
I2
aVaCEN_South
p489
aVaCEN_Midwest
p490
aa(lp491
I2
aVaCEN_West
p492
aVaCEN_Midwest
p493
aa(lp494
I2
aVaCEN_Northeast
p495
aVaCEN_South
p496
aa(lp497
I2
aVaCEN_Midwest
p498
aVaCEN_South
p499
aa(lp500
I2
aVaCEN_West
p501
aVaCEN_South
p502
aa(lp503
I2
aVaCEN_Northeast
p504
aVaCEN_West
p505
aa(lp506
I2
aVaCEN_Midwest
p507
aVaCEN_West
p508
aa(lp509
I2
aVaCEN_South
p510
aVaCEN_West
p511
aa(lp512
I2
aVbNDC_Northeast
p513
aVbNDC_Midwest
p514
aa(lp515
I2
aVbNDC_Southeast
p516
aVbNDC_Midwest
p517
aa(lp518
I2
aVbNDC_Southwest
p519
aVbNDC_Midwest
p520
aa(lp521
I2
aVbNDC_West
p522
aVbNDC_Midwest
p523
aa(lp524
I2
aVbNDC_Midwest
p525
aVbNDC_Northeast
p526
aa(lp527
I2
aVbNDC_Southeast
p528
aVbNDC_Northeast
p529
aa(lp530
I2
aVbNDC_Southwest
p531
aVbNDC_Northeast
p532
aa(lp533
I2
aVbNDC_West
p534
aVbNDC_Northeast
p535
aa(lp536
I2
aVbNDC_Midwest
p537
aVbNDC_Southeast
p538
aa(lp539
I2
aVbNDC_Northeast
p540
aVbNDC_Southeast
p541
aa(lp542
I2
aVbNDC_Southwest
p543
aVbNDC_Southeast
p544
aa(lp545
I2
aVbNDC_West
p546
aVbNDC_Southeast
p547
aa(lp548
I2
aVbNDC_Midwest
p549
aVbNDC_Southwest
p550
aa(lp551
I2
aVbNDC_Northeast
p552
aVbNDC_Southwest
p553
aa(lp554
I2
aVbNDC_Southeast
p555
aVbNDC_Southwest
p556
aa(lp557
I2
aVbNDC_West
p558
aVbNDC_Southwest
p559
aa(lp560
I2
aVbNDC_Midwest
p561
aVbNDC_West
p562
aa(lp563
I2
aVbNDC_Northeast
p564
aVbNDC_West
p565
aa(lp566
I2
aVbNDC_Southeast
p567
aVbNDC_West
p568
aa(lp569
I2
aVbNDC_Southwest
p570
aVbNDC_West
p571
aa(lp572
I2
aVaCEN_Northeast
p573
aVbNDC_West
p574
aa(lp575
I2
aVaCEN_Northeast
p576
aVbNDC_Southwest
p577
aa(lp578
I2
aVaCEN_Northeast
p579
aVbNDC_Southeast
p580
aa(lp581
I2
aVaCEN_Northeast
p582
aVbNDC_Midwest
p583
aa(lp584
I2
aVaCEN_South
p585
aVbNDC_Midwest
p586
aa(lp587
I2
aVaCEN_West
p588
aVbNDC_Midwest
p589
aa(lp590
I2
aVaCEN_Midwest
p591
aVbNDC_West
p592
aa(lp593
I2
aVaCEN_Midwest
p594
aVbNDC_Southwest
p595
aa(lp596
I2
aVaCEN_Midwest
p597
aVbNDC_Southeast
p598
aa(lp599
I2
aVaCEN_Midwest
p600
aVbNDC_Northeast
p601
aa(lp602
I2
aVbNDC_Northeast
p603
aVaCEN_Midwest
p604
aa(lp605
I2
aVbNDC_Southeast
p606
aVaCEN_Midwest
p607
aa(lp608
I2
aVbNDC_Southwest
p609
aVaCEN_Midwest
p610
aa(lp611
I2
aVbNDC_West
p612
aVaCEN_Midwest
p613
aa(lp614
I2
aVbNDC_Midwest
p615
aVaCEN_West
p616
aa(lp617
I2
aVbNDC_Midwest
p618
aVaCEN_South
p619
aa(lp620
I2
aVbNDC_Midwest
p621
aVaCEN_Northeast
p622
aa(lp623
I2
aVbNDC_Southeast
p624
aVaCEN_Northeast
p625
aa(lp626
I2
aVbNDC_Southwest
p627
aVaCEN_Northeast
p628
aa(lp629
I2
aVbNDC_West
p630
aVaCEN_Northeast
p631
aa(lp632
I2
aVbNDC_West
p633
aVaCEN_South
p634
aa(lp635
I2
aVbNDC_Southeast
p636
aVaCEN_West
p637
aa(lp638
I2
aVaCEN_South
p639
aVbNDC_West
p640
aa(lp641
I2
aVaCEN_West
p642
aVbNDC_Southeast
p643
aa(lp644
I2
aVaCEN_West
p645
aVbNDC_Northeast
p646
aa(lp647
I2
aVbNDC_Northeast
p648
aVaCEN_West
p649
aa(lp650
I2
aVbNDC_Southwest
p651
aVaCEN_West
p652
aa(lp653
I2
aVaCEN_West
p654
aVbNDC_Southwest
p655
aaa(lp656
(lp657
I2
aVaCEN_Northeast
p658
aVbNDC_Northeast
p659
aa(lp660
I2
aVaCEN_Northeast
p661
aVaCEN_USA
p662
aa(lp663
I2
aVaCEN_Midwest
p664
aVaCEN_USA
p665
aa(lp666
I2
aVaCEN_South
p667
aVaCEN_USA
p668
aa(lp669
I2
aVaCEN_West
p670
aVaCEN_USA
p671
aa(lp672
I2
aVbNDC_Midwest
p673
aVbNDC_USA
p674
aa(lp675
I2
aVbNDC_Northeast
p676
aVbNDC_USA
p677
aa(lp678
I2
aVbNDC_Southeast
p679
aVbNDC_USA
p680
aa(lp681
I2
aVbNDC_Southwest
p682
aVbNDC_USA
p683
aa(lp684
I2
aVbNDC_West
p685
aVbNDC_USA
p686
aa(lp687
I2
aVbNDC_Southeast
p688
aVaCEN_South
p689
aa(lp690
I2
aVbNDC_West
p691
aVaCEN_West
p692
aa(lp693
I2
aVaCEN_Northeast
p694
aVbNDC_USA
p695
aa(lp696
I2
aVaCEN_Midwest
p697
aVbNDC_USA
p698
aa(lp699
I2
aVaCEN_South
p700
aVbNDC_USA
p701
aa(lp702
I2
aVaCEN_West
p703
aVbNDC_USA
p704
aa(lp705
I2
aVbNDC_West
p706
aVaCEN_USA
p707
aa(lp708
I2
aVbNDC_Southeast
p709
aVaCEN_USA
p710
aa(lp711
I2
aVbNDC_Southwest
p712
aVaCEN_USA
p713
aa(lp714
I2
aVbNDC_Northeast
p715
aVaCEN_USA
p716
aa(lp717
I2
aVbNDC_Midwest
p718
aVaCEN_USA
p719
aaa(lp720
(lp721
I2
aVaCEN_West
p722
aVbNDC_West
p723
aa(lp724
I2
aVaCEN_South
p725
aVbNDC_Southeast
p726
aa(lp727
I2
aVbNDC_USA
p728
aVbNDC_West
p729
aa(lp730
I2
aVbNDC_USA
p731
aVbNDC_Southwest
p732
aa(lp733
I2
aVbNDC_USA
p734
aVbNDC_Southeast
p735
aa(lp736
I2
aVbNDC_USA
p737
aVbNDC_Northeast
p738
aa(lp739
I2
aVbNDC_USA
p740
aVbNDC_Midwest
p741
aa(lp742
I2
aVaCEN_USA
p743
aVaCEN_West
p744
aa(lp745
I2
aVaCEN_USA
p746
aVaCEN_South
p747
aa(lp748
I2
aVaCEN_USA
p749
aVaCEN_Midwest
p750
aa(lp751
I2
aVaCEN_USA
p752
aVaCEN_Northeast
p753
aa(lp754
I2
aVbNDC_Northeast
p755
aVaCEN_Northeast
p756
aa(lp757
I2
aVbNDC_USA
p758
aVaCEN_West
p759
aa(lp760
I2
aVbNDC_USA
p761
aVaCEN_South
p762
aa(lp763
I2
aVbNDC_USA
p764
aVaCEN_Midwest
p765
aa(lp766
I2
aVbNDC_USA
p767
aVaCEN_Northeast
p768
aa(lp769
I2
aVaCEN_USA
p770
aVbNDC_Southeast
p771
aa(lp772
I2
aVaCEN_USA
p773
aVbNDC_West
p774
aa(lp775
I2
aVaCEN_USA
p776
aVbNDC_Midwest
p777
aa(lp778
I2
aVaCEN_USA
p779
aVbNDC_Northeast
p780
aa(lp781
I2
aVaCEN_USA
p782
aVbNDC_Southwest
p783
aaa(lp784
(lp785
I2
aVaCEN_South
p786
aVbNDC_Southwest
p787
aa(lp788
I2
aVbNDC_Southwest
p789
aVaCEN_South
p790
aa(lp791
I2
aVaCEN_South
p792
aVbNDC_Northeast
p793
aa(lp794
I2
aVbNDC_Northeast
p795
aVaCEN_South
p796
aaa(lp797
(lp798
I2
aVaCEN_Northeast
p799
aa(lp800
I2
aVaCEN_Midwest
p801
aa(lp802
I2
aVaCEN_South
p803
aa(lp804
I2
aVaCEN_West
p805
aa(lp806
I2
aVbNDC_Midwest
p807
aa(lp808
I2
aVbNDC_Northeast
p809
aa(lp810
I2
aVbNDC_Southeast
p811
aa(lp812
I2
aVbNDC_Southwest
p813
aa(lp814
I2
aVbNDC_West
p815
aa(lp816
I2
aVaCEN_USA
p817
aa(lp818
I2
aVbNDC_USA
p819
aaa(lp820
(lp821
I2
aVaCEN_USA
p822
aVaCEN_Northeast
p823
aa(lp824
I2
aVaCEN_USA
p825
aVaCEN_Midwest
p826
aa(lp827
I2
aVaCEN_USA
p828
aVaCEN_South
p829
aa(lp830
I2
aVaCEN_USA
p831
aVaCEN_West
p832
aa(lp833
I2
aVbNDC_USA
p834
aVbNDC_Midwest
p835
aa(lp836
I2
aVbNDC_USA
p837
aVbNDC_Northeast
p838
aa(lp839
I2
aVbNDC_USA
p840
aVbNDC_Southeast
p841
aa(lp842
I2
aVbNDC_USA
p843
aVbNDC_Southwest
p844
aa(lp845
I2
aVbNDC_USA
p846
aVbNDC_West
p847
aaasba(ihelper
PossibleWorld
p848
(dp849
g3
I3
sg4
I0
sg5
(lp850
(lp851
(lp852
I3
aVaCEN_USA
p853
aVbNDC_USA
p854
aa(lp855
I3
aVaCEN_Midwest
p856
aVbNDC_Midwest
p857
aa(lp858
I3
aVbNDC_Midwest
p859
aVaCEN_Midwest
p860
aa(lp861
I3
aVbNDC_USA
p862
aVaCEN_USA
p863
aa(lp864
I3
aVbNDC_USA
p865
aVbNDC_USA
p866
aa(lp867
I3
aVaCEN_USA
p868
aVaCEN_USA
p869
aa(lp870
I3
aVbNDC_West
p871
aVbNDC_West
p872
aa(lp873
I3
aVbNDC_Southwest
p874
aVbNDC_Southwest
p875
aa(lp876
I3
aVbNDC_Southeast
p877
aVbNDC_Southeast
p878
aa(lp879
I3
aVbNDC_Northeast
p880
aVbNDC_Northeast
p881
aa(lp882
I3
aVbNDC_Midwest
p883
aVbNDC_Midwest
p884
aa(lp885
I3
aVaCEN_West
p886
aVaCEN_West
p887
aa(lp888
I3
aVaCEN_South
p889
aVaCEN_South
p890
aa(lp891
I3
aVaCEN_Midwest
p892
aVaCEN_Midwest
p893
aa(lp894
I3
aVaCEN_Northeast
p895
aVaCEN_Northeast
p896
aaa(lp897
(lp898
I3
aVaCEN_Midwest
p899
aVaCEN_Northeast
p900
aa(lp901
I3
aVaCEN_South
p902
aVaCEN_Northeast
p903
aa(lp904
I3
aVaCEN_West
p905
aVaCEN_Northeast
p906
aa(lp907
I3
aVaCEN_Northeast
p908
aVaCEN_Midwest
p909
aa(lp910
I3
aVaCEN_South
p911
aVaCEN_Midwest
p912
aa(lp913
I3
aVaCEN_West
p914
aVaCEN_Midwest
p915
aa(lp916
I3
aVaCEN_Northeast
p917
aVaCEN_South
p918
aa(lp919
I3
aVaCEN_Midwest
p920
aVaCEN_South
p921
aa(lp922
I3
aVaCEN_West
p923
aVaCEN_South
p924
aa(lp925
I3
aVaCEN_Northeast
p926
aVaCEN_West
p927
aa(lp928
I3
aVaCEN_Midwest
p929
aVaCEN_West
p930
aa(lp931
I3
aVaCEN_South
p932
aVaCEN_West
p933
aa(lp934
I3
aVbNDC_Northeast
p935
aVbNDC_Midwest
p936
aa(lp937
I3
aVbNDC_Southeast
p938
aVbNDC_Midwest
p939
aa(lp940
I3
aVbNDC_Southwest
p941
aVbNDC_Midwest
p942
aa(lp943
I3
aVbNDC_West
p944
aVbNDC_Midwest
p945
aa(lp946
I3
aVbNDC_Midwest
p947
aVbNDC_Northeast
p948
aa(lp949
I3
aVbNDC_Southeast
p950
aVbNDC_Northeast
p951
aa(lp952
I3
aVbNDC_Southwest
p953
aVbNDC_Northeast
p954
aa(lp955
I3
aVbNDC_West
p956
aVbNDC_Northeast
p957
aa(lp958
I3
aVbNDC_Midwest
p959
aVbNDC_Southeast
p960
aa(lp961
I3
aVbNDC_Northeast
p962
aVbNDC_Southeast
p963
aa(lp964
I3
aVbNDC_Southwest
p965
aVbNDC_Southeast
p966
aa(lp967
I3
aVbNDC_West
p968
aVbNDC_Southeast
p969
aa(lp970
I3
aVbNDC_Midwest
p971
aVbNDC_Southwest
p972
aa(lp973
I3
aVbNDC_Northeast
p974
aVbNDC_Southwest
p975
aa(lp976
I3
aVbNDC_Southeast
p977
aVbNDC_Southwest
p978
aa(lp979
I3
aVbNDC_West
p980
aVbNDC_Southwest
p981
aa(lp982
I3
aVbNDC_Midwest
p983
aVbNDC_West
p984
aa(lp985
I3
aVbNDC_Northeast
p986
aVbNDC_West
p987
aa(lp988
I3
aVbNDC_Southeast
p989
aVbNDC_West
p990
aa(lp991
I3
aVbNDC_Southwest
p992
aVbNDC_West
p993
aa(lp994
I3
aVaCEN_Northeast
p995
aVbNDC_West
p996
aa(lp997
I3
aVaCEN_Northeast
p998
aVbNDC_Southwest
p999
aa(lp1000
I3
aVaCEN_Northeast
p1001
aVbNDC_Southeast
p1002
aa(lp1003
I3
aVaCEN_Northeast
p1004
aVbNDC_Midwest
p1005
aa(lp1006
I3
aVaCEN_South
p1007
aVbNDC_Midwest
p1008
aa(lp1009
I3
aVaCEN_West
p1010
aVbNDC_Midwest
p1011
aa(lp1012
I3
aVaCEN_Midwest
p1013
aVbNDC_West
p1014
aa(lp1015
I3
aVaCEN_Midwest
p1016
aVbNDC_Southwest
p1017
aa(lp1018
I3
aVaCEN_Midwest
p1019
aVbNDC_Southeast
p1020
aa(lp1021
I3
aVaCEN_Midwest
p1022
aVbNDC_Northeast
p1023
aa(lp1024
I3
aVbNDC_Northeast
p1025
aVaCEN_Midwest
p1026
aa(lp1027
I3
aVbNDC_Southeast
p1028
aVaCEN_Midwest
p1029
aa(lp1030
I3
aVbNDC_Southwest
p1031
aVaCEN_Midwest
p1032
aa(lp1033
I3
aVbNDC_West
p1034
aVaCEN_Midwest
p1035
aa(lp1036
I3
aVbNDC_Midwest
p1037
aVaCEN_West
p1038
aa(lp1039
I3
aVbNDC_Midwest
p1040
aVaCEN_South
p1041
aa(lp1042
I3
aVbNDC_Midwest
p1043
aVaCEN_Northeast
p1044
aa(lp1045
I3
aVbNDC_Southeast
p1046
aVaCEN_Northeast
p1047
aa(lp1048
I3
aVbNDC_Southwest
p1049
aVaCEN_Northeast
p1050
aa(lp1051
I3
aVbNDC_West
p1052
aVaCEN_Northeast
p1053
aa(lp1054
I3
aVbNDC_West
p1055
aVaCEN_South
p1056
aa(lp1057
I3
aVbNDC_Southeast
p1058
aVaCEN_West
p1059
aa(lp1060
I3
aVaCEN_South
p1061
aVbNDC_West
p1062
aa(lp1063
I3
aVaCEN_West
p1064
aVbNDC_Southeast
p1065
aa(lp1066
I3
aVaCEN_South
p1067
aVbNDC_Northeast
p1068
aa(lp1069
I3
aVbNDC_Northeast
p1070
aVaCEN_South
p1071
aa(lp1072
I3
aVaCEN_West
p1073
aVbNDC_Northeast
p1074
aa(lp1075
I3
aVbNDC_Northeast
p1076
aVaCEN_West
p1077
aaa(lp1078
(lp1079
I3
aVaCEN_Northeast
p1080
aVbNDC_Northeast
p1081
aa(lp1082
I3
aVaCEN_Northeast
p1083
aVaCEN_USA
p1084
aa(lp1085
I3
aVaCEN_Midwest
p1086
aVaCEN_USA
p1087
aa(lp1088
I3
aVaCEN_South
p1089
aVaCEN_USA
p1090
aa(lp1091
I3
aVaCEN_West
p1092
aVaCEN_USA
p1093
aa(lp1094
I3
aVbNDC_Midwest
p1095
aVbNDC_USA
p1096
aa(lp1097
I3
aVbNDC_Northeast
p1098
aVbNDC_USA
p1099
aa(lp1100
I3
aVbNDC_Southeast
p1101
aVbNDC_USA
p1102
aa(lp1103
I3
aVbNDC_Southwest
p1104
aVbNDC_USA
p1105
aa(lp1106
I3
aVbNDC_West
p1107
aVbNDC_USA
p1108
aa(lp1109
I3
aVbNDC_Southeast
p1110
aVaCEN_South
p1111
aa(lp1112
I3
aVbNDC_West
p1113
aVaCEN_West
p1114
aa(lp1115
I3
aVaCEN_Northeast
p1116
aVbNDC_USA
p1117
aa(lp1118
I3
aVaCEN_Midwest
p1119
aVbNDC_USA
p1120
aa(lp1121
I3
aVaCEN_South
p1122
aVbNDC_USA
p1123
aa(lp1124
I3
aVaCEN_West
p1125
aVbNDC_USA
p1126
aa(lp1127
I3
aVbNDC_West
p1128
aVaCEN_USA
p1129
aa(lp1130
I3
aVbNDC_Southeast
p1131
aVaCEN_USA
p1132
aa(lp1133
I3
aVbNDC_Southwest
p1134
aVaCEN_USA
p1135
aa(lp1136
I3
aVbNDC_Northeast
p1137
aVaCEN_USA
p1138
aa(lp1139
I3
aVbNDC_Midwest
p1140
aVaCEN_USA
p1141
aaa(lp1142
(lp1143
I3
aVaCEN_West
p1144
aVbNDC_West
p1145
aa(lp1146
I3
aVaCEN_South
p1147
aVbNDC_Southeast
p1148
aa(lp1149
I3
aVbNDC_USA
p1150
aVbNDC_West
p1151
aa(lp1152
I3
aVbNDC_USA
p1153
aVbNDC_Southwest
p1154
aa(lp1155
I3
aVbNDC_USA
p1156
aVbNDC_Southeast
p1157
aa(lp1158
I3
aVbNDC_USA
p1159
aVbNDC_Northeast
p1160
aa(lp1161
I3
aVbNDC_USA
p1162
aVbNDC_Midwest
p1163
aa(lp1164
I3
aVaCEN_USA
p1165
aVaCEN_West
p1166
aa(lp1167
I3
aVaCEN_USA
p1168
aVaCEN_South
p1169
aa(lp1170
I3
aVaCEN_USA
p1171
aVaCEN_Midwest
p1172
aa(lp1173
I3
aVaCEN_USA
p1174
aVaCEN_Northeast
p1175
aa(lp1176
I3
aVbNDC_Northeast
p1177
aVaCEN_Northeast
p1178
aa(lp1179
I3
aVbNDC_USA
p1180
aVaCEN_West
p1181
aa(lp1182
I3
aVbNDC_USA
p1183
aVaCEN_South
p1184
aa(lp1185
I3
aVbNDC_USA
p1186
aVaCEN_Midwest
p1187
aa(lp1188
I3
aVbNDC_USA
p1189
aVaCEN_Northeast
p1190
aa(lp1191
I3
aVaCEN_USA
p1192
aVbNDC_Southeast
p1193
aa(lp1194
I3
aVaCEN_USA
p1195
aVbNDC_West
p1196
aa(lp1197
I3
aVaCEN_USA
p1198
aVbNDC_Midwest
p1199
aa(lp1200
I3
aVaCEN_USA
p1201
aVbNDC_Northeast
p1202
aa(lp1203
I3
aVaCEN_USA
p1204
aVbNDC_Southwest
p1205
aaa(lp1206
(lp1207
I3
aVaCEN_South
p1208
aVbNDC_Southwest
p1209
aa(lp1210
I3
aVbNDC_Southwest
p1211
aVaCEN_South
p1212
aa(lp1213
I3
aVaCEN_West
p1214
aVbNDC_Southwest
p1215
aa(lp1216
I3
aVbNDC_Southwest
p1217
aVaCEN_West
p1218
aaa(lp1219
(lp1220
I3
aVaCEN_Northeast
p1221
aa(lp1222
I3
aVaCEN_Midwest
p1223
aa(lp1224
I3
aVaCEN_South
p1225
aa(lp1226
I3
aVaCEN_West
p1227
aa(lp1228
I3
aVbNDC_Midwest
p1229
aa(lp1230
I3
aVbNDC_Northeast
p1231
aa(lp1232
I3
aVbNDC_Southeast
p1233
aa(lp1234
I3
aVbNDC_Southwest
p1235
aa(lp1236
I3
aVbNDC_West
p1237
aa(lp1238
I3
aVaCEN_USA
p1239
aa(lp1240
I3
aVbNDC_USA
p1241
aaa(lp1242
(lp1243
I3
aVaCEN_USA
p1244
aVaCEN_Northeast
p1245
aa(lp1246
I3
aVaCEN_USA
p1247
aVaCEN_Midwest
p1248
aa(lp1249
I3
aVaCEN_USA
p1250
aVaCEN_South
p1251
aa(lp1252
I3
aVaCEN_USA
p1253
aVaCEN_West
p1254
aa(lp1255
I3
aVbNDC_USA
p1256
aVbNDC_Midwest
p1257
aa(lp1258
I3
aVbNDC_USA
p1259
aVbNDC_Northeast
p1260
aa(lp1261
I3
aVbNDC_USA
p1262
aVbNDC_Southeast
p1263
aa(lp1264
I3
aVbNDC_USA
p1265
aVbNDC_Southwest
p1266
aa(lp1267
I3
aVbNDC_USA
p1268
aVbNDC_West
p1269
aaasba(ihelper
PossibleWorld
p1270
(dp1271
g3
I4
sg4
I0
sg5
(lp1272
(lp1273
(lp1274
I4
aVaCEN_USA
p1275
aVbNDC_USA
p1276
aa(lp1277
I4
aVaCEN_Midwest
p1278
aVbNDC_Midwest
p1279
aa(lp1280
I4
aVbNDC_Midwest
p1281
aVaCEN_Midwest
p1282
aa(lp1283
I4
aVbNDC_USA
p1284
aVaCEN_USA
p1285
aa(lp1286
I4
aVbNDC_USA
p1287
aVbNDC_USA
p1288
aa(lp1289
I4
aVaCEN_USA
p1290
aVaCEN_USA
p1291
aa(lp1292
I4
aVbNDC_West
p1293
aVbNDC_West
p1294
aa(lp1295
I4
aVbNDC_Southwest
p1296
aVbNDC_Southwest
p1297
aa(lp1298
I4
aVbNDC_Southeast
p1299
aVbNDC_Southeast
p1300
aa(lp1301
I4
aVbNDC_Northeast
p1302
aVbNDC_Northeast
p1303
aa(lp1304
I4
aVbNDC_Midwest
p1305
aVbNDC_Midwest
p1306
aa(lp1307
I4
aVaCEN_West
p1308
aVaCEN_West
p1309
aa(lp1310
I4
aVaCEN_South
p1311
aVaCEN_South
p1312
aa(lp1313
I4
aVaCEN_Midwest
p1314
aVaCEN_Midwest
p1315
aa(lp1316
I4
aVaCEN_Northeast
p1317
aVaCEN_Northeast
p1318
aaa(lp1319
(lp1320
I4
aVaCEN_Midwest
p1321
aVaCEN_Northeast
p1322
aa(lp1323
I4
aVaCEN_South
p1324
aVaCEN_Northeast
p1325
aa(lp1326
I4
aVaCEN_West
p1327
aVaCEN_Northeast
p1328
aa(lp1329
I4
aVaCEN_Northeast
p1330
aVaCEN_Midwest
p1331
aa(lp1332
I4
aVaCEN_South
p1333
aVaCEN_Midwest
p1334
aa(lp1335
I4
aVaCEN_West
p1336
aVaCEN_Midwest
p1337
aa(lp1338
I4
aVaCEN_Northeast
p1339
aVaCEN_South
p1340
aa(lp1341
I4
aVaCEN_Midwest
p1342
aVaCEN_South
p1343
aa(lp1344
I4
aVaCEN_West
p1345
aVaCEN_South
p1346
aa(lp1347
I4
aVaCEN_Northeast
p1348
aVaCEN_West
p1349
aa(lp1350
I4
aVaCEN_Midwest
p1351
aVaCEN_West
p1352
aa(lp1353
I4
aVaCEN_South
p1354
aVaCEN_West
p1355
aa(lp1356
I4
aVbNDC_Northeast
p1357
aVbNDC_Midwest
p1358
aa(lp1359
I4
aVbNDC_Southeast
p1360
aVbNDC_Midwest
p1361
aa(lp1362
I4
aVbNDC_Southwest
p1363
aVbNDC_Midwest
p1364
aa(lp1365
I4
aVbNDC_West
p1366
aVbNDC_Midwest
p1367
aa(lp1368
I4
aVbNDC_Midwest
p1369
aVbNDC_Northeast
p1370
aa(lp1371
I4
aVbNDC_Southeast
p1372
aVbNDC_Northeast
p1373
aa(lp1374
I4
aVbNDC_Southwest
p1375
aVbNDC_Northeast
p1376
aa(lp1377
I4
aVbNDC_West
p1378
aVbNDC_Northeast
p1379
aa(lp1380
I4
aVbNDC_Midwest
p1381
aVbNDC_Southeast
p1382
aa(lp1383
I4
aVbNDC_Northeast
p1384
aVbNDC_Southeast
p1385
aa(lp1386
I4
aVbNDC_Southwest
p1387
aVbNDC_Southeast
p1388
aa(lp1389
I4
aVbNDC_West
p1390
aVbNDC_Southeast
p1391
aa(lp1392
I4
aVbNDC_Midwest
p1393
aVbNDC_Southwest
p1394
aa(lp1395
I4
aVbNDC_Northeast
p1396
aVbNDC_Southwest
p1397
aa(lp1398
I4
aVbNDC_Southeast
p1399
aVbNDC_Southwest
p1400
aa(lp1401
I4
aVbNDC_West
p1402
aVbNDC_Southwest
p1403
aa(lp1404
I4
aVbNDC_Midwest
p1405
aVbNDC_West
p1406
aa(lp1407
I4
aVbNDC_Northeast
p1408
aVbNDC_West
p1409
aa(lp1410
I4
aVbNDC_Southeast
p1411
aVbNDC_West
p1412
aa(lp1413
I4
aVbNDC_Southwest
p1414
aVbNDC_West
p1415
aa(lp1416
I4
aVaCEN_Northeast
p1417
aVbNDC_West
p1418
aa(lp1419
I4
aVaCEN_Northeast
p1420
aVbNDC_Southwest
p1421
aa(lp1422
I4
aVaCEN_Northeast
p1423
aVbNDC_Southeast
p1424
aa(lp1425
I4
aVaCEN_Northeast
p1426
aVbNDC_Midwest
p1427
aa(lp1428
I4
aVaCEN_South
p1429
aVbNDC_Midwest
p1430
aa(lp1431
I4
aVaCEN_West
p1432
aVbNDC_Midwest
p1433
aa(lp1434
I4
aVaCEN_Midwest
p1435
aVbNDC_West
p1436
aa(lp1437
I4
aVaCEN_Midwest
p1438
aVbNDC_Southwest
p1439
aa(lp1440
I4
aVaCEN_Midwest
p1441
aVbNDC_Southeast
p1442
aa(lp1443
I4
aVaCEN_Midwest
p1444
aVbNDC_Northeast
p1445
aa(lp1446
I4
aVbNDC_Northeast
p1447
aVaCEN_Midwest
p1448
aa(lp1449
I4
aVbNDC_Southeast
p1450
aVaCEN_Midwest
p1451
aa(lp1452
I4
aVbNDC_Southwest
p1453
aVaCEN_Midwest
p1454
aa(lp1455
I4
aVbNDC_West
p1456
aVaCEN_Midwest
p1457
aa(lp1458
I4
aVbNDC_Midwest
p1459
aVaCEN_West
p1460
aa(lp1461
I4
aVbNDC_Midwest
p1462
aVaCEN_South
p1463
aa(lp1464
I4
aVbNDC_Midwest
p1465
aVaCEN_Northeast
p1466
aa(lp1467
I4
aVbNDC_Southeast
p1468
aVaCEN_Northeast
p1469
aa(lp1470
I4
aVbNDC_Southwest
p1471
aVaCEN_Northeast
p1472
aa(lp1473
I4
aVbNDC_West
p1474
aVaCEN_Northeast
p1475
aa(lp1476
I4
aVbNDC_West
p1477
aVaCEN_South
p1478
aa(lp1479
I4
aVbNDC_Southeast
p1480
aVaCEN_West
p1481
aa(lp1482
I4
aVaCEN_South
p1483
aVbNDC_West
p1484
aa(lp1485
I4
aVaCEN_West
p1486
aVbNDC_Southeast
p1487
aa(lp1488
I4
aVaCEN_West
p1489
aVbNDC_Northeast
p1490
aa(lp1491
I4
aVbNDC_Northeast
p1492
aVaCEN_West
p1493
aaa(lp1494
(lp1495
I4
aVaCEN_Northeast
p1496
aVbNDC_Northeast
p1497
aa(lp1498
I4
aVaCEN_Northeast
p1499
aVaCEN_USA
p1500
aa(lp1501
I4
aVaCEN_Midwest
p1502
aVaCEN_USA
p1503
aa(lp1504
I4
aVaCEN_South
p1505
aVaCEN_USA
p1506
aa(lp1507
I4
aVaCEN_West
p1508
aVaCEN_USA
p1509
aa(lp1510
I4
aVbNDC_Midwest
p1511
aVbNDC_USA
p1512
aa(lp1513
I4
aVbNDC_Northeast
p1514
aVbNDC_USA
p1515
aa(lp1516
I4
aVbNDC_Southeast
p1517
aVbNDC_USA
p1518
aa(lp1519
I4
aVbNDC_Southwest
p1520
aVbNDC_USA
p1521
aa(lp1522
I4
aVbNDC_West
p1523
aVbNDC_USA
p1524
aa(lp1525
I4
aVbNDC_Southeast
p1526
aVaCEN_South
p1527
aa(lp1528
I4
aVbNDC_West
p1529
aVaCEN_West
p1530
aa(lp1531
I4
aVaCEN_Northeast
p1532
aVbNDC_USA
p1533
aa(lp1534
I4
aVaCEN_Midwest
p1535
aVbNDC_USA
p1536
aa(lp1537
I4
aVaCEN_South
p1538
aVbNDC_USA
p1539
aa(lp1540
I4
aVaCEN_West
p1541
aVbNDC_USA
p1542
aa(lp1543
I4
aVbNDC_West
p1544
aVaCEN_USA
p1545
aa(lp1546
I4
aVbNDC_Southeast
p1547
aVaCEN_USA
p1548
aa(lp1549
I4
aVbNDC_Southwest
p1550
aVaCEN_USA
p1551
aa(lp1552
I4
aVbNDC_Northeast
p1553
aVaCEN_USA
p1554
aa(lp1555
I4
aVbNDC_Midwest
p1556
aVaCEN_USA
p1557
aaa(lp1558
(lp1559
I4
aVaCEN_West
p1560
aVbNDC_West
p1561
aa(lp1562
I4
aVaCEN_South
p1563
aVbNDC_Southeast
p1564
aa(lp1565
I4
aVbNDC_USA
p1566
aVbNDC_West
p1567
aa(lp1568
I4
aVbNDC_USA
p1569
aVbNDC_Southwest
p1570
aa(lp1571
I4
aVbNDC_USA
p1572
aVbNDC_Southeast
p1573
aa(lp1574
I4
aVbNDC_USA
p1575
aVbNDC_Northeast
p1576
aa(lp1577
I4
aVbNDC_USA
p1578
aVbNDC_Midwest
p1579
aa(lp1580
I4
aVaCEN_USA
p1581
aVaCEN_West
p1582
aa(lp1583
I4
aVaCEN_USA
p1584
aVaCEN_South
p1585
aa(lp1586
I4
aVaCEN_USA
p1587
aVaCEN_Midwest
p1588
aa(lp1589
I4
aVaCEN_USA
p1590
aVaCEN_Northeast
p1591
aa(lp1592
I4
aVbNDC_Northeast
p1593
aVaCEN_Northeast
p1594
aa(lp1595
I4
aVbNDC_USA
p1596
aVaCEN_West
p1597
aa(lp1598
I4
aVbNDC_USA
p1599
aVaCEN_South
p1600
aa(lp1601
I4
aVbNDC_USA
p1602
aVaCEN_Midwest
p1603
aa(lp1604
I4
aVbNDC_USA
p1605
aVaCEN_Northeast
p1606
aa(lp1607
I4
aVaCEN_USA
p1608
aVbNDC_Southeast
p1609
aa(lp1610
I4
aVaCEN_USA
p1611
aVbNDC_West
p1612
aa(lp1613
I4
aVaCEN_USA
p1614
aVbNDC_Midwest
p1615
aa(lp1616
I4
aVaCEN_USA
p1617
aVbNDC_Northeast
p1618
aa(lp1619
I4
aVaCEN_USA
p1620
aVbNDC_Southwest
p1621
aaa(lp1622
(lp1623
I4
aVaCEN_South
p1624
aVbNDC_Southwest
p1625
aa(lp1626
I4
aVbNDC_Southwest
p1627
aVaCEN_South
p1628
aa(lp1629
I4
aVaCEN_South
p1630
aVbNDC_Northeast
p1631
aa(lp1632
I4
aVaCEN_West
p1633
aVbNDC_Southwest
p1634
aa(lp1635
I4
aVbNDC_Southwest
p1636
aVaCEN_West
p1637
aa(lp1638
I4
aVbNDC_Northeast
p1639
aVaCEN_South
p1640
aaa(lp1641
(lp1642
I4
aVaCEN_Northeast
p1643
aa(lp1644
I4
aVaCEN_Midwest
p1645
aa(lp1646
I4
aVaCEN_South
p1647
aa(lp1648
I4
aVaCEN_West
p1649
aa(lp1650
I4
aVbNDC_Midwest
p1651
aa(lp1652
I4
aVbNDC_Northeast
p1653
aa(lp1654
I4
aVbNDC_Southeast
p1655
aa(lp1656
I4
aVbNDC_Southwest
p1657
aa(lp1658
I4
aVbNDC_West
p1659
aa(lp1660
I4
aVaCEN_USA
p1661
aa(lp1662
I4
aVbNDC_USA
p1663
aaa(lp1664
(lp1665
I4
aVaCEN_USA
p1666
aVaCEN_Northeast
p1667
aa(lp1668
I4
aVaCEN_USA
p1669
aVaCEN_Midwest
p1670
aa(lp1671
I4
aVaCEN_USA
p1672
aVaCEN_South
p1673
aa(lp1674
I4
aVaCEN_USA
p1675
aVaCEN_West
p1676
aa(lp1677
I4
aVbNDC_USA
p1678
aVbNDC_Midwest
p1679
aa(lp1680
I4
aVbNDC_USA
p1681
aVbNDC_Northeast
p1682
aa(lp1683
I4
aVbNDC_USA
p1684
aVbNDC_Southeast
p1685
aa(lp1686
I4
aVbNDC_USA
p1687
aVbNDC_Southwest
p1688
aa(lp1689
I4
aVbNDC_USA
p1690
aVbNDC_West
p1691
aaasba(ihelper
PossibleWorld
p1692
(dp1693
g3
I5
sg4
I0
sg5
(lp1694
(lp1695
(lp1696
I5
aVaCEN_USA
p1697
aVbNDC_USA
p1698
aa(lp1699
I5
aVaCEN_Midwest
p1700
aVbNDC_Midwest
p1701
aa(lp1702
I5
aVbNDC_Midwest
p1703
aVaCEN_Midwest
p1704
aa(lp1705
I5
aVbNDC_USA
p1706
aVaCEN_USA
p1707
aa(lp1708
I5
aVbNDC_USA
p1709
aVbNDC_USA
p1710
aa(lp1711
I5
aVaCEN_USA
p1712
aVaCEN_USA
p1713
aa(lp1714
I5
aVbNDC_West
p1715
aVbNDC_West
p1716
aa(lp1717
I5
aVbNDC_Southwest
p1718
aVbNDC_Southwest
p1719
aa(lp1720
I5
aVbNDC_Southeast
p1721
aVbNDC_Southeast
p1722
aa(lp1723
I5
aVbNDC_Northeast
p1724
aVbNDC_Northeast
p1725
aa(lp1726
I5
aVbNDC_Midwest
p1727
aVbNDC_Midwest
p1728
aa(lp1729
I5
aVaCEN_West
p1730
aVaCEN_West
p1731
aa(lp1732
I5
aVaCEN_South
p1733
aVaCEN_South
p1734
aa(lp1735
I5
aVaCEN_Midwest
p1736
aVaCEN_Midwest
p1737
aa(lp1738
I5
aVaCEN_Northeast
p1739
aVaCEN_Northeast
p1740
aaa(lp1741
(lp1742
I5
aVaCEN_Midwest
p1743
aVaCEN_Northeast
p1744
aa(lp1745
I5
aVaCEN_South
p1746
aVaCEN_Northeast
p1747
aa(lp1748
I5
aVaCEN_West
p1749
aVaCEN_Northeast
p1750
aa(lp1751
I5
aVaCEN_Northeast
p1752
aVaCEN_Midwest
p1753
aa(lp1754
I5
aVaCEN_South
p1755
aVaCEN_Midwest
p1756
aa(lp1757
I5
aVaCEN_West
p1758
aVaCEN_Midwest
p1759
aa(lp1760
I5
aVaCEN_Northeast
p1761
aVaCEN_South
p1762
aa(lp1763
I5
aVaCEN_Midwest
p1764
aVaCEN_South
p1765
aa(lp1766
I5
aVaCEN_West
p1767
aVaCEN_South
p1768
aa(lp1769
I5
aVaCEN_Northeast
p1770
aVaCEN_West
p1771
aa(lp1772
I5
aVaCEN_Midwest
p1773
aVaCEN_West
p1774
aa(lp1775
I5
aVaCEN_South
p1776
aVaCEN_West
p1777
aa(lp1778
I5
aVbNDC_Northeast
p1779
aVbNDC_Midwest
p1780
aa(lp1781
I5
aVbNDC_Southeast
p1782
aVbNDC_Midwest
p1783
aa(lp1784
I5
aVbNDC_Southwest
p1785
aVbNDC_Midwest
p1786
aa(lp1787
I5
aVbNDC_West
p1788
aVbNDC_Midwest
p1789
aa(lp1790
I5
aVbNDC_Midwest
p1791
aVbNDC_Northeast
p1792
aa(lp1793
I5
aVbNDC_Southeast
p1794
aVbNDC_Northeast
p1795
aa(lp1796
I5
aVbNDC_Southwest
p1797
aVbNDC_Northeast
p1798
aa(lp1799
I5
aVbNDC_West
p1800
aVbNDC_Northeast
p1801
aa(lp1802
I5
aVbNDC_Midwest
p1803
aVbNDC_Southeast
p1804
aa(lp1805
I5
aVbNDC_Northeast
p1806
aVbNDC_Southeast
p1807
aa(lp1808
I5
aVbNDC_Southwest
p1809
aVbNDC_Southeast
p1810
aa(lp1811
I5
aVbNDC_West
p1812
aVbNDC_Southeast
p1813
aa(lp1814
I5
aVbNDC_Midwest
p1815
aVbNDC_Southwest
p1816
aa(lp1817
I5
aVbNDC_Northeast
p1818
aVbNDC_Southwest
p1819
aa(lp1820
I5
aVbNDC_Southeast
p1821
aVbNDC_Southwest
p1822
aa(lp1823
I5
aVbNDC_West
p1824
aVbNDC_Southwest
p1825
aa(lp1826
I5
aVbNDC_Midwest
p1827
aVbNDC_West
p1828
aa(lp1829
I5
aVbNDC_Northeast
p1830
aVbNDC_West
p1831
aa(lp1832
I5
aVbNDC_Southeast
p1833
aVbNDC_West
p1834
aa(lp1835
I5
aVbNDC_Southwest
p1836
aVbNDC_West
p1837
aa(lp1838
I5
aVaCEN_Northeast
p1839
aVbNDC_West
p1840
aa(lp1841
I5
aVaCEN_Northeast
p1842
aVbNDC_Southwest
p1843
aa(lp1844
I5
aVaCEN_Northeast
p1845
aVbNDC_Southeast
p1846
aa(lp1847
I5
aVaCEN_Northeast
p1848
aVbNDC_Midwest
p1849
aa(lp1850
I5
aVaCEN_South
p1851
aVbNDC_Midwest
p1852
aa(lp1853
I5
aVaCEN_West
p1854
aVbNDC_Midwest
p1855
aa(lp1856
I5
aVaCEN_Midwest
p1857
aVbNDC_West
p1858
aa(lp1859
I5
aVaCEN_Midwest
p1860
aVbNDC_Southwest
p1861
aa(lp1862
I5
aVaCEN_Midwest
p1863
aVbNDC_Southeast
p1864
aa(lp1865
I5
aVaCEN_Midwest
p1866
aVbNDC_Northeast
p1867
aa(lp1868
I5
aVbNDC_Northeast
p1869
aVaCEN_Midwest
p1870
aa(lp1871
I5
aVbNDC_Southeast
p1872
aVaCEN_Midwest
p1873
aa(lp1874
I5
aVbNDC_Southwest
p1875
aVaCEN_Midwest
p1876
aa(lp1877
I5
aVbNDC_West
p1878
aVaCEN_Midwest
p1879
aa(lp1880
I5
aVbNDC_Midwest
p1881
aVaCEN_West
p1882
aa(lp1883
I5
aVbNDC_Midwest
p1884
aVaCEN_South
p1885
aa(lp1886
I5
aVbNDC_Midwest
p1887
aVaCEN_Northeast
p1888
aa(lp1889
I5
aVbNDC_Southeast
p1890
aVaCEN_Northeast
p1891
aa(lp1892
I5
aVbNDC_Southwest
p1893
aVaCEN_Northeast
p1894
aa(lp1895
I5
aVbNDC_West
p1896
aVaCEN_Northeast
p1897
aa(lp1898
I5
aVbNDC_West
p1899
aVaCEN_South
p1900
aa(lp1901
I5
aVbNDC_Southeast
p1902
aVaCEN_West
p1903
aa(lp1904
I5
aVaCEN_South
p1905
aVbNDC_West
p1906
aa(lp1907
I5
aVaCEN_West
p1908
aVbNDC_Southeast
p1909
aa(lp1910
I5
aVaCEN_South
p1911
aVbNDC_Northeast
p1912
aa(lp1913
I5
aVbNDC_Northeast
p1914
aVaCEN_South
p1915
aa(lp1916
I5
aVbNDC_Southwest
p1917
aVaCEN_West
p1918
aa(lp1919
I5
aVaCEN_West
p1920
aVbNDC_Southwest
p1921
aaa(lp1922
(lp1923
I5
aVaCEN_Northeast
p1924
aVbNDC_Northeast
p1925
aa(lp1926
I5
aVaCEN_Northeast
p1927
aVaCEN_USA
p1928
aa(lp1929
I5
aVaCEN_Midwest
p1930
aVaCEN_USA
p1931
aa(lp1932
I5
aVaCEN_South
p1933
aVaCEN_USA
p1934
aa(lp1935
I5
aVaCEN_West
p1936
aVaCEN_USA
p1937
aa(lp1938
I5
aVbNDC_Midwest
p1939
aVbNDC_USA
p1940
aa(lp1941
I5
aVbNDC_Northeast
p1942
aVbNDC_USA
p1943
aa(lp1944
I5
aVbNDC_Southeast
p1945
aVbNDC_USA
p1946
aa(lp1947
I5
aVbNDC_Southwest
p1948
aVbNDC_USA
p1949
aa(lp1950
I5
aVbNDC_West
p1951
aVbNDC_USA
p1952
aa(lp1953
I5
aVbNDC_Southeast
p1954
aVaCEN_South
p1955
aa(lp1956
I5
aVbNDC_West
p1957
aVaCEN_West
p1958
aa(lp1959
I5
aVaCEN_Northeast
p1960
aVbNDC_USA
p1961
aa(lp1962
I5
aVaCEN_Midwest
p1963
aVbNDC_USA
p1964
aa(lp1965
I5
aVaCEN_South
p1966
aVbNDC_USA
p1967
aa(lp1968
I5
aVaCEN_West
p1969
aVbNDC_USA
p1970
aa(lp1971
I5
aVbNDC_West
p1972
aVaCEN_USA
p1973
aa(lp1974
I5
aVbNDC_Southeast
p1975
aVaCEN_USA
p1976
aa(lp1977
I5
aVbNDC_Southwest
p1978
aVaCEN_USA
p1979
aa(lp1980
I5
aVbNDC_Northeast
p1981
aVaCEN_USA
p1982
aa(lp1983
I5
aVbNDC_Midwest
p1984
aVaCEN_USA
p1985
aaa(lp1986
(lp1987
I5
aVaCEN_West
p1988
aVbNDC_West
p1989
aa(lp1990
I5
aVaCEN_South
p1991
aVbNDC_Southeast
p1992
aa(lp1993
I5
aVbNDC_USA
p1994
aVbNDC_West
p1995
aa(lp1996
I5
aVbNDC_USA
p1997
aVbNDC_Southwest
p1998
aa(lp1999
I5
aVbNDC_USA
p2000
aVbNDC_Southeast
p2001
aa(lp2002
I5
aVbNDC_USA
p2003
aVbNDC_Northeast
p2004
aa(lp2005
I5
aVbNDC_USA
p2006
aVbNDC_Midwest
p2007
aa(lp2008
I5
aVaCEN_USA
p2009
aVaCEN_West
p2010
aa(lp2011
I5
aVaCEN_USA
p2012
aVaCEN_South
p2013
aa(lp2014
I5
aVaCEN_USA
p2015
aVaCEN_Midwest
p2016
aa(lp2017
I5
aVaCEN_USA
p2018
aVaCEN_Northeast
p2019
aa(lp2020
I5
aVbNDC_Northeast
p2021
aVaCEN_Northeast
p2022
aa(lp2023
I5
aVbNDC_USA
p2024
aVaCEN_West
p2025
aa(lp2026
I5
aVbNDC_USA
p2027
aVaCEN_South
p2028
aa(lp2029
I5
aVbNDC_USA
p2030
aVaCEN_Midwest
p2031
aa(lp2032
I5
aVbNDC_USA
p2033
aVaCEN_Northeast
p2034
aa(lp2035
I5
aVaCEN_USA
p2036
aVbNDC_Southeast
p2037
aa(lp2038
I5
aVaCEN_USA
p2039
aVbNDC_West
p2040
aa(lp2041
I5
aVaCEN_USA
p2042
aVbNDC_Midwest
p2043
aa(lp2044
I5
aVaCEN_USA
p2045
aVbNDC_Northeast
p2046
aa(lp2047
I5
aVaCEN_USA
p2048
aVbNDC_Southwest
p2049
aaa(lp2050
(lp2051
I5
aVaCEN_South
p2052
aVbNDC_Southwest
p2053
aa(lp2054
I5
aVbNDC_Southwest
p2055
aVaCEN_South
p2056
aa(lp2057
I5
aVaCEN_West
p2058
aVbNDC_Northeast
p2059
aa(lp2060
I5
aVbNDC_Northeast
p2061
aVaCEN_West
p2062
aaa(lp2063
(lp2064
I5
aVaCEN_Northeast
p2065
aa(lp2066
I5
aVaCEN_Midwest
p2067
aa(lp2068
I5
aVaCEN_South
p2069
aa(lp2070
I5
aVaCEN_West
p2071
aa(lp2072
I5
aVbNDC_Midwest
p2073
aa(lp2074
I5
aVbNDC_Northeast
p2075
aa(lp2076
I5
aVbNDC_Southeast
p2077
aa(lp2078
I5
aVbNDC_Southwest
p2079
aa(lp2080
I5
aVbNDC_West
p2081
aa(lp2082
I5
aVaCEN_USA
p2083
aa(lp2084
I5
aVbNDC_USA
p2085
aaa(lp2086
(lp2087
I5
aVaCEN_USA
p2088
aVaCEN_Northeast
p2089
aa(lp2090
I5
aVaCEN_USA
p2091
aVaCEN_Midwest
p2092
aa(lp2093
I5
aVaCEN_USA
p2094
aVaCEN_South
p2095
aa(lp2096
I5
aVaCEN_USA
p2097
aVaCEN_West
p2098
aa(lp2099
I5
aVbNDC_USA
p2100
aVbNDC_Midwest
p2101
aa(lp2102
I5
aVbNDC_USA
p2103
aVbNDC_Northeast
p2104
aa(lp2105
I5
aVbNDC_USA
p2106
aVbNDC_Southeast
p2107
aa(lp2108
I5
aVbNDC_USA
p2109
aVbNDC_Southwest
p2110
aa(lp2111
I5
aVbNDC_USA
p2112
aVbNDC_West
p2113
aaasba(ihelper
PossibleWorld
p2114
(dp2115
g3
I6
sg4
I0
sg5
(lp2116
(lp2117
(lp2118
I6
aVaCEN_USA
p2119
aVbNDC_USA
p2120
aa(lp2121
I6
aVaCEN_Midwest
p2122
aVbNDC_Midwest
p2123
aa(lp2124
I6
aVbNDC_Midwest
p2125
aVaCEN_Midwest
p2126
aa(lp2127
I6
aVbNDC_USA
p2128
aVaCEN_USA
p2129
aa(lp2130
I6
aVbNDC_USA
p2131
aVbNDC_USA
p2132
aa(lp2133
I6
aVaCEN_USA
p2134
aVaCEN_USA
p2135
aa(lp2136
I6
aVbNDC_West
p2137
aVbNDC_West
p2138
aa(lp2139
I6
aVbNDC_Southwest
p2140
aVbNDC_Southwest
p2141
aa(lp2142
I6
aVbNDC_Southeast
p2143
aVbNDC_Southeast
p2144
aa(lp2145
I6
aVbNDC_Northeast
p2146
aVbNDC_Northeast
p2147
aa(lp2148
I6
aVbNDC_Midwest
p2149
aVbNDC_Midwest
p2150
aa(lp2151
I6
aVaCEN_West
p2152
aVaCEN_West
p2153
aa(lp2154
I6
aVaCEN_South
p2155
aVaCEN_South
p2156
aa(lp2157
I6
aVaCEN_Midwest
p2158
aVaCEN_Midwest
p2159
aa(lp2160
I6
aVaCEN_Northeast
p2161
aVaCEN_Northeast
p2162
aaa(lp2163
(lp2164
I6
aVaCEN_Midwest
p2165
aVaCEN_Northeast
p2166
aa(lp2167
I6
aVaCEN_South
p2168
aVaCEN_Northeast
p2169
aa(lp2170
I6
aVaCEN_West
p2171
aVaCEN_Northeast
p2172
aa(lp2173
I6
aVaCEN_Northeast
p2174
aVaCEN_Midwest
p2175
aa(lp2176
I6
aVaCEN_South
p2177
aVaCEN_Midwest
p2178
aa(lp2179
I6
aVaCEN_West
p2180
aVaCEN_Midwest
p2181
aa(lp2182
I6
aVaCEN_Northeast
p2183
aVaCEN_South
p2184
aa(lp2185
I6
aVaCEN_Midwest
p2186
aVaCEN_South
p2187
aa(lp2188
I6
aVaCEN_West
p2189
aVaCEN_South
p2190
aa(lp2191
I6
aVaCEN_Northeast
p2192
aVaCEN_West
p2193
aa(lp2194
I6
aVaCEN_Midwest
p2195
aVaCEN_West
p2196
aa(lp2197
I6
aVaCEN_South
p2198
aVaCEN_West
p2199
aa(lp2200
I6
aVbNDC_Northeast
p2201
aVbNDC_Midwest
p2202
aa(lp2203
I6
aVbNDC_Southeast
p2204
aVbNDC_Midwest
p2205
aa(lp2206
I6
aVbNDC_Southwest
p2207
aVbNDC_Midwest
p2208
aa(lp2209
I6
aVbNDC_West
p2210
aVbNDC_Midwest
p2211
aa(lp2212
I6
aVbNDC_Midwest
p2213
aVbNDC_Northeast
p2214
aa(lp2215
I6
aVbNDC_Southeast
p2216
aVbNDC_Northeast
p2217
aa(lp2218
I6
aVbNDC_Southwest
p2219
aVbNDC_Northeast
p2220
aa(lp2221
I6
aVbNDC_West
p2222
aVbNDC_Northeast
p2223
aa(lp2224
I6
aVbNDC_Midwest
p2225
aVbNDC_Southeast
p2226
aa(lp2227
I6
aVbNDC_Northeast
p2228
aVbNDC_Southeast
p2229
aa(lp2230
I6
aVbNDC_Southwest
p2231
aVbNDC_Southeast
p2232
aa(lp2233
I6
aVbNDC_West
p2234
aVbNDC_Southeast
p2235
aa(lp2236
I6
aVbNDC_Midwest
p2237
aVbNDC_Southwest
p2238
aa(lp2239
I6
aVbNDC_Northeast
p2240
aVbNDC_Southwest
p2241
aa(lp2242
I6
aVbNDC_Southeast
p2243
aVbNDC_Southwest
p2244
aa(lp2245
I6
aVbNDC_West
p2246
aVbNDC_Southwest
p2247
aa(lp2248
I6
aVbNDC_Midwest
p2249
aVbNDC_West
p2250
aa(lp2251
I6
aVbNDC_Northeast
p2252
aVbNDC_West
p2253
aa(lp2254
I6
aVbNDC_Southeast
p2255
aVbNDC_West
p2256
aa(lp2257
I6
aVbNDC_Southwest
p2258
aVbNDC_West
p2259
aa(lp2260
I6
aVaCEN_Northeast
p2261
aVbNDC_West
p2262
aa(lp2263
I6
aVaCEN_Northeast
p2264
aVbNDC_Southwest
p2265
aa(lp2266
I6
aVaCEN_Northeast
p2267
aVbNDC_Southeast
p2268
aa(lp2269
I6
aVaCEN_Northeast
p2270
aVbNDC_Midwest
p2271
aa(lp2272
I6
aVaCEN_South
p2273
aVbNDC_Midwest
p2274
aa(lp2275
I6
aVaCEN_West
p2276
aVbNDC_Midwest
p2277
aa(lp2278
I6
aVaCEN_Midwest
p2279
aVbNDC_West
p2280
aa(lp2281
I6
aVaCEN_Midwest
p2282
aVbNDC_Southwest
p2283
aa(lp2284
I6
aVaCEN_Midwest
p2285
aVbNDC_Southeast
p2286
aa(lp2287
I6
aVaCEN_Midwest
p2288
aVbNDC_Northeast
p2289
aa(lp2290
I6
aVbNDC_Northeast
p2291
aVaCEN_Midwest
p2292
aa(lp2293
I6
aVbNDC_Southeast
p2294
aVaCEN_Midwest
p2295
aa(lp2296
I6
aVbNDC_Southwest
p2297
aVaCEN_Midwest
p2298
aa(lp2299
I6
aVbNDC_West
p2300
aVaCEN_Midwest
p2301
aa(lp2302
I6
aVbNDC_Midwest
p2303
aVaCEN_West
p2304
aa(lp2305
I6
aVbNDC_Midwest
p2306
aVaCEN_South
p2307
aa(lp2308
I6
aVbNDC_Midwest
p2309
aVaCEN_Northeast
p2310
aa(lp2311
I6
aVbNDC_Southeast
p2312
aVaCEN_Northeast
p2313
aa(lp2314
I6
aVbNDC_Southwest
p2315
aVaCEN_Northeast
p2316
aa(lp2317
I6
aVbNDC_West
p2318
aVaCEN_Northeast
p2319
aa(lp2320
I6
aVbNDC_West
p2321
aVaCEN_South
p2322
aa(lp2323
I6
aVbNDC_Southeast
p2324
aVaCEN_West
p2325
aa(lp2326
I6
aVaCEN_South
p2327
aVbNDC_West
p2328
aa(lp2329
I6
aVaCEN_West
p2330
aVbNDC_Southeast
p2331
aa(lp2332
I6
aVbNDC_Southwest
p2333
aVaCEN_West
p2334
aa(lp2335
I6
aVaCEN_West
p2336
aVbNDC_Southwest
p2337
aaa(lp2338
(lp2339
I6
aVaCEN_Northeast
p2340
aVbNDC_Northeast
p2341
aa(lp2342
I6
aVaCEN_Northeast
p2343
aVaCEN_USA
p2344
aa(lp2345
I6
aVaCEN_Midwest
p2346
aVaCEN_USA
p2347
aa(lp2348
I6
aVaCEN_South
p2349
aVaCEN_USA
p2350
aa(lp2351
I6
aVaCEN_West
p2352
aVaCEN_USA
p2353
aa(lp2354
I6
aVbNDC_Midwest
p2355
aVbNDC_USA
p2356
aa(lp2357
I6
aVbNDC_Northeast
p2358
aVbNDC_USA
p2359
aa(lp2360
I6
aVbNDC_Southeast
p2361
aVbNDC_USA
p2362
aa(lp2363
I6
aVbNDC_Southwest
p2364
aVbNDC_USA
p2365
aa(lp2366
I6
aVbNDC_West
p2367
aVbNDC_USA
p2368
aa(lp2369
I6
aVbNDC_Southeast
p2370
aVaCEN_South
p2371
aa(lp2372
I6
aVbNDC_West
p2373
aVaCEN_West
p2374
aa(lp2375
I6
aVaCEN_Northeast
p2376
aVbNDC_USA
p2377
aa(lp2378
I6
aVaCEN_Midwest
p2379
aVbNDC_USA
p2380
aa(lp2381
I6
aVaCEN_South
p2382
aVbNDC_USA
p2383
aa(lp2384
I6
aVaCEN_West
p2385
aVbNDC_USA
p2386
aa(lp2387
I6
aVbNDC_West
p2388
aVaCEN_USA
p2389
aa(lp2390
I6
aVbNDC_Southeast
p2391
aVaCEN_USA
p2392
aa(lp2393
I6
aVbNDC_Southwest
p2394
aVaCEN_USA
p2395
aa(lp2396
I6
aVbNDC_Northeast
p2397
aVaCEN_USA
p2398
aa(lp2399
I6
aVbNDC_Midwest
p2400
aVaCEN_USA
p2401
aaa(lp2402
(lp2403
I6
aVaCEN_West
p2404
aVbNDC_West
p2405
aa(lp2406
I6
aVaCEN_South
p2407
aVbNDC_Southeast
p2408
aa(lp2409
I6
aVbNDC_USA
p2410
aVbNDC_West
p2411
aa(lp2412
I6
aVbNDC_USA
p2413
aVbNDC_Southwest
p2414
aa(lp2415
I6
aVbNDC_USA
p2416
aVbNDC_Southeast
p2417
aa(lp2418
I6
aVbNDC_USA
p2419
aVbNDC_Northeast
p2420
aa(lp2421
I6
aVbNDC_USA
p2422
aVbNDC_Midwest
p2423
aa(lp2424
I6
aVaCEN_USA
p2425
aVaCEN_West
p2426
aa(lp2427
I6
aVaCEN_USA
p2428
aVaCEN_South
p2429
aa(lp2430
I6
aVaCEN_USA
p2431
aVaCEN_Midwest
p2432
aa(lp2433
I6
aVaCEN_USA
p2434
aVaCEN_Northeast
p2435
aa(lp2436
I6
aVbNDC_Northeast
p2437
aVaCEN_Northeast
p2438
aa(lp2439
I6
aVbNDC_USA
p2440
aVaCEN_West
p2441
aa(lp2442
I6
aVbNDC_USA
p2443
aVaCEN_South
p2444
aa(lp2445
I6
aVbNDC_USA
p2446
aVaCEN_Midwest
p2447
aa(lp2448
I6
aVbNDC_USA
p2449
aVaCEN_Northeast
p2450
aa(lp2451
I6
aVaCEN_USA
p2452
aVbNDC_Southeast
p2453
aa(lp2454
I6
aVaCEN_USA
p2455
aVbNDC_West
p2456
aa(lp2457
I6
aVaCEN_USA
p2458
aVbNDC_Midwest
p2459
aa(lp2460
I6
aVaCEN_USA
p2461
aVbNDC_Northeast
p2462
aa(lp2463
I6
aVaCEN_USA
p2464
aVbNDC_Southwest
p2465
aaa(lp2466
(lp2467
I6
aVaCEN_South
p2468
aVbNDC_Southwest
p2469
aa(lp2470
I6
aVbNDC_Southwest
p2471
aVaCEN_South
p2472
aa(lp2473
I6
aVaCEN_South
p2474
aVbNDC_Northeast
p2475
aa(lp2476
I6
aVaCEN_West
p2477
aVbNDC_Northeast
p2478
aa(lp2479
I6
aVbNDC_Northeast
p2480
aVaCEN_West
p2481
aa(lp2482
I6
aVbNDC_Northeast
p2483
aVaCEN_South
p2484
aaa(lp2485
(lp2486
I6
aVaCEN_Northeast
p2487
aa(lp2488
I6
aVaCEN_Midwest
p2489
aa(lp2490
I6
aVaCEN_South
p2491
aa(lp2492
I6
aVaCEN_West
p2493
aa(lp2494
I6
aVbNDC_Midwest
p2495
aa(lp2496
I6
aVbNDC_Northeast
p2497
aa(lp2498
I6
aVbNDC_Southeast
p2499
aa(lp2500
I6
aVbNDC_Southwest
p2501
aa(lp2502
I6
aVbNDC_West
p2503
aa(lp2504
I6
aVaCEN_USA
p2505
aa(lp2506
I6
aVbNDC_USA
p2507
aaa(lp2508
(lp2509
I6
aVaCEN_USA
p2510
aVaCEN_Northeast
p2511
aa(lp2512
I6
aVaCEN_USA
p2513
aVaCEN_Midwest
p2514
aa(lp2515
I6
aVaCEN_USA
p2516
aVaCEN_South
p2517
aa(lp2518
I6
aVaCEN_USA
p2519
aVaCEN_West
p2520
aa(lp2521
I6
aVbNDC_USA
p2522
aVbNDC_Midwest
p2523
aa(lp2524
I6
aVbNDC_USA
p2525
aVbNDC_Northeast
p2526
aa(lp2527
I6
aVbNDC_USA
p2528
aVbNDC_Southeast
p2529
aa(lp2530
I6
aVbNDC_USA
p2531
aVbNDC_Southwest
p2532
aa(lp2533
I6
aVbNDC_USA
p2534
aVbNDC_West
p2535
aaasba(ihelper
PossibleWorld
p2536
(dp2537
g3
I7
sg4
I0
sg5
(lp2538
(lp2539
(lp2540
I7
aVaCEN_USA
p2541
aVbNDC_USA
p2542
aa(lp2543
I7
aVaCEN_Midwest
p2544
aVbNDC_Midwest
p2545
aa(lp2546
I7
aVbNDC_Midwest
p2547
aVaCEN_Midwest
p2548
aa(lp2549
I7
aVbNDC_USA
p2550
aVaCEN_USA
p2551
aa(lp2552
I7
aVbNDC_USA
p2553
aVbNDC_USA
p2554
aa(lp2555
I7
aVaCEN_USA
p2556
aVaCEN_USA
p2557
aa(lp2558
I7
aVbNDC_West
p2559
aVbNDC_West
p2560
aa(lp2561
I7
aVbNDC_Southwest
p2562
aVbNDC_Southwest
p2563
aa(lp2564
I7
aVbNDC_Southeast
p2565
aVbNDC_Southeast
p2566
aa(lp2567
I7
aVbNDC_Northeast
p2568
aVbNDC_Northeast
p2569
aa(lp2570
I7
aVbNDC_Midwest
p2571
aVbNDC_Midwest
p2572
aa(lp2573
I7
aVaCEN_West
p2574
aVaCEN_West
p2575
aa(lp2576
I7
aVaCEN_South
p2577
aVaCEN_South
p2578
aa(lp2579
I7
aVaCEN_Midwest
p2580
aVaCEN_Midwest
p2581
aa(lp2582
I7
aVaCEN_Northeast
p2583
aVaCEN_Northeast
p2584
aaa(lp2585
(lp2586
I7
aVaCEN_Midwest
p2587
aVaCEN_Northeast
p2588
aa(lp2589
I7
aVaCEN_South
p2590
aVaCEN_Northeast
p2591
aa(lp2592
I7
aVaCEN_West
p2593
aVaCEN_Northeast
p2594
aa(lp2595
I7
aVaCEN_Northeast
p2596
aVaCEN_Midwest
p2597
aa(lp2598
I7
aVaCEN_South
p2599
aVaCEN_Midwest
p2600
aa(lp2601
I7
aVaCEN_West
p2602
aVaCEN_Midwest
p2603
aa(lp2604
I7
aVaCEN_Northeast
p2605
aVaCEN_South
p2606
aa(lp2607
I7
aVaCEN_Midwest
p2608
aVaCEN_South
p2609
aa(lp2610
I7
aVaCEN_West
p2611
aVaCEN_South
p2612
aa(lp2613
I7
aVaCEN_Northeast
p2614
aVaCEN_West
p2615
aa(lp2616
I7
aVaCEN_Midwest
p2617
aVaCEN_West
p2618
aa(lp2619
I7
aVaCEN_South
p2620
aVaCEN_West
p2621
aa(lp2622
I7
aVbNDC_Northeast
p2623
aVbNDC_Midwest
p2624
aa(lp2625
I7
aVbNDC_Southeast
p2626
aVbNDC_Midwest
p2627
aa(lp2628
I7
aVbNDC_Southwest
p2629
aVbNDC_Midwest
p2630
aa(lp2631
I7
aVbNDC_West
p2632
aVbNDC_Midwest
p2633
aa(lp2634
I7
aVbNDC_Midwest
p2635
aVbNDC_Northeast
p2636
aa(lp2637
I7
aVbNDC_Southeast
p2638
aVbNDC_Northeast
p2639
aa(lp2640
I7
aVbNDC_Southwest
p2641
aVbNDC_Northeast
p2642
aa(lp2643
I7
aVbNDC_West
p2644
aVbNDC_Northeast
p2645
aa(lp2646
I7
aVbNDC_Midwest
p2647
aVbNDC_Southeast
p2648
aa(lp2649
I7
aVbNDC_Northeast
p2650
aVbNDC_Southeast
p2651
aa(lp2652
I7
aVbNDC_Southwest
p2653
aVbNDC_Southeast
p2654
aa(lp2655
I7
aVbNDC_West
p2656
aVbNDC_Southeast
p2657
aa(lp2658
I7
aVbNDC_Midwest
p2659
aVbNDC_Southwest
p2660
aa(lp2661
I7
aVbNDC_Northeast
p2662
aVbNDC_Southwest
p2663
aa(lp2664
I7
aVbNDC_Southeast
p2665
aVbNDC_Southwest
p2666
aa(lp2667
I7
aVbNDC_West
p2668
aVbNDC_Southwest
p2669
aa(lp2670
I7
aVbNDC_Midwest
p2671
aVbNDC_West
p2672
aa(lp2673
I7
aVbNDC_Northeast
p2674
aVbNDC_West
p2675
aa(lp2676
I7
aVbNDC_Southeast
p2677
aVbNDC_West
p2678
aa(lp2679
I7
aVbNDC_Southwest
p2680
aVbNDC_West
p2681
aa(lp2682
I7
aVaCEN_Northeast
p2683
aVbNDC_West
p2684
aa(lp2685
I7
aVaCEN_Northeast
p2686
aVbNDC_Southwest
p2687
aa(lp2688
I7
aVaCEN_Northeast
p2689
aVbNDC_Southeast
p2690
aa(lp2691
I7
aVaCEN_Northeast
p2692
aVbNDC_Midwest
p2693
aa(lp2694
I7
aVaCEN_South
p2695
aVbNDC_Midwest
p2696
aa(lp2697
I7
aVaCEN_West
p2698
aVbNDC_Midwest
p2699
aa(lp2700
I7
aVaCEN_Midwest
p2701
aVbNDC_West
p2702
aa(lp2703
I7
aVaCEN_Midwest
p2704
aVbNDC_Southwest
p2705
aa(lp2706
I7
aVaCEN_Midwest
p2707
aVbNDC_Southeast
p2708
aa(lp2709
I7
aVaCEN_Midwest
p2710
aVbNDC_Northeast
p2711
aa(lp2712
I7
aVbNDC_Northeast
p2713
aVaCEN_Midwest
p2714
aa(lp2715
I7
aVbNDC_Southeast
p2716
aVaCEN_Midwest
p2717
aa(lp2718
I7
aVbNDC_Southwest
p2719
aVaCEN_Midwest
p2720
aa(lp2721
I7
aVbNDC_West
p2722
aVaCEN_Midwest
p2723
aa(lp2724
I7
aVbNDC_Midwest
p2725
aVaCEN_West
p2726
aa(lp2727
I7
aVbNDC_Midwest
p2728
aVaCEN_South
p2729
aa(lp2730
I7
aVbNDC_Midwest
p2731
aVaCEN_Northeast
p2732
aa(lp2733
I7
aVbNDC_Southeast
p2734
aVaCEN_Northeast
p2735
aa(lp2736
I7
aVbNDC_Southwest
p2737
aVaCEN_Northeast
p2738
aa(lp2739
I7
aVbNDC_West
p2740
aVaCEN_Northeast
p2741
aa(lp2742
I7
aVbNDC_West
p2743
aVaCEN_South
p2744
aa(lp2745
I7
aVbNDC_Southeast
p2746
aVaCEN_West
p2747
aa(lp2748
I7
aVaCEN_South
p2749
aVbNDC_West
p2750
aa(lp2751
I7
aVaCEN_West
p2752
aVbNDC_Southeast
p2753
aa(lp2754
I7
aVaCEN_South
p2755
aVbNDC_Northeast
p2756
aa(lp2757
I7
aVbNDC_Northeast
p2758
aVaCEN_South
p2759
aaa(lp2760
(lp2761
I7
aVaCEN_Northeast
p2762
aVbNDC_Northeast
p2763
aa(lp2764
I7
aVaCEN_Northeast
p2765
aVaCEN_USA
p2766
aa(lp2767
I7
aVaCEN_Midwest
p2768
aVaCEN_USA
p2769
aa(lp2770
I7
aVaCEN_South
p2771
aVaCEN_USA
p2772
aa(lp2773
I7
aVaCEN_West
p2774
aVaCEN_USA
p2775
aa(lp2776
I7
aVbNDC_Midwest
p2777
aVbNDC_USA
p2778
aa(lp2779
I7
aVbNDC_Northeast
p2780
aVbNDC_USA
p2781
aa(lp2782
I7
aVbNDC_Southeast
p2783
aVbNDC_USA
p2784
aa(lp2785
I7
aVbNDC_Southwest
p2786
aVbNDC_USA
p2787
aa(lp2788
I7
aVbNDC_West
p2789
aVbNDC_USA
p2790
aa(lp2791
I7
aVbNDC_Southeast
p2792
aVaCEN_South
p2793
aa(lp2794
I7
aVbNDC_West
p2795
aVaCEN_West
p2796
aa(lp2797
I7
aVaCEN_Northeast
p2798
aVbNDC_USA
p2799
aa(lp2800
I7
aVaCEN_Midwest
p2801
aVbNDC_USA
p2802
aa(lp2803
I7
aVaCEN_South
p2804
aVbNDC_USA
p2805
aa(lp2806
I7
aVaCEN_West
p2807
aVbNDC_USA
p2808
aa(lp2809
I7
aVbNDC_West
p2810
aVaCEN_USA
p2811
aa(lp2812
I7
aVbNDC_Southeast
p2813
aVaCEN_USA
p2814
aa(lp2815
I7
aVbNDC_Southwest
p2816
aVaCEN_USA
p2817
aa(lp2818
I7
aVbNDC_Northeast
p2819
aVaCEN_USA
p2820
aa(lp2821
I7
aVbNDC_Midwest
p2822
aVaCEN_USA
p2823
aaa(lp2824
(lp2825
I7
aVaCEN_West
p2826
aVbNDC_West
p2827
aa(lp2828
I7
aVaCEN_South
p2829
aVbNDC_Southeast
p2830
aa(lp2831
I7
aVbNDC_USA
p2832
aVbNDC_West
p2833
aa(lp2834
I7
aVbNDC_USA
p2835
aVbNDC_Southwest
p2836
aa(lp2837
I7
aVbNDC_USA
p2838
aVbNDC_Southeast
p2839
aa(lp2840
I7
aVbNDC_USA
p2841
aVbNDC_Northeast
p2842
aa(lp2843
I7
aVbNDC_USA
p2844
aVbNDC_Midwest
p2845
aa(lp2846
I7
aVaCEN_USA
p2847
aVaCEN_West
p2848
aa(lp2849
I7
aVaCEN_USA
p2850
aVaCEN_South
p2851
aa(lp2852
I7
aVaCEN_USA
p2853
aVaCEN_Midwest
p2854
aa(lp2855
I7
aVaCEN_USA
p2856
aVaCEN_Northeast
p2857
aa(lp2858
I7
aVbNDC_Northeast
p2859
aVaCEN_Northeast
p2860
aa(lp2861
I7
aVbNDC_USA
p2862
aVaCEN_West
p2863
aa(lp2864
I7
aVbNDC_USA
p2865
aVaCEN_South
p2866
aa(lp2867
I7
aVbNDC_USA
p2868
aVaCEN_Midwest
p2869
aa(lp2870
I7
aVbNDC_USA
p2871
aVaCEN_Northeast
p2872
aa(lp2873
I7
aVaCEN_USA
p2874
aVbNDC_Southeast
p2875
aa(lp2876
I7
aVaCEN_USA
p2877
aVbNDC_West
p2878
aa(lp2879
I7
aVaCEN_USA
p2880
aVbNDC_Midwest
p2881
aa(lp2882
I7
aVaCEN_USA
p2883
aVbNDC_Northeast
p2884
aa(lp2885
I7
aVaCEN_USA
p2886
aVbNDC_Southwest
p2887
aaa(lp2888
(lp2889
I7
aVaCEN_South
p2890
aVbNDC_Southwest
p2891
aa(lp2892
I7
aVbNDC_Southwest
p2893
aVaCEN_South
p2894
aa(lp2895
I7
aVaCEN_West
p2896
aVbNDC_Northeast
p2897
aa(lp2898
I7
aVaCEN_West
p2899
aVbNDC_Southwest
p2900
aa(lp2901
I7
aVbNDC_Southwest
p2902
aVaCEN_West
p2903
aa(lp2904
I7
aVbNDC_Northeast
p2905
aVaCEN_West
p2906
aaa(lp2907
(lp2908
I7
aVaCEN_Northeast
p2909
aa(lp2910
I7
aVaCEN_Midwest
p2911
aa(lp2912
I7
aVaCEN_South
p2913
aa(lp2914
I7
aVaCEN_West
p2915
aa(lp2916
I7
aVbNDC_Midwest
p2917
aa(lp2918
I7
aVbNDC_Northeast
p2919
aa(lp2920
I7
aVbNDC_Southeast
p2921
aa(lp2922
I7
aVbNDC_Southwest
p2923
aa(lp2924
I7
aVbNDC_West
p2925
aa(lp2926
I7
aVaCEN_USA
p2927
aa(lp2928
I7
aVbNDC_USA
p2929
aaa(lp2930
(lp2931
I7
aVaCEN_USA
p2932
aVaCEN_Northeast
p2933
aa(lp2934
I7
aVaCEN_USA
p2935
aVaCEN_Midwest
p2936
aa(lp2937
I7
aVaCEN_USA
p2938
aVaCEN_South
p2939
aa(lp2940
I7
aVaCEN_USA
p2941
aVaCEN_West
p2942
aa(lp2943
I7
aVbNDC_USA
p2944
aVbNDC_Midwest
p2945
aa(lp2946
I7
aVbNDC_USA
p2947
aVbNDC_Northeast
p2948
aa(lp2949
I7
aVbNDC_USA
p2950
aVbNDC_Southeast
p2951
aa(lp2952
I7
aVbNDC_USA
p2953
aVbNDC_Southwest
p2954
aa(lp2955
I7
aVbNDC_USA
p2956
aVbNDC_West
p2957
aaasba(ihelper
PossibleWorld
p2958
(dp2959
g3
I8
sg4
I0
sg5
(lp2960
(lp2961
(lp2962
I8
aVaCEN_USA
p2963
aVbNDC_USA
p2964
aa(lp2965
I8
aVaCEN_Midwest
p2966
aVbNDC_Midwest
p2967
aa(lp2968
I8
aVbNDC_Midwest
p2969
aVaCEN_Midwest
p2970
aa(lp2971
I8
aVbNDC_USA
p2972
aVaCEN_USA
p2973
aa(lp2974
I8
aVbNDC_USA
p2975
aVbNDC_USA
p2976
aa(lp2977
I8
aVaCEN_USA
p2978
aVaCEN_USA
p2979
aa(lp2980
I8
aVbNDC_West
p2981
aVbNDC_West
p2982
aa(lp2983
I8
aVbNDC_Southwest
p2984
aVbNDC_Southwest
p2985
aa(lp2986
I8
aVbNDC_Southeast
p2987
aVbNDC_Southeast
p2988
aa(lp2989
I8
aVbNDC_Northeast
p2990
aVbNDC_Northeast
p2991
aa(lp2992
I8
aVbNDC_Midwest
p2993
aVbNDC_Midwest
p2994
aa(lp2995
I8
aVaCEN_West
p2996
aVaCEN_West
p2997
aa(lp2998
I8
aVaCEN_South
p2999
aVaCEN_South
p3000
aa(lp3001
I8
aVaCEN_Midwest
p3002
aVaCEN_Midwest
p3003
aa(lp3004
I8
aVaCEN_Northeast
p3005
aVaCEN_Northeast
p3006
aaa(lp3007
(lp3008
I8
aVaCEN_Midwest
p3009
aVaCEN_Northeast
p3010
aa(lp3011
I8
aVaCEN_South
p3012
aVaCEN_Northeast
p3013
aa(lp3014
I8
aVaCEN_West
p3015
aVaCEN_Northeast
p3016
aa(lp3017
I8
aVaCEN_Northeast
p3018
aVaCEN_Midwest
p3019
aa(lp3020
I8
aVaCEN_South
p3021
aVaCEN_Midwest
p3022
aa(lp3023
I8
aVaCEN_West
p3024
aVaCEN_Midwest
p3025
aa(lp3026
I8
aVaCEN_Northeast
p3027
aVaCEN_South
p3028
aa(lp3029
I8
aVaCEN_Midwest
p3030
aVaCEN_South
p3031
aa(lp3032
I8
aVaCEN_West
p3033
aVaCEN_South
p3034
aa(lp3035
I8
aVaCEN_Northeast
p3036
aVaCEN_West
p3037
aa(lp3038
I8
aVaCEN_Midwest
p3039
aVaCEN_West
p3040
aa(lp3041
I8
aVaCEN_South
p3042
aVaCEN_West
p3043
aa(lp3044
I8
aVbNDC_Northeast
p3045
aVbNDC_Midwest
p3046
aa(lp3047
I8
aVbNDC_Southeast
p3048
aVbNDC_Midwest
p3049
aa(lp3050
I8
aVbNDC_Southwest
p3051
aVbNDC_Midwest
p3052
aa(lp3053
I8
aVbNDC_West
p3054
aVbNDC_Midwest
p3055
aa(lp3056
I8
aVbNDC_Midwest
p3057
aVbNDC_Northeast
p3058
aa(lp3059
I8
aVbNDC_Southeast
p3060
aVbNDC_Northeast
p3061
aa(lp3062
I8
aVbNDC_Southwest
p3063
aVbNDC_Northeast
p3064
aa(lp3065
I8
aVbNDC_West
p3066
aVbNDC_Northeast
p3067
aa(lp3068
I8
aVbNDC_Midwest
p3069
aVbNDC_Southeast
p3070
aa(lp3071
I8
aVbNDC_Northeast
p3072
aVbNDC_Southeast
p3073
aa(lp3074
I8
aVbNDC_Southwest
p3075
aVbNDC_Southeast
p3076
aa(lp3077
I8
aVbNDC_West
p3078
aVbNDC_Southeast
p3079
aa(lp3080
I8
aVbNDC_Midwest
p3081
aVbNDC_Southwest
p3082
aa(lp3083
I8
aVbNDC_Northeast
p3084
aVbNDC_Southwest
p3085
aa(lp3086
I8
aVbNDC_Southeast
p3087
aVbNDC_Southwest
p3088
aa(lp3089
I8
aVbNDC_West
p3090
aVbNDC_Southwest
p3091
aa(lp3092
I8
aVbNDC_Midwest
p3093
aVbNDC_West
p3094
aa(lp3095
I8
aVbNDC_Northeast
p3096
aVbNDC_West
p3097
aa(lp3098
I8
aVbNDC_Southeast
p3099
aVbNDC_West
p3100
aa(lp3101
I8
aVbNDC_Southwest
p3102
aVbNDC_West
p3103
aa(lp3104
I8
aVaCEN_Northeast
p3105
aVbNDC_West
p3106
aa(lp3107
I8
aVaCEN_Northeast
p3108
aVbNDC_Southwest
p3109
aa(lp3110
I8
aVaCEN_Northeast
p3111
aVbNDC_Southeast
p3112
aa(lp3113
I8
aVaCEN_Northeast
p3114
aVbNDC_Midwest
p3115
aa(lp3116
I8
aVaCEN_South
p3117
aVbNDC_Midwest
p3118
aa(lp3119
I8
aVaCEN_West
p3120
aVbNDC_Midwest
p3121
aa(lp3122
I8
aVaCEN_Midwest
p3123
aVbNDC_West
p3124
aa(lp3125
I8
aVaCEN_Midwest
p3126
aVbNDC_Southwest
p3127
aa(lp3128
I8
aVaCEN_Midwest
p3129
aVbNDC_Southeast
p3130
aa(lp3131
I8
aVaCEN_Midwest
p3132
aVbNDC_Northeast
p3133
aa(lp3134
I8
aVbNDC_Northeast
p3135
aVaCEN_Midwest
p3136
aa(lp3137
I8
aVbNDC_Southeast
p3138
aVaCEN_Midwest
p3139
aa(lp3140
I8
aVbNDC_Southwest
p3141
aVaCEN_Midwest
p3142
aa(lp3143
I8
aVbNDC_West
p3144
aVaCEN_Midwest
p3145
aa(lp3146
I8
aVbNDC_Midwest
p3147
aVaCEN_West
p3148
aa(lp3149
I8
aVbNDC_Midwest
p3150
aVaCEN_South
p3151
aa(lp3152
I8
aVbNDC_Midwest
p3153
aVaCEN_Northeast
p3154
aa(lp3155
I8
aVbNDC_Southeast
p3156
aVaCEN_Northeast
p3157
aa(lp3158
I8
aVbNDC_Southwest
p3159
aVaCEN_Northeast
p3160
aa(lp3161
I8
aVbNDC_West
p3162
aVaCEN_Northeast
p3163
aa(lp3164
I8
aVbNDC_West
p3165
aVaCEN_South
p3166
aa(lp3167
I8
aVbNDC_Southeast
p3168
aVaCEN_West
p3169
aa(lp3170
I8
aVaCEN_South
p3171
aVbNDC_West
p3172
aa(lp3173
I8
aVaCEN_West
p3174
aVbNDC_Southeast
p3175
aaa(lp3176
(lp3177
I8
aVaCEN_Northeast
p3178
aVbNDC_Northeast
p3179
aa(lp3180
I8
aVaCEN_Northeast
p3181
aVaCEN_USA
p3182
aa(lp3183
I8
aVaCEN_Midwest
p3184
aVaCEN_USA
p3185
aa(lp3186
I8
aVaCEN_South
p3187
aVaCEN_USA
p3188
aa(lp3189
I8
aVaCEN_West
p3190
aVaCEN_USA
p3191
aa(lp3192
I8
aVbNDC_Midwest
p3193
aVbNDC_USA
p3194
aa(lp3195
I8
aVbNDC_Northeast
p3196
aVbNDC_USA
p3197
aa(lp3198
I8
aVbNDC_Southeast
p3199
aVbNDC_USA
p3200
aa(lp3201
I8
aVbNDC_Southwest
p3202
aVbNDC_USA
p3203
aa(lp3204
I8
aVbNDC_West
p3205
aVbNDC_USA
p3206
aa(lp3207
I8
aVbNDC_Southeast
p3208
aVaCEN_South
p3209
aa(lp3210
I8
aVbNDC_West
p3211
aVaCEN_West
p3212
aa(lp3213
I8
aVaCEN_Northeast
p3214
aVbNDC_USA
p3215
aa(lp3216
I8
aVaCEN_Midwest
p3217
aVbNDC_USA
p3218
aa(lp3219
I8
aVaCEN_South
p3220
aVbNDC_USA
p3221
aa(lp3222
I8
aVaCEN_West
p3223
aVbNDC_USA
p3224
aa(lp3225
I8
aVbNDC_West
p3226
aVaCEN_USA
p3227
aa(lp3228
I8
aVbNDC_Southeast
p3229
aVaCEN_USA
p3230
aa(lp3231
I8
aVbNDC_Southwest
p3232
aVaCEN_USA
p3233
aa(lp3234
I8
aVbNDC_Northeast
p3235
aVaCEN_USA
p3236
aa(lp3237
I8
aVbNDC_Midwest
p3238
aVaCEN_USA
p3239
aaa(lp3240
(lp3241
I8
aVaCEN_West
p3242
aVbNDC_West
p3243
aa(lp3244
I8
aVaCEN_South
p3245
aVbNDC_Southeast
p3246
aa(lp3247
I8
aVbNDC_USA
p3248
aVbNDC_West
p3249
aa(lp3250
I8
aVbNDC_USA
p3251
aVbNDC_Southwest
p3252
aa(lp3253
I8
aVbNDC_USA
p3254
aVbNDC_Southeast
p3255
aa(lp3256
I8
aVbNDC_USA
p3257
aVbNDC_Northeast
p3258
aa(lp3259
I8
aVbNDC_USA
p3260
aVbNDC_Midwest
p3261
aa(lp3262
I8
aVaCEN_USA
p3263
aVaCEN_West
p3264
aa(lp3265
I8
aVaCEN_USA
p3266
aVaCEN_South
p3267
aa(lp3268
I8
aVaCEN_USA
p3269
aVaCEN_Midwest
p3270
aa(lp3271
I8
aVaCEN_USA
p3272
aVaCEN_Northeast
p3273
aa(lp3274
I8
aVbNDC_Northeast
p3275
aVaCEN_Northeast
p3276
aa(lp3277
I8
aVbNDC_USA
p3278
aVaCEN_West
p3279
aa(lp3280
I8
aVbNDC_USA
p3281
aVaCEN_South
p3282
aa(lp3283
I8
aVbNDC_USA
p3284
aVaCEN_Midwest
p3285
aa(lp3286
I8
aVbNDC_USA
p3287
aVaCEN_Northeast
p3288
aa(lp3289
I8
aVaCEN_USA
p3290
aVbNDC_Southeast
p3291
aa(lp3292
I8
aVaCEN_USA
p3293
aVbNDC_West
p3294
aa(lp3295
I8
aVaCEN_USA
p3296
aVbNDC_Midwest
p3297
aa(lp3298
I8
aVaCEN_USA
p3299
aVbNDC_Northeast
p3300
aa(lp3301
I8
aVaCEN_USA
p3302
aVbNDC_Southwest
p3303
aaa(lp3304
(lp3305
I8
aVaCEN_South
p3306
aVbNDC_Southwest
p3307
aa(lp3308
I8
aVbNDC_Southwest
p3309
aVaCEN_South
p3310
aa(lp3311
I8
aVaCEN_South
p3312
aVbNDC_Northeast
p3313
aa(lp3314
I8
aVaCEN_West
p3315
aVbNDC_Northeast
p3316
aa(lp3317
I8
aVaCEN_West
p3318
aVbNDC_Southwest
p3319
aa(lp3320
I8
aVbNDC_Southwest
p3321
aVaCEN_West
p3322
aa(lp3323
I8
aVbNDC_Northeast
p3324
aVaCEN_West
p3325
aa(lp3326
I8
aVbNDC_Northeast
p3327
aVaCEN_South
p3328
aaa(lp3329
(lp3330
I8
aVaCEN_Northeast
p3331
aa(lp3332
I8
aVaCEN_Midwest
p3333
aa(lp3334
I8
aVaCEN_South
p3335
aa(lp3336
I8
aVaCEN_West
p3337
aa(lp3338
I8
aVbNDC_Midwest
p3339
aa(lp3340
I8
aVbNDC_Northeast
p3341
aa(lp3342
I8
aVbNDC_Southeast
p3343
aa(lp3344
I8
aVbNDC_Southwest
p3345
aa(lp3346
I8
aVbNDC_West
p3347
aa(lp3348
I8
aVaCEN_USA
p3349
aa(lp3350
I8
aVbNDC_USA
p3351
aaa(lp3352
(lp3353
I8
aVaCEN_USA
p3354
aVaCEN_Northeast
p3355
aa(lp3356
I8
aVaCEN_USA
p3357
aVaCEN_Midwest
p3358
aa(lp3359
I8
aVaCEN_USA
p3360
aVaCEN_South
p3361
aa(lp3362
I8
aVaCEN_USA
p3363
aVaCEN_West
p3364
aa(lp3365
I8
aVbNDC_USA
p3366
aVbNDC_Midwest
p3367
aa(lp3368
I8
aVbNDC_USA
p3369
aVbNDC_Northeast
p3370
aa(lp3371
I8
aVbNDC_USA
p3372
aVbNDC_Southeast
p3373
aa(lp3374
I8
aVbNDC_USA
p3375
aVbNDC_Southwest
p3376
aa(lp3377
I8
aVbNDC_USA
p3378
aVbNDC_West
p3379
aaasba.