(lp0
(ihelper
Relation
p1
(dp2
S'arrity'
p3
I2
sS'relation_name'
p4
S'eq_2'
p5
sS'r_id'
p6
I0
sba(ihelper
Relation
p7
(dp8
g3
I2
sg4
S'dr_2'
p9
sg6
I1
sba(ihelper
Relation
p10
(dp11
g3
I2
sg4
S'pp_2'
p12
sg6
I2
sba(ihelper
Relation
p13
(dp14
g3
I2
sg4
S'pi_2'
p15
sg6
I3
sba(ihelper
Relation
p16
(dp17
g3
I2
sg4
S'po_2'
p18
sg6
I4
sba(ihelper
Relation
p19
(dp20
g3
I1
sg4
S'u_1'
p21
sg6
I5
sba(ihelper
Relation
p22
(dp23
g3
I2
sg4
S'bl_2'
p24
sg6
I6
sba.