(lp0
(ihelper
PossibleWorld
p1
(dp2
S'pw_id'
p3
I1
sS'pw_soln'
p4
I0
sS'rls'
p5
(lp6
(lp7
(lp8
I1
aV6
p9
aVg
p10
aa(lp11
I1
aV1
p12
aVb
p13
aa(lp14
I1
aV2
p15
ag10
aa(lp16
I1
aV3
p17
aVr
p18
aa(lp19
I1
aV4
p20
ag10
aa(lp21
I1
aV5
p22
ag18
aaasba(ihelper
PossibleWorld
p23
(dp24
g3
I2
sg4
I0
sg5
(lp25
(lp26
(lp27
I2
ag9
ag10
aa(lp28
I2
ag12
aVy
p29
aa(lp30
I2
ag15
ag10
aa(lp31
I2
ag17
ag18
aa(lp32
I2
ag20
ag10
aa(lp33
I2
ag22
ag18
aaasba(ihelper
PossibleWorld
p34
(dp35
g3
I3
sg4
I0
sg5
(lp36
(lp37
(lp38
I3
ag9
ag13
aa(lp39
I3
ag12
ag29
aa(lp40
I3
ag15
ag10
aa(lp41
I3
ag17
ag18
aa(lp42
I3
ag20
ag10
aa(lp43
I3
ag22
ag18
aaasba(ihelper
PossibleWorld
p44
(dp45
g3
I4
sg4
I0
sg5
(lp46
(lp47
(lp48
I4
ag12
ag13
aa(lp49
I4
ag9
ag29
aa(lp50
I4
ag15
ag10
aa(lp51
I4
ag17
ag18
aa(lp52
I4
ag20
ag10
aa(lp53
I4
ag22
ag18
aaasba(ihelper
PossibleWorld
p54
(dp55
g3
I5
sg4
I0
sg5
(lp56
(lp57
(lp58
I5
ag12
ag10
aa(lp59
I5
ag9
ag29
aa(lp60
I5
ag15
ag13
aa(lp61
I5
ag17
ag18
aa(lp62
I5
ag20
ag10
aa(lp63
I5
ag22
ag18
aaasba(ihelper
PossibleWorld
p64
(dp65
g3
I6
sg4
I0
sg5
(lp66
(lp67
(lp68
I6
ag9
ag10
aa(lp69
I6
ag12
ag29
aa(lp70
I6
ag15
ag13
aa(lp71
I6
ag17
ag18
aa(lp72
I6
ag20
ag10
aa(lp73
I6
ag22
ag18
aaasba(ihelper
PossibleWorld
p74
(dp75
g3
I7
sg4
I0
sg5
(lp76
(lp77
(lp78
I7
ag12
ag10
aa(lp79
I7
ag9
ag13
aa(lp80
I7
ag15
ag13
aa(lp81
I7
ag17
ag18
aa(lp82
I7
ag20
ag10
aa(lp83
I7
ag22
ag18
aaasba(ihelper
PossibleWorld
p84
(dp85
g3
I8
sg4
I0
sg5
(lp86
(lp87
(lp88
I8
ag9
ag13
aa(lp89
I8
ag12
ag29
aa(lp90
I8
ag15
ag13
aa(lp91
I8
ag17
ag18
aa(lp92
I8
ag20
ag10
aa(lp93
I8
ag22
ag18
aaasba(ihelper
PossibleWorld
p94
(dp95
g3
I9
sg4
I0
sg5
(lp96
(lp97
(lp98
I9
ag9
ag10
aa(lp99
I9
ag12
ag13
aa(lp100
I9
ag15
ag29
aa(lp101
I9
ag17
ag18
aa(lp102
I9
ag20
ag10
aa(lp103
I9
ag22
ag18
aaasba(ihelper
PossibleWorld
p104
(dp105
g3
I10
sg4
I0
sg5
(lp106
(lp107
(lp108
I10
ag12
ag10
aa(lp109
I10
ag9
ag29
aa(lp110
I10
ag15
ag29
aa(lp111
I10
ag17
ag18
aa(lp112
I10
ag20
ag10
aa(lp113
I10
ag22
ag18
aaasba(ihelper
PossibleWorld
p114
(dp115
g3
I11
sg4
I0
sg5
(lp116
(lp117
(lp118
I11
ag12
ag13
aa(lp119
I11
ag9
ag29
aa(lp120
I11
ag15
ag29
aa(lp121
I11
ag17
ag18
aa(lp122
I11
ag20
ag10
aa(lp123
I11
ag22
ag18
aaasba(ihelper
PossibleWorld
p124
(dp125
g3
I12
sg4
I0
sg5
(lp126
(lp127
(lp128
I12
ag12
ag10
aa(lp129
I12
ag9
ag13
aa(lp130
I12
ag15
ag29
aa(lp131
I12
ag17
ag18
aa(lp132
I12
ag20
ag10
aa(lp133
I12
ag22
ag18
aaasba(ihelper
PossibleWorld
p134
(dp135
g3
I13
sg4
I0
sg5
(lp136
(lp137
(lp138
I13
ag12
ag10
aa(lp139
I13
ag9
ag13
aa(lp140
I13
ag15
ag18
aa(lp141
I13
ag17
ag13
aa(lp142
I13
ag20
ag10
aa(lp143
I13
ag22
ag18
aaasba(ihelper
PossibleWorld
p144
(dp145
g3
I14
sg4
I0
sg5
(lp146
(lp147
(lp148
I14
ag12
ag10
aa(lp149
I14
ag9
ag29
aa(lp150
I14
ag15
ag18
aa(lp151
I14
ag17
ag13
aa(lp152
I14
ag20
ag10
aa(lp153
I14
ag22
ag18
aaasba(ihelper
PossibleWorld
p154
(dp155
g3
I15
sg4
I0
sg5
(lp156
(lp157
(lp158
I15
ag12
ag10
aa(lp159
I15
ag9
ag13
aa(lp160
I15
ag15
ag29
aa(lp161
I15
ag17
ag13
aa(lp162
I15
ag20
ag10
aa(lp163
I15
ag22
ag18
aaasba(ihelper
PossibleWorld
p164
(dp165
g3
I16
sg4
I0
sg5
(lp166
(lp167
(lp168
I16
ag12
ag10
aa(lp169
I16
ag9
ag29
aa(lp170
I16
ag15
ag29
aa(lp171
I16
ag17
ag13
aa(lp172
I16
ag20
ag10
aa(lp173
I16
ag22
ag18
aaasba(ihelper
PossibleWorld
p174
(dp175
g3
I17
sg4
I0
sg5
(lp176
(lp177
(lp178
I17
ag9
ag10
aa(lp179
I17
ag12
ag29
aa(lp180
I17
ag15
ag18
aa(lp181
I17
ag17
ag13
aa(lp182
I17
ag20
ag10
aa(lp183
I17
ag22
ag18
aaasba(ihelper
PossibleWorld
p184
(dp185
g3
I18
sg4
I0
sg5
(lp186
(lp187
(lp188
I18
ag9
ag13
aa(lp189
I18
ag12
ag29
aa(lp190
I18
ag15
ag18
aa(lp191
I18
ag17
ag13
aa(lp192
I18
ag20
ag10
aa(lp193
I18
ag22
ag18
aaasba(ihelper
PossibleWorld
p194
(dp195
g3
I19
sg4
I0
sg5
(lp196
(lp197
(lp198
I19
ag9
ag10
aa(lp199
I19
ag12
ag29
aa(lp200
I19
ag15
ag10
aa(lp201
I19
ag17
ag13
aa(lp202
I19
ag20
ag10
aa(lp203
I19
ag22
ag18
aaasba(ihelper
PossibleWorld
p204
(dp205
g3
I20
sg4
I0
sg5
(lp206
(lp207
(lp208
I20
ag9
ag13
aa(lp209
I20
ag12
ag29
aa(lp210
I20
ag15
ag10
aa(lp211
I20
ag17
ag13
aa(lp212
I20
ag20
ag10
aa(lp213
I20
ag22
ag18
aaasba(ihelper
PossibleWorld
p214
(dp215
g3
I21
sg4
I0
sg5
(lp216
(lp217
(lp218
I21
ag9
ag10
aa(lp219
I21
ag12
ag13
aa(lp220
I21
ag15
ag10
aa(lp221
I21
ag17
ag13
aa(lp222
I21
ag20
ag10
aa(lp223
I21
ag22
ag18
aaasba(ihelper
PossibleWorld
p224
(dp225
g3
I22
sg4
I0
sg5
(lp226
(lp227
(lp228
I22
ag12
ag13
aa(lp229
I22
ag9
ag29
aa(lp230
I22
ag15
ag10
aa(lp231
I22
ag17
ag13
aa(lp232
I22
ag20
ag10
aa(lp233
I22
ag22
ag18
aaasba(ihelper
PossibleWorld
p234
(dp235
g3
I23
sg4
I0
sg5
(lp236
(lp237
(lp238
I23
ag9
ag10
aa(lp239
I23
ag12
ag13
aa(lp240
I23
ag15
ag29
aa(lp241
I23
ag17
ag13
aa(lp242
I23
ag20
ag10
aa(lp243
I23
ag22
ag18
aaasba(ihelper
PossibleWorld
p244
(dp245
g3
I24
sg4
I0
sg5
(lp246
(lp247
(lp248
I24
ag12
ag13
aa(lp249
I24
ag9
ag29
aa(lp250
I24
ag15
ag29
aa(lp251
I24
ag17
ag13
aa(lp252
I24
ag20
ag10
aa(lp253
I24
ag22
ag18
aaasba(ihelper
PossibleWorld
p254
(dp255
g3
I25
sg4
I0
sg5
(lp256
(lp257
(lp258
I25
ag9
ag10
aa(lp259
I25
ag12
ag13
aa(lp260
I25
ag15
ag18
aa(lp261
I25
ag17
ag13
aa(lp262
I25
ag20
ag10
aa(lp263
I25
ag22
ag18
aaasba(ihelper
PossibleWorld
p264
(dp265
g3
I26
sg4
I0
sg5
(lp266
(lp267
(lp268
I26
ag12
ag13
aa(lp269
I26
ag9
ag29
aa(lp270
I26
ag15
ag18
aa(lp271
I26
ag17
ag13
aa(lp272
I26
ag20
ag10
aa(lp273
I26
ag22
ag18
aaasba(ihelper
PossibleWorld
p274
(dp275
g3
I27
sg4
I0
sg5
(lp276
(lp277
(lp278
I27
ag9
ag10
aa(lp279
I27
ag12
ag29
aa(lp280
I27
ag15
ag10
aa(lp281
I27
ag17
ag29
aa(lp282
I27
ag20
ag10
aa(lp283
I27
ag22
ag18
aaasba(ihelper
PossibleWorld
p284
(dp285
g3
I28
sg4
I0
sg5
(lp286
(lp287
(lp288
I28
ag9
ag10
aa(lp289
I28
ag12
ag29
aa(lp290
I28
ag15
ag18
aa(lp291
I28
ag17
ag29
aa(lp292
I28
ag20
ag10
aa(lp293
I28
ag22
ag18
aaasba(ihelper
PossibleWorld
p294
(dp295
g3
I29
sg4
I0
sg5
(lp296
(lp297
(lp298
I29
ag9
ag10
aa(lp299
I29
ag12
ag29
aa(lp300
I29
ag15
ag13
aa(lp301
I29
ag17
ag29
aa(lp302
I29
ag20
ag10
aa(lp303
I29
ag22
ag18
aaasba(ihelper
PossibleWorld
p304
(dp305
g3
I30
sg4
I0
sg5
(lp306
(lp307
(lp308
I30
ag9
ag10
aa(lp309
I30
ag12
ag13
aa(lp310
I30
ag15
ag10
aa(lp311
I30
ag17
ag29
aa(lp312
I30
ag20
ag10
aa(lp313
I30
ag22
ag18
aaasba(ihelper
PossibleWorld
p314
(dp315
g3
I31
sg4
I0
sg5
(lp316
(lp317
(lp318
I31
ag9
ag10
aa(lp319
I31
ag12
ag13
aa(lp320
I31
ag15
ag18
aa(lp321
I31
ag17
ag29
aa(lp322
I31
ag20
ag10
aa(lp323
I31
ag22
ag18
aaasba(ihelper
PossibleWorld
p324
(dp325
g3
I32
sg4
I0
sg5
(lp326
(lp327
(lp328
I32
ag9
ag13
aa(lp329
I32
ag12
ag29
aa(lp330
I32
ag15
ag10
aa(lp331
I32
ag17
ag29
aa(lp332
I32
ag20
ag10
aa(lp333
I32
ag22
ag18
aaasba(ihelper
PossibleWorld
p334
(dp335
g3
I33
sg4
I0
sg5
(lp336
(lp337
(lp338
I33
ag12
ag10
aa(lp339
I33
ag9
ag13
aa(lp340
I33
ag15
ag13
aa(lp341
I33
ag17
ag29
aa(lp342
I33
ag20
ag10
aa(lp343
I33
ag22
ag18
aaasba(ihelper
PossibleWorld
p344
(dp345
g3
I34
sg4
I0
sg5
(lp346
(lp347
(lp348
I34
ag9
ag13
aa(lp349
I34
ag12
ag29
aa(lp350
I34
ag15
ag13
aa(lp351
I34
ag17
ag29
aa(lp352
I34
ag20
ag10
aa(lp353
I34
ag22
ag18
aaasba(ihelper
PossibleWorld
p354
(dp355
g3
I35
sg4
I0
sg5
(lp356
(lp357
(lp358
I35
ag12
ag10
aa(lp359
I35
ag9
ag13
aa(lp360
I35
ag15
ag18
aa(lp361
I35
ag17
ag29
aa(lp362
I35
ag20
ag10
aa(lp363
I35
ag22
ag18
aaasba(ihelper
PossibleWorld
p364
(dp365
g3
I36
sg4
I0
sg5
(lp366
(lp367
(lp368
I36
ag9
ag13
aa(lp369
I36
ag12
ag29
aa(lp370
I36
ag15
ag18
aa(lp371
I36
ag17
ag29
aa(lp372
I36
ag20
ag10
aa(lp373
I36
ag22
ag18
aaasba(ihelper
PossibleWorld
p374
(dp375
g3
I37
sg4
I0
sg5
(lp376
(lp377
(lp378
I37
ag12
ag10
aa(lp379
I37
ag9
ag29
aa(lp380
I37
ag15
ag18
aa(lp381
I37
ag17
ag29
aa(lp382
I37
ag20
ag10
aa(lp383
I37
ag22
ag18
aaasba(ihelper
PossibleWorld
p384
(dp385
g3
I38
sg4
I0
sg5
(lp386
(lp387
(lp388
I38
ag12
ag10
aa(lp389
I38
ag9
ag29
aa(lp390
I38
ag15
ag13
aa(lp391
I38
ag17
ag29
aa(lp392
I38
ag20
ag10
aa(lp393
I38
ag22
ag18
aaasba(ihelper
PossibleWorld
p394
(dp395
g3
I39
sg4
I0
sg5
(lp396
(lp397
(lp398
I39
ag12
ag13
aa(lp399
I39
ag9
ag29
aa(lp400
I39
ag15
ag10
aa(lp401
I39
ag17
ag29
aa(lp402
I39
ag20
ag10
aa(lp403
I39
ag22
ag18
aaasba(ihelper
PossibleWorld
p404
(dp405
g3
I40
sg4
I0
sg5
(lp406
(lp407
(lp408
I40
ag12
ag13
aa(lp409
I40
ag9
ag29
aa(lp410
I40
ag15
ag18
aa(lp411
I40
ag17
ag29
aa(lp412
I40
ag20
ag10
aa(lp413
I40
ag22
ag18
aaasba(ihelper
PossibleWorld
p414
(dp415
g3
I41
sg4
I0
sg5
(lp416
(lp417
(lp418
I41
ag12
ag10
aa(lp419
I41
ag9
ag29
aa(lp420
I41
ag15
ag29
aa(lp421
I41
ag17
ag10
aa(lp422
I41
ag20
ag13
aa(lp423
I41
ag22
ag18
aaasba(ihelper
PossibleWorld
p424
(dp425
g3
I42
sg4
I0
sg5
(lp426
(lp427
(lp428
I42
ag12
ag10
aa(lp429
I42
ag9
ag29
aa(lp430
I42
ag15
ag29
aa(lp431
I42
ag17
ag18
aa(lp432
I42
ag20
ag13
aa(lp433
I42
ag22
ag18
aaasba(ihelper
PossibleWorld
p434
(dp435
g3
I43
sg4
I0
sg5
(lp436
(lp437
(lp438
I43
ag9
ag10
aa(lp439
I43
ag12
ag29
aa(lp440
I43
ag15
ag10
aa(lp441
I43
ag17
ag29
aa(lp442
I43
ag20
ag13
aa(lp443
I43
ag22
ag18
aaasba(ihelper
PossibleWorld
p444
(dp445
g3
I44
sg4
I0
sg5
(lp446
(lp447
(lp448
I44
ag9
ag10
aa(lp449
I44
ag12
ag29
aa(lp450
I44
ag15
ag10
aa(lp451
I44
ag17
ag18
aa(lp452
I44
ag20
ag13
aa(lp453
I44
ag22
ag18
aaasba(ihelper
PossibleWorld
p454
(dp455
g3
I45
sg4
I0
sg5
(lp456
(lp457
(lp458
I45
ag12
ag10
aa(lp459
I45
ag9
ag13
aa(lp460
I45
ag15
ag29
aa(lp461
I45
ag17
ag10
aa(lp462
I45
ag20
ag13
aa(lp463
I45
ag22
ag18
aaasba(ihelper
PossibleWorld
p464
(dp465
g3
I46
sg4
I0
sg5
(lp466
(lp467
(lp468
I46
ag9
ag13
aa(lp469
I46
ag12
ag29
aa(lp470
I46
ag15
ag10
aa(lp471
I46
ag17
ag29
aa(lp472
I46
ag20
ag13
aa(lp473
I46
ag22
ag18
aaasba(ihelper
PossibleWorld
p474
(dp475
g3
I47
sg4
I0
sg5
(lp476
(lp477
(lp478
I47
ag12
ag10
aa(lp479
I47
ag9
ag13
aa(lp480
I47
ag15
ag29
aa(lp481
I47
ag17
ag18
aa(lp482
I47
ag20
ag13
aa(lp483
I47
ag22
ag18
aaasba(ihelper
PossibleWorld
p484
(dp485
g3
I48
sg4
I0
sg5
(lp486
(lp487
(lp488
I48
ag9
ag13
aa(lp489
I48
ag12
ag29
aa(lp490
I48
ag15
ag10
aa(lp491
I48
ag17
ag18
aa(lp492
I48
ag20
ag13
aa(lp493
I48
ag22
ag18
aaasba(ihelper
PossibleWorld
p494
(dp495
g3
I49
sg4
I0
sg5
(lp496
(lp497
(lp498
I49
ag9
ag10
aa(lp499
I49
ag12
ag13
aa(lp500
I49
ag15
ag10
aa(lp501
I49
ag17
ag29
aa(lp502
I49
ag20
ag13
aa(lp503
I49
ag22
ag18
aaasba(ihelper
PossibleWorld
p504
(dp505
g3
I50
sg4
I0
sg5
(lp506
(lp507
(lp508
I50
ag9
ag10
aa(lp509
I50
ag12
ag13
aa(lp510
I50
ag15
ag29
aa(lp511
I50
ag17
ag10
aa(lp512
I50
ag20
ag13
aa(lp513
I50
ag22
ag18
aaasba(ihelper
PossibleWorld
p514
(dp515
g3
I51
sg4
I0
sg5
(lp516
(lp517
(lp518
I51
ag9
ag10
aa(lp519
I51
ag12
ag13
aa(lp520
I51
ag15
ag10
aa(lp521
I51
ag17
ag18
aa(lp522
I51
ag20
ag13
aa(lp523
I51
ag22
ag18
aaasba(ihelper
PossibleWorld
p524
(dp525
g3
I52
sg4
I0
sg5
(lp526
(lp527
(lp528
I52
ag9
ag10
aa(lp529
I52
ag12
ag13
aa(lp530
I52
ag15
ag29
aa(lp531
I52
ag17
ag18
aa(lp532
I52
ag20
ag13
aa(lp533
I52
ag22
ag18
aaasba(ihelper
PossibleWorld
p534
(dp535
g3
I53
sg4
I0
sg5
(lp536
(lp537
(lp538
I53
ag12
ag13
aa(lp539
I53
ag9
ag29
aa(lp540
I53
ag15
ag10
aa(lp541
I53
ag17
ag29
aa(lp542
I53
ag20
ag13
aa(lp543
I53
ag22
ag18
aaasba(ihelper
PossibleWorld
p544
(dp545
g3
I54
sg4
I0
sg5
(lp546
(lp547
(lp548
I54
ag12
ag13
aa(lp549
I54
ag9
ag29
aa(lp550
I54
ag15
ag10
aa(lp551
I54
ag17
ag18
aa(lp552
I54
ag20
ag13
aa(lp553
I54
ag22
ag18
aaasba(ihelper
PossibleWorld
p554
(dp555
g3
I55
sg4
I0
sg5
(lp556
(lp557
(lp558
I55
ag12
ag13
aa(lp559
I55
ag9
ag29
aa(lp560
I55
ag15
ag29
aa(lp561
I55
ag17
ag10
aa(lp562
I55
ag20
ag13
aa(lp563
I55
ag22
ag18
aaasba(ihelper
PossibleWorld
p564
(dp565
g3
I56
sg4
I0
sg5
(lp566
(lp567
(lp568
I56
ag12
ag13
aa(lp569
I56
ag9
ag29
aa(lp570
I56
ag15
ag29
aa(lp571
I56
ag17
ag18
aa(lp572
I56
ag20
ag13
aa(lp573
I56
ag22
ag18
aaasba(ihelper
PossibleWorld
p574
(dp575
g3
I57
sg4
I0
sg5
(lp576
(lp577
(lp578
I57
ag12
ag10
aa(lp579
I57
ag9
ag13
aa(lp580
I57
ag15
ag13
aa(lp581
I57
ag17
ag10
aa(lp582
I57
ag20
ag13
aa(lp583
I57
ag22
ag18
aaasba(ihelper
PossibleWorld
p584
(dp585
g3
I58
sg4
I0
sg5
(lp586
(lp587
(lp588
I58
ag12
ag10
aa(lp589
I58
ag9
ag13
aa(lp590
I58
ag15
ag13
aa(lp591
I58
ag17
ag29
aa(lp592
I58
ag20
ag13
aa(lp593
I58
ag22
ag18
aaasba(ihelper
PossibleWorld
p594
(dp595
g3
I59
sg4
I0
sg5
(lp596
(lp597
(lp598
I59
ag9
ag10
aa(lp599
I59
ag12
ag29
aa(lp600
I59
ag15
ag13
aa(lp601
I59
ag17
ag10
aa(lp602
I59
ag20
ag13
aa(lp603
I59
ag22
ag18
aaasba(ihelper
PossibleWorld
p604
(dp605
g3
I60
sg4
I0
sg5
(lp606
(lp607
(lp608
I60
ag9
ag13
aa(lp609
I60
ag12
ag29
aa(lp610
I60
ag15
ag13
aa(lp611
I60
ag17
ag10
aa(lp612
I60
ag20
ag13
aa(lp613
I60
ag22
ag18
aaasba(ihelper
PossibleWorld
p614
(dp615
g3
I61
sg4
I0
sg5
(lp616
(lp617
(lp618
I61
ag9
ag10
aa(lp619
I61
ag12
ag29
aa(lp620
I61
ag15
ag13
aa(lp621
I61
ag17
ag29
aa(lp622
I61
ag20
ag13
aa(lp623
I61
ag22
ag18
aaasba(ihelper
PossibleWorld
p624
(dp625
g3
I62
sg4
I0
sg5
(lp626
(lp627
(lp628
I62
ag9
ag13
aa(lp629
I62
ag12
ag29
aa(lp630
I62
ag15
ag13
aa(lp631
I62
ag17
ag29
aa(lp632
I62
ag20
ag13
aa(lp633
I62
ag22
ag18
aaasba(ihelper
PossibleWorld
p634
(dp635
g3
I63
sg4
I0
sg5
(lp636
(lp637
(lp638
I63
ag12
ag10
aa(lp639
I63
ag9
ag29
aa(lp640
I63
ag15
ag13
aa(lp641
I63
ag17
ag10
aa(lp642
I63
ag20
ag13
aa(lp643
I63
ag22
ag18
aaasba(ihelper
PossibleWorld
p644
(dp645
g3
I64
sg4
I0
sg5
(lp646
(lp647
(lp648
I64
ag12
ag10
aa(lp649
I64
ag9
ag29
aa(lp650
I64
ag15
ag13
aa(lp651
I64
ag17
ag29
aa(lp652
I64
ag20
ag13
aa(lp653
I64
ag22
ag18
aaasba(ihelper
PossibleWorld
p654
(dp655
g3
I65
sg4
I0
sg5
(lp656
(lp657
(lp658
I65
ag9
ag10
aa(lp659
I65
ag12
ag29
aa(lp660
I65
ag15
ag13
aa(lp661
I65
ag17
ag18
aa(lp662
I65
ag20
ag13
aa(lp663
I65
ag22
ag18
aaasba(ihelper
PossibleWorld
p664
(dp665
g3
I66
sg4
I0
sg5
(lp666
(lp667
(lp668
I66
ag12
ag10
aa(lp669
I66
ag9
ag29
aa(lp670
I66
ag15
ag13
aa(lp671
I66
ag17
ag18
aa(lp672
I66
ag20
ag13
aa(lp673
I66
ag22
ag18
aaasba(ihelper
PossibleWorld
p674
(dp675
g3
I67
sg4
I0
sg5
(lp676
(lp677
(lp678
I67
ag12
ag10
aa(lp679
I67
ag9
ag13
aa(lp680
I67
ag15
ag13
aa(lp681
I67
ag17
ag18
aa(lp682
I67
ag20
ag13
aa(lp683
I67
ag22
ag18
aaasba(ihelper
PossibleWorld
p684
(dp685
g3
I68
sg4
I0
sg5
(lp686
(lp687
(lp688
I68
ag9
ag13
aa(lp689
I68
ag12
ag29
aa(lp690
I68
ag15
ag13
aa(lp691
I68
ag17
ag18
aa(lp692
I68
ag20
ag13
aa(lp693
I68
ag22
ag18
aaasba(ihelper
PossibleWorld
p694
(dp695
g3
I69
sg4
I0
sg5
(lp696
(lp697
(lp698
I69
ag9
ag10
aa(lp699
I69
ag12
ag13
aa(lp700
I69
ag15
ag18
aa(lp701
I69
ag17
ag10
aa(lp702
I69
ag20
ag13
aa(lp703
I69
ag22
ag18
aaasba(ihelper
PossibleWorld
p704
(dp705
g3
I70
sg4
I0
sg5
(lp706
(lp707
(lp708
I70
ag9
ag10
aa(lp709
I70
ag12
ag13
aa(lp710
I70
ag15
ag18
aa(lp711
I70
ag17
ag29
aa(lp712
I70
ag20
ag13
aa(lp713
I70
ag22
ag18
aaasba(ihelper
PossibleWorld
p714
(dp715
g3
I71
sg4
I0
sg5
(lp716
(lp717
(lp718
I71
ag12
ag10
aa(lp719
I71
ag9
ag13
aa(lp720
I71
ag15
ag18
aa(lp721
I71
ag17
ag10
aa(lp722
I71
ag20
ag13
aa(lp723
I71
ag22
ag18
aaasba(ihelper
PossibleWorld
p724
(dp725
g3
I72
sg4
I0
sg5
(lp726
(lp727
(lp728
I72
ag12
ag10
aa(lp729
I72
ag9
ag13
aa(lp730
I72
ag15
ag18
aa(lp731
I72
ag17
ag29
aa(lp732
I72
ag20
ag13
aa(lp733
I72
ag22
ag18
aaasba(ihelper
PossibleWorld
p734
(dp735
g3
I73
sg4
I0
sg5
(lp736
(lp737
(lp738
I73
ag12
ag10
aa(lp739
I73
ag9
ag29
aa(lp740
I73
ag15
ag18
aa(lp741
I73
ag17
ag10
aa(lp742
I73
ag20
ag13
aa(lp743
I73
ag22
ag18
aaasba(ihelper
PossibleWorld
p744
(dp745
g3
I74
sg4
I0
sg5
(lp746
(lp747
(lp748
I74
ag12
ag13
aa(lp749
I74
ag9
ag29
aa(lp750
I74
ag15
ag18
aa(lp751
I74
ag17
ag10
aa(lp752
I74
ag20
ag13
aa(lp753
I74
ag22
ag18
aaasba(ihelper
PossibleWorld
p754
(dp755
g3
I75
sg4
I0
sg5
(lp756
(lp757
(lp758
I75
ag12
ag10
aa(lp759
I75
ag9
ag29
aa(lp760
I75
ag15
ag18
aa(lp761
I75
ag17
ag29
aa(lp762
I75
ag20
ag13
aa(lp763
I75
ag22
ag18
aaasba(ihelper
PossibleWorld
p764
(dp765
g3
I76
sg4
I0
sg5
(lp766
(lp767
(lp768
I76
ag12
ag13
aa(lp769
I76
ag9
ag29
aa(lp770
I76
ag15
ag18
aa(lp771
I76
ag17
ag29
aa(lp772
I76
ag20
ag13
aa(lp773
I76
ag22
ag18
aaasba(ihelper
PossibleWorld
p774
(dp775
g3
I77
sg4
I0
sg5
(lp776
(lp777
(lp778
I77
ag9
ag10
aa(lp779
I77
ag12
ag29
aa(lp780
I77
ag15
ag18
aa(lp781
I77
ag17
ag10
aa(lp782
I77
ag20
ag13
aa(lp783
I77
ag22
ag18
aaasba(ihelper
PossibleWorld
p784
(dp785
g3
I78
sg4
I0
sg5
(lp786
(lp787
(lp788
I78
ag9
ag10
aa(lp789
I78
ag12
ag29
aa(lp790
I78
ag15
ag18
aa(lp791
I78
ag17
ag29
aa(lp792
I78
ag20
ag13
aa(lp793
I78
ag22
ag18
aaasba(ihelper
PossibleWorld
p794
(dp795
g3
I79
sg4
I0
sg5
(lp796
(lp797
(lp798
I79
ag9
ag13
aa(lp799
I79
ag12
ag29
aa(lp800
I79
ag15
ag18
aa(lp801
I79
ag17
ag10
aa(lp802
I79
ag20
ag13
aa(lp803
I79
ag22
ag18
aaasba(ihelper
PossibleWorld
p804
(dp805
g3
I80
sg4
I0
sg5
(lp806
(lp807
(lp808
I80
ag9
ag13
aa(lp809
I80
ag12
ag29
aa(lp810
I80
ag15
ag18
aa(lp811
I80
ag17
ag29
aa(lp812
I80
ag20
ag13
aa(lp813
I80
ag22
ag18
aaasba(ihelper
PossibleWorld
p814
(dp815
g3
I81
sg4
I0
sg5
(lp816
(lp817
(lp818
I81
ag12
ag10
aa(lp819
I81
ag9
ag13
aa(lp820
I81
ag15
ag18
aa(lp821
I81
ag17
ag10
aa(lp822
I81
ag20
ag29
aa(lp823
I81
ag22
ag18
aaasba(ihelper
PossibleWorld
p824
(dp825
g3
I82
sg4
I0
sg5
(lp826
(lp827
(lp828
I82
ag12
ag10
aa(lp829
I82
ag9
ag13
aa(lp830
I82
ag15
ag13
aa(lp831
I82
ag17
ag10
aa(lp832
I82
ag20
ag29
aa(lp833
I82
ag22
ag18
aaasba(ihelper
PossibleWorld
p834
(dp835
g3
I83
sg4
I0
sg5
(lp836
(lp837
(lp838
I83
ag12
ag10
aa(lp839
I83
ag9
ag13
aa(lp840
I83
ag15
ag18
aa(lp841
I83
ag17
ag13
aa(lp842
I83
ag20
ag29
aa(lp843
I83
ag22
ag18
aaasba(ihelper
PossibleWorld
p844
(dp845
g3
I84
sg4
I0
sg5
(lp846
(lp847
(lp848
I84
ag12
ag10
aa(lp849
I84
ag9
ag13
aa(lp850
I84
ag15
ag13
aa(lp851
I84
ag17
ag18
aa(lp852
I84
ag20
ag29
aa(lp853
I84
ag22
ag18
aaasba(ihelper
PossibleWorld
p854
(dp855
g3
I85
sg4
I0
sg5
(lp856
(lp857
(lp858
I85
ag12
ag10
aa(lp859
I85
ag9
ag13
aa(lp860
I85
ag15
ag29
aa(lp861
I85
ag17
ag10
aa(lp862
I85
ag20
ag29
aa(lp863
I85
ag22
ag18
aaasba(ihelper
PossibleWorld
p864
(dp865
g3
I86
sg4
I0
sg5
(lp866
(lp867
(lp868
I86
ag12
ag10
aa(lp869
I86
ag9
ag13
aa(lp870
I86
ag15
ag29
aa(lp871
I86
ag17
ag13
aa(lp872
I86
ag20
ag29
aa(lp873
I86
ag22
ag18
aaasba(ihelper
PossibleWorld
p874
(dp875
g3
I87
sg4
I0
sg5
(lp876
(lp877
(lp878
I87
ag12
ag10
aa(lp879
I87
ag9
ag13
aa(lp880
I87
ag15
ag29
aa(lp881
I87
ag17
ag18
aa(lp882
I87
ag20
ag29
aa(lp883
I87
ag22
ag18
aaasba(ihelper
PossibleWorld
p884
(dp885
g3
I88
sg4
I0
sg5
(lp886
(lp887
(lp888
I88
ag9
ag10
aa(lp889
I88
ag12
ag29
aa(lp890
I88
ag15
ag18
aa(lp891
I88
ag17
ag10
aa(lp892
I88
ag20
ag29
aa(lp893
I88
ag22
ag18
aaasba(ihelper
PossibleWorld
p894
(dp895
g3
I89
sg4
I0
sg5
(lp896
(lp897
(lp898
I89
ag9
ag10
aa(lp899
I89
ag12
ag29
aa(lp900
I89
ag15
ag10
aa(lp901
I89
ag17
ag18
aa(lp902
I89
ag20
ag29
aa(lp903
I89
ag22
ag18
aaasba(ihelper
PossibleWorld
p904
(dp905
g3
I90
sg4
I0
sg5
(lp906
(lp907
(lp908
I90
ag9
ag13
aa(lp909
I90
ag12
ag29
aa(lp910
I90
ag15
ag18
aa(lp911
I90
ag17
ag10
aa(lp912
I90
ag20
ag29
aa(lp913
I90
ag22
ag18
aaasba(ihelper
PossibleWorld
p914
(dp915
g3
I91
sg4
I0
sg5
(lp916
(lp917
(lp918
I91
ag9
ag13
aa(lp919
I91
ag12
ag29
aa(lp920
I91
ag15
ag10
aa(lp921
I91
ag17
ag18
aa(lp922
I91
ag20
ag29
aa(lp923
I91
ag22
ag18
aaasba(ihelper
PossibleWorld
p924
(dp925
g3
I92
sg4
I0
sg5
(lp926
(lp927
(lp928
I92
ag9
ag10
aa(lp929
I92
ag12
ag29
aa(lp930
I92
ag15
ag13
aa(lp931
I92
ag17
ag10
aa(lp932
I92
ag20
ag29
aa(lp933
I92
ag22
ag18
aaasba(ihelper
PossibleWorld
p934
(dp935
g3
I93
sg4
I0
sg5
(lp936
(lp937
(lp938
I93
ag9
ag13
aa(lp939
I93
ag12
ag29
aa(lp940
I93
ag15
ag13
aa(lp941
I93
ag17
ag10
aa(lp942
I93
ag20
ag29
aa(lp943
I93
ag22
ag18
aaasba(ihelper
PossibleWorld
p944
(dp945
g3
I94
sg4
I0
sg5
(lp946
(lp947
(lp948
I94
ag9
ag10
aa(lp949
I94
ag12
ag29
aa(lp950
I94
ag15
ag13
aa(lp951
I94
ag17
ag18
aa(lp952
I94
ag20
ag29
aa(lp953
I94
ag22
ag18
aaasba(ihelper
PossibleWorld
p954
(dp955
g3
I95
sg4
I0
sg5
(lp956
(lp957
(lp958
I95
ag9
ag13
aa(lp959
I95
ag12
ag29
aa(lp960
I95
ag15
ag13
aa(lp961
I95
ag17
ag18
aa(lp962
I95
ag20
ag29
aa(lp963
I95
ag22
ag18
aaasba(ihelper
PossibleWorld
p964
(dp965
g3
I96
sg4
I0
sg5
(lp966
(lp967
(lp968
I96
ag9
ag10
aa(lp969
I96
ag12
ag29
aa(lp970
I96
ag15
ag10
aa(lp971
I96
ag17
ag13
aa(lp972
I96
ag20
ag29
aa(lp973
I96
ag22
ag18
aaasba(ihelper
PossibleWorld
p974
(dp975
g3
I97
sg4
I0
sg5
(lp976
(lp977
(lp978
I97
ag9
ag10
aa(lp979
I97
ag12
ag29
aa(lp980
I97
ag15
ag18
aa(lp981
I97
ag17
ag13
aa(lp982
I97
ag20
ag29
aa(lp983
I97
ag22
ag18
aaasba(ihelper
PossibleWorld
p984
(dp985
g3
I98
sg4
I0
sg5
(lp986
(lp987
(lp988
I98
ag9
ag13
aa(lp989
I98
ag12
ag29
aa(lp990
I98
ag15
ag10
aa(lp991
I98
ag17
ag13
aa(lp992
I98
ag20
ag29
aa(lp993
I98
ag22
ag18
aaasba(ihelper
PossibleWorld
p994
(dp995
g3
I99
sg4
I0
sg5
(lp996
(lp997
(lp998
I99
ag9
ag13
aa(lp999
I99
ag12
ag29
aa(lp1000
I99
ag15
ag18
aa(lp1001
I99
ag17
ag13
aa(lp1002
I99
ag20
ag29
aa(lp1003
I99
ag22
ag18
aaasba(ihelper
PossibleWorld
p1004
(dp1005
g3
I100
sg4
I0
sg5
(lp1006
(lp1007
(lp1008
I100
ag12
ag10
aa(lp1009
I100
ag9
ag29
aa(lp1010
I100
ag15
ag29
aa(lp1011
I100
ag17
ag10
aa(lp1012
I100
ag20
ag29
aa(lp1013
I100
ag22
ag18
aaasba(ihelper
PossibleWorld
p1014
(dp1015
g3
I101
sg4
I0
sg5
(lp1016
(lp1017
(lp1018
I101
ag12
ag10
aa(lp1019
I101
ag9
ag29
aa(lp1020
I101
ag15
ag29
aa(lp1021
I101
ag17
ag13
aa(lp1022
I101
ag20
ag29
aa(lp1023
I101
ag22
ag18
aaasba(ihelper
PossibleWorld
p1024
(dp1025
g3
I102
sg4
I0
sg5
(lp1026
(lp1027
(lp1028
I102
ag12
ag10
aa(lp1029
I102
ag9
ag29
aa(lp1030
I102
ag15
ag13
aa(lp1031
I102
ag17
ag10
aa(lp1032
I102
ag20
ag29
aa(lp1033
I102
ag22
ag18
aaasba(ihelper
PossibleWorld
p1034
(dp1035
g3
I103
sg4
I0
sg5
(lp1036
(lp1037
(lp1038
I103
ag12
ag10
aa(lp1039
I103
ag9
ag29
aa(lp1040
I103
ag15
ag29
aa(lp1041
I103
ag17
ag18
aa(lp1042
I103
ag20
ag29
aa(lp1043
I103
ag22
ag18
aaasba(ihelper
PossibleWorld
p1044
(dp1045
g3
I104
sg4
I0
sg5
(lp1046
(lp1047
(lp1048
I104
ag12
ag10
aa(lp1049
I104
ag9
ag29
aa(lp1050
I104
ag15
ag13
aa(lp1051
I104
ag17
ag18
aa(lp1052
I104
ag20
ag29
aa(lp1053
I104
ag22
ag18
aaasba(ihelper
PossibleWorld
p1054
(dp1055
g3
I105
sg4
I0
sg5
(lp1056
(lp1057
(lp1058
I105
ag12
ag10
aa(lp1059
I105
ag9
ag29
aa(lp1060
I105
ag15
ag18
aa(lp1061
I105
ag17
ag10
aa(lp1062
I105
ag20
ag29
aa(lp1063
I105
ag22
ag18
aaasba(ihelper
PossibleWorld
p1064
(dp1065
g3
I106
sg4
I0
sg5
(lp1066
(lp1067
(lp1068
I106
ag12
ag10
aa(lp1069
I106
ag9
ag29
aa(lp1070
I106
ag15
ag18
aa(lp1071
I106
ag17
ag13
aa(lp1072
I106
ag20
ag29
aa(lp1073
I106
ag22
ag18
aaasba(ihelper
PossibleWorld
p1074
(dp1075
g3
I107
sg4
I0
sg5
(lp1076
(lp1077
(lp1078
I107
ag9
ag10
aa(lp1079
I107
ag12
ag13
aa(lp1080
I107
ag15
ag29
aa(lp1081
I107
ag17
ag10
aa(lp1082
I107
ag20
ag29
aa(lp1083
I107
ag22
ag18
aaasba(ihelper
PossibleWorld
p1084
(dp1085
g3
I108
sg4
I0
sg5
(lp1086
(lp1087
(lp1088
I108
ag12
ag13
aa(lp1089
I108
ag9
ag29
aa(lp1090
I108
ag15
ag29
aa(lp1091
I108
ag17
ag10
aa(lp1092
I108
ag20
ag29
aa(lp1093
I108
ag22
ag18
aaasba(ihelper
PossibleWorld
p1094
(dp1095
g3
I109
sg4
I0
sg5
(lp1096
(lp1097
(lp1098
I109
ag9
ag10
aa(lp1099
I109
ag12
ag13
aa(lp1100
I109
ag15
ag18
aa(lp1101
I109
ag17
ag10
aa(lp1102
I109
ag20
ag29
aa(lp1103
I109
ag22
ag18
aaasba(ihelper
PossibleWorld
p1104
(dp1105
g3
I110
sg4
I0
sg5
(lp1106
(lp1107
(lp1108
I110
ag12
ag13
aa(lp1109
I110
ag9
ag29
aa(lp1110
I110
ag15
ag18
aa(lp1111
I110
ag17
ag10
aa(lp1112
I110
ag20
ag29
aa(lp1113
I110
ag22
ag18
aaasba(ihelper
PossibleWorld
p1114
(dp1115
g3
I111
sg4
I0
sg5
(lp1116
(lp1117
(lp1118
I111
ag9
ag10
aa(lp1119
I111
ag12
ag13
aa(lp1120
I111
ag15
ag10
aa(lp1121
I111
ag17
ag18
aa(lp1122
I111
ag20
ag29
aa(lp1123
I111
ag22
ag18
aaasba(ihelper
PossibleWorld
p1124
(dp1125
g3
I112
sg4
I0
sg5
(lp1126
(lp1127
(lp1128
I112
ag9
ag10
aa(lp1129
I112
ag12
ag13
aa(lp1130
I112
ag15
ag29
aa(lp1131
I112
ag17
ag18
aa(lp1132
I112
ag20
ag29
aa(lp1133
I112
ag22
ag18
aaasba(ihelper
PossibleWorld
p1134
(dp1135
g3
I113
sg4
I0
sg5
(lp1136
(lp1137
(lp1138
I113
ag12
ag13
aa(lp1139
I113
ag9
ag29
aa(lp1140
I113
ag15
ag10
aa(lp1141
I113
ag17
ag18
aa(lp1142
I113
ag20
ag29
aa(lp1143
I113
ag22
ag18
aaasba(ihelper
PossibleWorld
p1144
(dp1145
g3
I114
sg4
I0
sg5
(lp1146
(lp1147
(lp1148
I114
ag12
ag13
aa(lp1149
I114
ag9
ag29
aa(lp1150
I114
ag15
ag29
aa(lp1151
I114
ag17
ag18
aa(lp1152
I114
ag20
ag29
aa(lp1153
I114
ag22
ag18
aaasba(ihelper
PossibleWorld
p1154
(dp1155
g3
I115
sg4
I0
sg5
(lp1156
(lp1157
(lp1158
I115
ag9
ag10
aa(lp1159
I115
ag12
ag13
aa(lp1160
I115
ag15
ag10
aa(lp1161
I115
ag17
ag13
aa(lp1162
I115
ag20
ag29
aa(lp1163
I115
ag22
ag18
aaasba(ihelper
PossibleWorld
p1164
(dp1165
g3
I116
sg4
I0
sg5
(lp1166
(lp1167
(lp1168
I116
ag9
ag10
aa(lp1169
I116
ag12
ag13
aa(lp1170
I116
ag15
ag18
aa(lp1171
I116
ag17
ag13
aa(lp1172
I116
ag20
ag29
aa(lp1173
I116
ag22
ag18
aaasba(ihelper
PossibleWorld
p1174
(dp1175
g3
I117
sg4
I0
sg5
(lp1176
(lp1177
(lp1178
I117
ag12
ag13
aa(lp1179
I117
ag9
ag29
aa(lp1180
I117
ag15
ag10
aa(lp1181
I117
ag17
ag13
aa(lp1182
I117
ag20
ag29
aa(lp1183
I117
ag22
ag18
aaasba(ihelper
PossibleWorld
p1184
(dp1185
g3
I118
sg4
I0
sg5
(lp1186
(lp1187
(lp1188
I118
ag12
ag13
aa(lp1189
I118
ag9
ag29
aa(lp1190
I118
ag15
ag18
aa(lp1191
I118
ag17
ag13
aa(lp1192
I118
ag20
ag29
aa(lp1193
I118
ag22
ag18
aaasba(ihelper
PossibleWorld
p1194
(dp1195
g3
I119
sg4
I0
sg5
(lp1196
(lp1197
(lp1198
I119
ag9
ag10
aa(lp1199
I119
ag12
ag13
aa(lp1200
I119
ag15
ag29
aa(lp1201
I119
ag17
ag13
aa(lp1202
I119
ag20
ag29
aa(lp1203
I119
ag22
ag18
aaasba(ihelper
PossibleWorld
p1204
(dp1205
g3
I120
sg4
I0
sg5
(lp1206
(lp1207
(lp1208
I120
ag12
ag13
aa(lp1209
I120
ag9
ag29
aa(lp1210
I120
ag15
ag29
aa(lp1211
I120
ag17
ag13
aa(lp1212
I120
ag20
ag29
aa(lp1213
I120
ag22
ag18
aaasba(ihelper
PossibleWorld
p1214
(dp1215
g3
I121
sg4
I0
sg5
(lp1216
(lp1217
(lp1218
I121
ag9
ag18
aa(lp1219
I121
ag12
ag13
aa(lp1220
I121
ag15
ag10
aa(lp1221
I121
ag17
ag29
aa(lp1222
I121
ag20
ag13
aa(lp1223
I121
ag22
ag10
aaasba(ihelper
PossibleWorld
p1224
(dp1225
g3
I122
sg4
I0
sg5
(lp1226
(lp1227
(lp1228
I122
ag9
ag18
aa(lp1229
I122
ag12
ag13
aa(lp1230
I122
ag15
ag10
aa(lp1231
I122
ag17
ag29
aa(lp1232
I122
ag20
ag18
aa(lp1233
I122
ag22
ag10
aaasba(ihelper
PossibleWorld
p1234
(dp1235
g3
I123
sg4
I0
sg5
(lp1236
(lp1237
(lp1238
I123
ag9
ag18
aa(lp1239
I123
ag12
ag10
aa(lp1240
I123
ag15
ag13
aa(lp1241
I123
ag17
ag10
aa(lp1242
I123
ag20
ag13
aa(lp1243
I123
ag22
ag10
aaasba(ihelper
PossibleWorld
p1244
(dp1245
g3
I124
sg4
I0
sg5
(lp1246
(lp1247
(lp1248
I124
ag12
ag10
aa(lp1249
I124
ag9
ag13
aa(lp1250
I124
ag15
ag13
aa(lp1251
I124
ag17
ag10
aa(lp1252
I124
ag20
ag13
aa(lp1253
I124
ag22
ag10
aaasba(ihelper
PossibleWorld
p1254
(dp1255
g3
I125
sg4
I0
sg5
(lp1256
(lp1257
(lp1258
I125
ag9
ag18
aa(lp1259
I125
ag12
ag10
aa(lp1260
I125
ag15
ag13
aa(lp1261
I125
ag17
ag29
aa(lp1262
I125
ag20
ag13
aa(lp1263
I125
ag22
ag10
aaasba(ihelper
PossibleWorld
p1264
(dp1265
g3
I126
sg4
I0
sg5
(lp1266
(lp1267
(lp1268
I126
ag12
ag10
aa(lp1269
I126
ag9
ag13
aa(lp1270
I126
ag15
ag13
aa(lp1271
I126
ag17
ag29
aa(lp1272
I126
ag20
ag13
aa(lp1273
I126
ag22
ag10
aaasba(ihelper
PossibleWorld
p1274
(dp1275
g3
I127
sg4
I0
sg5
(lp1276
(lp1277
(lp1278
I127
ag9
ag18
aa(lp1279
I127
ag12
ag10
aa(lp1280
I127
ag15
ag13
aa(lp1281
I127
ag17
ag10
aa(lp1282
I127
ag20
ag29
aa(lp1283
I127
ag22
ag10
aaasba(ihelper
PossibleWorld
p1284
(dp1285
g3
I128
sg4
I0
sg5
(lp1286
(lp1287
(lp1288
I128
ag12
ag10
aa(lp1289
I128
ag9
ag13
aa(lp1290
I128
ag15
ag13
aa(lp1291
I128
ag17
ag10
aa(lp1292
I128
ag20
ag29
aa(lp1293
I128
ag22
ag10
aaasba(ihelper
PossibleWorld
p1294
(dp1295
g3
I129
sg4
I0
sg5
(lp1296
(lp1297
(lp1298
I129
ag9
ag18
aa(lp1299
I129
ag12
ag10
aa(lp1300
I129
ag15
ag13
aa(lp1301
I129
ag17
ag10
aa(lp1302
I129
ag20
ag18
aa(lp1303
I129
ag22
ag10
aaasba(ihelper
PossibleWorld
p1304
(dp1305
g3
I130
sg4
I0
sg5
(lp1306
(lp1307
(lp1308
I130
ag9
ag18
aa(lp1309
I130
ag12
ag10
aa(lp1310
I130
ag15
ag13
aa(lp1311
I130
ag17
ag29
aa(lp1312
I130
ag20
ag18
aa(lp1313
I130
ag22
ag10
aaasba(ihelper
PossibleWorld
p1314
(dp1315
g3
I131
sg4
I0
sg5
(lp1316
(lp1317
(lp1318
I131
ag12
ag10
aa(lp1319
I131
ag9
ag13
aa(lp1320
I131
ag15
ag13
aa(lp1321
I131
ag17
ag10
aa(lp1322
I131
ag20
ag18
aa(lp1323
I131
ag22
ag10
aaasba(ihelper
PossibleWorld
p1324
(dp1325
g3
I132
sg4
I0
sg5
(lp1326
(lp1327
(lp1328
I132
ag12
ag10
aa(lp1329
I132
ag9
ag13
aa(lp1330
I132
ag15
ag13
aa(lp1331
I132
ag17
ag29
aa(lp1332
I132
ag20
ag18
aa(lp1333
I132
ag22
ag10
aaasba(ihelper
PossibleWorld
p1334
(dp1335
g3
I133
sg4
I0
sg5
(lp1336
(lp1337
(lp1338
I133
ag9
ag18
aa(lp1339
I133
ag12
ag29
aa(lp1340
I133
ag15
ag13
aa(lp1341
I133
ag17
ag10
aa(lp1342
I133
ag20
ag13
aa(lp1343
I133
ag22
ag10
aaasba(ihelper
PossibleWorld
p1344
(dp1345
g3
I134
sg4
I0
sg5
(lp1346
(lp1347
(lp1348
I134
ag9
ag13
aa(lp1349
I134
ag12
ag29
aa(lp1350
I134
ag15
ag13
aa(lp1351
I134
ag17
ag10
aa(lp1352
I134
ag20
ag13
aa(lp1353
I134
ag22
ag10
aaasba(ihelper
PossibleWorld
p1354
(dp1355
g3
I135
sg4
I0
sg5
(lp1356
(lp1357
(lp1358
I135
ag9
ag18
aa(lp1359
I135
ag12
ag29
aa(lp1360
I135
ag15
ag13
aa(lp1361
I135
ag17
ag10
aa(lp1362
I135
ag20
ag18
aa(lp1363
I135
ag22
ag10
aaasba(ihelper
PossibleWorld
p1364
(dp1365
g3
I136
sg4
I0
sg5
(lp1366
(lp1367
(lp1368
I136
ag9
ag13
aa(lp1369
I136
ag12
ag29
aa(lp1370
I136
ag15
ag13
aa(lp1371
I136
ag17
ag10
aa(lp1372
I136
ag20
ag18
aa(lp1373
I136
ag22
ag10
aaasba(ihelper
PossibleWorld
p1374
(dp1375
g3
I137
sg4
I0
sg5
(lp1376
(lp1377
(lp1378
I137
ag9
ag18
aa(lp1379
I137
ag12
ag29
aa(lp1380
I137
ag15
ag13
aa(lp1381
I137
ag17
ag10
aa(lp1382
I137
ag20
ag29
aa(lp1383
I137
ag22
ag10
aaasba(ihelper
PossibleWorld
p1384
(dp1385
g3
I138
sg4
I0
sg5
(lp1386
(lp1387
(lp1388
I138
ag9
ag13
aa(lp1389
I138
ag12
ag29
aa(lp1390
I138
ag15
ag13
aa(lp1391
I138
ag17
ag10
aa(lp1392
I138
ag20
ag29
aa(lp1393
I138
ag22
ag10
aaasba(ihelper
PossibleWorld
p1394
(dp1395
g3
I139
sg4
I0
sg5
(lp1396
(lp1397
(lp1398
I139
ag9
ag18
aa(lp1399
I139
ag12
ag29
aa(lp1400
I139
ag15
ag10
aa(lp1401
I139
ag17
ag29
aa(lp1402
I139
ag20
ag13
aa(lp1403
I139
ag22
ag10
aaasba(ihelper
PossibleWorld
p1404
(dp1405
g3
I140
sg4
I0
sg5
(lp1406
(lp1407
(lp1408
I140
ag9
ag18
aa(lp1409
I140
ag12
ag29
aa(lp1410
I140
ag15
ag10
aa(lp1411
I140
ag17
ag29
aa(lp1412
I140
ag20
ag18
aa(lp1413
I140
ag22
ag10
aaasba(ihelper
PossibleWorld
p1414
(dp1415
g3
I141
sg4
I0
sg5
(lp1416
(lp1417
(lp1418
I141
ag9
ag18
aa(lp1419
I141
ag12
ag29
aa(lp1420
I141
ag15
ag13
aa(lp1421
I141
ag17
ag29
aa(lp1422
I141
ag20
ag13
aa(lp1423
I141
ag22
ag10
aaasba(ihelper
PossibleWorld
p1424
(dp1425
g3
I142
sg4
I0
sg5
(lp1426
(lp1427
(lp1428
I142
ag9
ag18
aa(lp1429
I142
ag12
ag29
aa(lp1430
I142
ag15
ag13
aa(lp1431
I142
ag17
ag29
aa(lp1432
I142
ag20
ag18
aa(lp1433
I142
ag22
ag10
aaasba(ihelper
PossibleWorld
p1434
(dp1435
g3
I143
sg4
I0
sg5
(lp1436
(lp1437
(lp1438
I143
ag9
ag13
aa(lp1439
I143
ag12
ag29
aa(lp1440
I143
ag15
ag10
aa(lp1441
I143
ag17
ag29
aa(lp1442
I143
ag20
ag13
aa(lp1443
I143
ag22
ag10
aaasba(ihelper
PossibleWorld
p1444
(dp1445
g3
I144
sg4
I0
sg5
(lp1446
(lp1447
(lp1448
I144
ag9
ag13
aa(lp1449
I144
ag12
ag29
aa(lp1450
I144
ag15
ag13
aa(lp1451
I144
ag17
ag29
aa(lp1452
I144
ag20
ag13
aa(lp1453
I144
ag22
ag10
aaasba(ihelper
PossibleWorld
p1454
(dp1455
g3
I145
sg4
I0
sg5
(lp1456
(lp1457
(lp1458
I145
ag9
ag13
aa(lp1459
I145
ag12
ag29
aa(lp1460
I145
ag15
ag10
aa(lp1461
I145
ag17
ag29
aa(lp1462
I145
ag20
ag18
aa(lp1463
I145
ag22
ag10
aaasba(ihelper
PossibleWorld
p1464
(dp1465
g3
I146
sg4
I0
sg5
(lp1466
(lp1467
(lp1468
I146
ag9
ag13
aa(lp1469
I146
ag12
ag29
aa(lp1470
I146
ag15
ag13
aa(lp1471
I146
ag17
ag29
aa(lp1472
I146
ag20
ag18
aa(lp1473
I146
ag22
ag10
aaasba(ihelper
PossibleWorld
p1474
(dp1475
g3
I147
sg4
I0
sg5
(lp1476
(lp1477
(lp1478
I147
ag9
ag18
aa(lp1479
I147
ag12
ag29
aa(lp1480
I147
ag15
ag10
aa(lp1481
I147
ag17
ag13
aa(lp1482
I147
ag20
ag18
aa(lp1483
I147
ag22
ag10
aaasba(ihelper
PossibleWorld
p1484
(dp1485
g3
I148
sg4
I0
sg5
(lp1486
(lp1487
(lp1488
I148
ag9
ag18
aa(lp1489
I148
ag12
ag13
aa(lp1490
I148
ag15
ag10
aa(lp1491
I148
ag17
ag13
aa(lp1492
I148
ag20
ag18
aa(lp1493
I148
ag22
ag10
aaasba(ihelper
PossibleWorld
p1494
(dp1495
g3
I149
sg4
I0
sg5
(lp1496
(lp1497
(lp1498
I149
ag9
ag18
aa(lp1499
I149
ag12
ag29
aa(lp1500
I149
ag15
ag10
aa(lp1501
I149
ag17
ag13
aa(lp1502
I149
ag20
ag29
aa(lp1503
I149
ag22
ag10
aaasba(ihelper
PossibleWorld
p1504
(dp1505
g3
I150
sg4
I0
sg5
(lp1506
(lp1507
(lp1508
I150
ag9
ag18
aa(lp1509
I150
ag12
ag13
aa(lp1510
I150
ag15
ag10
aa(lp1511
I150
ag17
ag13
aa(lp1512
I150
ag20
ag29
aa(lp1513
I150
ag22
ag10
aaasba(ihelper
PossibleWorld
p1514
(dp1515
g3
I151
sg4
I0
sg5
(lp1516
(lp1517
(lp1518
I151
ag9
ag13
aa(lp1519
I151
ag12
ag29
aa(lp1520
I151
ag15
ag10
aa(lp1521
I151
ag17
ag13
aa(lp1522
I151
ag20
ag18
aa(lp1523
I151
ag22
ag10
aaasba(ihelper
PossibleWorld
p1524
(dp1525
g3
I152
sg4
I0
sg5
(lp1526
(lp1527
(lp1528
I152
ag9
ag13
aa(lp1529
I152
ag12
ag29
aa(lp1530
I152
ag15
ag10
aa(lp1531
I152
ag17
ag13
aa(lp1532
I152
ag20
ag29
aa(lp1533
I152
ag22
ag10
aaasba(ihelper
PossibleWorld
p1534
(dp1535
g3
I153
sg4
I0
sg5
(lp1536
(lp1537
(lp1538
I153
ag9
ag18
aa(lp1539
I153
ag12
ag29
aa(lp1540
I153
ag15
ag10
aa(lp1541
I153
ag17
ag18
aa(lp1542
I153
ag20
ag13
aa(lp1543
I153
ag22
ag10
aaasba(ihelper
PossibleWorld
p1544
(dp1545
g3
I154
sg4
I0
sg5
(lp1546
(lp1547
(lp1548
I154
ag9
ag18
aa(lp1549
I154
ag12
ag10
aa(lp1550
I154
ag15
ag13
aa(lp1551
I154
ag17
ag18
aa(lp1552
I154
ag20
ag13
aa(lp1553
I154
ag22
ag10
aaasba(ihelper
PossibleWorld
p1554
(dp1555
g3
I155
sg4
I0
sg5
(lp1556
(lp1557
(lp1558
I155
ag9
ag18
aa(lp1559
I155
ag12
ag29
aa(lp1560
I155
ag15
ag13
aa(lp1561
I155
ag17
ag18
aa(lp1562
I155
ag20
ag13
aa(lp1563
I155
ag22
ag10
aaasba(ihelper
PossibleWorld
p1564
(dp1565
g3
I156
sg4
I0
sg5
(lp1566
(lp1567
(lp1568
I156
ag12
ag10
aa(lp1569
I156
ag9
ag13
aa(lp1570
I156
ag15
ag13
aa(lp1571
I156
ag17
ag18
aa(lp1572
I156
ag20
ag13
aa(lp1573
I156
ag22
ag10
aaasba(ihelper
PossibleWorld
p1574
(dp1575
g3
I157
sg4
I0
sg5
(lp1576
(lp1577
(lp1578
I157
ag9
ag13
aa(lp1579
I157
ag12
ag29
aa(lp1580
I157
ag15
ag10
aa(lp1581
I157
ag17
ag18
aa(lp1582
I157
ag20
ag13
aa(lp1583
I157
ag22
ag10
aaasba(ihelper
PossibleWorld
p1584
(dp1585
g3
I158
sg4
I0
sg5
(lp1586
(lp1587
(lp1588
I158
ag9
ag13
aa(lp1589
I158
ag12
ag29
aa(lp1590
I158
ag15
ag13
aa(lp1591
I158
ag17
ag18
aa(lp1592
I158
ag20
ag13
aa(lp1593
I158
ag22
ag10
aaasba(ihelper
PossibleWorld
p1594
(dp1595
g3
I159
sg4
I0
sg5
(lp1596
(lp1597
(lp1598
I159
ag9
ag18
aa(lp1599
I159
ag12
ag13
aa(lp1600
I159
ag15
ag10
aa(lp1601
I159
ag17
ag18
aa(lp1602
I159
ag20
ag13
aa(lp1603
I159
ag22
ag10
aaasba(ihelper
PossibleWorld
p1604
(dp1605
g3
I160
sg4
I0
sg5
(lp1606
(lp1607
(lp1608
I160
ag9
ag18
aa(lp1609
I160
ag12
ag13
aa(lp1610
I160
ag15
ag10
aa(lp1611
I160
ag17
ag18
aa(lp1612
I160
ag20
ag29
aa(lp1613
I160
ag22
ag10
aaasba(ihelper
PossibleWorld
p1614
(dp1615
g3
I161
sg4
I0
sg5
(lp1616
(lp1617
(lp1618
I161
ag9
ag18
aa(lp1619
I161
ag12
ag29
aa(lp1620
I161
ag15
ag10
aa(lp1621
I161
ag17
ag18
aa(lp1622
I161
ag20
ag29
aa(lp1623
I161
ag22
ag10
aaasba(ihelper
PossibleWorld
p1624
(dp1625
g3
I162
sg4
I0
sg5
(lp1626
(lp1627
(lp1628
I162
ag9
ag13
aa(lp1629
I162
ag12
ag29
aa(lp1630
I162
ag15
ag10
aa(lp1631
I162
ag17
ag18
aa(lp1632
I162
ag20
ag29
aa(lp1633
I162
ag22
ag10
aaasba(ihelper
PossibleWorld
p1634
(dp1635
g3
I163
sg4
I0
sg5
(lp1636
(lp1637
(lp1638
I163
ag9
ag18
aa(lp1639
I163
ag12
ag10
aa(lp1640
I163
ag15
ag13
aa(lp1641
I163
ag17
ag18
aa(lp1642
I163
ag20
ag29
aa(lp1643
I163
ag22
ag10
aaasba(ihelper
PossibleWorld
p1644
(dp1645
g3
I164
sg4
I0
sg5
(lp1646
(lp1647
(lp1648
I164
ag9
ag18
aa(lp1649
I164
ag12
ag29
aa(lp1650
I164
ag15
ag13
aa(lp1651
I164
ag17
ag18
aa(lp1652
I164
ag20
ag29
aa(lp1653
I164
ag22
ag10
aaasba(ihelper
PossibleWorld
p1654
(dp1655
g3
I165
sg4
I0
sg5
(lp1656
(lp1657
(lp1658
I165
ag12
ag10
aa(lp1659
I165
ag9
ag13
aa(lp1660
I165
ag15
ag13
aa(lp1661
I165
ag17
ag18
aa(lp1662
I165
ag20
ag29
aa(lp1663
I165
ag22
ag10
aaasba(ihelper
PossibleWorld
p1664
(dp1665
g3
I166
sg4
I0
sg5
(lp1666
(lp1667
(lp1668
I166
ag9
ag13
aa(lp1669
I166
ag12
ag29
aa(lp1670
I166
ag15
ag13
aa(lp1671
I166
ag17
ag18
aa(lp1672
I166
ag20
ag29
aa(lp1673
I166
ag22
ag10
aaasba(ihelper
PossibleWorld
p1674
(dp1675
g3
I167
sg4
I0
sg5
(lp1676
(lp1677
(lp1678
I167
ag9
ag18
aa(lp1679
I167
ag12
ag10
aa(lp1680
I167
ag15
ag29
aa(lp1681
I167
ag17
ag10
aa(lp1682
I167
ag20
ag13
aa(lp1683
I167
ag22
ag10
aaasba(ihelper
PossibleWorld
p1684
(dp1685
g3
I168
sg4
I0
sg5
(lp1686
(lp1687
(lp1688
I168
ag9
ag18
aa(lp1689
I168
ag12
ag10
aa(lp1690
I168
ag15
ag29
aa(lp1691
I168
ag17
ag10
aa(lp1692
I168
ag20
ag18
aa(lp1693
I168
ag22
ag10
aaasba(ihelper
PossibleWorld
p1694
(dp1695
g3
I169
sg4
I0
sg5
(lp1696
(lp1697
(lp1698
I169
ag9
ag18
aa(lp1699
I169
ag12
ag10
aa(lp1700
I169
ag15
ag29
aa(lp1701
I169
ag17
ag13
aa(lp1702
I169
ag20
ag18
aa(lp1703
I169
ag22
ag10
aaasba(ihelper
PossibleWorld
p1704
(dp1705
g3
I170
sg4
I0
sg5
(lp1706
(lp1707
(lp1708
I170
ag12
ag10
aa(lp1709
I170
ag9
ag13
aa(lp1710
I170
ag15
ag29
aa(lp1711
I170
ag17
ag10
aa(lp1712
I170
ag20
ag13
aa(lp1713
I170
ag22
ag10
aaasba(ihelper
PossibleWorld
p1714
(dp1715
g3
I171
sg4
I0
sg5
(lp1716
(lp1717
(lp1718
I171
ag12
ag10
aa(lp1719
I171
ag9
ag13
aa(lp1720
I171
ag15
ag29
aa(lp1721
I171
ag17
ag10
aa(lp1722
I171
ag20
ag18
aa(lp1723
I171
ag22
ag10
aaasba(ihelper
PossibleWorld
p1724
(dp1725
g3
I172
sg4
I0
sg5
(lp1726
(lp1727
(lp1728
I172
ag12
ag10
aa(lp1729
I172
ag9
ag13
aa(lp1730
I172
ag15
ag29
aa(lp1731
I172
ag17
ag13
aa(lp1732
I172
ag20
ag18
aa(lp1733
I172
ag22
ag10
aaasba(ihelper
PossibleWorld
p1734
(dp1735
g3
I173
sg4
I0
sg5
(lp1736
(lp1737
(lp1738
I173
ag9
ag18
aa(lp1739
I173
ag12
ag10
aa(lp1740
I173
ag15
ag29
aa(lp1741
I173
ag17
ag18
aa(lp1742
I173
ag20
ag13
aa(lp1743
I173
ag22
ag10
aaasba(ihelper
PossibleWorld
p1744
(dp1745
g3
I174
sg4
I0
sg5
(lp1746
(lp1747
(lp1748
I174
ag12
ag10
aa(lp1749
I174
ag9
ag13
aa(lp1750
I174
ag15
ag29
aa(lp1751
I174
ag17
ag18
aa(lp1752
I174
ag20
ag13
aa(lp1753
I174
ag22
ag10
aaasba(ihelper
PossibleWorld
p1754
(dp1755
g3
I175
sg4
I0
sg5
(lp1756
(lp1757
(lp1758
I175
ag9
ag18
aa(lp1759
I175
ag12
ag10
aa(lp1760
I175
ag15
ag29
aa(lp1761
I175
ag17
ag10
aa(lp1762
I175
ag20
ag29
aa(lp1763
I175
ag22
ag10
aaasba(ihelper
PossibleWorld
p1764
(dp1765
g3
I176
sg4
I0
sg5
(lp1766
(lp1767
(lp1768
I176
ag9
ag18
aa(lp1769
I176
ag12
ag10
aa(lp1770
I176
ag15
ag29
aa(lp1771
I176
ag17
ag18
aa(lp1772
I176
ag20
ag29
aa(lp1773
I176
ag22
ag10
aaasba(ihelper
PossibleWorld
p1774
(dp1775
g3
I177
sg4
I0
sg5
(lp1776
(lp1777
(lp1778
I177
ag9
ag18
aa(lp1779
I177
ag12
ag10
aa(lp1780
I177
ag15
ag29
aa(lp1781
I177
ag17
ag13
aa(lp1782
I177
ag20
ag29
aa(lp1783
I177
ag22
ag10
aaasba(ihelper
PossibleWorld
p1784
(dp1785
g3
I178
sg4
I0
sg5
(lp1786
(lp1787
(lp1788
I178
ag12
ag10
aa(lp1789
I178
ag9
ag13
aa(lp1790
I178
ag15
ag29
aa(lp1791
I178
ag17
ag10
aa(lp1792
I178
ag20
ag29
aa(lp1793
I178
ag22
ag10
aaasba(ihelper
PossibleWorld
p1794
(dp1795
g3
I179
sg4
I0
sg5
(lp1796
(lp1797
(lp1798
I179
ag12
ag10
aa(lp1799
I179
ag9
ag13
aa(lp1800
I179
ag15
ag29
aa(lp1801
I179
ag17
ag13
aa(lp1802
I179
ag20
ag29
aa(lp1803
I179
ag22
ag10
aaasba(ihelper
PossibleWorld
p1804
(dp1805
g3
I180
sg4
I0
sg5
(lp1806
(lp1807
(lp1808
I180
ag12
ag10
aa(lp1809
I180
ag9
ag13
aa(lp1810
I180
ag15
ag29
aa(lp1811
I180
ag17
ag18
aa(lp1812
I180
ag20
ag29
aa(lp1813
I180
ag22
ag10
aaasba(ihelper
PossibleWorld
p1814
(dp1815
g3
I181
sg4
I0
sg5
(lp1816
(lp1817
(lp1818
I181
ag9
ag18
aa(lp1819
I181
ag12
ag13
aa(lp1820
I181
ag15
ag29
aa(lp1821
I181
ag17
ag10
aa(lp1822
I181
ag20
ag13
aa(lp1823
I181
ag22
ag10
aaasba(ihelper
PossibleWorld
p1824
(dp1825
g3
I182
sg4
I0
sg5
(lp1826
(lp1827
(lp1828
I182
ag9
ag18
aa(lp1829
I182
ag12
ag13
aa(lp1830
I182
ag15
ag29
aa(lp1831
I182
ag17
ag18
aa(lp1832
I182
ag20
ag13
aa(lp1833
I182
ag22
ag10
aaasba(ihelper
PossibleWorld
p1834
(dp1835
g3
I183
sg4
I0
sg5
(lp1836
(lp1837
(lp1838
I183
ag9
ag18
aa(lp1839
I183
ag12
ag13
aa(lp1840
I183
ag15
ag29
aa(lp1841
I183
ag17
ag10
aa(lp1842
I183
ag20
ag29
aa(lp1843
I183
ag22
ag10
aaasba(ihelper
PossibleWorld
p1844
(dp1845
g3
I184
sg4
I0
sg5
(lp1846
(lp1847
(lp1848
I184
ag9
ag18
aa(lp1849
I184
ag12
ag13
aa(lp1850
I184
ag15
ag29
aa(lp1851
I184
ag17
ag18
aa(lp1852
I184
ag20
ag29
aa(lp1853
I184
ag22
ag10
aaasba(ihelper
PossibleWorld
p1854
(dp1855
g3
I185
sg4
I0
sg5
(lp1856
(lp1857
(lp1858
I185
ag9
ag18
aa(lp1859
I185
ag12
ag13
aa(lp1860
I185
ag15
ag29
aa(lp1861
I185
ag17
ag10
aa(lp1862
I185
ag20
ag18
aa(lp1863
I185
ag22
ag10
aaasba(ihelper
PossibleWorld
p1864
(dp1865
g3
I186
sg4
I0
sg5
(lp1866
(lp1867
(lp1868
I186
ag9
ag18
aa(lp1869
I186
ag12
ag13
aa(lp1870
I186
ag15
ag29
aa(lp1871
I186
ag17
ag13
aa(lp1872
I186
ag20
ag29
aa(lp1873
I186
ag22
ag10
aaasba(ihelper
PossibleWorld
p1874
(dp1875
g3
I187
sg4
I0
sg5
(lp1876
(lp1877
(lp1878
I187
ag9
ag18
aa(lp1879
I187
ag12
ag13
aa(lp1880
I187
ag15
ag29
aa(lp1881
I187
ag17
ag13
aa(lp1882
I187
ag20
ag18
aa(lp1883
I187
ag22
ag10
aaasba(ihelper
PossibleWorld
p1884
(dp1885
g3
I188
sg4
I0
sg5
(lp1886
(lp1887
(lp1888
I188
ag9
ag18
aa(lp1889
I188
ag12
ag10
aa(lp1890
I188
ag15
ag18
aa(lp1891
I188
ag17
ag10
aa(lp1892
I188
ag20
ag13
aa(lp1893
I188
ag22
ag10
aaasba(ihelper
PossibleWorld
p1894
(dp1895
g3
I189
sg4
I0
sg5
(lp1896
(lp1897
(lp1898
I189
ag9
ag18
aa(lp1899
I189
ag12
ag10
aa(lp1900
I189
ag15
ag18
aa(lp1901
I189
ag17
ag10
aa(lp1902
I189
ag20
ag29
aa(lp1903
I189
ag22
ag10
aaasba(ihelper
PossibleWorld
p1904
(dp1905
g3
I190
sg4
I0
sg5
(lp1906
(lp1907
(lp1908
I190
ag9
ag18
aa(lp1909
I190
ag12
ag29
aa(lp1910
I190
ag15
ag18
aa(lp1911
I190
ag17
ag10
aa(lp1912
I190
ag20
ag13
aa(lp1913
I190
ag22
ag10
aaasba(ihelper
PossibleWorld
p1914
(dp1915
g3
I191
sg4
I0
sg5
(lp1916
(lp1917
(lp1918
I191
ag9
ag18
aa(lp1919
I191
ag12
ag29
aa(lp1920
I191
ag15
ag18
aa(lp1921
I191
ag17
ag10
aa(lp1922
I191
ag20
ag29
aa(lp1923
I191
ag22
ag10
aaasba(ihelper
PossibleWorld
p1924
(dp1925
g3
I192
sg4
I0
sg5
(lp1926
(lp1927
(lp1928
I192
ag9
ag18
aa(lp1929
I192
ag12
ag10
aa(lp1930
I192
ag15
ag18
aa(lp1931
I192
ag17
ag29
aa(lp1932
I192
ag20
ag13
aa(lp1933
I192
ag22
ag10
aaasba(ihelper
PossibleWorld
p1934
(dp1935
g3
I193
sg4
I0
sg5
(lp1936
(lp1937
(lp1938
I193
ag9
ag18
aa(lp1939
I193
ag12
ag29
aa(lp1940
I193
ag15
ag18
aa(lp1941
I193
ag17
ag29
aa(lp1942
I193
ag20
ag13
aa(lp1943
I193
ag22
ag10
aaasba(ihelper
PossibleWorld
p1944
(dp1945
g3
I194
sg4
I0
sg5
(lp1946
(lp1947
(lp1948
I194
ag9
ag18
aa(lp1949
I194
ag12
ag13
aa(lp1950
I194
ag15
ag18
aa(lp1951
I194
ag17
ag10
aa(lp1952
I194
ag20
ag13
aa(lp1953
I194
ag22
ag10
aaasba(ihelper
PossibleWorld
p1954
(dp1955
g3
I195
sg4
I0
sg5
(lp1956
(lp1957
(lp1958
I195
ag9
ag18
aa(lp1959
I195
ag12
ag13
aa(lp1960
I195
ag15
ag18
aa(lp1961
I195
ag17
ag29
aa(lp1962
I195
ag20
ag13
aa(lp1963
I195
ag22
ag10
aaasba(ihelper
PossibleWorld
p1964
(dp1965
g3
I196
sg4
I0
sg5
(lp1966
(lp1967
(lp1968
I196
ag9
ag18
aa(lp1969
I196
ag12
ag13
aa(lp1970
I196
ag15
ag18
aa(lp1971
I196
ag17
ag10
aa(lp1972
I196
ag20
ag29
aa(lp1973
I196
ag22
ag10
aaasba(ihelper
PossibleWorld
p1974
(dp1975
g3
I197
sg4
I0
sg5
(lp1976
(lp1977
(lp1978
I197
ag12
ag10
aa(lp1979
I197
ag9
ag13
aa(lp1980
I197
ag15
ag18
aa(lp1981
I197
ag17
ag10
aa(lp1982
I197
ag20
ag13
aa(lp1983
I197
ag22
ag10
aaasba(ihelper
PossibleWorld
p1984
(dp1985
g3
I198
sg4
I0
sg5
(lp1986
(lp1987
(lp1988
I198
ag12
ag10
aa(lp1989
I198
ag9
ag13
aa(lp1990
I198
ag15
ag18
aa(lp1991
I198
ag17
ag10
aa(lp1992
I198
ag20
ag29
aa(lp1993
I198
ag22
ag10
aaasba(ihelper
PossibleWorld
p1994
(dp1995
g3
I199
sg4
I0
sg5
(lp1996
(lp1997
(lp1998
I199
ag9
ag13
aa(lp1999
I199
ag12
ag29
aa(lp2000
I199
ag15
ag18
aa(lp2001
I199
ag17
ag10
aa(lp2002
I199
ag20
ag13
aa(lp2003
I199
ag22
ag10
aaasba(ihelper
PossibleWorld
p2004
(dp2005
g3
I200
sg4
I0
sg5
(lp2006
(lp2007
(lp2008
I200
ag9
ag13
aa(lp2009
I200
ag12
ag29
aa(lp2010
I200
ag15
ag18
aa(lp2011
I200
ag17
ag10
aa(lp2012
I200
ag20
ag29
aa(lp2013
I200
ag22
ag10
aaasba(ihelper
PossibleWorld
p2014
(dp2015
g3
I201
sg4
I0
sg5
(lp2016
(lp2017
(lp2018
I201
ag12
ag10
aa(lp2019
I201
ag9
ag13
aa(lp2020
I201
ag15
ag18
aa(lp2021
I201
ag17
ag29
aa(lp2022
I201
ag20
ag13
aa(lp2023
I201
ag22
ag10
aaasba(ihelper
PossibleWorld
p2024
(dp2025
g3
I202
sg4
I0
sg5
(lp2026
(lp2027
(lp2028
I202
ag9
ag13
aa(lp2029
I202
ag12
ag29
aa(lp2030
I202
ag15
ag18
aa(lp2031
I202
ag17
ag29
aa(lp2032
I202
ag20
ag13
aa(lp2033
I202
ag22
ag10
aaasba(ihelper
PossibleWorld
p2034
(dp2035
g3
I203
sg4
I0
sg5
(lp2036
(lp2037
(lp2038
I203
ag9
ag18
aa(lp2039
I203
ag12
ag10
aa(lp2040
I203
ag15
ag18
aa(lp2041
I203
ag17
ag13
aa(lp2042
I203
ag20
ag29
aa(lp2043
I203
ag22
ag10
aaasba(ihelper
PossibleWorld
p2044
(dp2045
g3
I204
sg4
I0
sg5
(lp2046
(lp2047
(lp2048
I204
ag9
ag18
aa(lp2049
I204
ag12
ag13
aa(lp2050
I204
ag15
ag18
aa(lp2051
I204
ag17
ag13
aa(lp2052
I204
ag20
ag29
aa(lp2053
I204
ag22
ag10
aaasba(ihelper
PossibleWorld
p2054
(dp2055
g3
I205
sg4
I0
sg5
(lp2056
(lp2057
(lp2058
I205
ag12
ag10
aa(lp2059
I205
ag9
ag13
aa(lp2060
I205
ag15
ag18
aa(lp2061
I205
ag17
ag13
aa(lp2062
I205
ag20
ag29
aa(lp2063
I205
ag22
ag10
aaasba(ihelper
PossibleWorld
p2064
(dp2065
g3
I206
sg4
I0
sg5
(lp2066
(lp2067
(lp2068
I206
ag9
ag18
aa(lp2069
I206
ag12
ag29
aa(lp2070
I206
ag15
ag18
aa(lp2071
I206
ag17
ag13
aa(lp2072
I206
ag20
ag29
aa(lp2073
I206
ag22
ag10
aaasba(ihelper
PossibleWorld
p2074
(dp2075
g3
I207
sg4
I0
sg5
(lp2076
(lp2077
(lp2078
I207
ag9
ag13
aa(lp2079
I207
ag12
ag29
aa(lp2080
I207
ag15
ag18
aa(lp2081
I207
ag17
ag13
aa(lp2082
I207
ag20
ag29
aa(lp2083
I207
ag22
ag10
aaasba(ihelper
PossibleWorld
p2084
(dp2085
g3
I208
sg4
I0
sg5
(lp2086
(lp2087
(lp2088
I208
ag9
ag18
aa(lp2089
I208
ag12
ag10
aa(lp2090
I208
ag15
ag18
aa(lp2091
I208
ag17
ag10
aa(lp2092
I208
ag20
ag18
aa(lp2093
I208
ag22
ag10
aaasba(ihelper
PossibleWorld
p2094
(dp2095
g3
I209
sg4
I0
sg5
(lp2096
(lp2097
(lp2098
I209
ag9
ag18
aa(lp2099
I209
ag12
ag10
aa(lp2100
I209
ag15
ag18
aa(lp2101
I209
ag17
ag13
aa(lp2102
I209
ag20
ag18
aa(lp2103
I209
ag22
ag10
aaasba(ihelper
PossibleWorld
p2104
(dp2105
g3
I210
sg4
I0
sg5
(lp2106
(lp2107
(lp2108
I210
ag9
ag18
aa(lp2109
I210
ag12
ag10
aa(lp2110
I210
ag15
ag18
aa(lp2111
I210
ag17
ag29
aa(lp2112
I210
ag20
ag18
aa(lp2113
I210
ag22
ag10
aaasba(ihelper
PossibleWorld
p2114
(dp2115
g3
I211
sg4
I0
sg5
(lp2116
(lp2117
(lp2118
I211
ag9
ag18
aa(lp2119
I211
ag12
ag29
aa(lp2120
I211
ag15
ag18
aa(lp2121
I211
ag17
ag10
aa(lp2122
I211
ag20
ag18
aa(lp2123
I211
ag22
ag10
aaasba(ihelper
PossibleWorld
p2124
(dp2125
g3
I212
sg4
I0
sg5
(lp2126
(lp2127
(lp2128
I212
ag9
ag18
aa(lp2129
I212
ag12
ag29
aa(lp2130
I212
ag15
ag18
aa(lp2131
I212
ag17
ag29
aa(lp2132
I212
ag20
ag18
aa(lp2133
I212
ag22
ag10
aaasba(ihelper
PossibleWorld
p2134
(dp2135
g3
I213
sg4
I0
sg5
(lp2136
(lp2137
(lp2138
I213
ag9
ag18
aa(lp2139
I213
ag12
ag29
aa(lp2140
I213
ag15
ag18
aa(lp2141
I213
ag17
ag13
aa(lp2142
I213
ag20
ag18
aa(lp2143
I213
ag22
ag10
aaasba(ihelper
PossibleWorld
p2144
(dp2145
g3
I214
sg4
I0
sg5
(lp2146
(lp2147
(lp2148
I214
ag9
ag18
aa(lp2149
I214
ag12
ag13
aa(lp2150
I214
ag15
ag18
aa(lp2151
I214
ag17
ag10
aa(lp2152
I214
ag20
ag18
aa(lp2153
I214
ag22
ag10
aaasba(ihelper
PossibleWorld
p2154
(dp2155
g3
I215
sg4
I0
sg5
(lp2156
(lp2157
(lp2158
I215
ag9
ag18
aa(lp2159
I215
ag12
ag13
aa(lp2160
I215
ag15
ag18
aa(lp2161
I215
ag17
ag13
aa(lp2162
I215
ag20
ag18
aa(lp2163
I215
ag22
ag10
aaasba(ihelper
PossibleWorld
p2164
(dp2165
g3
I216
sg4
I0
sg5
(lp2166
(lp2167
(lp2168
I216
ag9
ag18
aa(lp2169
I216
ag12
ag13
aa(lp2170
I216
ag15
ag18
aa(lp2171
I216
ag17
ag29
aa(lp2172
I216
ag20
ag18
aa(lp2173
I216
ag22
ag10
aaasba(ihelper
PossibleWorld
p2174
(dp2175
g3
I217
sg4
I0
sg5
(lp2176
(lp2177
(lp2178
I217
ag12
ag10
aa(lp2179
I217
ag9
ag13
aa(lp2180
I217
ag15
ag18
aa(lp2181
I217
ag17
ag10
aa(lp2182
I217
ag20
ag18
aa(lp2183
I217
ag22
ag10
aaasba(ihelper
PossibleWorld
p2184
(dp2185
g3
I218
sg4
I0
sg5
(lp2186
(lp2187
(lp2188
I218
ag12
ag10
aa(lp2189
I218
ag9
ag13
aa(lp2190
I218
ag15
ag18
aa(lp2191
I218
ag17
ag29
aa(lp2192
I218
ag20
ag18
aa(lp2193
I218
ag22
ag10
aaasba(ihelper
PossibleWorld
p2194
(dp2195
g3
I219
sg4
I0
sg5
(lp2196
(lp2197
(lp2198
I219
ag9
ag13
aa(lp2199
I219
ag12
ag29
aa(lp2200
I219
ag15
ag18
aa(lp2201
I219
ag17
ag10
aa(lp2202
I219
ag20
ag18
aa(lp2203
I219
ag22
ag10
aaasba(ihelper
PossibleWorld
p2204
(dp2205
g3
I220
sg4
I0
sg5
(lp2206
(lp2207
(lp2208
I220
ag9
ag13
aa(lp2209
I220
ag12
ag29
aa(lp2210
I220
ag15
ag18
aa(lp2211
I220
ag17
ag29
aa(lp2212
I220
ag20
ag18
aa(lp2213
I220
ag22
ag10
aaasba(ihelper
PossibleWorld
p2214
(dp2215
g3
I221
sg4
I0
sg5
(lp2216
(lp2217
(lp2218
I221
ag12
ag10
aa(lp2219
I221
ag9
ag13
aa(lp2220
I221
ag15
ag18
aa(lp2221
I221
ag17
ag13
aa(lp2222
I221
ag20
ag18
aa(lp2223
I221
ag22
ag10
aaasba(ihelper
PossibleWorld
p2224
(dp2225
g3
I222
sg4
I0
sg5
(lp2226
(lp2227
(lp2228
I222
ag9
ag13
aa(lp2229
I222
ag12
ag29
aa(lp2230
I222
ag15
ag18
aa(lp2231
I222
ag17
ag13
aa(lp2232
I222
ag20
ag18
aa(lp2233
I222
ag22
ag10
aaasba(ihelper
PossibleWorld
p2234
(dp2235
g3
I223
sg4
I0
sg5
(lp2236
(lp2237
(lp2238
I223
ag12
ag10
aa(lp2239
I223
ag9
ag29
aa(lp2240
I223
ag15
ag18
aa(lp2241
I223
ag17
ag10
aa(lp2242
I223
ag20
ag13
aa(lp2243
I223
ag22
ag10
aaasba(ihelper
PossibleWorld
p2244
(dp2245
g3
I224
sg4
I0
sg5
(lp2246
(lp2247
(lp2248
I224
ag12
ag10
aa(lp2249
I224
ag9
ag29
aa(lp2250
I224
ag15
ag18
aa(lp2251
I224
ag17
ag10
aa(lp2252
I224
ag20
ag18
aa(lp2253
I224
ag22
ag10
aaasba(ihelper
PossibleWorld
p2254
(dp2255
g3
I225
sg4
I0
sg5
(lp2256
(lp2257
(lp2258
I225
ag12
ag10
aa(lp2259
I225
ag9
ag29
aa(lp2260
I225
ag15
ag13
aa(lp2261
I225
ag17
ag10
aa(lp2262
I225
ag20
ag13
aa(lp2263
I225
ag22
ag10
aaasba(ihelper
PossibleWorld
p2264
(dp2265
g3
I226
sg4
I0
sg5
(lp2266
(lp2267
(lp2268
I226
ag12
ag10
aa(lp2269
I226
ag9
ag29
aa(lp2270
I226
ag15
ag13
aa(lp2271
I226
ag17
ag18
aa(lp2272
I226
ag20
ag13
aa(lp2273
I226
ag22
ag10
aaasba(ihelper
PossibleWorld
p2274
(dp2275
g3
I227
sg4
I0
sg5
(lp2276
(lp2277
(lp2278
I227
ag12
ag10
aa(lp2279
I227
ag9
ag29
aa(lp2280
I227
ag15
ag13
aa(lp2281
I227
ag17
ag10
aa(lp2282
I227
ag20
ag18
aa(lp2283
I227
ag22
ag10
aaasba(ihelper
PossibleWorld
p2284
(dp2285
g3
I228
sg4
I0
sg5
(lp2286
(lp2287
(lp2288
I228
ag12
ag10
aa(lp2289
I228
ag9
ag29
aa(lp2290
I228
ag15
ag29
aa(lp2291
I228
ag17
ag10
aa(lp2292
I228
ag20
ag13
aa(lp2293
I228
ag22
ag10
aaasba(ihelper
PossibleWorld
p2294
(dp2295
g3
I229
sg4
I0
sg5
(lp2296
(lp2297
(lp2298
I229
ag12
ag10
aa(lp2299
I229
ag9
ag29
aa(lp2300
I229
ag15
ag29
aa(lp2301
I229
ag17
ag10
aa(lp2302
I229
ag20
ag18
aa(lp2303
I229
ag22
ag10
aaasba(ihelper
PossibleWorld
p2304
(dp2305
g3
I230
sg4
I0
sg5
(lp2306
(lp2307
(lp2308
I230
ag12
ag10
aa(lp2309
I230
ag9
ag29
aa(lp2310
I230
ag15
ag29
aa(lp2311
I230
ag17
ag18
aa(lp2312
I230
ag20
ag13
aa(lp2313
I230
ag22
ag10
aaasba(ihelper
PossibleWorld
p2314
(dp2315
g3
I231
sg4
I0
sg5
(lp2316
(lp2317
(lp2318
I231
ag12
ag10
aa(lp2319
I231
ag9
ag29
aa(lp2320
I231
ag15
ag13
aa(lp2321
I231
ag17
ag10
aa(lp2322
I231
ag20
ag29
aa(lp2323
I231
ag22
ag10
aaasba(ihelper
PossibleWorld
p2324
(dp2325
g3
I232
sg4
I0
sg5
(lp2326
(lp2327
(lp2328
I232
ag12
ag10
aa(lp2329
I232
ag9
ag29
aa(lp2330
I232
ag15
ag18
aa(lp2331
I232
ag17
ag10
aa(lp2332
I232
ag20
ag29
aa(lp2333
I232
ag22
ag10
aaasba(ihelper
PossibleWorld
p2334
(dp2335
g3
I233
sg4
I0
sg5
(lp2336
(lp2337
(lp2338
I233
ag12
ag10
aa(lp2339
I233
ag9
ag29
aa(lp2340
I233
ag15
ag13
aa(lp2341
I233
ag17
ag18
aa(lp2342
I233
ag20
ag29
aa(lp2343
I233
ag22
ag10
aaasba(ihelper
PossibleWorld
p2344
(dp2345
g3
I234
sg4
I0
sg5
(lp2346
(lp2347
(lp2348
I234
ag12
ag10
aa(lp2349
I234
ag9
ag29
aa(lp2350
I234
ag15
ag29
aa(lp2351
I234
ag17
ag10
aa(lp2352
I234
ag20
ag29
aa(lp2353
I234
ag22
ag10
aaasba(ihelper
PossibleWorld
p2354
(dp2355
g3
I235
sg4
I0
sg5
(lp2356
(lp2357
(lp2358
I235
ag12
ag10
aa(lp2359
I235
ag9
ag29
aa(lp2360
I235
ag15
ag29
aa(lp2361
I235
ag17
ag18
aa(lp2362
I235
ag20
ag29
aa(lp2363
I235
ag22
ag10
aaasba(ihelper
PossibleWorld
p2364
(dp2365
g3
I236
sg4
I0
sg5
(lp2366
(lp2367
(lp2368
I236
ag12
ag13
aa(lp2369
I236
ag9
ag29
aa(lp2370
I236
ag15
ag29
aa(lp2371
I236
ag17
ag10
aa(lp2372
I236
ag20
ag13
aa(lp2373
I236
ag22
ag10
aaasba(ihelper
PossibleWorld
p2374
(dp2375
g3
I237
sg4
I0
sg5
(lp2376
(lp2377
(lp2378
I237
ag12
ag13
aa(lp2379
I237
ag9
ag29
aa(lp2380
I237
ag15
ag29
aa(lp2381
I237
ag17
ag10
aa(lp2382
I237
ag20
ag29
aa(lp2383
I237
ag22
ag10
aaasba(ihelper
PossibleWorld
p2384
(dp2385
g3
I238
sg4
I0
sg5
(lp2386
(lp2387
(lp2388
I238
ag12
ag13
aa(lp2389
I238
ag9
ag29
aa(lp2390
I238
ag15
ag29
aa(lp2391
I238
ag17
ag10
aa(lp2392
I238
ag20
ag18
aa(lp2393
I238
ag22
ag10
aaasba(ihelper
PossibleWorld
p2394
(dp2395
g3
I239
sg4
I0
sg5
(lp2396
(lp2397
(lp2398
I239
ag12
ag13
aa(lp2399
I239
ag9
ag29
aa(lp2400
I239
ag15
ag18
aa(lp2401
I239
ag17
ag10
aa(lp2402
I239
ag20
ag13
aa(lp2403
I239
ag22
ag10
aaasba(ihelper
PossibleWorld
p2404
(dp2405
g3
I240
sg4
I0
sg5
(lp2406
(lp2407
(lp2408
I240
ag12
ag13
aa(lp2409
I240
ag9
ag29
aa(lp2410
I240
ag15
ag18
aa(lp2411
I240
ag17
ag10
aa(lp2412
I240
ag20
ag18
aa(lp2413
I240
ag22
ag10
aaasba(ihelper
PossibleWorld
p2414
(dp2415
g3
I241
sg4
I0
sg5
(lp2416
(lp2417
(lp2418
I241
ag12
ag13
aa(lp2419
I241
ag9
ag29
aa(lp2420
I241
ag15
ag18
aa(lp2421
I241
ag17
ag10
aa(lp2422
I241
ag20
ag29
aa(lp2423
I241
ag22
ag10
aaasba(ihelper
PossibleWorld
p2424
(dp2425
g3
I242
sg4
I0
sg5
(lp2426
(lp2427
(lp2428
I242
ag12
ag13
aa(lp2429
I242
ag9
ag29
aa(lp2430
I242
ag15
ag10
aa(lp2431
I242
ag17
ag18
aa(lp2432
I242
ag20
ag13
aa(lp2433
I242
ag22
ag10
aaasba(ihelper
PossibleWorld
p2434
(dp2435
g3
I243
sg4
I0
sg5
(lp2436
(lp2437
(lp2438
I243
ag12
ag13
aa(lp2439
I243
ag9
ag29
aa(lp2440
I243
ag15
ag10
aa(lp2441
I243
ag17
ag18
aa(lp2442
I243
ag20
ag29
aa(lp2443
I243
ag22
ag10
aaasba(ihelper
PossibleWorld
p2444
(dp2445
g3
I244
sg4
I0
sg5
(lp2446
(lp2447
(lp2448
I244
ag12
ag13
aa(lp2449
I244
ag9
ag29
aa(lp2450
I244
ag15
ag29
aa(lp2451
I244
ag17
ag18
aa(lp2452
I244
ag20
ag13
aa(lp2453
I244
ag22
ag10
aaasba(ihelper
PossibleWorld
p2454
(dp2455
g3
I245
sg4
I0
sg5
(lp2456
(lp2457
(lp2458
I245
ag12
ag13
aa(lp2459
I245
ag9
ag29
aa(lp2460
I245
ag15
ag29
aa(lp2461
I245
ag17
ag18
aa(lp2462
I245
ag20
ag29
aa(lp2463
I245
ag22
ag10
aaasba(ihelper
PossibleWorld
p2464
(dp2465
g3
I246
sg4
I0
sg5
(lp2466
(lp2467
(lp2468
I246
ag12
ag13
aa(lp2469
I246
ag9
ag29
aa(lp2470
I246
ag15
ag10
aa(lp2471
I246
ag17
ag13
aa(lp2472
I246
ag20
ag18
aa(lp2473
I246
ag22
ag10
aaasba(ihelper
PossibleWorld
p2474
(dp2475
g3
I247
sg4
I0
sg5
(lp2476
(lp2477
(lp2478
I247
ag12
ag10
aa(lp2479
I247
ag9
ag29
aa(lp2480
I247
ag15
ag29
aa(lp2481
I247
ag17
ag13
aa(lp2482
I247
ag20
ag18
aa(lp2483
I247
ag22
ag10
aaasba(ihelper
PossibleWorld
p2484
(dp2485
g3
I248
sg4
I0
sg5
(lp2486
(lp2487
(lp2488
I248
ag12
ag13
aa(lp2489
I248
ag9
ag29
aa(lp2490
I248
ag15
ag29
aa(lp2491
I248
ag17
ag13
aa(lp2492
I248
ag20
ag18
aa(lp2493
I248
ag22
ag10
aaasba(ihelper
PossibleWorld
p2494
(dp2495
g3
I249
sg4
I0
sg5
(lp2496
(lp2497
(lp2498
I249
ag12
ag10
aa(lp2499
I249
ag9
ag29
aa(lp2500
I249
ag15
ag18
aa(lp2501
I249
ag17
ag13
aa(lp2502
I249
ag20
ag18
aa(lp2503
I249
ag22
ag10
aaasba(ihelper
PossibleWorld
p2504
(dp2505
g3
I250
sg4
I0
sg5
(lp2506
(lp2507
(lp2508
I250
ag12
ag13
aa(lp2509
I250
ag9
ag29
aa(lp2510
I250
ag15
ag18
aa(lp2511
I250
ag17
ag13
aa(lp2512
I250
ag20
ag18
aa(lp2513
I250
ag22
ag10
aaasba(ihelper
PossibleWorld
p2514
(dp2515
g3
I251
sg4
I0
sg5
(lp2516
(lp2517
(lp2518
I251
ag12
ag10
aa(lp2519
I251
ag9
ag29
aa(lp2520
I251
ag15
ag18
aa(lp2521
I251
ag17
ag13
aa(lp2522
I251
ag20
ag29
aa(lp2523
I251
ag22
ag10
aaasba(ihelper
PossibleWorld
p2524
(dp2525
g3
I252
sg4
I0
sg5
(lp2526
(lp2527
(lp2528
I252
ag12
ag10
aa(lp2529
I252
ag9
ag29
aa(lp2530
I252
ag15
ag29
aa(lp2531
I252
ag17
ag13
aa(lp2532
I252
ag20
ag29
aa(lp2533
I252
ag22
ag10
aaasba(ihelper
PossibleWorld
p2534
(dp2535
g3
I253
sg4
I0
sg5
(lp2536
(lp2537
(lp2538
I253
ag12
ag13
aa(lp2539
I253
ag9
ag29
aa(lp2540
I253
ag15
ag10
aa(lp2541
I253
ag17
ag13
aa(lp2542
I253
ag20
ag29
aa(lp2543
I253
ag22
ag10
aaasba(ihelper
PossibleWorld
p2544
(dp2545
g3
I254
sg4
I0
sg5
(lp2546
(lp2547
(lp2548
I254
ag12
ag13
aa(lp2549
I254
ag9
ag29
aa(lp2550
I254
ag15
ag18
aa(lp2551
I254
ag17
ag13
aa(lp2552
I254
ag20
ag29
aa(lp2553
I254
ag22
ag10
aaasba(ihelper
PossibleWorld
p2554
(dp2555
g3
I255
sg4
I0
sg5
(lp2556
(lp2557
(lp2558
I255
ag12
ag13
aa(lp2559
I255
ag9
ag29
aa(lp2560
I255
ag15
ag29
aa(lp2561
I255
ag17
ag13
aa(lp2562
I255
ag20
ag29
aa(lp2563
I255
ag22
ag10
aaasba(ihelper
PossibleWorld
p2564
(dp2565
g3
I256
sg4
I0
sg5
(lp2566
(lp2567
(lp2568
I256
ag12
ag10
aa(lp2569
I256
ag9
ag29
aa(lp2570
I256
ag15
ag13
aa(lp2571
I256
ag17
ag29
aa(lp2572
I256
ag20
ag13
aa(lp2573
I256
ag22
ag10
aaasba(ihelper
PossibleWorld
p2574
(dp2575
g3
I257
sg4
I0
sg5
(lp2576
(lp2577
(lp2578
I257
ag12
ag10
aa(lp2579
I257
ag9
ag29
aa(lp2580
I257
ag15
ag13
aa(lp2581
I257
ag17
ag29
aa(lp2582
I257
ag20
ag18
aa(lp2583
I257
ag22
ag10
aaasba(ihelper
PossibleWorld
p2584
(dp2585
g3
I258
sg4
I0
sg5
(lp2586
(lp2587
(lp2588
I258
ag12
ag13
aa(lp2589
I258
ag9
ag29
aa(lp2590
I258
ag15
ag10
aa(lp2591
I258
ag17
ag29
aa(lp2592
I258
ag20
ag13
aa(lp2593
I258
ag22
ag10
aaasba(ihelper
PossibleWorld
p2594
(dp2595
g3
I259
sg4
I0
sg5
(lp2596
(lp2597
(lp2598
I259
ag12
ag13
aa(lp2599
I259
ag9
ag29
aa(lp2600
I259
ag15
ag10
aa(lp2601
I259
ag17
ag29
aa(lp2602
I259
ag20
ag18
aa(lp2603
I259
ag22
ag10
aaasba(ihelper
PossibleWorld
p2604
(dp2605
g3
I260
sg4
I0
sg5
(lp2606
(lp2607
(lp2608
I260
ag12
ag10
aa(lp2609
I260
ag9
ag29
aa(lp2610
I260
ag15
ag18
aa(lp2611
I260
ag17
ag29
aa(lp2612
I260
ag20
ag13
aa(lp2613
I260
ag22
ag10
aaasba(ihelper
PossibleWorld
p2614
(dp2615
g3
I261
sg4
I0
sg5
(lp2616
(lp2617
(lp2618
I261
ag12
ag13
aa(lp2619
I261
ag9
ag29
aa(lp2620
I261
ag15
ag18
aa(lp2621
I261
ag17
ag29
aa(lp2622
I261
ag20
ag13
aa(lp2623
I261
ag22
ag10
aaasba(ihelper
PossibleWorld
p2624
(dp2625
g3
I262
sg4
I0
sg5
(lp2626
(lp2627
(lp2628
I262
ag12
ag10
aa(lp2629
I262
ag9
ag29
aa(lp2630
I262
ag15
ag18
aa(lp2631
I262
ag17
ag29
aa(lp2632
I262
ag20
ag18
aa(lp2633
I262
ag22
ag10
aaasba(ihelper
PossibleWorld
p2634
(dp2635
g3
I263
sg4
I0
sg5
(lp2636
(lp2637
(lp2638
I263
ag12
ag13
aa(lp2639
I263
ag9
ag29
aa(lp2640
I263
ag15
ag18
aa(lp2641
I263
ag17
ag29
aa(lp2642
I263
ag20
ag18
aa(lp2643
I263
ag22
ag10
aaasba(ihelper
PossibleWorld
p2644
(dp2645
g3
I264
sg4
I0
sg5
(lp2646
(lp2647
(lp2648
I264
ag9
ag18
aa(lp2649
I264
ag12
ag10
aa(lp2650
I264
ag15
ag13
aa(lp2651
I264
ag17
ag29
aa(lp2652
I264
ag20
ag10
aa(lp2653
I264
ag22
ag13
aaasba(ihelper
PossibleWorld
p2654
(dp2655
g3
I265
sg4
I0
sg5
(lp2656
(lp2657
(lp2658
I265
ag9
ag18
aa(lp2659
I265
ag12
ag10
aa(lp2660
I265
ag15
ag29
aa(lp2661
I265
ag17
ag13
aa(lp2662
I265
ag20
ag10
aa(lp2663
I265
ag22
ag13
aaasba(ihelper
PossibleWorld
p2664
(dp2665
g3
I266
sg4
I0
sg5
(lp2666
(lp2667
(lp2668
I266
ag9
ag18
aa(lp2669
I266
ag12
ag10
aa(lp2670
I266
ag15
ag13
aa(lp2671
I266
ag17
ag18
aa(lp2672
I266
ag20
ag10
aa(lp2673
I266
ag22
ag13
aaasba(ihelper
PossibleWorld
p2674
(dp2675
g3
I267
sg4
I0
sg5
(lp2676
(lp2677
(lp2678
I267
ag9
ag18
aa(lp2679
I267
ag12
ag10
aa(lp2680
I267
ag15
ag29
aa(lp2681
I267
ag17
ag18
aa(lp2682
I267
ag20
ag10
aa(lp2683
I267
ag22
ag13
aaasba(ihelper
PossibleWorld
p2684
(dp2685
g3
I268
sg4
I0
sg5
(lp2686
(lp2687
(lp2688
I268
ag9
ag18
aa(lp2689
I268
ag12
ag10
aa(lp2690
I268
ag15
ag13
aa(lp2691
I268
ag17
ag10
aa(lp2692
I268
ag20
ag29
aa(lp2693
I268
ag22
ag13
aaasba(ihelper
PossibleWorld
p2694
(dp2695
g3
I269
sg4
I0
sg5
(lp2696
(lp2697
(lp2698
I269
ag9
ag18
aa(lp2699
I269
ag12
ag10
aa(lp2700
I269
ag15
ag13
aa(lp2701
I269
ag17
ag18
aa(lp2702
I269
ag20
ag29
aa(lp2703
I269
ag22
ag13
aaasba(ihelper
PossibleWorld
p2704
(dp2705
g3
I270
sg4
I0
sg5
(lp2706
(lp2707
(lp2708
I270
ag9
ag18
aa(lp2709
I270
ag12
ag10
aa(lp2710
I270
ag15
ag29
aa(lp2711
I270
ag17
ag10
aa(lp2712
I270
ag20
ag29
aa(lp2713
I270
ag22
ag13
aaasba(ihelper
PossibleWorld
p2714
(dp2715
g3
I271
sg4
I0
sg5
(lp2716
(lp2717
(lp2718
I271
ag9
ag18
aa(lp2719
I271
ag12
ag10
aa(lp2720
I271
ag15
ag29
aa(lp2721
I271
ag17
ag13
aa(lp2722
I271
ag20
ag29
aa(lp2723
I271
ag22
ag13
aaasba(ihelper
PossibleWorld
p2724
(dp2725
g3
I272
sg4
I0
sg5
(lp2726
(lp2727
(lp2728
I272
ag9
ag18
aa(lp2729
I272
ag12
ag10
aa(lp2730
I272
ag15
ag29
aa(lp2731
I272
ag17
ag18
aa(lp2732
I272
ag20
ag29
aa(lp2733
I272
ag22
ag13
aaasba(ihelper
PossibleWorld
p2734
(dp2735
g3
I273
sg4
I0
sg5
(lp2736
(lp2737
(lp2738
I273
ag9
ag18
aa(lp2739
I273
ag12
ag10
aa(lp2740
I273
ag15
ag13
aa(lp2741
I273
ag17
ag10
aa(lp2742
I273
ag20
ag18
aa(lp2743
I273
ag22
ag13
aaasba(ihelper
PossibleWorld
p2744
(dp2745
g3
I274
sg4
I0
sg5
(lp2746
(lp2747
(lp2748
I274
ag9
ag18
aa(lp2749
I274
ag12
ag10
aa(lp2750
I274
ag15
ag29
aa(lp2751
I274
ag17
ag10
aa(lp2752
I274
ag20
ag18
aa(lp2753
I274
ag22
ag13
aaasba(ihelper
PossibleWorld
p2754
(dp2755
g3
I275
sg4
I0
sg5
(lp2756
(lp2757
(lp2758
I275
ag9
ag18
aa(lp2759
I275
ag12
ag10
aa(lp2760
I275
ag15
ag13
aa(lp2761
I275
ag17
ag29
aa(lp2762
I275
ag20
ag18
aa(lp2763
I275
ag22
ag13
aaasba(ihelper
PossibleWorld
p2764
(dp2765
g3
I276
sg4
I0
sg5
(lp2766
(lp2767
(lp2768
I276
ag9
ag18
aa(lp2769
I276
ag12
ag10
aa(lp2770
I276
ag15
ag29
aa(lp2771
I276
ag17
ag13
aa(lp2772
I276
ag20
ag18
aa(lp2773
I276
ag22
ag13
aaasba(ihelper
PossibleWorld
p2774
(dp2775
g3
I277
sg4
I0
sg5
(lp2776
(lp2777
(lp2778
I277
ag12
ag10
aa(lp2779
I277
ag9
ag29
aa(lp2780
I277
ag15
ag13
aa(lp2781
I277
ag17
ag10
aa(lp2782
I277
ag20
ag29
aa(lp2783
I277
ag22
ag13
aaasba(ihelper
PossibleWorld
p2784
(dp2785
g3
I278
sg4
I0
sg5
(lp2786
(lp2787
(lp2788
I278
ag12
ag10
aa(lp2789
I278
ag9
ag29
aa(lp2790
I278
ag15
ag13
aa(lp2791
I278
ag17
ag29
aa(lp2792
I278
ag20
ag10
aa(lp2793
I278
ag22
ag13
aaasba(ihelper
PossibleWorld
p2794
(dp2795
g3
I279
sg4
I0
sg5
(lp2796
(lp2797
(lp2798
I279
ag12
ag10
aa(lp2799
I279
ag9
ag29
aa(lp2800
I279
ag15
ag13
aa(lp2801
I279
ag17
ag10
aa(lp2802
I279
ag20
ag18
aa(lp2803
I279
ag22
ag13
aaasba(ihelper
PossibleWorld
p2804
(dp2805
g3
I280
sg4
I0
sg5
(lp2806
(lp2807
(lp2808
I280
ag12
ag10
aa(lp2809
I280
ag9
ag29
aa(lp2810
I280
ag15
ag13
aa(lp2811
I280
ag17
ag29
aa(lp2812
I280
ag20
ag18
aa(lp2813
I280
ag22
ag13
aaasba(ihelper
PossibleWorld
p2814
(dp2815
g3
I281
sg4
I0
sg5
(lp2816
(lp2817
(lp2818
I281
ag12
ag10
aa(lp2819
I281
ag9
ag29
aa(lp2820
I281
ag15
ag13
aa(lp2821
I281
ag17
ag18
aa(lp2822
I281
ag20
ag10
aa(lp2823
I281
ag22
ag13
aaasba(ihelper
PossibleWorld
p2824
(dp2825
g3
I282
sg4
I0
sg5
(lp2826
(lp2827
(lp2828
I282
ag12
ag10
aa(lp2829
I282
ag9
ag29
aa(lp2830
I282
ag15
ag13
aa(lp2831
I282
ag17
ag18
aa(lp2832
I282
ag20
ag29
aa(lp2833
I282
ag22
ag13
aaasba(ihelper
PossibleWorld
p2834
(dp2835
g3
I283
sg4
I0
sg5
(lp2836
(lp2837
(lp2838
I283
ag12
ag10
aa(lp2839
I283
ag9
ag29
aa(lp2840
I283
ag15
ag29
aa(lp2841
I283
ag17
ag13
aa(lp2842
I283
ag20
ag10
aa(lp2843
I283
ag22
ag13
aaasba(ihelper
PossibleWorld
p2844
(dp2845
g3
I284
sg4
I0
sg5
(lp2846
(lp2847
(lp2848
I284
ag12
ag10
aa(lp2849
I284
ag9
ag29
aa(lp2850
I284
ag15
ag29
aa(lp2851
I284
ag17
ag18
aa(lp2852
I284
ag20
ag10
aa(lp2853
I284
ag22
ag13
aaasba(ihelper
PossibleWorld
p2854
(dp2855
g3
I285
sg4
I0
sg5
(lp2856
(lp2857
(lp2858
I285
ag12
ag10
aa(lp2859
I285
ag9
ag29
aa(lp2860
I285
ag15
ag29
aa(lp2861
I285
ag17
ag10
aa(lp2862
I285
ag20
ag18
aa(lp2863
I285
ag22
ag13
aaasba(ihelper
PossibleWorld
p2864
(dp2865
g3
I286
sg4
I0
sg5
(lp2866
(lp2867
(lp2868
I286
ag12
ag10
aa(lp2869
I286
ag9
ag29
aa(lp2870
I286
ag15
ag29
aa(lp2871
I286
ag17
ag13
aa(lp2872
I286
ag20
ag18
aa(lp2873
I286
ag22
ag13
aaasba(ihelper
PossibleWorld
p2874
(dp2875
g3
I287
sg4
I0
sg5
(lp2876
(lp2877
(lp2878
I287
ag12
ag10
aa(lp2879
I287
ag9
ag29
aa(lp2880
I287
ag15
ag29
aa(lp2881
I287
ag17
ag10
aa(lp2882
I287
ag20
ag29
aa(lp2883
I287
ag22
ag13
aaasba(ihelper
PossibleWorld
p2884
(dp2885
g3
I288
sg4
I0
sg5
(lp2886
(lp2887
(lp2888
I288
ag12
ag10
aa(lp2889
I288
ag9
ag29
aa(lp2890
I288
ag15
ag29
aa(lp2891
I288
ag17
ag18
aa(lp2892
I288
ag20
ag29
aa(lp2893
I288
ag22
ag13
aaasba(ihelper
PossibleWorld
p2894
(dp2895
g3
I289
sg4
I0
sg5
(lp2896
(lp2897
(lp2898
I289
ag12
ag10
aa(lp2899
I289
ag9
ag29
aa(lp2900
I289
ag15
ag29
aa(lp2901
I289
ag17
ag13
aa(lp2902
I289
ag20
ag29
aa(lp2903
I289
ag22
ag13
aaasba(ihelper
PossibleWorld
p2904
(dp2905
g3
I290
sg4
I0
sg5
(lp2906
(lp2907
(lp2908
I290
ag9
ag18
aa(lp2909
I290
ag12
ag29
aa(lp2910
I290
ag15
ag13
aa(lp2911
I290
ag17
ag10
aa(lp2912
I290
ag20
ag29
aa(lp2913
I290
ag22
ag13
aaasba(ihelper
PossibleWorld
p2914
(dp2915
g3
I291
sg4
I0
sg5
(lp2916
(lp2917
(lp2918
I291
ag9
ag10
aa(lp2919
I291
ag12
ag29
aa(lp2920
I291
ag15
ag13
aa(lp2921
I291
ag17
ag10
aa(lp2922
I291
ag20
ag29
aa(lp2923
I291
ag22
ag13
aaasba(ihelper
PossibleWorld
p2924
(dp2925
g3
I292
sg4
I0
sg5
(lp2926
(lp2927
(lp2928
I292
ag9
ag18
aa(lp2929
I292
ag12
ag29
aa(lp2930
I292
ag15
ag13
aa(lp2931
I292
ag17
ag10
aa(lp2932
I292
ag20
ag18
aa(lp2933
I292
ag22
ag13
aaasba(ihelper
PossibleWorld
p2934
(dp2935
g3
I293
sg4
I0
sg5
(lp2936
(lp2937
(lp2938
I293
ag9
ag10
aa(lp2939
I293
ag12
ag29
aa(lp2940
I293
ag15
ag13
aa(lp2941
I293
ag17
ag10
aa(lp2942
I293
ag20
ag18
aa(lp2943
I293
ag22
ag13
aaasba(ihelper
PossibleWorld
p2944
(dp2945
g3
I294
sg4
I0
sg5
(lp2946
(lp2947
(lp2948
I294
ag9
ag18
aa(lp2949
I294
ag12
ag29
aa(lp2950
I294
ag15
ag10
aa(lp2951
I294
ag17
ag13
aa(lp2952
I294
ag20
ag18
aa(lp2953
I294
ag22
ag13
aaasba(ihelper
PossibleWorld
p2954
(dp2955
g3
I295
sg4
I0
sg5
(lp2956
(lp2957
(lp2958
I295
ag9
ag18
aa(lp2959
I295
ag12
ag29
aa(lp2960
I295
ag15
ag10
aa(lp2961
I295
ag17
ag13
aa(lp2962
I295
ag20
ag29
aa(lp2963
I295
ag22
ag13
aaasba(ihelper
PossibleWorld
p2964
(dp2965
g3
I296
sg4
I0
sg5
(lp2966
(lp2967
(lp2968
I296
ag9
ag18
aa(lp2969
I296
ag12
ag29
aa(lp2970
I296
ag15
ag10
aa(lp2971
I296
ag17
ag13
aa(lp2972
I296
ag20
ag10
aa(lp2973
I296
ag22
ag13
aaasba(ihelper
PossibleWorld
p2974
(dp2975
g3
I297
sg4
I0
sg5
(lp2976
(lp2977
(lp2978
I297
ag9
ag10
aa(lp2979
I297
ag12
ag29
aa(lp2980
I297
ag15
ag10
aa(lp2981
I297
ag17
ag13
aa(lp2982
I297
ag20
ag18
aa(lp2983
I297
ag22
ag13
aaasba(ihelper
PossibleWorld
p2984
(dp2985
g3
I298
sg4
I0
sg5
(lp2986
(lp2987
(lp2988
I298
ag9
ag10
aa(lp2989
I298
ag12
ag29
aa(lp2990
I298
ag15
ag10
aa(lp2991
I298
ag17
ag13
aa(lp2992
I298
ag20
ag10
aa(lp2993
I298
ag22
ag13
aaasba(ihelper
PossibleWorld
p2994
(dp2995
g3
I299
sg4
I0
sg5
(lp2996
(lp2997
(lp2998
I299
ag9
ag10
aa(lp2999
I299
ag12
ag29
aa(lp3000
I299
ag15
ag10
aa(lp3001
I299
ag17
ag13
aa(lp3002
I299
ag20
ag29
aa(lp3003
I299
ag22
ag13
aaasba(ihelper
PossibleWorld
p3004
(dp3005
g3
I300
sg4
I0
sg5
(lp3006
(lp3007
(lp3008
I300
ag9
ag18
aa(lp3009
I300
ag12
ag29
aa(lp3010
I300
ag15
ag13
aa(lp3011
I300
ag17
ag29
aa(lp3012
I300
ag20
ag18
aa(lp3013
I300
ag22
ag13
aaasba(ihelper
PossibleWorld
p3014
(dp3015
g3
I301
sg4
I0
sg5
(lp3016
(lp3017
(lp3018
I301
ag9
ag18
aa(lp3019
I301
ag12
ag29
aa(lp3020
I301
ag15
ag10
aa(lp3021
I301
ag17
ag29
aa(lp3022
I301
ag20
ag18
aa(lp3023
I301
ag22
ag13
aaasba(ihelper
PossibleWorld
p3024
(dp3025
g3
I302
sg4
I0
sg5
(lp3026
(lp3027
(lp3028
I302
ag9
ag10
aa(lp3029
I302
ag12
ag29
aa(lp3030
I302
ag15
ag13
aa(lp3031
I302
ag17
ag29
aa(lp3032
I302
ag20
ag18
aa(lp3033
I302
ag22
ag13
aaasba(ihelper
PossibleWorld
p3034
(dp3035
g3
I303
sg4
I0
sg5
(lp3036
(lp3037
(lp3038
I303
ag9
ag10
aa(lp3039
I303
ag12
ag29
aa(lp3040
I303
ag15
ag10
aa(lp3041
I303
ag17
ag29
aa(lp3042
I303
ag20
ag18
aa(lp3043
I303
ag22
ag13
aaasba(ihelper
PossibleWorld
p3044
(dp3045
g3
I304
sg4
I0
sg5
(lp3046
(lp3047
(lp3048
I304
ag9
ag18
aa(lp3049
I304
ag12
ag29
aa(lp3050
I304
ag15
ag13
aa(lp3051
I304
ag17
ag29
aa(lp3052
I304
ag20
ag10
aa(lp3053
I304
ag22
ag13
aaasba(ihelper
PossibleWorld
p3054
(dp3055
g3
I305
sg4
I0
sg5
(lp3056
(lp3057
(lp3058
I305
ag9
ag10
aa(lp3059
I305
ag12
ag29
aa(lp3060
I305
ag15
ag13
aa(lp3061
I305
ag17
ag29
aa(lp3062
I305
ag20
ag10
aa(lp3063
I305
ag22
ag13
aaasba(ihelper
PossibleWorld
p3064
(dp3065
g3
I306
sg4
I0
sg5
(lp3066
(lp3067
(lp3068
I306
ag9
ag18
aa(lp3069
I306
ag12
ag29
aa(lp3070
I306
ag15
ag10
aa(lp3071
I306
ag17
ag29
aa(lp3072
I306
ag20
ag10
aa(lp3073
I306
ag22
ag13
aaasba(ihelper
PossibleWorld
p3074
(dp3075
g3
I307
sg4
I0
sg5
(lp3076
(lp3077
(lp3078
I307
ag9
ag10
aa(lp3079
I307
ag12
ag29
aa(lp3080
I307
ag15
ag10
aa(lp3081
I307
ag17
ag29
aa(lp3082
I307
ag20
ag10
aa(lp3083
I307
ag22
ag13
aaasba(ihelper
PossibleWorld
p3084
(dp3085
g3
I308
sg4
I0
sg5
(lp3086
(lp3087
(lp3088
I308
ag9
ag18
aa(lp3089
I308
ag12
ag29
aa(lp3090
I308
ag15
ag13
aa(lp3091
I308
ag17
ag18
aa(lp3092
I308
ag20
ag29
aa(lp3093
I308
ag22
ag13
aaasba(ihelper
PossibleWorld
p3094
(dp3095
g3
I309
sg4
I0
sg5
(lp3096
(lp3097
(lp3098
I309
ag9
ag18
aa(lp3099
I309
ag12
ag29
aa(lp3100
I309
ag15
ag10
aa(lp3101
I309
ag17
ag18
aa(lp3102
I309
ag20
ag29
aa(lp3103
I309
ag22
ag13
aaasba(ihelper
PossibleWorld
p3104
(dp3105
g3
I310
sg4
I0
sg5
(lp3106
(lp3107
(lp3108
I310
ag9
ag18
aa(lp3109
I310
ag12
ag29
aa(lp3110
I310
ag15
ag13
aa(lp3111
I310
ag17
ag18
aa(lp3112
I310
ag20
ag10
aa(lp3113
I310
ag22
ag13
aaasba(ihelper
PossibleWorld
p3114
(dp3115
g3
I311
sg4
I0
sg5
(lp3116
(lp3117
(lp3118
I311
ag9
ag18
aa(lp3119
I311
ag12
ag29
aa(lp3120
I311
ag15
ag10
aa(lp3121
I311
ag17
ag18
aa(lp3122
I311
ag20
ag10
aa(lp3123
I311
ag22
ag13
aaasba(ihelper
PossibleWorld
p3124
(dp3125
g3
I312
sg4
I0
sg5
(lp3126
(lp3127
(lp3128
I312
ag9
ag10
aa(lp3129
I312
ag12
ag29
aa(lp3130
I312
ag15
ag13
aa(lp3131
I312
ag17
ag18
aa(lp3132
I312
ag20
ag29
aa(lp3133
I312
ag22
ag13
aaasba(ihelper
PossibleWorld
p3134
(dp3135
g3
I313
sg4
I0
sg5
(lp3136
(lp3137
(lp3138
I313
ag9
ag10
aa(lp3139
I313
ag12
ag29
aa(lp3140
I313
ag15
ag13
aa(lp3141
I313
ag17
ag18
aa(lp3142
I313
ag20
ag10
aa(lp3143
I313
ag22
ag13
aaasba(ihelper
PossibleWorld
p3144
(dp3145
g3
I314
sg4
I0
sg5
(lp3146
(lp3147
(lp3148
I314
ag9
ag10
aa(lp3149
I314
ag12
ag29
aa(lp3150
I314
ag15
ag10
aa(lp3151
I314
ag17
ag18
aa(lp3152
I314
ag20
ag29
aa(lp3153
I314
ag22
ag13
aaasba(ihelper
PossibleWorld
p3154
(dp3155
g3
I315
sg4
I0
sg5
(lp3156
(lp3157
(lp3158
I315
ag9
ag10
aa(lp3159
I315
ag12
ag29
aa(lp3160
I315
ag15
ag10
aa(lp3161
I315
ag17
ag18
aa(lp3162
I315
ag20
ag10
aa(lp3163
I315
ag22
ag13
aaasba(ihelper
PossibleWorld
p3164
(dp3165
g3
I316
sg4
I0
sg5
(lp3166
(lp3167
(lp3168
I316
ag9
ag18
aa(lp3169
I316
ag12
ag10
aa(lp3170
I316
ag15
ag18
aa(lp3171
I316
ag17
ag29
aa(lp3172
I316
ag20
ag18
aa(lp3173
I316
ag22
ag13
aaasba(ihelper
PossibleWorld
p3174
(dp3175
g3
I317
sg4
I0
sg5
(lp3176
(lp3177
(lp3178
I317
ag9
ag18
aa(lp3179
I317
ag12
ag10
aa(lp3180
I317
ag15
ag18
aa(lp3181
I317
ag17
ag13
aa(lp3182
I317
ag20
ag18
aa(lp3183
I317
ag22
ag13
aaasba(ihelper
PossibleWorld
p3184
(dp3185
g3
I318
sg4
I0
sg5
(lp3186
(lp3187
(lp3188
I318
ag9
ag18
aa(lp3189
I318
ag12
ag10
aa(lp3190
I318
ag15
ag18
aa(lp3191
I318
ag17
ag13
aa(lp3192
I318
ag20
ag29
aa(lp3193
I318
ag22
ag13
aaasba(ihelper
PossibleWorld
p3194
(dp3195
g3
I319
sg4
I0
sg5
(lp3196
(lp3197
(lp3198
I319
ag9
ag18
aa(lp3199
I319
ag12
ag10
aa(lp3200
I319
ag15
ag18
aa(lp3201
I319
ag17
ag10
aa(lp3202
I319
ag20
ag18
aa(lp3203
I319
ag22
ag13
aaasba(ihelper
PossibleWorld
p3204
(dp3205
g3
I320
sg4
I0
sg5
(lp3206
(lp3207
(lp3208
I320
ag9
ag18
aa(lp3209
I320
ag12
ag10
aa(lp3210
I320
ag15
ag18
aa(lp3211
I320
ag17
ag10
aa(lp3212
I320
ag20
ag29
aa(lp3213
I320
ag22
ag13
aaasba(ihelper
PossibleWorld
p3214
(dp3215
g3
I321
sg4
I0
sg5
(lp3216
(lp3217
(lp3218
I321
ag9
ag18
aa(lp3219
I321
ag12
ag29
aa(lp3220
I321
ag15
ag18
aa(lp3221
I321
ag17
ag10
aa(lp3222
I321
ag20
ag18
aa(lp3223
I321
ag22
ag13
aaasba(ihelper
PossibleWorld
p3224
(dp3225
g3
I322
sg4
I0
sg5
(lp3226
(lp3227
(lp3228
I322
ag9
ag18
aa(lp3229
I322
ag12
ag29
aa(lp3230
I322
ag15
ag18
aa(lp3231
I322
ag17
ag13
aa(lp3232
I322
ag20
ag18
aa(lp3233
I322
ag22
ag13
aaasba(ihelper
PossibleWorld
p3234
(dp3235
g3
I323
sg4
I0
sg5
(lp3236
(lp3237
(lp3238
I323
ag9
ag18
aa(lp3239
I323
ag12
ag29
aa(lp3240
I323
ag15
ag18
aa(lp3241
I323
ag17
ag29
aa(lp3242
I323
ag20
ag18
aa(lp3243
I323
ag22
ag13
aaasba(ihelper
PossibleWorld
p3244
(dp3245
g3
I324
sg4
I0
sg5
(lp3246
(lp3247
(lp3248
I324
ag9
ag18
aa(lp3249
I324
ag12
ag29
aa(lp3250
I324
ag15
ag18
aa(lp3251
I324
ag17
ag10
aa(lp3252
I324
ag20
ag29
aa(lp3253
I324
ag22
ag13
aaasba(ihelper
PossibleWorld
p3254
(dp3255
g3
I325
sg4
I0
sg5
(lp3256
(lp3257
(lp3258
I325
ag9
ag18
aa(lp3259
I325
ag12
ag29
aa(lp3260
I325
ag15
ag18
aa(lp3261
I325
ag17
ag13
aa(lp3262
I325
ag20
ag29
aa(lp3263
I325
ag22
ag13
aaasba(ihelper
PossibleWorld
p3264
(dp3265
g3
I326
sg4
I0
sg5
(lp3266
(lp3267
(lp3268
I326
ag12
ag10
aa(lp3269
I326
ag9
ag29
aa(lp3270
I326
ag15
ag18
aa(lp3271
I326
ag17
ag10
aa(lp3272
I326
ag20
ag18
aa(lp3273
I326
ag22
ag13
aaasba(ihelper
PossibleWorld
p3274
(dp3275
g3
I327
sg4
I0
sg5
(lp3276
(lp3277
(lp3278
I327
ag12
ag10
aa(lp3279
I327
ag9
ag29
aa(lp3280
I327
ag15
ag18
aa(lp3281
I327
ag17
ag29
aa(lp3282
I327
ag20
ag18
aa(lp3283
I327
ag22
ag13
aaasba(ihelper
PossibleWorld
p3284
(dp3285
g3
I328
sg4
I0
sg5
(lp3286
(lp3287
(lp3288
I328
ag12
ag10
aa(lp3289
I328
ag9
ag29
aa(lp3290
I328
ag15
ag18
aa(lp3291
I328
ag17
ag10
aa(lp3292
I328
ag20
ag29
aa(lp3293
I328
ag22
ag13
aaasba(ihelper
PossibleWorld
p3294
(dp3295
g3
I329
sg4
I0
sg5
(lp3296
(lp3297
(lp3298
I329
ag12
ag10
aa(lp3299
I329
ag9
ag29
aa(lp3300
I329
ag15
ag18
aa(lp3301
I329
ag17
ag13
aa(lp3302
I329
ag20
ag18
aa(lp3303
I329
ag22
ag13
aaasba(ihelper
PossibleWorld
p3304
(dp3305
g3
I330
sg4
I0
sg5
(lp3306
(lp3307
(lp3308
I330
ag12
ag10
aa(lp3309
I330
ag9
ag29
aa(lp3310
I330
ag15
ag18
aa(lp3311
I330
ag17
ag13
aa(lp3312
I330
ag20
ag29
aa(lp3313
I330
ag22
ag13
aaasba(ihelper
PossibleWorld
p3314
(dp3315
g3
I331
sg4
I0
sg5
(lp3316
(lp3317
(lp3318
I331
ag9
ag10
aa(lp3319
I331
ag12
ag29
aa(lp3320
I331
ag15
ag18
aa(lp3321
I331
ag17
ag10
aa(lp3322
I331
ag20
ag18
aa(lp3323
I331
ag22
ag13
aaasba(ihelper
PossibleWorld
p3324
(dp3325
g3
I332
sg4
I0
sg5
(lp3326
(lp3327
(lp3328
I332
ag9
ag10
aa(lp3329
I332
ag12
ag29
aa(lp3330
I332
ag15
ag18
aa(lp3331
I332
ag17
ag13
aa(lp3332
I332
ag20
ag18
aa(lp3333
I332
ag22
ag13
aaasba(ihelper
PossibleWorld
p3334
(dp3335
g3
I333
sg4
I0
sg5
(lp3336
(lp3337
(lp3338
I333
ag9
ag10
aa(lp3339
I333
ag12
ag29
aa(lp3340
I333
ag15
ag18
aa(lp3341
I333
ag17
ag29
aa(lp3342
I333
ag20
ag18
aa(lp3343
I333
ag22
ag13
aaasba(ihelper
PossibleWorld
p3344
(dp3345
g3
I334
sg4
I0
sg5
(lp3346
(lp3347
(lp3348
I334
ag9
ag10
aa(lp3349
I334
ag12
ag29
aa(lp3350
I334
ag15
ag18
aa(lp3351
I334
ag17
ag10
aa(lp3352
I334
ag20
ag29
aa(lp3353
I334
ag22
ag13
aaasba(ihelper
PossibleWorld
p3354
(dp3355
g3
I335
sg4
I0
sg5
(lp3356
(lp3357
(lp3358
I335
ag9
ag10
aa(lp3359
I335
ag12
ag29
aa(lp3360
I335
ag15
ag18
aa(lp3361
I335
ag17
ag13
aa(lp3362
I335
ag20
ag29
aa(lp3363
I335
ag22
ag13
aaasba(ihelper
PossibleWorld
p3364
(dp3365
g3
I336
sg4
I0
sg5
(lp3366
(lp3367
(lp3368
I336
ag9
ag18
aa(lp3369
I336
ag12
ag10
aa(lp3370
I336
ag15
ag18
aa(lp3371
I336
ag17
ag29
aa(lp3372
I336
ag20
ag10
aa(lp3373
I336
ag22
ag13
aaasba(ihelper
PossibleWorld
p3374
(dp3375
g3
I337
sg4
I0
sg5
(lp3376
(lp3377
(lp3378
I337
ag12
ag10
aa(lp3379
I337
ag9
ag29
aa(lp3380
I337
ag15
ag18
aa(lp3381
I337
ag17
ag29
aa(lp3382
I337
ag20
ag10
aa(lp3383
I337
ag22
ag13
aaasba(ihelper
PossibleWorld
p3384
(dp3385
g3
I338
sg4
I0
sg5
(lp3386
(lp3387
(lp3388
I338
ag9
ag18
aa(lp3389
I338
ag12
ag29
aa(lp3390
I338
ag15
ag18
aa(lp3391
I338
ag17
ag29
aa(lp3392
I338
ag20
ag10
aa(lp3393
I338
ag22
ag13
aaasba(ihelper
PossibleWorld
p3394
(dp3395
g3
I339
sg4
I0
sg5
(lp3396
(lp3397
(lp3398
I339
ag9
ag10
aa(lp3399
I339
ag12
ag29
aa(lp3400
I339
ag15
ag18
aa(lp3401
I339
ag17
ag29
aa(lp3402
I339
ag20
ag10
aa(lp3403
I339
ag22
ag13
aaasba(ihelper
PossibleWorld
p3404
(dp3405
g3
I340
sg4
I0
sg5
(lp3406
(lp3407
(lp3408
I340
ag9
ag18
aa(lp3409
I340
ag12
ag10
aa(lp3410
I340
ag15
ag18
aa(lp3411
I340
ag17
ag13
aa(lp3412
I340
ag20
ag10
aa(lp3413
I340
ag22
ag13
aaasba(ihelper
PossibleWorld
p3414
(dp3415
g3
I341
sg4
I0
sg5
(lp3416
(lp3417
(lp3418
I341
ag9
ag18
aa(lp3419
I341
ag12
ag29
aa(lp3420
I341
ag15
ag18
aa(lp3421
I341
ag17
ag13
aa(lp3422
I341
ag20
ag10
aa(lp3423
I341
ag22
ag13
aaasba(ihelper
PossibleWorld
p3424
(dp3425
g3
I342
sg4
I0
sg5
(lp3426
(lp3427
(lp3428
I342
ag12
ag10
aa(lp3429
I342
ag9
ag29
aa(lp3430
I342
ag15
ag18
aa(lp3431
I342
ag17
ag13
aa(lp3432
I342
ag20
ag10
aa(lp3433
I342
ag22
ag13
aaasba(ihelper
PossibleWorld
p3434
(dp3435
g3
I343
sg4
I0
sg5
(lp3436
(lp3437
(lp3438
I343
ag9
ag10
aa(lp3439
I343
ag12
ag29
aa(lp3440
I343
ag15
ag18
aa(lp3441
I343
ag17
ag13
aa(lp3442
I343
ag20
ag10
aa(lp3443
I343
ag22
ag13
aaasba(ihelper
PossibleWorld
p3444
(dp3445
g3
I344
sg4
I0
sg5
(lp3446
(lp3447
(lp3448
I344
ag9
ag18
aa(lp3449
I344
ag12
ag13
aa(lp3450
I344
ag15
ag18
aa(lp3451
I344
ag17
ag10
aa(lp3452
I344
ag20
ag18
aa(lp3453
I344
ag22
ag13
aaasba(ihelper
PossibleWorld
p3454
(dp3455
g3
I345
sg4
I0
sg5
(lp3456
(lp3457
(lp3458
I345
ag9
ag18
aa(lp3459
I345
ag12
ag13
aa(lp3460
I345
ag15
ag18
aa(lp3461
I345
ag17
ag13
aa(lp3462
I345
ag20
ag18
aa(lp3463
I345
ag22
ag13
aaasba(ihelper
PossibleWorld
p3464
(dp3465
g3
I346
sg4
I0
sg5
(lp3466
(lp3467
(lp3468
I346
ag9
ag18
aa(lp3469
I346
ag12
ag13
aa(lp3470
I346
ag15
ag18
aa(lp3471
I346
ag17
ag29
aa(lp3472
I346
ag20
ag18
aa(lp3473
I346
ag22
ag13
aaasba(ihelper
PossibleWorld
p3474
(dp3475
g3
I347
sg4
I0
sg5
(lp3476
(lp3477
(lp3478
I347
ag12
ag13
aa(lp3479
I347
ag9
ag29
aa(lp3480
I347
ag15
ag18
aa(lp3481
I347
ag17
ag10
aa(lp3482
I347
ag20
ag18
aa(lp3483
I347
ag22
ag13
aaasba(ihelper
PossibleWorld
p3484
(dp3485
g3
I348
sg4
I0
sg5
(lp3486
(lp3487
(lp3488
I348
ag12
ag13
aa(lp3489
I348
ag9
ag29
aa(lp3490
I348
ag15
ag18
aa(lp3491
I348
ag17
ag29
aa(lp3492
I348
ag20
ag18
aa(lp3493
I348
ag22
ag13
aaasba(ihelper
PossibleWorld
p3494
(dp3495
g3
I349
sg4
I0
sg5
(lp3496
(lp3497
(lp3498
I349
ag12
ag13
aa(lp3499
I349
ag9
ag29
aa(lp3500
I349
ag15
ag18
aa(lp3501
I349
ag17
ag13
aa(lp3502
I349
ag20
ag18
aa(lp3503
I349
ag22
ag13
aaasba(ihelper
PossibleWorld
p3504
(dp3505
g3
I350
sg4
I0
sg5
(lp3506
(lp3507
(lp3508
I350
ag9
ag10
aa(lp3509
I350
ag12
ag13
aa(lp3510
I350
ag15
ag18
aa(lp3511
I350
ag17
ag10
aa(lp3512
I350
ag20
ag18
aa(lp3513
I350
ag22
ag13
aaasba(ihelper
PossibleWorld
p3514
(dp3515
g3
I351
sg4
I0
sg5
(lp3516
(lp3517
(lp3518
I351
ag9
ag10
aa(lp3519
I351
ag12
ag13
aa(lp3520
I351
ag15
ag18
aa(lp3521
I351
ag17
ag13
aa(lp3522
I351
ag20
ag18
aa(lp3523
I351
ag22
ag13
aaasba(ihelper
PossibleWorld
p3524
(dp3525
g3
I352
sg4
I0
sg5
(lp3526
(lp3527
(lp3528
I352
ag9
ag10
aa(lp3529
I352
ag12
ag13
aa(lp3530
I352
ag15
ag18
aa(lp3531
I352
ag17
ag29
aa(lp3532
I352
ag20
ag18
aa(lp3533
I352
ag22
ag13
aaasba(ihelper
PossibleWorld
p3534
(dp3535
g3
I353
sg4
I0
sg5
(lp3536
(lp3537
(lp3538
I353
ag9
ag18
aa(lp3539
I353
ag12
ag13
aa(lp3540
I353
ag15
ag10
aa(lp3541
I353
ag17
ag29
aa(lp3542
I353
ag20
ag18
aa(lp3543
I353
ag22
ag13
aaasba(ihelper
PossibleWorld
p3544
(dp3545
g3
I354
sg4
I0
sg5
(lp3546
(lp3547
(lp3548
I354
ag9
ag10
aa(lp3549
I354
ag12
ag13
aa(lp3550
I354
ag15
ag10
aa(lp3551
I354
ag17
ag29
aa(lp3552
I354
ag20
ag18
aa(lp3553
I354
ag22
ag13
aaasba(ihelper
PossibleWorld
p3554
(dp3555
g3
I355
sg4
I0
sg5
(lp3556
(lp3557
(lp3558
I355
ag12
ag13
aa(lp3559
I355
ag9
ag29
aa(lp3560
I355
ag15
ag10
aa(lp3561
I355
ag17
ag29
aa(lp3562
I355
ag20
ag18
aa(lp3563
I355
ag22
ag13
aaasba(ihelper
PossibleWorld
p3564
(dp3565
g3
I356
sg4
I0
sg5
(lp3566
(lp3567
(lp3568
I356
ag9
ag18
aa(lp3569
I356
ag12
ag13
aa(lp3570
I356
ag15
ag10
aa(lp3571
I356
ag17
ag13
aa(lp3572
I356
ag20
ag18
aa(lp3573
I356
ag22
ag13
aaasba(ihelper
PossibleWorld
p3574
(dp3575
g3
I357
sg4
I0
sg5
(lp3576
(lp3577
(lp3578
I357
ag12
ag13
aa(lp3579
I357
ag9
ag29
aa(lp3580
I357
ag15
ag10
aa(lp3581
I357
ag17
ag13
aa(lp3582
I357
ag20
ag18
aa(lp3583
I357
ag22
ag13
aaasba(ihelper
PossibleWorld
p3584
(dp3585
g3
I358
sg4
I0
sg5
(lp3586
(lp3587
(lp3588
I358
ag9
ag10
aa(lp3589
I358
ag12
ag13
aa(lp3590
I358
ag15
ag10
aa(lp3591
I358
ag17
ag13
aa(lp3592
I358
ag20
ag18
aa(lp3593
I358
ag22
ag13
aaasba(ihelper
PossibleWorld
p3594
(dp3595
g3
I359
sg4
I0
sg5
(lp3596
(lp3597
(lp3598
I359
ag9
ag18
aa(lp3599
I359
ag12
ag13
aa(lp3600
I359
ag15
ag29
aa(lp3601
I359
ag17
ag10
aa(lp3602
I359
ag20
ag18
aa(lp3603
I359
ag22
ag13
aaasba(ihelper
PossibleWorld
p3604
(dp3605
g3
I360
sg4
I0
sg5
(lp3606
(lp3607
(lp3608
I360
ag9
ag10
aa(lp3609
I360
ag12
ag13
aa(lp3610
I360
ag15
ag29
aa(lp3611
I360
ag17
ag10
aa(lp3612
I360
ag20
ag18
aa(lp3613
I360
ag22
ag13
aaasba(ihelper
PossibleWorld
p3614
(dp3615
g3
I361
sg4
I0
sg5
(lp3616
(lp3617
(lp3618
I361
ag9
ag18
aa(lp3619
I361
ag12
ag13
aa(lp3620
I361
ag15
ag29
aa(lp3621
I361
ag17
ag13
aa(lp3622
I361
ag20
ag18
aa(lp3623
I361
ag22
ag13
aaasba(ihelper
PossibleWorld
p3624
(dp3625
g3
I362
sg4
I0
sg5
(lp3626
(lp3627
(lp3628
I362
ag9
ag10
aa(lp3629
I362
ag12
ag13
aa(lp3630
I362
ag15
ag29
aa(lp3631
I362
ag17
ag13
aa(lp3632
I362
ag20
ag18
aa(lp3633
I362
ag22
ag13
aaasba(ihelper
PossibleWorld
p3634
(dp3635
g3
I363
sg4
I0
sg5
(lp3636
(lp3637
(lp3638
I363
ag12
ag13
aa(lp3639
I363
ag9
ag29
aa(lp3640
I363
ag15
ag29
aa(lp3641
I363
ag17
ag10
aa(lp3642
I363
ag20
ag18
aa(lp3643
I363
ag22
ag13
aaasba(ihelper
PossibleWorld
p3644
(dp3645
g3
I364
sg4
I0
sg5
(lp3646
(lp3647
(lp3648
I364
ag12
ag13
aa(lp3649
I364
ag9
ag29
aa(lp3650
I364
ag15
ag29
aa(lp3651
I364
ag17
ag13
aa(lp3652
I364
ag20
ag18
aa(lp3653
I364
ag22
ag13
aaasba(ihelper
PossibleWorld
p3654
(dp3655
g3
I365
sg4
I0
sg5
(lp3656
(lp3657
(lp3658
I365
ag9
ag18
aa(lp3659
I365
ag12
ag13
aa(lp3660
I365
ag15
ag10
aa(lp3661
I365
ag17
ag29
aa(lp3662
I365
ag20
ag10
aa(lp3663
I365
ag22
ag13
aaasba(ihelper
PossibleWorld
p3664
(dp3665
g3
I366
sg4
I0
sg5
(lp3666
(lp3667
(lp3668
I366
ag9
ag18
aa(lp3669
I366
ag12
ag13
aa(lp3670
I366
ag15
ag18
aa(lp3671
I366
ag17
ag29
aa(lp3672
I366
ag20
ag10
aa(lp3673
I366
ag22
ag13
aaasba(ihelper
PossibleWorld
p3674
(dp3675
g3
I367
sg4
I0
sg5
(lp3676
(lp3677
(lp3678
I367
ag9
ag18
aa(lp3679
I367
ag12
ag13
aa(lp3680
I367
ag15
ag10
aa(lp3681
I367
ag17
ag18
aa(lp3682
I367
ag20
ag10
aa(lp3683
I367
ag22
ag13
aaasba(ihelper
PossibleWorld
p3684
(dp3685
g3
I368
sg4
I0
sg5
(lp3686
(lp3687
(lp3688
I368
ag9
ag18
aa(lp3689
I368
ag12
ag13
aa(lp3690
I368
ag15
ag29
aa(lp3691
I368
ag17
ag18
aa(lp3692
I368
ag20
ag10
aa(lp3693
I368
ag22
ag13
aaasba(ihelper
PossibleWorld
p3694
(dp3695
g3
I369
sg4
I0
sg5
(lp3696
(lp3697
(lp3698
I369
ag12
ag13
aa(lp3699
I369
ag9
ag29
aa(lp3700
I369
ag15
ag10
aa(lp3701
I369
ag17
ag29
aa(lp3702
I369
ag20
ag10
aa(lp3703
I369
ag22
ag13
aaasba(ihelper
PossibleWorld
p3704
(dp3705
g3
I370
sg4
I0
sg5
(lp3706
(lp3707
(lp3708
I370
ag12
ag13
aa(lp3709
I370
ag9
ag29
aa(lp3710
I370
ag15
ag10
aa(lp3711
I370
ag17
ag18
aa(lp3712
I370
ag20
ag10
aa(lp3713
I370
ag22
ag13
aaasba(ihelper
PossibleWorld
p3714
(dp3715
g3
I371
sg4
I0
sg5
(lp3716
(lp3717
(lp3718
I371
ag12
ag13
aa(lp3719
I371
ag9
ag29
aa(lp3720
I371
ag15
ag29
aa(lp3721
I371
ag17
ag18
aa(lp3722
I371
ag20
ag10
aa(lp3723
I371
ag22
ag13
aaasba(ihelper
PossibleWorld
p3724
(dp3725
g3
I372
sg4
I0
sg5
(lp3726
(lp3727
(lp3728
I372
ag12
ag13
aa(lp3729
I372
ag9
ag29
aa(lp3730
I372
ag15
ag18
aa(lp3731
I372
ag17
ag29
aa(lp3732
I372
ag20
ag10
aa(lp3733
I372
ag22
ag13
aaasba(ihelper
PossibleWorld
p3734
(dp3735
g3
I373
sg4
I0
sg5
(lp3736
(lp3737
(lp3738
I373
ag9
ag10
aa(lp3739
I373
ag12
ag13
aa(lp3740
I373
ag15
ag10
aa(lp3741
I373
ag17
ag29
aa(lp3742
I373
ag20
ag10
aa(lp3743
I373
ag22
ag13
aaasba(ihelper
PossibleWorld
p3744
(dp3745
g3
I374
sg4
I0
sg5
(lp3746
(lp3747
(lp3748
I374
ag9
ag10
aa(lp3749
I374
ag12
ag13
aa(lp3750
I374
ag15
ag18
aa(lp3751
I374
ag17
ag29
aa(lp3752
I374
ag20
ag10
aa(lp3753
I374
ag22
ag13
aaasba(ihelper
PossibleWorld
p3754
(dp3755
g3
I375
sg4
I0
sg5
(lp3756
(lp3757
(lp3758
I375
ag9
ag10
aa(lp3759
I375
ag12
ag13
aa(lp3760
I375
ag15
ag10
aa(lp3761
I375
ag17
ag18
aa(lp3762
I375
ag20
ag10
aa(lp3763
I375
ag22
ag13
aaasba(ihelper
PossibleWorld
p3764
(dp3765
g3
I376
sg4
I0
sg5
(lp3766
(lp3767
(lp3768
I376
ag9
ag10
aa(lp3769
I376
ag12
ag13
aa(lp3770
I376
ag15
ag29
aa(lp3771
I376
ag17
ag18
aa(lp3772
I376
ag20
ag10
aa(lp3773
I376
ag22
ag13
aaasba(ihelper
PossibleWorld
p3774
(dp3775
g3
I377
sg4
I0
sg5
(lp3776
(lp3777
(lp3778
I377
ag9
ag18
aa(lp3779
I377
ag12
ag13
aa(lp3780
I377
ag15
ag10
aa(lp3781
I377
ag17
ag13
aa(lp3782
I377
ag20
ag10
aa(lp3783
I377
ag22
ag13
aaasba(ihelper
PossibleWorld
p3784
(dp3785
g3
I378
sg4
I0
sg5
(lp3786
(lp3787
(lp3788
I378
ag9
ag10
aa(lp3789
I378
ag12
ag13
aa(lp3790
I378
ag15
ag10
aa(lp3791
I378
ag17
ag13
aa(lp3792
I378
ag20
ag10
aa(lp3793
I378
ag22
ag13
aaasba(ihelper
PossibleWorld
p3794
(dp3795
g3
I379
sg4
I0
sg5
(lp3796
(lp3797
(lp3798
I379
ag12
ag13
aa(lp3799
I379
ag9
ag29
aa(lp3800
I379
ag15
ag10
aa(lp3801
I379
ag17
ag13
aa(lp3802
I379
ag20
ag10
aa(lp3803
I379
ag22
ag13
aaasba(ihelper
PossibleWorld
p3804
(dp3805
g3
I380
sg4
I0
sg5
(lp3806
(lp3807
(lp3808
I380
ag9
ag18
aa(lp3809
I380
ag12
ag13
aa(lp3810
I380
ag15
ag18
aa(lp3811
I380
ag17
ag13
aa(lp3812
I380
ag20
ag10
aa(lp3813
I380
ag22
ag13
aaasba(ihelper
PossibleWorld
p3814
(dp3815
g3
I381
sg4
I0
sg5
(lp3816
(lp3817
(lp3818
I381
ag12
ag13
aa(lp3819
I381
ag9
ag29
aa(lp3820
I381
ag15
ag18
aa(lp3821
I381
ag17
ag13
aa(lp3822
I381
ag20
ag10
aa(lp3823
I381
ag22
ag13
aaasba(ihelper
PossibleWorld
p3824
(dp3825
g3
I382
sg4
I0
sg5
(lp3826
(lp3827
(lp3828
I382
ag9
ag10
aa(lp3829
I382
ag12
ag13
aa(lp3830
I382
ag15
ag18
aa(lp3831
I382
ag17
ag13
aa(lp3832
I382
ag20
ag10
aa(lp3833
I382
ag22
ag13
aaasba(ihelper
PossibleWorld
p3834
(dp3835
g3
I383
sg4
I0
sg5
(lp3836
(lp3837
(lp3838
I383
ag9
ag18
aa(lp3839
I383
ag12
ag13
aa(lp3840
I383
ag15
ag29
aa(lp3841
I383
ag17
ag13
aa(lp3842
I383
ag20
ag10
aa(lp3843
I383
ag22
ag13
aaasba(ihelper
PossibleWorld
p3844
(dp3845
g3
I384
sg4
I0
sg5
(lp3846
(lp3847
(lp3848
I384
ag9
ag10
aa(lp3849
I384
ag12
ag13
aa(lp3850
I384
ag15
ag29
aa(lp3851
I384
ag17
ag13
aa(lp3852
I384
ag20
ag10
aa(lp3853
I384
ag22
ag13
aaasba(ihelper
PossibleWorld
p3854
(dp3855
g3
I385
sg4
I0
sg5
(lp3856
(lp3857
(lp3858
I385
ag12
ag13
aa(lp3859
I385
ag9
ag29
aa(lp3860
I385
ag15
ag29
aa(lp3861
I385
ag17
ag13
aa(lp3862
I385
ag20
ag10
aa(lp3863
I385
ag22
ag13
aaasba(ihelper
PossibleWorld
p3864
(dp3865
g3
I386
sg4
I0
sg5
(lp3866
(lp3867
(lp3868
I386
ag9
ag18
aa(lp3869
I386
ag12
ag13
aa(lp3870
I386
ag15
ag10
aa(lp3871
I386
ag17
ag13
aa(lp3872
I386
ag20
ag29
aa(lp3873
I386
ag22
ag13
aaasba(ihelper
PossibleWorld
p3874
(dp3875
g3
I387
sg4
I0
sg5
(lp3876
(lp3877
(lp3878
I387
ag12
ag13
aa(lp3879
I387
ag9
ag29
aa(lp3880
I387
ag15
ag10
aa(lp3881
I387
ag17
ag13
aa(lp3882
I387
ag20
ag29
aa(lp3883
I387
ag22
ag13
aaasba(ihelper
PossibleWorld
p3884
(dp3885
g3
I388
sg4
I0
sg5
(lp3886
(lp3887
(lp3888
I388
ag9
ag18
aa(lp3889
I388
ag12
ag13
aa(lp3890
I388
ag15
ag10
aa(lp3891
I388
ag17
ag18
aa(lp3892
I388
ag20
ag29
aa(lp3893
I388
ag22
ag13
aaasba(ihelper
PossibleWorld
p3894
(dp3895
g3
I389
sg4
I0
sg5
(lp3896
(lp3897
(lp3898
I389
ag12
ag13
aa(lp3899
I389
ag9
ag29
aa(lp3900
I389
ag15
ag10
aa(lp3901
I389
ag17
ag18
aa(lp3902
I389
ag20
ag29
aa(lp3903
I389
ag22
ag13
aaasba(ihelper
PossibleWorld
p3904
(dp3905
g3
I390
sg4
I0
sg5
(lp3906
(lp3907
(lp3908
I390
ag9
ag18
aa(lp3909
I390
ag12
ag13
aa(lp3910
I390
ag15
ag29
aa(lp3911
I390
ag17
ag10
aa(lp3912
I390
ag20
ag29
aa(lp3913
I390
ag22
ag13
aaasba(ihelper
PossibleWorld
p3914
(dp3915
g3
I391
sg4
I0
sg5
(lp3916
(lp3917
(lp3918
I391
ag9
ag18
aa(lp3919
I391
ag12
ag13
aa(lp3920
I391
ag15
ag29
aa(lp3921
I391
ag17
ag13
aa(lp3922
I391
ag20
ag29
aa(lp3923
I391
ag22
ag13
aaasba(ihelper
PossibleWorld
p3924
(dp3925
g3
I392
sg4
I0
sg5
(lp3926
(lp3927
(lp3928
I392
ag9
ag18
aa(lp3929
I392
ag12
ag13
aa(lp3930
I392
ag15
ag29
aa(lp3931
I392
ag17
ag18
aa(lp3932
I392
ag20
ag29
aa(lp3933
I392
ag22
ag13
aaasba(ihelper
PossibleWorld
p3934
(dp3935
g3
I393
sg4
I0
sg5
(lp3936
(lp3937
(lp3938
I393
ag12
ag13
aa(lp3939
I393
ag9
ag29
aa(lp3940
I393
ag15
ag29
aa(lp3941
I393
ag17
ag10
aa(lp3942
I393
ag20
ag29
aa(lp3943
I393
ag22
ag13
aaasba(ihelper
PossibleWorld
p3944
(dp3945
g3
I394
sg4
I0
sg5
(lp3946
(lp3947
(lp3948
I394
ag12
ag13
aa(lp3949
I394
ag9
ag29
aa(lp3950
I394
ag15
ag29
aa(lp3951
I394
ag17
ag18
aa(lp3952
I394
ag20
ag29
aa(lp3953
I394
ag22
ag13
aaasba(ihelper
PossibleWorld
p3954
(dp3955
g3
I395
sg4
I0
sg5
(lp3956
(lp3957
(lp3958
I395
ag12
ag13
aa(lp3959
I395
ag9
ag29
aa(lp3960
I395
ag15
ag29
aa(lp3961
I395
ag17
ag13
aa(lp3962
I395
ag20
ag29
aa(lp3963
I395
ag22
ag13
aaasba(ihelper
PossibleWorld
p3964
(dp3965
g3
I396
sg4
I0
sg5
(lp3966
(lp3967
(lp3968
I396
ag9
ag18
aa(lp3969
I396
ag12
ag13
aa(lp3970
I396
ag15
ag18
aa(lp3971
I396
ag17
ag10
aa(lp3972
I396
ag20
ag29
aa(lp3973
I396
ag22
ag13
aaasba(ihelper
PossibleWorld
p3974
(dp3975
g3
I397
sg4
I0
sg5
(lp3976
(lp3977
(lp3978
I397
ag9
ag18
aa(lp3979
I397
ag12
ag13
aa(lp3980
I397
ag15
ag18
aa(lp3981
I397
ag17
ag13
aa(lp3982
I397
ag20
ag29
aa(lp3983
I397
ag22
ag13
aaasba(ihelper
PossibleWorld
p3984
(dp3985
g3
I398
sg4
I0
sg5
(lp3986
(lp3987
(lp3988
I398
ag12
ag13
aa(lp3989
I398
ag9
ag29
aa(lp3990
I398
ag15
ag18
aa(lp3991
I398
ag17
ag10
aa(lp3992
I398
ag20
ag29
aa(lp3993
I398
ag22
ag13
aaasba(ihelper
PossibleWorld
p3994
(dp3995
g3
I399
sg4
I0
sg5
(lp3996
(lp3997
(lp3998
I399
ag12
ag13
aa(lp3999
I399
ag9
ag29
aa(lp4000
I399
ag15
ag18
aa(lp4001
I399
ag17
ag13
aa(lp4002
I399
ag20
ag29
aa(lp4003
I399
ag22
ag13
aaasba(ihelper
PossibleWorld
p4004
(dp4005
g3
I400
sg4
I0
sg5
(lp4006
(lp4007
(lp4008
I400
ag9
ag10
aa(lp4009
I400
ag12
ag13
aa(lp4010
I400
ag15
ag18
aa(lp4011
I400
ag17
ag10
aa(lp4012
I400
ag20
ag29
aa(lp4013
I400
ag22
ag13
aaasba(ihelper
PossibleWorld
p4014
(dp4015
g3
I401
sg4
I0
sg5
(lp4016
(lp4017
(lp4018
I401
ag9
ag10
aa(lp4019
I401
ag12
ag13
aa(lp4020
I401
ag15
ag10
aa(lp4021
I401
ag17
ag18
aa(lp4022
I401
ag20
ag29
aa(lp4023
I401
ag22
ag13
aaasba(ihelper
PossibleWorld
p4024
(dp4025
g3
I402
sg4
I0
sg5
(lp4026
(lp4027
(lp4028
I402
ag9
ag10
aa(lp4029
I402
ag12
ag13
aa(lp4030
I402
ag15
ag29
aa(lp4031
I402
ag17
ag10
aa(lp4032
I402
ag20
ag29
aa(lp4033
I402
ag22
ag13
aaasba(ihelper
PossibleWorld
p4034
(dp4035
g3
I403
sg4
I0
sg5
(lp4036
(lp4037
(lp4038
I403
ag9
ag10
aa(lp4039
I403
ag12
ag13
aa(lp4040
I403
ag15
ag29
aa(lp4041
I403
ag17
ag18
aa(lp4042
I403
ag20
ag29
aa(lp4043
I403
ag22
ag13
aaasba(ihelper
PossibleWorld
p4044
(dp4045
g3
I404
sg4
I0
sg5
(lp4046
(lp4047
(lp4048
I404
ag9
ag10
aa(lp4049
I404
ag12
ag13
aa(lp4050
I404
ag15
ag10
aa(lp4051
I404
ag17
ag13
aa(lp4052
I404
ag20
ag29
aa(lp4053
I404
ag22
ag13
aaasba(ihelper
PossibleWorld
p4054
(dp4055
g3
I405
sg4
I0
sg5
(lp4056
(lp4057
(lp4058
I405
ag9
ag10
aa(lp4059
I405
ag12
ag13
aa(lp4060
I405
ag15
ag18
aa(lp4061
I405
ag17
ag13
aa(lp4062
I405
ag20
ag29
aa(lp4063
I405
ag22
ag13
aaasba(ihelper
PossibleWorld
p4064
(dp4065
g3
I406
sg4
I0
sg5
(lp4066
(lp4067
(lp4068
I406
ag9
ag10
aa(lp4069
I406
ag12
ag13
aa(lp4070
I406
ag15
ag29
aa(lp4071
I406
ag17
ag13
aa(lp4072
I406
ag20
ag29
aa(lp4073
I406
ag22
ag13
aaasba(ihelper
PossibleWorld
p4074
(dp4075
g3
I407
sg4
I0
sg5
(lp4076
(lp4077
(lp4078
I407
ag9
ag18
aa(lp4079
I407
ag12
ag10
aa(lp4080
I407
ag15
ag29
aa(lp4081
I407
ag17
ag10
aa(lp4082
I407
ag20
ag18
aa(lp4083
I407
ag22
ag29
aaasba(ihelper
PossibleWorld
p4084
(dp4085
g3
I408
sg4
I0
sg5
(lp4086
(lp4087
(lp4088
I408
ag9
ag18
aa(lp4089
I408
ag12
ag10
aa(lp4090
I408
ag15
ag29
aa(lp4091
I408
ag17
ag10
aa(lp4092
I408
ag20
ag13
aa(lp4093
I408
ag22
ag29
aaasba(ihelper
PossibleWorld
p4094
(dp4095
g3
I409
sg4
I0
sg5
(lp4096
(lp4097
(lp4098
I409
ag12
ag10
aa(lp4099
I409
ag9
ag13
aa(lp4100
I409
ag15
ag29
aa(lp4101
I409
ag17
ag10
aa(lp4102
I409
ag20
ag18
aa(lp4103
I409
ag22
ag29
aaasba(ihelper
PossibleWorld
p4104
(dp4105
g3
I410
sg4
I0
sg5
(lp4106
(lp4107
(lp4108
I410
ag12
ag10
aa(lp4109
I410
ag9
ag13
aa(lp4110
I410
ag15
ag29
aa(lp4111
I410
ag17
ag10
aa(lp4112
I410
ag20
ag13
aa(lp4113
I410
ag22
ag29
aaasba(ihelper
PossibleWorld
p4114
(dp4115
g3
I411
sg4
I0
sg5
(lp4116
(lp4117
(lp4118
I411
ag9
ag18
aa(lp4119
I411
ag12
ag13
aa(lp4120
I411
ag15
ag10
aa(lp4121
I411
ag17
ag29
aa(lp4122
I411
ag20
ag18
aa(lp4123
I411
ag22
ag29
aaasba(ihelper
PossibleWorld
p4124
(dp4125
g3
I412
sg4
I0
sg5
(lp4126
(lp4127
(lp4128
I412
ag9
ag10
aa(lp4129
I412
ag12
ag13
aa(lp4130
I412
ag15
ag10
aa(lp4131
I412
ag17
ag29
aa(lp4132
I412
ag20
ag18
aa(lp4133
I412
ag22
ag29
aaasba(ihelper
PossibleWorld
p4134
(dp4135
g3
I413
sg4
I0
sg5
(lp4136
(lp4137
(lp4138
I413
ag9
ag18
aa(lp4139
I413
ag12
ag13
aa(lp4140
I413
ag15
ag29
aa(lp4141
I413
ag17
ag10
aa(lp4142
I413
ag20
ag18
aa(lp4143
I413
ag22
ag29
aaasba(ihelper
PossibleWorld
p4144
(dp4145
g3
I414
sg4
I0
sg5
(lp4146
(lp4147
(lp4148
I414
ag9
ag10
aa(lp4149
I414
ag12
ag13
aa(lp4150
I414
ag15
ag29
aa(lp4151
I414
ag17
ag10
aa(lp4152
I414
ag20
ag18
aa(lp4153
I414
ag22
ag29
aaasba(ihelper
PossibleWorld
p4154
(dp4155
g3
I415
sg4
I0
sg5
(lp4156
(lp4157
(lp4158
I415
ag9
ag18
aa(lp4159
I415
ag12
ag13
aa(lp4160
I415
ag15
ag10
aa(lp4161
I415
ag17
ag29
aa(lp4162
I415
ag20
ag13
aa(lp4163
I415
ag22
ag29
aaasba(ihelper
PossibleWorld
p4164
(dp4165
g3
I416
sg4
I0
sg5
(lp4166
(lp4167
(lp4168
I416
ag9
ag18
aa(lp4169
I416
ag12
ag13
aa(lp4170
I416
ag15
ag29
aa(lp4171
I416
ag17
ag10
aa(lp4172
I416
ag20
ag13
aa(lp4173
I416
ag22
ag29
aaasba(ihelper
PossibleWorld
p4174
(dp4175
g3
I417
sg4
I0
sg5
(lp4176
(lp4177
(lp4178
I417
ag9
ag10
aa(lp4179
I417
ag12
ag13
aa(lp4180
I417
ag15
ag10
aa(lp4181
I417
ag17
ag29
aa(lp4182
I417
ag20
ag13
aa(lp4183
I417
ag22
ag29
aaasba(ihelper
PossibleWorld
p4184
(dp4185
g3
I418
sg4
I0
sg5
(lp4186
(lp4187
(lp4188
I418
ag9
ag10
aa(lp4189
I418
ag12
ag13
aa(lp4190
I418
ag15
ag29
aa(lp4191
I418
ag17
ag10
aa(lp4192
I418
ag20
ag13
aa(lp4193
I418
ag22
ag29
aaasba(ihelper
PossibleWorld
p4194
(dp4195
g3
I419
sg4
I0
sg5
(lp4196
(lp4197
(lp4198
I419
ag9
ag18
aa(lp4199
I419
ag12
ag10
aa(lp4200
I419
ag15
ag13
aa(lp4201
I419
ag17
ag10
aa(lp4202
I419
ag20
ag18
aa(lp4203
I419
ag22
ag29
aaasba(ihelper
PossibleWorld
p4204
(dp4205
g3
I420
sg4
I0
sg5
(lp4206
(lp4207
(lp4208
I420
ag9
ag18
aa(lp4209
I420
ag12
ag10
aa(lp4210
I420
ag15
ag13
aa(lp4211
I420
ag17
ag29
aa(lp4212
I420
ag20
ag18
aa(lp4213
I420
ag22
ag29
aaasba(ihelper
PossibleWorld
p4214
(dp4215
g3
I421
sg4
I0
sg5
(lp4216
(lp4217
(lp4218
I421
ag12
ag10
aa(lp4219
I421
ag9
ag13
aa(lp4220
I421
ag15
ag13
aa(lp4221
I421
ag17
ag10
aa(lp4222
I421
ag20
ag18
aa(lp4223
I421
ag22
ag29
aaasba(ihelper
PossibleWorld
p4224
(dp4225
g3
I422
sg4
I0
sg5
(lp4226
(lp4227
(lp4228
I422
ag12
ag10
aa(lp4229
I422
ag9
ag13
aa(lp4230
I422
ag15
ag13
aa(lp4231
I422
ag17
ag29
aa(lp4232
I422
ag20
ag18
aa(lp4233
I422
ag22
ag29
aaasba(ihelper
PossibleWorld
p4234
(dp4235
g3
I423
sg4
I0
sg5
(lp4236
(lp4237
(lp4238
I423
ag9
ag18
aa(lp4239
I423
ag12
ag10
aa(lp4240
I423
ag15
ag13
aa(lp4241
I423
ag17
ag10
aa(lp4242
I423
ag20
ag13
aa(lp4243
I423
ag22
ag29
aaasba(ihelper
PossibleWorld
p4244
(dp4245
g3
I424
sg4
I0
sg5
(lp4246
(lp4247
(lp4248
I424
ag12
ag10
aa(lp4249
I424
ag9
ag13
aa(lp4250
I424
ag15
ag13
aa(lp4251
I424
ag17
ag10
aa(lp4252
I424
ag20
ag13
aa(lp4253
I424
ag22
ag29
aaasba(ihelper
PossibleWorld
p4254
(dp4255
g3
I425
sg4
I0
sg5
(lp4256
(lp4257
(lp4258
I425
ag9
ag18
aa(lp4259
I425
ag12
ag10
aa(lp4260
I425
ag15
ag13
aa(lp4261
I425
ag17
ag29
aa(lp4262
I425
ag20
ag13
aa(lp4263
I425
ag22
ag29
aaasba(ihelper
PossibleWorld
p4264
(dp4265
g3
I426
sg4
I0
sg5
(lp4266
(lp4267
(lp4268
I426
ag12
ag10
aa(lp4269
I426
ag9
ag13
aa(lp4270
I426
ag15
ag13
aa(lp4271
I426
ag17
ag29
aa(lp4272
I426
ag20
ag13
aa(lp4273
I426
ag22
ag29
aaasba(ihelper
PossibleWorld
p4274
(dp4275
g3
I427
sg4
I0
sg5
(lp4276
(lp4277
(lp4278
I427
ag9
ag18
aa(lp4279
I427
ag12
ag29
aa(lp4280
I427
ag15
ag13
aa(lp4281
I427
ag17
ag10
aa(lp4282
I427
ag20
ag18
aa(lp4283
I427
ag22
ag29
aaasba(ihelper
PossibleWorld
p4284
(dp4285
g3
I428
sg4
I0
sg5
(lp4286
(lp4287
(lp4288
I428
ag9
ag18
aa(lp4289
I428
ag12
ag29
aa(lp4290
I428
ag15
ag13
aa(lp4291
I428
ag17
ag29
aa(lp4292
I428
ag20
ag18
aa(lp4293
I428
ag22
ag29
aaasba(ihelper
PossibleWorld
p4294
(dp4295
g3
I429
sg4
I0
sg5
(lp4296
(lp4297
(lp4298
I429
ag9
ag18
aa(lp4299
I429
ag12
ag29
aa(lp4300
I429
ag15
ag10
aa(lp4301
I429
ag17
ag29
aa(lp4302
I429
ag20
ag18
aa(lp4303
I429
ag22
ag29
aaasba(ihelper
PossibleWorld
p4304
(dp4305
g3
I430
sg4
I0
sg5
(lp4306
(lp4307
(lp4308
I430
ag9
ag10
aa(lp4309
I430
ag12
ag29
aa(lp4310
I430
ag15
ag13
aa(lp4311
I430
ag17
ag10
aa(lp4312
I430
ag20
ag18
aa(lp4313
I430
ag22
ag29
aaasba(ihelper
PossibleWorld
p4314
(dp4315
g3
I431
sg4
I0
sg5
(lp4316
(lp4317
(lp4318
I431
ag9
ag10
aa(lp4319
I431
ag12
ag29
aa(lp4320
I431
ag15
ag10
aa(lp4321
I431
ag17
ag29
aa(lp4322
I431
ag20
ag18
aa(lp4323
I431
ag22
ag29
aaasba(ihelper
PossibleWorld
p4324
(dp4325
g3
I432
sg4
I0
sg5
(lp4326
(lp4327
(lp4328
I432
ag9
ag10
aa(lp4329
I432
ag12
ag29
aa(lp4330
I432
ag15
ag13
aa(lp4331
I432
ag17
ag29
aa(lp4332
I432
ag20
ag18
aa(lp4333
I432
ag22
ag29
aaasba(ihelper
PossibleWorld
p4334
(dp4335
g3
I433
sg4
I0
sg5
(lp4336
(lp4337
(lp4338
I433
ag9
ag18
aa(lp4339
I433
ag12
ag29
aa(lp4340
I433
ag15
ag10
aa(lp4341
I433
ag17
ag29
aa(lp4342
I433
ag20
ag13
aa(lp4343
I433
ag22
ag29
aaasba(ihelper
PossibleWorld
p4344
(dp4345
g3
I434
sg4
I0
sg5
(lp4346
(lp4347
(lp4348
I434
ag9
ag10
aa(lp4349
I434
ag12
ag29
aa(lp4350
I434
ag15
ag10
aa(lp4351
I434
ag17
ag29
aa(lp4352
I434
ag20
ag13
aa(lp4353
I434
ag22
ag29
aaasba(ihelper
PossibleWorld
p4354
(dp4355
g3
I435
sg4
I0
sg5
(lp4356
(lp4357
(lp4358
I435
ag9
ag18
aa(lp4359
I435
ag12
ag29
aa(lp4360
I435
ag15
ag13
aa(lp4361
I435
ag17
ag10
aa(lp4362
I435
ag20
ag13
aa(lp4363
I435
ag22
ag29
aaasba(ihelper
PossibleWorld
p4364
(dp4365
g3
I436
sg4
I0
sg5
(lp4366
(lp4367
(lp4368
I436
ag9
ag18
aa(lp4369
I436
ag12
ag29
aa(lp4370
I436
ag15
ag13
aa(lp4371
I436
ag17
ag29
aa(lp4372
I436
ag20
ag13
aa(lp4373
I436
ag22
ag29
aaasba(ihelper
PossibleWorld
p4374
(dp4375
g3
I437
sg4
I0
sg5
(lp4376
(lp4377
(lp4378
I437
ag9
ag10
aa(lp4379
I437
ag12
ag29
aa(lp4380
I437
ag15
ag13
aa(lp4381
I437
ag17
ag10
aa(lp4382
I437
ag20
ag13
aa(lp4383
I437
ag22
ag29
aaasba(ihelper
PossibleWorld
p4384
(dp4385
g3
I438
sg4
I0
sg5
(lp4386
(lp4387
(lp4388
I438
ag9
ag10
aa(lp4389
I438
ag12
ag29
aa(lp4390
I438
ag15
ag13
aa(lp4391
I438
ag17
ag29
aa(lp4392
I438
ag20
ag13
aa(lp4393
I438
ag22
ag29
aaasba(ihelper
PossibleWorld
p4394
(dp4395
g3
I439
sg4
I0
sg5
(lp4396
(lp4397
(lp4398
I439
ag9
ag13
aa(lp4399
I439
ag12
ag29
aa(lp4400
I439
ag15
ag13
aa(lp4401
I439
ag17
ag10
aa(lp4402
I439
ag20
ag18
aa(lp4403
I439
ag22
ag29
aaasba(ihelper
PossibleWorld
p4404
(dp4405
g3
I440
sg4
I0
sg5
(lp4406
(lp4407
(lp4408
I440
ag9
ag13
aa(lp4409
I440
ag12
ag29
aa(lp4410
I440
ag15
ag13
aa(lp4411
I440
ag17
ag10
aa(lp4412
I440
ag20
ag13
aa(lp4413
I440
ag22
ag29
aaasba(ihelper
PossibleWorld
p4414
(dp4415
g3
I441
sg4
I0
sg5
(lp4416
(lp4417
(lp4418
I441
ag9
ag13
aa(lp4419
I441
ag12
ag29
aa(lp4420
I441
ag15
ag10
aa(lp4421
I441
ag17
ag29
aa(lp4422
I441
ag20
ag18
aa(lp4423
I441
ag22
ag29
aaasba(ihelper
PossibleWorld
p4424
(dp4425
g3
I442
sg4
I0
sg5
(lp4426
(lp4427
(lp4428
I442
ag9
ag13
aa(lp4429
I442
ag12
ag29
aa(lp4430
I442
ag15
ag13
aa(lp4431
I442
ag17
ag29
aa(lp4432
I442
ag20
ag18
aa(lp4433
I442
ag22
ag29
aaasba(ihelper
PossibleWorld
p4434
(dp4435
g3
I443
sg4
I0
sg5
(lp4436
(lp4437
(lp4438
I443
ag9
ag13
aa(lp4439
I443
ag12
ag29
aa(lp4440
I443
ag15
ag10
aa(lp4441
I443
ag17
ag29
aa(lp4442
I443
ag20
ag13
aa(lp4443
I443
ag22
ag29
aaasba(ihelper
PossibleWorld
p4444
(dp4445
g3
I444
sg4
I0
sg5
(lp4446
(lp4447
(lp4448
I444
ag9
ag13
aa(lp4449
I444
ag12
ag29
aa(lp4450
I444
ag15
ag13
aa(lp4451
I444
ag17
ag29
aa(lp4452
I444
ag20
ag13
aa(lp4453
I444
ag22
ag29
aaasba(ihelper
PossibleWorld
p4454
(dp4455
g3
I445
sg4
I0
sg5
(lp4456
(lp4457
(lp4458
I445
ag9
ag18
aa(lp4459
I445
ag12
ag29
aa(lp4460
I445
ag15
ag10
aa(lp4461
I445
ag17
ag29
aa(lp4462
I445
ag20
ag10
aa(lp4463
I445
ag22
ag29
aaasba(ihelper
PossibleWorld
p4464
(dp4465
g3
I446
sg4
I0
sg5
(lp4466
(lp4467
(lp4468
I446
ag9
ag18
aa(lp4469
I446
ag12
ag13
aa(lp4470
I446
ag15
ag10
aa(lp4471
I446
ag17
ag29
aa(lp4472
I446
ag20
ag10
aa(lp4473
I446
ag22
ag29
aaasba(ihelper
PossibleWorld
p4474
(dp4475
g3
I447
sg4
I0
sg5
(lp4476
(lp4477
(lp4478
I447
ag9
ag13
aa(lp4479
I447
ag12
ag29
aa(lp4480
I447
ag15
ag10
aa(lp4481
I447
ag17
ag29
aa(lp4482
I447
ag20
ag10
aa(lp4483
I447
ag22
ag29
aaasba(ihelper
PossibleWorld
p4484
(dp4485
g3
I448
sg4
I0
sg5
(lp4486
(lp4487
(lp4488
I448
ag9
ag10
aa(lp4489
I448
ag12
ag29
aa(lp4490
I448
ag15
ag10
aa(lp4491
I448
ag17
ag29
aa(lp4492
I448
ag20
ag10
aa(lp4493
I448
ag22
ag29
aaasba(ihelper
PossibleWorld
p4494
(dp4495
g3
I449
sg4
I0
sg5
(lp4496
(lp4497
(lp4498
I449
ag9
ag10
aa(lp4499
I449
ag12
ag13
aa(lp4500
I449
ag15
ag10
aa(lp4501
I449
ag17
ag29
aa(lp4502
I449
ag20
ag10
aa(lp4503
I449
ag22
ag29
aaasba(ihelper
PossibleWorld
p4504
(dp4505
g3
I450
sg4
I0
sg5
(lp4506
(lp4507
(lp4508
I450
ag9
ag18
aa(lp4509
I450
ag12
ag10
aa(lp4510
I450
ag15
ag13
aa(lp4511
I450
ag17
ag29
aa(lp4512
I450
ag20
ag10
aa(lp4513
I450
ag22
ag29
aaasba(ihelper
PossibleWorld
p4514
(dp4515
g3
I451
sg4
I0
sg5
(lp4516
(lp4517
(lp4518
I451
ag9
ag18
aa(lp4519
I451
ag12
ag29
aa(lp4520
I451
ag15
ag13
aa(lp4521
I451
ag17
ag29
aa(lp4522
I451
ag20
ag10
aa(lp4523
I451
ag22
ag29
aaasba(ihelper
PossibleWorld
p4524
(dp4525
g3
I452
sg4
I0
sg5
(lp4526
(lp4527
(lp4528
I452
ag12
ag10
aa(lp4529
I452
ag9
ag13
aa(lp4530
I452
ag15
ag13
aa(lp4531
I452
ag17
ag29
aa(lp4532
I452
ag20
ag10
aa(lp4533
I452
ag22
ag29
aaasba(ihelper
PossibleWorld
p4534
(dp4535
g3
I453
sg4
I0
sg5
(lp4536
(lp4537
(lp4538
I453
ag9
ag13
aa(lp4539
I453
ag12
ag29
aa(lp4540
I453
ag15
ag13
aa(lp4541
I453
ag17
ag29
aa(lp4542
I453
ag20
ag10
aa(lp4543
I453
ag22
ag29
aaasba(ihelper
PossibleWorld
p4544
(dp4545
g3
I454
sg4
I0
sg5
(lp4546
(lp4547
(lp4548
I454
ag9
ag10
aa(lp4549
I454
ag12
ag29
aa(lp4550
I454
ag15
ag13
aa(lp4551
I454
ag17
ag29
aa(lp4552
I454
ag20
ag10
aa(lp4553
I454
ag22
ag29
aaasba(ihelper
PossibleWorld
p4554
(dp4555
g3
I455
sg4
I0
sg5
(lp4556
(lp4557
(lp4558
I455
ag9
ag18
aa(lp4559
I455
ag12
ag10
aa(lp4560
I455
ag15
ag29
aa(lp4561
I455
ag17
ag13
aa(lp4562
I455
ag20
ag18
aa(lp4563
I455
ag22
ag29
aaasba(ihelper
PossibleWorld
p4564
(dp4565
g3
I456
sg4
I0
sg5
(lp4566
(lp4567
(lp4568
I456
ag9
ag18
aa(lp4569
I456
ag12
ag10
aa(lp4570
I456
ag15
ag29
aa(lp4571
I456
ag17
ag13
aa(lp4572
I456
ag20
ag10
aa(lp4573
I456
ag22
ag29
aaasba(ihelper
PossibleWorld
p4574
(dp4575
g3
I457
sg4
I0
sg5
(lp4576
(lp4577
(lp4578
I457
ag12
ag10
aa(lp4579
I457
ag9
ag13
aa(lp4580
I457
ag15
ag29
aa(lp4581
I457
ag17
ag13
aa(lp4582
I457
ag20
ag18
aa(lp4583
I457
ag22
ag29
aaasba(ihelper
PossibleWorld
p4584
(dp4585
g3
I458
sg4
I0
sg5
(lp4586
(lp4587
(lp4588
I458
ag12
ag10
aa(lp4589
I458
ag9
ag13
aa(lp4590
I458
ag15
ag29
aa(lp4591
I458
ag17
ag13
aa(lp4592
I458
ag20
ag10
aa(lp4593
I458
ag22
ag29
aaasba(ihelper
PossibleWorld
p4594
(dp4595
g3
I459
sg4
I0
sg5
(lp4596
(lp4597
(lp4598
I459
ag9
ag18
aa(lp4599
I459
ag12
ag13
aa(lp4600
I459
ag15
ag10
aa(lp4601
I459
ag17
ag13
aa(lp4602
I459
ag20
ag18
aa(lp4603
I459
ag22
ag29
aaasba(ihelper
PossibleWorld
p4604
(dp4605
g3
I460
sg4
I0
sg5
(lp4606
(lp4607
(lp4608
I460
ag9
ag10
aa(lp4609
I460
ag12
ag13
aa(lp4610
I460
ag15
ag10
aa(lp4611
I460
ag17
ag13
aa(lp4612
I460
ag20
ag18
aa(lp4613
I460
ag22
ag29
aaasba(ihelper
PossibleWorld
p4614
(dp4615
g3
I461
sg4
I0
sg5
(lp4616
(lp4617
(lp4618
I461
ag9
ag18
aa(lp4619
I461
ag12
ag13
aa(lp4620
I461
ag15
ag29
aa(lp4621
I461
ag17
ag13
aa(lp4622
I461
ag20
ag18
aa(lp4623
I461
ag22
ag29
aaasba(ihelper
PossibleWorld
p4624
(dp4625
g3
I462
sg4
I0
sg5
(lp4626
(lp4627
(lp4628
I462
ag9
ag10
aa(lp4629
I462
ag12
ag13
aa(lp4630
I462
ag15
ag29
aa(lp4631
I462
ag17
ag13
aa(lp4632
I462
ag20
ag18
aa(lp4633
I462
ag22
ag29
aaasba(ihelper
PossibleWorld
p4634
(dp4635
g3
I463
sg4
I0
sg5
(lp4636
(lp4637
(lp4638
I463
ag9
ag18
aa(lp4639
I463
ag12
ag13
aa(lp4640
I463
ag15
ag10
aa(lp4641
I463
ag17
ag13
aa(lp4642
I463
ag20
ag10
aa(lp4643
I463
ag22
ag29
aaasba(ihelper
PossibleWorld
p4644
(dp4645
g3
I464
sg4
I0
sg5
(lp4646
(lp4647
(lp4648
I464
ag9
ag18
aa(lp4649
I464
ag12
ag13
aa(lp4650
I464
ag15
ag29
aa(lp4651
I464
ag17
ag13
aa(lp4652
I464
ag20
ag10
aa(lp4653
I464
ag22
ag29
aaasba(ihelper
PossibleWorld
p4654
(dp4655
g3
I465
sg4
I0
sg5
(lp4656
(lp4657
(lp4658
I465
ag9
ag10
aa(lp4659
I465
ag12
ag13
aa(lp4660
I465
ag15
ag10
aa(lp4661
I465
ag17
ag13
aa(lp4662
I465
ag20
ag10
aa(lp4663
I465
ag22
ag29
aaasba(ihelper
PossibleWorld
p4664
(dp4665
g3
I466
sg4
I0
sg5
(lp4666
(lp4667
(lp4668
I466
ag9
ag10
aa(lp4669
I466
ag12
ag13
aa(lp4670
I466
ag15
ag29
aa(lp4671
I466
ag17
ag13
aa(lp4672
I466
ag20
ag10
aa(lp4673
I466
ag22
ag29
aaasba(ihelper
PossibleWorld
p4674
(dp4675
g3
I467
sg4
I0
sg5
(lp4676
(lp4677
(lp4678
I467
ag9
ag18
aa(lp4679
I467
ag12
ag29
aa(lp4680
I467
ag15
ag10
aa(lp4681
I467
ag17
ag13
aa(lp4682
I467
ag20
ag18
aa(lp4683
I467
ag22
ag29
aaasba(ihelper
PossibleWorld
p4684
(dp4685
g3
I468
sg4
I0
sg5
(lp4686
(lp4687
(lp4688
I468
ag9
ag13
aa(lp4689
I468
ag12
ag29
aa(lp4690
I468
ag15
ag10
aa(lp4691
I468
ag17
ag13
aa(lp4692
I468
ag20
ag18
aa(lp4693
I468
ag22
ag29
aaasba(ihelper
PossibleWorld
p4694
(dp4695
g3
I469
sg4
I0
sg5
(lp4696
(lp4697
(lp4698
I469
ag9
ag10
aa(lp4699
I469
ag12
ag29
aa(lp4700
I469
ag15
ag10
aa(lp4701
I469
ag17
ag13
aa(lp4702
I469
ag20
ag18
aa(lp4703
I469
ag22
ag29
aaasba(ihelper
PossibleWorld
p4704
(dp4705
g3
I470
sg4
I0
sg5
(lp4706
(lp4707
(lp4708
I470
ag9
ag18
aa(lp4709
I470
ag12
ag29
aa(lp4710
I470
ag15
ag10
aa(lp4711
I470
ag17
ag13
aa(lp4712
I470
ag20
ag10
aa(lp4713
I470
ag22
ag29
aaasba(ihelper
PossibleWorld
p4714
(dp4715
g3
I471
sg4
I0
sg5
(lp4716
(lp4717
(lp4718
I471
ag9
ag10
aa(lp4719
I471
ag12
ag29
aa(lp4720
I471
ag15
ag10
aa(lp4721
I471
ag17
ag13
aa(lp4722
I471
ag20
ag10
aa(lp4723
I471
ag22
ag29
aaasba(ihelper
PossibleWorld
p4724
(dp4725
g3
I472
sg4
I0
sg5
(lp4726
(lp4727
(lp4728
I472
ag9
ag13
aa(lp4729
I472
ag12
ag29
aa(lp4730
I472
ag15
ag10
aa(lp4731
I472
ag17
ag13
aa(lp4732
I472
ag20
ag10
aa(lp4733
I472
ag22
ag29
aaasba(ihelper
PossibleWorld
p4734
(dp4735
g3
I473
sg4
I0
sg5
(lp4736
(lp4737
(lp4738
I473
ag9
ag18
aa(lp4739
I473
ag12
ag10
aa(lp4740
I473
ag15
ag13
aa(lp4741
I473
ag17
ag18
aa(lp4742
I473
ag20
ag13
aa(lp4743
I473
ag22
ag29
aaasba(ihelper
PossibleWorld
p4744
(dp4745
g3
I474
sg4
I0
sg5
(lp4746
(lp4747
(lp4748
I474
ag12
ag10
aa(lp4749
I474
ag9
ag13
aa(lp4750
I474
ag15
ag13
aa(lp4751
I474
ag17
ag18
aa(lp4752
I474
ag20
ag13
aa(lp4753
I474
ag22
ag29
aaasba(ihelper
PossibleWorld
p4754
(dp4755
g3
I475
sg4
I0
sg5
(lp4756
(lp4757
(lp4758
I475
ag9
ag18
aa(lp4759
I475
ag12
ag29
aa(lp4760
I475
ag15
ag10
aa(lp4761
I475
ag17
ag18
aa(lp4762
I475
ag20
ag13
aa(lp4763
I475
ag22
ag29
aaasba(ihelper
PossibleWorld
p4764
(dp4765
g3
I476
sg4
I0
sg5
(lp4766
(lp4767
(lp4768
I476
ag9
ag18
aa(lp4769
I476
ag12
ag29
aa(lp4770
I476
ag15
ag13
aa(lp4771
I476
ag17
ag18
aa(lp4772
I476
ag20
ag13
aa(lp4773
I476
ag22
ag29
aaasba(ihelper
PossibleWorld
p4774
(dp4775
g3
I477
sg4
I0
sg5
(lp4776
(lp4777
(lp4778
I477
ag9
ag13
aa(lp4779
I477
ag12
ag29
aa(lp4780
I477
ag15
ag10
aa(lp4781
I477
ag17
ag18
aa(lp4782
I477
ag20
ag13
aa(lp4783
I477
ag22
ag29
aaasba(ihelper
PossibleWorld
p4784
(dp4785
g3
I478
sg4
I0
sg5
(lp4786
(lp4787
(lp4788
I478
ag9
ag13
aa(lp4789
I478
ag12
ag29
aa(lp4790
I478
ag15
ag13
aa(lp4791
I478
ag17
ag18
aa(lp4792
I478
ag20
ag13
aa(lp4793
I478
ag22
ag29
aaasba(ihelper
PossibleWorld
p4794
(dp4795
g3
I479
sg4
I0
sg5
(lp4796
(lp4797
(lp4798
I479
ag9
ag18
aa(lp4799
I479
ag12
ag10
aa(lp4800
I479
ag15
ag29
aa(lp4801
I479
ag17
ag18
aa(lp4802
I479
ag20
ag13
aa(lp4803
I479
ag22
ag29
aaasba(ihelper
PossibleWorld
p4804
(dp4805
g3
I480
sg4
I0
sg5
(lp4806
(lp4807
(lp4808
I480
ag12
ag10
aa(lp4809
I480
ag9
ag13
aa(lp4810
I480
ag15
ag29
aa(lp4811
I480
ag17
ag18
aa(lp4812
I480
ag20
ag13
aa(lp4813
I480
ag22
ag29
aaasba(ihelper
PossibleWorld
p4814
(dp4815
g3
I481
sg4
I0
sg5
(lp4816
(lp4817
(lp4818
I481
ag9
ag18
aa(lp4819
I481
ag12
ag13
aa(lp4820
I481
ag15
ag10
aa(lp4821
I481
ag17
ag18
aa(lp4822
I481
ag20
ag13
aa(lp4823
I481
ag22
ag29
aaasba(ihelper
PossibleWorld
p4824
(dp4825
g3
I482
sg4
I0
sg5
(lp4826
(lp4827
(lp4828
I482
ag9
ag18
aa(lp4829
I482
ag12
ag13
aa(lp4830
I482
ag15
ag29
aa(lp4831
I482
ag17
ag18
aa(lp4832
I482
ag20
ag13
aa(lp4833
I482
ag22
ag29
aaasba(ihelper
PossibleWorld
p4834
(dp4835
g3
I483
sg4
I0
sg5
(lp4836
(lp4837
(lp4838
I483
ag9
ag18
aa(lp4839
I483
ag12
ag29
aa(lp4840
I483
ag15
ag10
aa(lp4841
I483
ag17
ag18
aa(lp4842
I483
ag20
ag10
aa(lp4843
I483
ag22
ag29
aaasba(ihelper
PossibleWorld
p4844
(dp4845
g3
I484
sg4
I0
sg5
(lp4846
(lp4847
(lp4848
I484
ag9
ag18
aa(lp4849
I484
ag12
ag13
aa(lp4850
I484
ag15
ag10
aa(lp4851
I484
ag17
ag18
aa(lp4852
I484
ag20
ag10
aa(lp4853
I484
ag22
ag29
aaasba(ihelper
PossibleWorld
p4854
(dp4855
g3
I485
sg4
I0
sg5
(lp4856
(lp4857
(lp4858
I485
ag9
ag13
aa(lp4859
I485
ag12
ag29
aa(lp4860
I485
ag15
ag10
aa(lp4861
I485
ag17
ag18
aa(lp4862
I485
ag20
ag10
aa(lp4863
I485
ag22
ag29
aaasba(ihelper
PossibleWorld
p4864
(dp4865
g3
I486
sg4
I0
sg5
(lp4866
(lp4867
(lp4868
I486
ag9
ag18
aa(lp4869
I486
ag12
ag10
aa(lp4870
I486
ag15
ag13
aa(lp4871
I486
ag17
ag18
aa(lp4872
I486
ag20
ag10
aa(lp4873
I486
ag22
ag29
aaasba(ihelper
PossibleWorld
p4874
(dp4875
g3
I487
sg4
I0
sg5
(lp4876
(lp4877
(lp4878
I487
ag9
ag18
aa(lp4879
I487
ag12
ag29
aa(lp4880
I487
ag15
ag13
aa(lp4881
I487
ag17
ag18
aa(lp4882
I487
ag20
ag10
aa(lp4883
I487
ag22
ag29
aaasba(ihelper
PossibleWorld
p4884
(dp4885
g3
I488
sg4
I0
sg5
(lp4886
(lp4887
(lp4888
I488
ag12
ag10
aa(lp4889
I488
ag9
ag13
aa(lp4890
I488
ag15
ag13
aa(lp4891
I488
ag17
ag18
aa(lp4892
I488
ag20
ag10
aa(lp4893
I488
ag22
ag29
aaasba(ihelper
PossibleWorld
p4894
(dp4895
g3
I489
sg4
I0
sg5
(lp4896
(lp4897
(lp4898
I489
ag9
ag13
aa(lp4899
I489
ag12
ag29
aa(lp4900
I489
ag15
ag13
aa(lp4901
I489
ag17
ag18
aa(lp4902
I489
ag20
ag10
aa(lp4903
I489
ag22
ag29
aaasba(ihelper
PossibleWorld
p4904
(dp4905
g3
I490
sg4
I0
sg5
(lp4906
(lp4907
(lp4908
I490
ag9
ag18
aa(lp4909
I490
ag12
ag10
aa(lp4910
I490
ag15
ag29
aa(lp4911
I490
ag17
ag18
aa(lp4912
I490
ag20
ag10
aa(lp4913
I490
ag22
ag29
aaasba(ihelper
PossibleWorld
p4914
(dp4915
g3
I491
sg4
I0
sg5
(lp4916
(lp4917
(lp4918
I491
ag12
ag10
aa(lp4919
I491
ag9
ag13
aa(lp4920
I491
ag15
ag29
aa(lp4921
I491
ag17
ag18
aa(lp4922
I491
ag20
ag10
aa(lp4923
I491
ag22
ag29
aaasba(ihelper
PossibleWorld
p4924
(dp4925
g3
I492
sg4
I0
sg5
(lp4926
(lp4927
(lp4928
I492
ag9
ag18
aa(lp4929
I492
ag12
ag13
aa(lp4930
I492
ag15
ag29
aa(lp4931
I492
ag17
ag18
aa(lp4932
I492
ag20
ag10
aa(lp4933
I492
ag22
ag29
aaasba(ihelper
PossibleWorld
p4934
(dp4935
g3
I493
sg4
I0
sg5
(lp4936
(lp4937
(lp4938
I493
ag9
ag10
aa(lp4939
I493
ag12
ag13
aa(lp4940
I493
ag15
ag10
aa(lp4941
I493
ag17
ag18
aa(lp4942
I493
ag20
ag13
aa(lp4943
I493
ag22
ag29
aaasba(ihelper
PossibleWorld
p4944
(dp4945
g3
I494
sg4
I0
sg5
(lp4946
(lp4947
(lp4948
I494
ag9
ag10
aa(lp4949
I494
ag12
ag13
aa(lp4950
I494
ag15
ag10
aa(lp4951
I494
ag17
ag18
aa(lp4952
I494
ag20
ag10
aa(lp4953
I494
ag22
ag29
aaasba(ihelper
PossibleWorld
p4954
(dp4955
g3
I495
sg4
I0
sg5
(lp4956
(lp4957
(lp4958
I495
ag9
ag10
aa(lp4959
I495
ag12
ag13
aa(lp4960
I495
ag15
ag29
aa(lp4961
I495
ag17
ag18
aa(lp4962
I495
ag20
ag13
aa(lp4963
I495
ag22
ag29
aaasba(ihelper
PossibleWorld
p4964
(dp4965
g3
I496
sg4
I0
sg5
(lp4966
(lp4967
(lp4968
I496
ag9
ag10
aa(lp4969
I496
ag12
ag13
aa(lp4970
I496
ag15
ag29
aa(lp4971
I496
ag17
ag18
aa(lp4972
I496
ag20
ag10
aa(lp4973
I496
ag22
ag29
aaasba(ihelper
PossibleWorld
p4974
(dp4975
g3
I497
sg4
I0
sg5
(lp4976
(lp4977
(lp4978
I497
ag9
ag10
aa(lp4979
I497
ag12
ag29
aa(lp4980
I497
ag15
ag10
aa(lp4981
I497
ag17
ag18
aa(lp4982
I497
ag20
ag13
aa(lp4983
I497
ag22
ag29
aaasba(ihelper
PossibleWorld
p4984
(dp4985
g3
I498
sg4
I0
sg5
(lp4986
(lp4987
(lp4988
I498
ag9
ag10
aa(lp4989
I498
ag12
ag29
aa(lp4990
I498
ag15
ag10
aa(lp4991
I498
ag17
ag18
aa(lp4992
I498
ag20
ag10
aa(lp4993
I498
ag22
ag29
aaasba(ihelper
PossibleWorld
p4994
(dp4995
g3
I499
sg4
I0
sg5
(lp4996
(lp4997
(lp4998
I499
ag9
ag10
aa(lp4999
I499
ag12
ag29
aa(lp5000
I499
ag15
ag13
aa(lp5001
I499
ag17
ag18
aa(lp5002
I499
ag20
ag13
aa(lp5003
I499
ag22
ag29
aaasba(ihelper
PossibleWorld
p5004
(dp5005
g3
I500
sg4
I0
sg5
(lp5006
(lp5007
(lp5008
I500
ag9
ag10
aa(lp5009
I500
ag12
ag29
aa(lp5010
I500
ag15
ag13
aa(lp5011
I500
ag17
ag18
aa(lp5012
I500
ag20
ag10
aa(lp5013
I500
ag22
ag29
aaasba(ihelper
PossibleWorld
p5014
(dp5015
g3
I501
sg4
I0
sg5
(lp5016
(lp5017
(lp5018
I501
ag9
ag18
aa(lp5019
I501
ag12
ag10
aa(lp5020
I501
ag15
ag18
aa(lp5021
I501
ag17
ag10
aa(lp5022
I501
ag20
ag18
aa(lp5023
I501
ag22
ag29
aaasba(ihelper
PossibleWorld
p5024
(dp5025
g3
I502
sg4
I0
sg5
(lp5026
(lp5027
(lp5028
I502
ag9
ag18
aa(lp5029
I502
ag12
ag10
aa(lp5030
I502
ag15
ag18
aa(lp5031
I502
ag17
ag29
aa(lp5032
I502
ag20
ag18
aa(lp5033
I502
ag22
ag29
aaasba(ihelper
PossibleWorld
p5034
(dp5035
g3
I503
sg4
I0
sg5
(lp5036
(lp5037
(lp5038
I503
ag9
ag18
aa(lp5039
I503
ag12
ag10
aa(lp5040
I503
ag15
ag18
aa(lp5041
I503
ag17
ag10
aa(lp5042
I503
ag20
ag13
aa(lp5043
I503
ag22
ag29
aaasba(ihelper
PossibleWorld
p5044
(dp5045
g3
I504
sg4
I0
sg5
(lp5046
(lp5047
(lp5048
I504
ag9
ag18
aa(lp5049
I504
ag12
ag10
aa(lp5050
I504
ag15
ag18
aa(lp5051
I504
ag17
ag29
aa(lp5052
I504
ag20
ag13
aa(lp5053
I504
ag22
ag29
aaasba(ihelper
PossibleWorld
p5054
(dp5055
g3
I505
sg4
I0
sg5
(lp5056
(lp5057
(lp5058
I505
ag9
ag18
aa(lp5059
I505
ag12
ag13
aa(lp5060
I505
ag15
ag18
aa(lp5061
I505
ag17
ag10
aa(lp5062
I505
ag20
ag18
aa(lp5063
I505
ag22
ag29
aaasba(ihelper
PossibleWorld
p5064
(dp5065
g3
I506
sg4
I0
sg5
(lp5066
(lp5067
(lp5068
I506
ag9
ag18
aa(lp5069
I506
ag12
ag13
aa(lp5070
I506
ag15
ag18
aa(lp5071
I506
ag17
ag10
aa(lp5072
I506
ag20
ag13
aa(lp5073
I506
ag22
ag29
aaasba(ihelper
PossibleWorld
p5074
(dp5075
g3
I507
sg4
I0
sg5
(lp5076
(lp5077
(lp5078
I507
ag9
ag18
aa(lp5079
I507
ag12
ag13
aa(lp5080
I507
ag15
ag18
aa(lp5081
I507
ag17
ag29
aa(lp5082
I507
ag20
ag18
aa(lp5083
I507
ag22
ag29
aaasba(ihelper
PossibleWorld
p5084
(dp5085
g3
I508
sg4
I0
sg5
(lp5086
(lp5087
(lp5088
I508
ag9
ag18
aa(lp5089
I508
ag12
ag13
aa(lp5090
I508
ag15
ag18
aa(lp5091
I508
ag17
ag29
aa(lp5092
I508
ag20
ag13
aa(lp5093
I508
ag22
ag29
aaasba(ihelper
PossibleWorld
p5094
(dp5095
g3
I509
sg4
I0
sg5
(lp5096
(lp5097
(lp5098
I509
ag9
ag10
aa(lp5099
I509
ag12
ag13
aa(lp5100
I509
ag15
ag18
aa(lp5101
I509
ag17
ag10
aa(lp5102
I509
ag20
ag18
aa(lp5103
I509
ag22
ag29
aaasba(ihelper
PossibleWorld
p5104
(dp5105
g3
I510
sg4
I0
sg5
(lp5106
(lp5107
(lp5108
I510
ag9
ag10
aa(lp5109
I510
ag12
ag13
aa(lp5110
I510
ag15
ag18
aa(lp5111
I510
ag17
ag29
aa(lp5112
I510
ag20
ag18
aa(lp5113
I510
ag22
ag29
aaasba(ihelper
PossibleWorld
p5114
(dp5115
g3
I511
sg4
I0
sg5
(lp5116
(lp5117
(lp5118
I511
ag9
ag10
aa(lp5119
I511
ag12
ag13
aa(lp5120
I511
ag15
ag18
aa(lp5121
I511
ag17
ag10
aa(lp5122
I511
ag20
ag13
aa(lp5123
I511
ag22
ag29
aaasba(ihelper
PossibleWorld
p5124
(dp5125
g3
I512
sg4
I0
sg5
(lp5126
(lp5127
(lp5128
I512
ag9
ag10
aa(lp5129
I512
ag12
ag13
aa(lp5130
I512
ag15
ag18
aa(lp5131
I512
ag17
ag29
aa(lp5132
I512
ag20
ag13
aa(lp5133
I512
ag22
ag29
aaasba(ihelper
PossibleWorld
p5134
(dp5135
g3
I513
sg4
I0
sg5
(lp5136
(lp5137
(lp5138
I513
ag9
ag18
aa(lp5139
I513
ag12
ag29
aa(lp5140
I513
ag15
ag18
aa(lp5141
I513
ag17
ag10
aa(lp5142
I513
ag20
ag18
aa(lp5143
I513
ag22
ag29
aaasba(ihelper
PossibleWorld
p5144
(dp5145
g3
I514
sg4
I0
sg5
(lp5146
(lp5147
(lp5148
I514
ag9
ag18
aa(lp5149
I514
ag12
ag29
aa(lp5150
I514
ag15
ag18
aa(lp5151
I514
ag17
ag10
aa(lp5152
I514
ag20
ag13
aa(lp5153
I514
ag22
ag29
aaasba(ihelper
PossibleWorld
p5154
(dp5155
g3
I515
sg4
I0
sg5
(lp5156
(lp5157
(lp5158
I515
ag9
ag10
aa(lp5159
I515
ag12
ag29
aa(lp5160
I515
ag15
ag18
aa(lp5161
I515
ag17
ag10
aa(lp5162
I515
ag20
ag18
aa(lp5163
I515
ag22
ag29
aaasba(ihelper
PossibleWorld
p5164
(dp5165
g3
I516
sg4
I0
sg5
(lp5166
(lp5167
(lp5168
I516
ag9
ag10
aa(lp5169
I516
ag12
ag29
aa(lp5170
I516
ag15
ag18
aa(lp5171
I516
ag17
ag10
aa(lp5172
I516
ag20
ag13
aa(lp5173
I516
ag22
ag29
aaasba(ihelper
PossibleWorld
p5174
(dp5175
g3
I517
sg4
I0
sg5
(lp5176
(lp5177
(lp5178
I517
ag9
ag18
aa(lp5179
I517
ag12
ag29
aa(lp5180
I517
ag15
ag18
aa(lp5181
I517
ag17
ag29
aa(lp5182
I517
ag20
ag18
aa(lp5183
I517
ag22
ag29
aaasba(ihelper
PossibleWorld
p5184
(dp5185
g3
I518
sg4
I0
sg5
(lp5186
(lp5187
(lp5188
I518
ag9
ag10
aa(lp5189
I518
ag12
ag29
aa(lp5190
I518
ag15
ag18
aa(lp5191
I518
ag17
ag29
aa(lp5192
I518
ag20
ag18
aa(lp5193
I518
ag22
ag29
aaasba(ihelper
PossibleWorld
p5194
(dp5195
g3
I519
sg4
I0
sg5
(lp5196
(lp5197
(lp5198
I519
ag9
ag18
aa(lp5199
I519
ag12
ag29
aa(lp5200
I519
ag15
ag18
aa(lp5201
I519
ag17
ag29
aa(lp5202
I519
ag20
ag13
aa(lp5203
I519
ag22
ag29
aaasba(ihelper
PossibleWorld
p5204
(dp5205
g3
I520
sg4
I0
sg5
(lp5206
(lp5207
(lp5208
I520
ag9
ag10
aa(lp5209
I520
ag12
ag29
aa(lp5210
I520
ag15
ag18
aa(lp5211
I520
ag17
ag29
aa(lp5212
I520
ag20
ag13
aa(lp5213
I520
ag22
ag29
aaasba(ihelper
PossibleWorld
p5214
(dp5215
g3
I521
sg4
I0
sg5
(lp5216
(lp5217
(lp5218
I521
ag9
ag18
aa(lp5219
I521
ag12
ag10
aa(lp5220
I521
ag15
ag18
aa(lp5221
I521
ag17
ag13
aa(lp5222
I521
ag20
ag18
aa(lp5223
I521
ag22
ag29
aaasba(ihelper
PossibleWorld
p5224
(dp5225
g3
I522
sg4
I0
sg5
(lp5226
(lp5227
(lp5228
I522
ag9
ag18
aa(lp5229
I522
ag12
ag29
aa(lp5230
I522
ag15
ag18
aa(lp5231
I522
ag17
ag13
aa(lp5232
I522
ag20
ag18
aa(lp5233
I522
ag22
ag29
aaasba(ihelper
PossibleWorld
p5234
(dp5235
g3
I523
sg4
I0
sg5
(lp5236
(lp5237
(lp5238
I523
ag9
ag18
aa(lp5239
I523
ag12
ag13
aa(lp5240
I523
ag15
ag18
aa(lp5241
I523
ag17
ag13
aa(lp5242
I523
ag20
ag18
aa(lp5243
I523
ag22
ag29
aaasba(ihelper
PossibleWorld
p5244
(dp5245
g3
I524
sg4
I0
sg5
(lp5246
(lp5247
(lp5248
I524
ag9
ag10
aa(lp5249
I524
ag12
ag13
aa(lp5250
I524
ag15
ag18
aa(lp5251
I524
ag17
ag13
aa(lp5252
I524
ag20
ag18
aa(lp5253
I524
ag22
ag29
aaasba(ihelper
PossibleWorld
p5254
(dp5255
g3
I525
sg4
I0
sg5
(lp5256
(lp5257
(lp5258
I525
ag9
ag10
aa(lp5259
I525
ag12
ag29
aa(lp5260
I525
ag15
ag18
aa(lp5261
I525
ag17
ag13
aa(lp5262
I525
ag20
ag18
aa(lp5263
I525
ag22
ag29
aaasba(ihelper
PossibleWorld
p5264
(dp5265
g3
I526
sg4
I0
sg5
(lp5266
(lp5267
(lp5268
I526
ag12
ag10
aa(lp5269
I526
ag9
ag13
aa(lp5270
I526
ag15
ag18
aa(lp5271
I526
ag17
ag10
aa(lp5272
I526
ag20
ag18
aa(lp5273
I526
ag22
ag29
aaasba(ihelper
PossibleWorld
p5274
(dp5275
g3
I527
sg4
I0
sg5
(lp5276
(lp5277
(lp5278
I527
ag12
ag10
aa(lp5279
I527
ag9
ag13
aa(lp5280
I527
ag15
ag18
aa(lp5281
I527
ag17
ag10
aa(lp5282
I527
ag20
ag13
aa(lp5283
I527
ag22
ag29
aaasba(ihelper
PossibleWorld
p5284
(dp5285
g3
I528
sg4
I0
sg5
(lp5286
(lp5287
(lp5288
I528
ag12
ag10
aa(lp5289
I528
ag9
ag13
aa(lp5290
I528
ag15
ag18
aa(lp5291
I528
ag17
ag13
aa(lp5292
I528
ag20
ag18
aa(lp5293
I528
ag22
ag29
aaasba(ihelper
PossibleWorld
p5294
(dp5295
g3
I529
sg4
I0
sg5
(lp5296
(lp5297
(lp5298
I529
ag12
ag10
aa(lp5299
I529
ag9
ag13
aa(lp5300
I529
ag15
ag18
aa(lp5301
I529
ag17
ag29
aa(lp5302
I529
ag20
ag18
aa(lp5303
I529
ag22
ag29
aaasba(ihelper
PossibleWorld
p5304
(dp5305
g3
I530
sg4
I0
sg5
(lp5306
(lp5307
(lp5308
I530
ag12
ag10
aa(lp5309
I530
ag9
ag13
aa(lp5310
I530
ag15
ag18
aa(lp5311
I530
ag17
ag29
aa(lp5312
I530
ag20
ag13
aa(lp5313
I530
ag22
ag29
aaasba(ihelper
PossibleWorld
p5314
(dp5315
g3
I531
sg4
I0
sg5
(lp5316
(lp5317
(lp5318
I531
ag9
ag13
aa(lp5319
I531
ag12
ag29
aa(lp5320
I531
ag15
ag18
aa(lp5321
I531
ag17
ag10
aa(lp5322
I531
ag20
ag18
aa(lp5323
I531
ag22
ag29
aaasba(ihelper
PossibleWorld
p5324
(dp5325
g3
I532
sg4
I0
sg5
(lp5326
(lp5327
(lp5328
I532
ag9
ag13
aa(lp5329
I532
ag12
ag29
aa(lp5330
I532
ag15
ag18
aa(lp5331
I532
ag17
ag13
aa(lp5332
I532
ag20
ag18
aa(lp5333
I532
ag22
ag29
aaasba(ihelper
PossibleWorld
p5334
(dp5335
g3
I533
sg4
I0
sg5
(lp5336
(lp5337
(lp5338
I533
ag9
ag13
aa(lp5339
I533
ag12
ag29
aa(lp5340
I533
ag15
ag18
aa(lp5341
I533
ag17
ag29
aa(lp5342
I533
ag20
ag18
aa(lp5343
I533
ag22
ag29
aaasba(ihelper
PossibleWorld
p5344
(dp5345
g3
I534
sg4
I0
sg5
(lp5346
(lp5347
(lp5348
I534
ag9
ag13
aa(lp5349
I534
ag12
ag29
aa(lp5350
I534
ag15
ag18
aa(lp5351
I534
ag17
ag10
aa(lp5352
I534
ag20
ag13
aa(lp5353
I534
ag22
ag29
aaasba(ihelper
PossibleWorld
p5354
(dp5355
g3
I535
sg4
I0
sg5
(lp5356
(lp5357
(lp5358
I535
ag9
ag13
aa(lp5359
I535
ag12
ag29
aa(lp5360
I535
ag15
ag18
aa(lp5361
I535
ag17
ag29
aa(lp5362
I535
ag20
ag13
aa(lp5363
I535
ag22
ag29
aaasba(ihelper
PossibleWorld
p5364
(dp5365
g3
I536
sg4
I0
sg5
(lp5366
(lp5367
(lp5368
I536
ag9
ag18
aa(lp5369
I536
ag12
ag10
aa(lp5370
I536
ag15
ag18
aa(lp5371
I536
ag17
ag13
aa(lp5372
I536
ag20
ag10
aa(lp5373
I536
ag22
ag29
aaasba(ihelper
PossibleWorld
p5374
(dp5375
g3
I537
sg4
I0
sg5
(lp5376
(lp5377
(lp5378
I537
ag12
ag10
aa(lp5379
I537
ag9
ag13
aa(lp5380
I537
ag15
ag18
aa(lp5381
I537
ag17
ag13
aa(lp5382
I537
ag20
ag10
aa(lp5383
I537
ag22
ag29
aaasba(ihelper
PossibleWorld
p5384
(dp5385
g3
I538
sg4
I0
sg5
(lp5386
(lp5387
(lp5388
I538
ag9
ag18
aa(lp5389
I538
ag12
ag13
aa(lp5390
I538
ag15
ag18
aa(lp5391
I538
ag17
ag13
aa(lp5392
I538
ag20
ag10
aa(lp5393
I538
ag22
ag29
aaasba(ihelper
PossibleWorld
p5394
(dp5395
g3
I539
sg4
I0
sg5
(lp5396
(lp5397
(lp5398
I539
ag9
ag10
aa(lp5399
I539
ag12
ag13
aa(lp5400
I539
ag15
ag18
aa(lp5401
I539
ag17
ag13
aa(lp5402
I539
ag20
ag10
aa(lp5403
I539
ag22
ag29
aaasba(ihelper
PossibleWorld
p5404
(dp5405
g3
I540
sg4
I0
sg5
(lp5406
(lp5407
(lp5408
I540
ag9
ag18
aa(lp5409
I540
ag12
ag29
aa(lp5410
I540
ag15
ag18
aa(lp5411
I540
ag17
ag13
aa(lp5412
I540
ag20
ag10
aa(lp5413
I540
ag22
ag29
aaasba(ihelper
PossibleWorld
p5414
(dp5415
g3
I541
sg4
I0
sg5
(lp5416
(lp5417
(lp5418
I541
ag9
ag10
aa(lp5419
I541
ag12
ag29
aa(lp5420
I541
ag15
ag18
aa(lp5421
I541
ag17
ag13
aa(lp5422
I541
ag20
ag10
aa(lp5423
I541
ag22
ag29
aaasba(ihelper
PossibleWorld
p5424
(dp5425
g3
I542
sg4
I0
sg5
(lp5426
(lp5427
(lp5428
I542
ag9
ag13
aa(lp5429
I542
ag12
ag29
aa(lp5430
I542
ag15
ag18
aa(lp5431
I542
ag17
ag13
aa(lp5432
I542
ag20
ag10
aa(lp5433
I542
ag22
ag29
aaasba(ihelper
PossibleWorld
p5434
(dp5435
g3
I543
sg4
I0
sg5
(lp5436
(lp5437
(lp5438
I543
ag9
ag18
aa(lp5439
I543
ag12
ag10
aa(lp5440
I543
ag15
ag18
aa(lp5441
I543
ag17
ag29
aa(lp5442
I543
ag20
ag10
aa(lp5443
I543
ag22
ag29
aaasba(ihelper
PossibleWorld
p5444
(dp5445
g3
I544
sg4
I0
sg5
(lp5446
(lp5447
(lp5448
I544
ag9
ag18
aa(lp5449
I544
ag12
ag13
aa(lp5450
I544
ag15
ag18
aa(lp5451
I544
ag17
ag29
aa(lp5452
I544
ag20
ag10
aa(lp5453
I544
ag22
ag29
aaasba(ihelper
PossibleWorld
p5454
(dp5455
g3
I545
sg4
I0
sg5
(lp5456
(lp5457
(lp5458
I545
ag12
ag10
aa(lp5459
I545
ag9
ag13
aa(lp5460
I545
ag15
ag18
aa(lp5461
I545
ag17
ag29
aa(lp5462
I545
ag20
ag10
aa(lp5463
I545
ag22
ag29
aaasba(ihelper
PossibleWorld
p5464
(dp5465
g3
I546
sg4
I0
sg5
(lp5466
(lp5467
(lp5468
I546
ag9
ag18
aa(lp5469
I546
ag12
ag29
aa(lp5470
I546
ag15
ag18
aa(lp5471
I546
ag17
ag29
aa(lp5472
I546
ag20
ag10
aa(lp5473
I546
ag22
ag29
aaasba(ihelper
PossibleWorld
p5474
(dp5475
g3
I547
sg4
I0
sg5
(lp5476
(lp5477
(lp5478
I547
ag9
ag13
aa(lp5479
I547
ag12
ag29
aa(lp5480
I547
ag15
ag18
aa(lp5481
I547
ag17
ag29
aa(lp5482
I547
ag20
ag10
aa(lp5483
I547
ag22
ag29
aaasba(ihelper
PossibleWorld
p5484
(dp5485
g3
I548
sg4
I0
sg5
(lp5486
(lp5487
(lp5488
I548
ag9
ag10
aa(lp5489
I548
ag12
ag29
aa(lp5490
I548
ag15
ag18
aa(lp5491
I548
ag17
ag29
aa(lp5492
I548
ag20
ag10
aa(lp5493
I548
ag22
ag29
aaasba(ihelper
PossibleWorld
p5494
(dp5495
g3
I549
sg4
I0
sg5
(lp5496
(lp5497
(lp5498
I549
ag9
ag10
aa(lp5499
I549
ag12
ag13
aa(lp5500
I549
ag15
ag18
aa(lp5501
I549
ag17
ag29
aa(lp5502
I549
ag20
ag10
aa(lp5503
I549
ag22
ag29
aaasba(ihelper
PossibleWorld
p5504
(dp5505
g3
I550
sg4
I0
sg5
(lp5506
(lp5507
(lp5508
I550
ag12
ag18
aa(lp5509
I550
ag9
ag10
aa(lp5510
I550
ag15
ag10
aa(lp5511
I550
ag17
ag13
aa(lp5512
I550
ag20
ag18
aa(lp5513
I550
ag22
ag29
aaasba(ihelper
PossibleWorld
p5514
(dp5515
g3
I551
sg4
I0
sg5
(lp5516
(lp5517
(lp5518
I551
ag12
ag18
aa(lp5519
I551
ag9
ag10
aa(lp5520
I551
ag15
ag10
aa(lp5521
I551
ag17
ag13
aa(lp5522
I551
ag20
ag10
aa(lp5523
I551
ag22
ag29
aaasba(ihelper
PossibleWorld
p5524
(dp5525
g3
I552
sg4
I0
sg5
(lp5526
(lp5527
(lp5528
I552
ag12
ag18
aa(lp5529
I552
ag9
ag10
aa(lp5530
I552
ag15
ag13
aa(lp5531
I552
ag17
ag10
aa(lp5532
I552
ag20
ag13
aa(lp5533
I552
ag22
ag29
aaasba(ihelper
PossibleWorld
p5534
(dp5535
g3
I553
sg4
I0
sg5
(lp5536
(lp5537
(lp5538
I553
ag12
ag18
aa(lp5539
I553
ag9
ag10
aa(lp5540
I553
ag15
ag13
aa(lp5541
I553
ag17
ag10
aa(lp5542
I553
ag20
ag18
aa(lp5543
I553
ag22
ag29
aaasba(ihelper
PossibleWorld
p5544
(dp5545
g3
I554
sg4
I0
sg5
(lp5546
(lp5547
(lp5548
I554
ag12
ag18
aa(lp5549
I554
ag9
ag13
aa(lp5550
I554
ag15
ag13
aa(lp5551
I554
ag17
ag10
aa(lp5552
I554
ag20
ag13
aa(lp5553
I554
ag22
ag29
aaasba(ihelper
PossibleWorld
p5554
(dp5555
g3
I555
sg4
I0
sg5
(lp5556
(lp5557
(lp5558
I555
ag12
ag18
aa(lp5559
I555
ag9
ag13
aa(lp5560
I555
ag15
ag10
aa(lp5561
I555
ag17
ag13
aa(lp5562
I555
ag20
ag10
aa(lp5563
I555
ag22
ag29
aaasba(ihelper
PossibleWorld
p5564
(dp5565
g3
I556
sg4
I0
sg5
(lp5566
(lp5567
(lp5568
I556
ag12
ag18
aa(lp5569
I556
ag9
ag13
aa(lp5570
I556
ag15
ag10
aa(lp5571
I556
ag17
ag13
aa(lp5572
I556
ag20
ag18
aa(lp5573
I556
ag22
ag29
aaasba(ihelper
PossibleWorld
p5574
(dp5575
g3
I557
sg4
I0
sg5
(lp5576
(lp5577
(lp5578
I557
ag12
ag18
aa(lp5579
I557
ag9
ag13
aa(lp5580
I557
ag15
ag13
aa(lp5581
I557
ag17
ag10
aa(lp5582
I557
ag20
ag18
aa(lp5583
I557
ag22
ag29
aaasba(ihelper
PossibleWorld
p5584
(dp5585
g3
I558
sg4
I0
sg5
(lp5586
(lp5587
(lp5588
I558
ag12
ag18
aa(lp5589
I558
ag9
ag13
aa(lp5590
I558
ag15
ag10
aa(lp5591
I558
ag17
ag13
aa(lp5592
I558
ag20
ag29
aa(lp5593
I558
ag22
ag18
aaasba(ihelper
PossibleWorld
p5594
(dp5595
g3
I559
sg4
I0
sg5
(lp5596
(lp5597
(lp5598
I559
ag12
ag18
aa(lp5599
I559
ag9
ag10
aa(lp5600
I559
ag15
ag10
aa(lp5601
I559
ag17
ag13
aa(lp5602
I559
ag20
ag29
aa(lp5603
I559
ag22
ag18
aaasba(ihelper
PossibleWorld
p5604
(dp5605
g3
I560
sg4
I0
sg5
(lp5606
(lp5607
(lp5608
I560
ag12
ag18
aa(lp5609
I560
ag9
ag29
aa(lp5610
I560
ag15
ag10
aa(lp5611
I560
ag17
ag13
aa(lp5612
I560
ag20
ag29
aa(lp5613
I560
ag22
ag18
aaasba(ihelper
PossibleWorld
p5614
(dp5615
g3
I561
sg4
I0
sg5
(lp5616
(lp5617
(lp5618
I561
ag12
ag18
aa(lp5619
I561
ag9
ag13
aa(lp5620
I561
ag15
ag10
aa(lp5621
I561
ag17
ag13
aa(lp5622
I561
ag20
ag10
aa(lp5623
I561
ag22
ag18
aaasba(ihelper
PossibleWorld
p5624
(dp5625
g3
I562
sg4
I0
sg5
(lp5626
(lp5627
(lp5628
I562
ag12
ag18
aa(lp5629
I562
ag9
ag29
aa(lp5630
I562
ag15
ag10
aa(lp5631
I562
ag17
ag13
aa(lp5632
I562
ag20
ag10
aa(lp5633
I562
ag22
ag18
aaasba(ihelper
PossibleWorld
p5634
(dp5635
g3
I563
sg4
I0
sg5
(lp5636
(lp5637
(lp5638
I563
ag12
ag18
aa(lp5639
I563
ag9
ag10
aa(lp5640
I563
ag15
ag10
aa(lp5641
I563
ag17
ag13
aa(lp5642
I563
ag20
ag10
aa(lp5643
I563
ag22
ag18
aaasba(ihelper
PossibleWorld
p5644
(dp5645
g3
I564
sg4
I0
sg5
(lp5646
(lp5647
(lp5648
I564
ag12
ag18
aa(lp5649
I564
ag9
ag13
aa(lp5650
I564
ag15
ag13
aa(lp5651
I564
ag17
ag10
aa(lp5652
I564
ag20
ag13
aa(lp5653
I564
ag22
ag18
aaasba(ihelper
PossibleWorld
p5654
(dp5655
g3
I565
sg4
I0
sg5
(lp5656
(lp5657
(lp5658
I565
ag12
ag18
aa(lp5659
I565
ag9
ag10
aa(lp5660
I565
ag15
ag13
aa(lp5661
I565
ag17
ag10
aa(lp5662
I565
ag20
ag13
aa(lp5663
I565
ag22
ag18
aaasba(ihelper
PossibleWorld
p5664
(dp5665
g3
I566
sg4
I0
sg5
(lp5666
(lp5667
(lp5668
I566
ag12
ag18
aa(lp5669
I566
ag9
ag13
aa(lp5670
I566
ag15
ag13
aa(lp5671
I566
ag17
ag10
aa(lp5672
I566
ag20
ag29
aa(lp5673
I566
ag22
ag18
aaasba(ihelper
PossibleWorld
p5674
(dp5675
g3
I567
sg4
I0
sg5
(lp5676
(lp5677
(lp5678
I567
ag12
ag18
aa(lp5679
I567
ag9
ag10
aa(lp5680
I567
ag15
ag13
aa(lp5681
I567
ag17
ag10
aa(lp5682
I567
ag20
ag29
aa(lp5683
I567
ag22
ag18
aaasba(ihelper
PossibleWorld
p5684
(dp5685
g3
I568
sg4
I0
sg5
(lp5686
(lp5687
(lp5688
I568
ag12
ag18
aa(lp5689
I568
ag9
ag29
aa(lp5690
I568
ag15
ag13
aa(lp5691
I568
ag17
ag10
aa(lp5692
I568
ag20
ag13
aa(lp5693
I568
ag22
ag18
aaasba(ihelper
PossibleWorld
p5694
(dp5695
g3
I569
sg4
I0
sg5
(lp5696
(lp5697
(lp5698
I569
ag12
ag18
aa(lp5699
I569
ag9
ag29
aa(lp5700
I569
ag15
ag13
aa(lp5701
I569
ag17
ag10
aa(lp5702
I569
ag20
ag29
aa(lp5703
I569
ag22
ag18
aaasba(ihelper
PossibleWorld
p5704
(dp5705
g3
I570
sg4
I0
sg5
(lp5706
(lp5707
(lp5708
I570
ag12
ag18
aa(lp5709
I570
ag9
ag13
aa(lp5710
I570
ag15
ag10
aa(lp5711
I570
ag17
ag13
aa(lp5712
I570
ag20
ag18
aa(lp5713
I570
ag22
ag10
aaasba(ihelper
PossibleWorld
p5714
(dp5715
g3
I571
sg4
I0
sg5
(lp5716
(lp5717
(lp5718
I571
ag12
ag18
aa(lp5719
I571
ag9
ag13
aa(lp5720
I571
ag15
ag13
aa(lp5721
I571
ag17
ag10
aa(lp5722
I571
ag20
ag13
aa(lp5723
I571
ag22
ag10
aaasba(ihelper
PossibleWorld
p5724
(dp5725
g3
I572
sg4
I0
sg5
(lp5726
(lp5727
(lp5728
I572
ag12
ag18
aa(lp5729
I572
ag9
ag13
aa(lp5730
I572
ag15
ag13
aa(lp5731
I572
ag17
ag10
aa(lp5732
I572
ag20
ag18
aa(lp5733
I572
ag22
ag10
aaasba(ihelper
PossibleWorld
p5734
(dp5735
g3
I573
sg4
I0
sg5
(lp5736
(lp5737
(lp5738
I573
ag12
ag18
aa(lp5739
I573
ag9
ag29
aa(lp5740
I573
ag15
ag13
aa(lp5741
I573
ag17
ag10
aa(lp5742
I573
ag20
ag13
aa(lp5743
I573
ag22
ag10
aaasba(ihelper
PossibleWorld
p5744
(dp5745
g3
I574
sg4
I0
sg5
(lp5746
(lp5747
(lp5748
I574
ag12
ag18
aa(lp5749
I574
ag9
ag29
aa(lp5750
I574
ag15
ag10
aa(lp5751
I574
ag17
ag13
aa(lp5752
I574
ag20
ag18
aa(lp5753
I574
ag22
ag10
aaasba(ihelper
PossibleWorld
p5754
(dp5755
g3
I575
sg4
I0
sg5
(lp5756
(lp5757
(lp5758
I575
ag12
ag18
aa(lp5759
I575
ag9
ag29
aa(lp5760
I575
ag15
ag13
aa(lp5761
I575
ag17
ag10
aa(lp5762
I575
ag20
ag18
aa(lp5763
I575
ag22
ag10
aaasba(ihelper
PossibleWorld
p5764
(dp5765
g3
I576
sg4
I0
sg5
(lp5766
(lp5767
(lp5768
I576
ag12
ag18
aa(lp5769
I576
ag9
ag13
aa(lp5770
I576
ag15
ag10
aa(lp5771
I576
ag17
ag13
aa(lp5772
I576
ag20
ag29
aa(lp5773
I576
ag22
ag10
aaasba(ihelper
PossibleWorld
p5774
(dp5775
g3
I577
sg4
I0
sg5
(lp5776
(lp5777
(lp5778
I577
ag12
ag18
aa(lp5779
I577
ag9
ag29
aa(lp5780
I577
ag15
ag10
aa(lp5781
I577
ag17
ag13
aa(lp5782
I577
ag20
ag29
aa(lp5783
I577
ag22
ag10
aaasba(ihelper
PossibleWorld
p5784
(dp5785
g3
I578
sg4
I0
sg5
(lp5786
(lp5787
(lp5788
I578
ag12
ag18
aa(lp5789
I578
ag9
ag13
aa(lp5790
I578
ag15
ag13
aa(lp5791
I578
ag17
ag10
aa(lp5792
I578
ag20
ag29
aa(lp5793
I578
ag22
ag10
aaasba(ihelper
PossibleWorld
p5794
(dp5795
g3
I579
sg4
I0
sg5
(lp5796
(lp5797
(lp5798
I579
ag12
ag18
aa(lp5799
I579
ag9
ag29
aa(lp5800
I579
ag15
ag13
aa(lp5801
I579
ag17
ag10
aa(lp5802
I579
ag20
ag29
aa(lp5803
I579
ag22
ag10
aaasba(ihelper
PossibleWorld
p5804
(dp5805
g3
I580
sg4
I0
sg5
(lp5806
(lp5807
(lp5808
I580
ag12
ag18
aa(lp5809
I580
ag9
ag10
aa(lp5810
I580
ag15
ag10
aa(lp5811
I580
ag17
ag13
aa(lp5812
I580
ag20
ag10
aa(lp5813
I580
ag22
ag13
aaasba(ihelper
PossibleWorld
p5814
(dp5815
g3
I581
sg4
I0
sg5
(lp5816
(lp5817
(lp5818
I581
ag12
ag18
aa(lp5819
I581
ag9
ag10
aa(lp5820
I581
ag15
ag13
aa(lp5821
I581
ag17
ag10
aa(lp5822
I581
ag20
ag29
aa(lp5823
I581
ag22
ag13
aaasba(ihelper
PossibleWorld
p5824
(dp5825
g3
I582
sg4
I0
sg5
(lp5826
(lp5827
(lp5828
I582
ag12
ag18
aa(lp5829
I582
ag9
ag10
aa(lp5830
I582
ag15
ag10
aa(lp5831
I582
ag17
ag13
aa(lp5832
I582
ag20
ag29
aa(lp5833
I582
ag22
ag13
aaasba(ihelper
PossibleWorld
p5834
(dp5835
g3
I583
sg4
I0
sg5
(lp5836
(lp5837
(lp5838
I583
ag12
ag18
aa(lp5839
I583
ag9
ag10
aa(lp5840
I583
ag15
ag13
aa(lp5841
I583
ag17
ag10
aa(lp5842
I583
ag20
ag18
aa(lp5843
I583
ag22
ag13
aaasba(ihelper
PossibleWorld
p5844
(dp5845
g3
I584
sg4
I0
sg5
(lp5846
(lp5847
(lp5848
I584
ag12
ag18
aa(lp5849
I584
ag9
ag10
aa(lp5850
I584
ag15
ag10
aa(lp5851
I584
ag17
ag13
aa(lp5852
I584
ag20
ag18
aa(lp5853
I584
ag22
ag13
aaasba(ihelper
PossibleWorld
p5854
(dp5855
g3
I585
sg4
I0
sg5
(lp5856
(lp5857
(lp5858
I585
ag12
ag18
aa(lp5859
I585
ag9
ag29
aa(lp5860
I585
ag15
ag13
aa(lp5861
I585
ag17
ag10
aa(lp5862
I585
ag20
ag18
aa(lp5863
I585
ag22
ag13
aaasba(ihelper
PossibleWorld
p5864
(dp5865
g3
I586
sg4
I0
sg5
(lp5866
(lp5867
(lp5868
I586
ag12
ag18
aa(lp5869
I586
ag9
ag29
aa(lp5870
I586
ag15
ag13
aa(lp5871
I586
ag17
ag10
aa(lp5872
I586
ag20
ag29
aa(lp5873
I586
ag22
ag13
aaasba(ihelper
PossibleWorld
p5874
(dp5875
g3
I587
sg4
I0
sg5
(lp5876
(lp5877
(lp5878
I587
ag12
ag18
aa(lp5879
I587
ag9
ag29
aa(lp5880
I587
ag15
ag10
aa(lp5881
I587
ag17
ag13
aa(lp5882
I587
ag20
ag18
aa(lp5883
I587
ag22
ag13
aaasba(ihelper
PossibleWorld
p5884
(dp5885
g3
I588
sg4
I0
sg5
(lp5886
(lp5887
(lp5888
I588
ag12
ag18
aa(lp5889
I588
ag9
ag29
aa(lp5890
I588
ag15
ag10
aa(lp5891
I588
ag17
ag13
aa(lp5892
I588
ag20
ag10
aa(lp5893
I588
ag22
ag13
aaasba(ihelper
PossibleWorld
p5894
(dp5895
g3
I589
sg4
I0
sg5
(lp5896
(lp5897
(lp5898
I589
ag12
ag18
aa(lp5899
I589
ag9
ag29
aa(lp5900
I589
ag15
ag10
aa(lp5901
I589
ag17
ag13
aa(lp5902
I589
ag20
ag29
aa(lp5903
I589
ag22
ag13
aaasba(ihelper
PossibleWorld
p5904
(dp5905
g3
I590
sg4
I0
sg5
(lp5906
(lp5907
(lp5908
I590
ag12
ag18
aa(lp5909
I590
ag9
ag13
aa(lp5910
I590
ag15
ag13
aa(lp5911
I590
ag17
ag29
aa(lp5912
I590
ag20
ag13
aa(lp5913
I590
ag22
ag10
aaasba(ihelper
PossibleWorld
p5914
(dp5915
g3
I591
sg4
I0
sg5
(lp5916
(lp5917
(lp5918
I591
ag12
ag18
aa(lp5919
I591
ag9
ag13
aa(lp5920
I591
ag15
ag13
aa(lp5921
I591
ag17
ag29
aa(lp5922
I591
ag20
ag13
aa(lp5923
I591
ag22
ag18
aaasba(ihelper
PossibleWorld
p5924
(dp5925
g3
I592
sg4
I0
sg5
(lp5926
(lp5927
(lp5928
I592
ag12
ag18
aa(lp5929
I592
ag9
ag13
aa(lp5930
I592
ag15
ag13
aa(lp5931
I592
ag17
ag29
aa(lp5932
I592
ag20
ag18
aa(lp5933
I592
ag22
ag10
aaasba(ihelper
PossibleWorld
p5934
(dp5935
g3
I593
sg4
I0
sg5
(lp5936
(lp5937
(lp5938
I593
ag12
ag18
aa(lp5939
I593
ag9
ag13
aa(lp5940
I593
ag15
ag10
aa(lp5941
I593
ag17
ag29
aa(lp5942
I593
ag20
ag13
aa(lp5943
I593
ag22
ag10
aaasba(ihelper
PossibleWorld
p5944
(dp5945
g3
I594
sg4
I0
sg5
(lp5946
(lp5947
(lp5948
I594
ag12
ag18
aa(lp5949
I594
ag9
ag13
aa(lp5950
I594
ag15
ag10
aa(lp5951
I594
ag17
ag29
aa(lp5952
I594
ag20
ag18
aa(lp5953
I594
ag22
ag10
aaasba(ihelper
PossibleWorld
p5954
(dp5955
g3
I595
sg4
I0
sg5
(lp5956
(lp5957
(lp5958
I595
ag12
ag18
aa(lp5959
I595
ag9
ag13
aa(lp5960
I595
ag15
ag10
aa(lp5961
I595
ag17
ag29
aa(lp5962
I595
ag20
ag13
aa(lp5963
I595
ag22
ag18
aaasba(ihelper
PossibleWorld
p5964
(dp5965
g3
I596
sg4
I0
sg5
(lp5966
(lp5967
(lp5968
I596
ag12
ag18
aa(lp5969
I596
ag9
ag13
aa(lp5970
I596
ag15
ag10
aa(lp5971
I596
ag17
ag29
aa(lp5972
I596
ag20
ag13
aa(lp5973
I596
ag22
ag29
aaasba(ihelper
PossibleWorld
p5974
(dp5975
g3
I597
sg4
I0
sg5
(lp5976
(lp5977
(lp5978
I597
ag12
ag18
aa(lp5979
I597
ag9
ag13
aa(lp5980
I597
ag15
ag13
aa(lp5981
I597
ag17
ag29
aa(lp5982
I597
ag20
ag13
aa(lp5983
I597
ag22
ag29
aaasba(ihelper
PossibleWorld
p5984
(dp5985
g3
I598
sg4
I0
sg5
(lp5986
(lp5987
(lp5988
I598
ag12
ag18
aa(lp5989
I598
ag9
ag13
aa(lp5990
I598
ag15
ag10
aa(lp5991
I598
ag17
ag29
aa(lp5992
I598
ag20
ag18
aa(lp5993
I598
ag22
ag29
aaasba(ihelper
PossibleWorld
p5994
(dp5995
g3
I599
sg4
I0
sg5
(lp5996
(lp5997
(lp5998
I599
ag12
ag18
aa(lp5999
I599
ag9
ag13
aa(lp6000
I599
ag15
ag13
aa(lp6001
I599
ag17
ag29
aa(lp6002
I599
ag20
ag18
aa(lp6003
I599
ag22
ag29
aaasba(ihelper
PossibleWorld
p6004
(dp6005
g3
I600
sg4
I0
sg5
(lp6006
(lp6007
(lp6008
I600
ag12
ag18
aa(lp6009
I600
ag9
ag29
aa(lp6010
I600
ag15
ag10
aa(lp6011
I600
ag17
ag29
aa(lp6012
I600
ag20
ag13
aa(lp6013
I600
ag22
ag10
aaasba(ihelper
PossibleWorld
p6014
(dp6015
g3
I601
sg4
I0
sg5
(lp6016
(lp6017
(lp6018
I601
ag12
ag18
aa(lp6019
I601
ag9
ag29
aa(lp6020
I601
ag15
ag10
aa(lp6021
I601
ag17
ag29
aa(lp6022
I601
ag20
ag13
aa(lp6023
I601
ag22
ag18
aaasba(ihelper
PossibleWorld
p6024
(dp6025
g3
I602
sg4
I0
sg5
(lp6026
(lp6027
(lp6028
I602
ag12
ag18
aa(lp6029
I602
ag9
ag29
aa(lp6030
I602
ag15
ag10
aa(lp6031
I602
ag17
ag29
aa(lp6032
I602
ag20
ag18
aa(lp6033
I602
ag22
ag10
aaasba(ihelper
PossibleWorld
p6034
(dp6035
g3
I603
sg4
I0
sg5
(lp6036
(lp6037
(lp6038
I603
ag12
ag18
aa(lp6039
I603
ag9
ag29
aa(lp6040
I603
ag15
ag10
aa(lp6041
I603
ag17
ag29
aa(lp6042
I603
ag20
ag18
aa(lp6043
I603
ag22
ag13
aaasba(ihelper
PossibleWorld
p6044
(dp6045
g3
I604
sg4
I0
sg5
(lp6046
(lp6047
(lp6048
I604
ag12
ag18
aa(lp6049
I604
ag9
ag29
aa(lp6050
I604
ag15
ag13
aa(lp6051
I604
ag17
ag29
aa(lp6052
I604
ag20
ag13
aa(lp6053
I604
ag22
ag10
aaasba(ihelper
PossibleWorld
p6054
(dp6055
g3
I605
sg4
I0
sg5
(lp6056
(lp6057
(lp6058
I605
ag12
ag18
aa(lp6059
I605
ag9
ag29
aa(lp6060
I605
ag15
ag13
aa(lp6061
I605
ag17
ag29
aa(lp6062
I605
ag20
ag18
aa(lp6063
I605
ag22
ag10
aaasba(ihelper
PossibleWorld
p6064
(dp6065
g3
I606
sg4
I0
sg5
(lp6066
(lp6067
(lp6068
I606
ag12
ag18
aa(lp6069
I606
ag9
ag29
aa(lp6070
I606
ag15
ag13
aa(lp6071
I606
ag17
ag29
aa(lp6072
I606
ag20
ag18
aa(lp6073
I606
ag22
ag13
aaasba(ihelper
PossibleWorld
p6074
(dp6075
g3
I607
sg4
I0
sg5
(lp6076
(lp6077
(lp6078
I607
ag12
ag18
aa(lp6079
I607
ag9
ag29
aa(lp6080
I607
ag15
ag13
aa(lp6081
I607
ag17
ag29
aa(lp6082
I607
ag20
ag13
aa(lp6083
I607
ag22
ag18
aaasba(ihelper
PossibleWorld
p6084
(dp6085
g3
I608
sg4
I0
sg5
(lp6086
(lp6087
(lp6088
I608
ag12
ag18
aa(lp6089
I608
ag9
ag10
aa(lp6090
I608
ag15
ag13
aa(lp6091
I608
ag17
ag29
aa(lp6092
I608
ag20
ag13
aa(lp6093
I608
ag22
ag18
aaasba(ihelper
PossibleWorld
p6094
(dp6095
g3
I609
sg4
I0
sg5
(lp6096
(lp6097
(lp6098
I609
ag12
ag18
aa(lp6099
I609
ag9
ag10
aa(lp6100
I609
ag15
ag13
aa(lp6101
I609
ag17
ag29
aa(lp6102
I609
ag20
ag13
aa(lp6103
I609
ag22
ag29
aaasba(ihelper
PossibleWorld
p6104
(dp6105
g3
I610
sg4
I0
sg5
(lp6106
(lp6107
(lp6108
I610
ag12
ag18
aa(lp6109
I610
ag9
ag10
aa(lp6110
I610
ag15
ag10
aa(lp6111
I610
ag17
ag29
aa(lp6112
I610
ag20
ag13
aa(lp6113
I610
ag22
ag18
aaasba(ihelper
PossibleWorld
p6114
(dp6115
g3
I611
sg4
I0
sg5
(lp6116
(lp6117
(lp6118
I611
ag12
ag18
aa(lp6119
I611
ag9
ag10
aa(lp6120
I611
ag15
ag10
aa(lp6121
I611
ag17
ag29
aa(lp6122
I611
ag20
ag13
aa(lp6123
I611
ag22
ag29
aaasba(ihelper
PossibleWorld
p6124
(dp6125
g3
I612
sg4
I0
sg5
(lp6126
(lp6127
(lp6128
I612
ag12
ag18
aa(lp6129
I612
ag9
ag10
aa(lp6130
I612
ag15
ag10
aa(lp6131
I612
ag17
ag29
aa(lp6132
I612
ag20
ag18
aa(lp6133
I612
ag22
ag13
aaasba(ihelper
PossibleWorld
p6134
(dp6135
g3
I613
sg4
I0
sg5
(lp6136
(lp6137
(lp6138
I613
ag12
ag18
aa(lp6139
I613
ag9
ag10
aa(lp6140
I613
ag15
ag13
aa(lp6141
I613
ag17
ag29
aa(lp6142
I613
ag20
ag18
aa(lp6143
I613
ag22
ag13
aaasba(ihelper
PossibleWorld
p6144
(dp6145
g3
I614
sg4
I0
sg5
(lp6146
(lp6147
(lp6148
I614
ag12
ag18
aa(lp6149
I614
ag9
ag10
aa(lp6150
I614
ag15
ag10
aa(lp6151
I614
ag17
ag29
aa(lp6152
I614
ag20
ag18
aa(lp6153
I614
ag22
ag29
aaasba(ihelper
PossibleWorld
p6154
(dp6155
g3
I615
sg4
I0
sg5
(lp6156
(lp6157
(lp6158
I615
ag12
ag18
aa(lp6159
I615
ag9
ag10
aa(lp6160
I615
ag15
ag13
aa(lp6161
I615
ag17
ag29
aa(lp6162
I615
ag20
ag18
aa(lp6163
I615
ag22
ag29
aaasba(ihelper
PossibleWorld
p6164
(dp6165
g3
I616
sg4
I0
sg5
(lp6166
(lp6167
(lp6168
I616
ag12
ag18
aa(lp6169
I616
ag9
ag13
aa(lp6170
I616
ag15
ag10
aa(lp6171
I616
ag17
ag29
aa(lp6172
I616
ag20
ag10
aa(lp6173
I616
ag22
ag18
aaasba(ihelper
PossibleWorld
p6174
(dp6175
g3
I617
sg4
I0
sg5
(lp6176
(lp6177
(lp6178
I617
ag12
ag18
aa(lp6179
I617
ag9
ag10
aa(lp6180
I617
ag15
ag10
aa(lp6181
I617
ag17
ag29
aa(lp6182
I617
ag20
ag10
aa(lp6183
I617
ag22
ag13
aaasba(ihelper
PossibleWorld
p6184
(dp6185
g3
I618
sg4
I0
sg5
(lp6186
(lp6187
(lp6188
I618
ag12
ag18
aa(lp6189
I618
ag9
ag10
aa(lp6190
I618
ag15
ag10
aa(lp6191
I618
ag17
ag29
aa(lp6192
I618
ag20
ag10
aa(lp6193
I618
ag22
ag18
aaasba(ihelper
PossibleWorld
p6194
(dp6195
g3
I619
sg4
I0
sg5
(lp6196
(lp6197
(lp6198
I619
ag12
ag18
aa(lp6199
I619
ag9
ag29
aa(lp6200
I619
ag15
ag10
aa(lp6201
I619
ag17
ag29
aa(lp6202
I619
ag20
ag10
aa(lp6203
I619
ag22
ag13
aaasba(ihelper
PossibleWorld
p6204
(dp6205
g3
I620
sg4
I0
sg5
(lp6206
(lp6207
(lp6208
I620
ag12
ag18
aa(lp6209
I620
ag9
ag29
aa(lp6210
I620
ag15
ag10
aa(lp6211
I620
ag17
ag29
aa(lp6212
I620
ag20
ag10
aa(lp6213
I620
ag22
ag18
aaasba(ihelper
PossibleWorld
p6214
(dp6215
g3
I621
sg4
I0
sg5
(lp6216
(lp6217
(lp6218
I621
ag12
ag18
aa(lp6219
I621
ag9
ag13
aa(lp6220
I621
ag15
ag10
aa(lp6221
I621
ag17
ag29
aa(lp6222
I621
ag20
ag10
aa(lp6223
I621
ag22
ag29
aaasba(ihelper
PossibleWorld
p6224
(dp6225
g3
I622
sg4
I0
sg5
(lp6226
(lp6227
(lp6228
I622
ag12
ag18
aa(lp6229
I622
ag9
ag10
aa(lp6230
I622
ag15
ag10
aa(lp6231
I622
ag17
ag29
aa(lp6232
I622
ag20
ag10
aa(lp6233
I622
ag22
ag29
aaasba(ihelper
PossibleWorld
p6234
(dp6235
g3
I623
sg4
I0
sg5
(lp6236
(lp6237
(lp6238
I623
ag12
ag18
aa(lp6239
I623
ag9
ag29
aa(lp6240
I623
ag15
ag13
aa(lp6241
I623
ag17
ag29
aa(lp6242
I623
ag20
ag10
aa(lp6243
I623
ag22
ag13
aaasba(ihelper
PossibleWorld
p6244
(dp6245
g3
I624
sg4
I0
sg5
(lp6246
(lp6247
(lp6248
I624
ag12
ag18
aa(lp6249
I624
ag9
ag13
aa(lp6250
I624
ag15
ag13
aa(lp6251
I624
ag17
ag29
aa(lp6252
I624
ag20
ag10
aa(lp6253
I624
ag22
ag29
aaasba(ihelper
PossibleWorld
p6254
(dp6255
g3
I625
sg4
I0
sg5
(lp6256
(lp6257
(lp6258
I625
ag12
ag18
aa(lp6259
I625
ag9
ag13
aa(lp6260
I625
ag15
ag13
aa(lp6261
I625
ag17
ag29
aa(lp6262
I625
ag20
ag10
aa(lp6263
I625
ag22
ag18
aaasba(ihelper
PossibleWorld
p6264
(dp6265
g3
I626
sg4
I0
sg5
(lp6266
(lp6267
(lp6268
I626
ag12
ag18
aa(lp6269
I626
ag9
ag29
aa(lp6270
I626
ag15
ag13
aa(lp6271
I626
ag17
ag29
aa(lp6272
I626
ag20
ag10
aa(lp6273
I626
ag22
ag18
aaasba(ihelper
PossibleWorld
p6274
(dp6275
g3
I627
sg4
I0
sg5
(lp6276
(lp6277
(lp6278
I627
ag12
ag18
aa(lp6279
I627
ag9
ag10
aa(lp6280
I627
ag15
ag13
aa(lp6281
I627
ag17
ag29
aa(lp6282
I627
ag20
ag10
aa(lp6283
I627
ag22
ag13
aaasba(ihelper
PossibleWorld
p6284
(dp6285
g3
I628
sg4
I0
sg5
(lp6286
(lp6287
(lp6288
I628
ag12
ag18
aa(lp6289
I628
ag9
ag10
aa(lp6290
I628
ag15
ag13
aa(lp6291
I628
ag17
ag29
aa(lp6292
I628
ag20
ag10
aa(lp6293
I628
ag22
ag18
aaasba(ihelper
PossibleWorld
p6294
(dp6295
g3
I629
sg4
I0
sg5
(lp6296
(lp6297
(lp6298
I629
ag12
ag18
aa(lp6299
I629
ag9
ag10
aa(lp6300
I629
ag15
ag13
aa(lp6301
I629
ag17
ag29
aa(lp6302
I629
ag20
ag10
aa(lp6303
I629
ag22
ag29
aaasba(ihelper
PossibleWorld
p6304
(dp6305
g3
I630
sg4
I0
sg5
(lp6306
(lp6307
(lp6308
I630
ag12
ag18
aa(lp6309
I630
ag9
ag13
aa(lp6310
I630
ag15
ag13
aa(lp6311
I630
ag17
ag18
aa(lp6312
I630
ag20
ag13
aa(lp6313
I630
ag22
ag10
aaasba(ihelper
PossibleWorld
p6314
(dp6315
g3
I631
sg4
I0
sg5
(lp6316
(lp6317
(lp6318
I631
ag12
ag18
aa(lp6319
I631
ag9
ag13
aa(lp6320
I631
ag15
ag13
aa(lp6321
I631
ag17
ag18
aa(lp6322
I631
ag20
ag13
aa(lp6323
I631
ag22
ag29
aaasba(ihelper
PossibleWorld
p6324
(dp6325
g3
I632
sg4
I0
sg5
(lp6326
(lp6327
(lp6328
I632
ag12
ag18
aa(lp6329
I632
ag9
ag10
aa(lp6330
I632
ag15
ag13
aa(lp6331
I632
ag17
ag18
aa(lp6332
I632
ag20
ag13
aa(lp6333
I632
ag22
ag29
aaasba(ihelper
PossibleWorld
p6334
(dp6335
g3
I633
sg4
I0
sg5
(lp6336
(lp6337
(lp6338
I633
ag12
ag18
aa(lp6339
I633
ag9
ag13
aa(lp6340
I633
ag15
ag13
aa(lp6341
I633
ag17
ag18
aa(lp6342
I633
ag20
ag29
aa(lp6343
I633
ag22
ag10
aaasba(ihelper
PossibleWorld
p6344
(dp6345
g3
I634
sg4
I0
sg5
(lp6346
(lp6347
(lp6348
I634
ag12
ag18
aa(lp6349
I634
ag9
ag10
aa(lp6350
I634
ag15
ag13
aa(lp6351
I634
ag17
ag18
aa(lp6352
I634
ag20
ag29
aa(lp6353
I634
ag22
ag13
aaasba(ihelper
PossibleWorld
p6354
(dp6355
g3
I635
sg4
I0
sg5
(lp6356
(lp6357
(lp6358
I635
ag12
ag18
aa(lp6359
I635
ag9
ag13
aa(lp6360
I635
ag15
ag13
aa(lp6361
I635
ag17
ag18
aa(lp6362
I635
ag20
ag10
aa(lp6363
I635
ag22
ag29
aaasba(ihelper
PossibleWorld
p6364
(dp6365
g3
I636
sg4
I0
sg5
(lp6366
(lp6367
(lp6368
I636
ag12
ag18
aa(lp6369
I636
ag9
ag10
aa(lp6370
I636
ag15
ag13
aa(lp6371
I636
ag17
ag18
aa(lp6372
I636
ag20
ag10
aa(lp6373
I636
ag22
ag13
aaasba(ihelper
PossibleWorld
p6374
(dp6375
g3
I637
sg4
I0
sg5
(lp6376
(lp6377
(lp6378
I637
ag12
ag18
aa(lp6379
I637
ag9
ag10
aa(lp6380
I637
ag15
ag13
aa(lp6381
I637
ag17
ag18
aa(lp6382
I637
ag20
ag10
aa(lp6383
I637
ag22
ag29
aaasba(ihelper
PossibleWorld
p6384
(dp6385
g3
I638
sg4
I0
sg5
(lp6386
(lp6387
(lp6388
I638
ag12
ag18
aa(lp6389
I638
ag9
ag13
aa(lp6390
I638
ag15
ag10
aa(lp6391
I638
ag17
ag18
aa(lp6392
I638
ag20
ag13
aa(lp6393
I638
ag22
ag10
aaasba(ihelper
PossibleWorld
p6394
(dp6395
g3
I639
sg4
I0
sg5
(lp6396
(lp6397
(lp6398
I639
ag12
ag18
aa(lp6399
I639
ag9
ag13
aa(lp6400
I639
ag15
ag10
aa(lp6401
I639
ag17
ag18
aa(lp6402
I639
ag20
ag29
aa(lp6403
I639
ag22
ag10
aaasba(ihelper
PossibleWorld
p6404
(dp6405
g3
I640
sg4
I0
sg5
(lp6406
(lp6407
(lp6408
I640
ag12
ag18
aa(lp6409
I640
ag9
ag10
aa(lp6410
I640
ag15
ag10
aa(lp6411
I640
ag17
ag18
aa(lp6412
I640
ag20
ag10
aa(lp6413
I640
ag22
ag13
aaasba(ihelper
PossibleWorld
p6414
(dp6415
g3
I641
sg4
I0
sg5
(lp6416
(lp6417
(lp6418
I641
ag12
ag18
aa(lp6419
I641
ag9
ag10
aa(lp6420
I641
ag15
ag10
aa(lp6421
I641
ag17
ag18
aa(lp6422
I641
ag20
ag29
aa(lp6423
I641
ag22
ag13
aaasba(ihelper
PossibleWorld
p6424
(dp6425
g3
I642
sg4
I0
sg5
(lp6426
(lp6427
(lp6428
I642
ag12
ag18
aa(lp6429
I642
ag9
ag13
aa(lp6430
I642
ag15
ag10
aa(lp6431
I642
ag17
ag18
aa(lp6432
I642
ag20
ag13
aa(lp6433
I642
ag22
ag29
aaasba(ihelper
PossibleWorld
p6434
(dp6435
g3
I643
sg4
I0
sg5
(lp6436
(lp6437
(lp6438
I643
ag12
ag18
aa(lp6439
I643
ag9
ag10
aa(lp6440
I643
ag15
ag10
aa(lp6441
I643
ag17
ag18
aa(lp6442
I643
ag20
ag13
aa(lp6443
I643
ag22
ag29
aaasba(ihelper
PossibleWorld
p6444
(dp6445
g3
I644
sg4
I0
sg5
(lp6446
(lp6447
(lp6448
I644
ag12
ag18
aa(lp6449
I644
ag9
ag13
aa(lp6450
I644
ag15
ag10
aa(lp6451
I644
ag17
ag18
aa(lp6452
I644
ag20
ag10
aa(lp6453
I644
ag22
ag29
aaasba(ihelper
PossibleWorld
p6454
(dp6455
g3
I645
sg4
I0
sg5
(lp6456
(lp6457
(lp6458
I645
ag12
ag18
aa(lp6459
I645
ag9
ag10
aa(lp6460
I645
ag15
ag10
aa(lp6461
I645
ag17
ag18
aa(lp6462
I645
ag20
ag10
aa(lp6463
I645
ag22
ag29
aaasba(ihelper
PossibleWorld
p6464
(dp6465
g3
I646
sg4
I0
sg5
(lp6466
(lp6467
(lp6468
I646
ag12
ag18
aa(lp6469
I646
ag9
ag29
aa(lp6470
I646
ag15
ag10
aa(lp6471
I646
ag17
ag18
aa(lp6472
I646
ag20
ag13
aa(lp6473
I646
ag22
ag10
aaasba(ihelper
PossibleWorld
p6474
(dp6475
g3
I647
sg4
I0
sg5
(lp6476
(lp6477
(lp6478
I647
ag12
ag18
aa(lp6479
I647
ag9
ag29
aa(lp6480
I647
ag15
ag10
aa(lp6481
I647
ag17
ag18
aa(lp6482
I647
ag20
ag10
aa(lp6483
I647
ag22
ag13
aaasba(ihelper
PossibleWorld
p6484
(dp6485
g3
I648
sg4
I0
sg5
(lp6486
(lp6487
(lp6488
I648
ag12
ag18
aa(lp6489
I648
ag9
ag29
aa(lp6490
I648
ag15
ag13
aa(lp6491
I648
ag17
ag18
aa(lp6492
I648
ag20
ag13
aa(lp6493
I648
ag22
ag10
aaasba(ihelper
PossibleWorld
p6494
(dp6495
g3
I649
sg4
I0
sg5
(lp6496
(lp6497
(lp6498
I649
ag12
ag18
aa(lp6499
I649
ag9
ag29
aa(lp6500
I649
ag15
ag13
aa(lp6501
I649
ag17
ag18
aa(lp6502
I649
ag20
ag10
aa(lp6503
I649
ag22
ag13
aaasba(ihelper
PossibleWorld
p6504
(dp6505
g3
I650
sg4
I0
sg5
(lp6506
(lp6507
(lp6508
I650
ag12
ag18
aa(lp6509
I650
ag9
ag29
aa(lp6510
I650
ag15
ag13
aa(lp6511
I650
ag17
ag18
aa(lp6512
I650
ag20
ag29
aa(lp6513
I650
ag22
ag10
aaasba(ihelper
PossibleWorld
p6514
(dp6515
g3
I651
sg4
I0
sg5
(lp6516
(lp6517
(lp6518
I651
ag12
ag18
aa(lp6519
I651
ag9
ag29
aa(lp6520
I651
ag15
ag13
aa(lp6521
I651
ag17
ag18
aa(lp6522
I651
ag20
ag29
aa(lp6523
I651
ag22
ag13
aaasba(ihelper
PossibleWorld
p6524
(dp6525
g3
I652
sg4
I0
sg5
(lp6526
(lp6527
(lp6528
I652
ag12
ag18
aa(lp6529
I652
ag9
ag29
aa(lp6530
I652
ag15
ag10
aa(lp6531
I652
ag17
ag18
aa(lp6532
I652
ag20
ag29
aa(lp6533
I652
ag22
ag10
aaasba(ihelper
PossibleWorld
p6534
(dp6535
g3
I653
sg4
I0
sg5
(lp6536
(lp6537
(lp6538
I653
ag12
ag18
aa(lp6539
I653
ag9
ag29
aa(lp6540
I653
ag15
ag10
aa(lp6541
I653
ag17
ag18
aa(lp6542
I653
ag20
ag29
aa(lp6543
I653
ag22
ag13
aaasba(ihelper
PossibleWorld
p6544
(dp6545
g3
I654
sg4
I0
sg5
(lp6546
(lp6547
(lp6548
I654
ag12
ag18
aa(lp6549
I654
ag9
ag13
aa(lp6550
I654
ag15
ag10
aa(lp6551
I654
ag17
ag18
aa(lp6552
I654
ag20
ag13
aa(lp6553
I654
ag22
ag18
aaasba(ihelper
PossibleWorld
p6554
(dp6555
g3
I655
sg4
I0
sg5
(lp6556
(lp6557
(lp6558
I655
ag12
ag18
aa(lp6559
I655
ag9
ag13
aa(lp6560
I655
ag15
ag13
aa(lp6561
I655
ag17
ag18
aa(lp6562
I655
ag20
ag13
aa(lp6563
I655
ag22
ag18
aaasba(ihelper
PossibleWorld
p6564
(dp6565
g3
I656
sg4
I0
sg5
(lp6566
(lp6567
(lp6568
I656
ag12
ag18
aa(lp6569
I656
ag9
ag29
aa(lp6570
I656
ag15
ag10
aa(lp6571
I656
ag17
ag18
aa(lp6572
I656
ag20
ag13
aa(lp6573
I656
ag22
ag18
aaasba(ihelper
PossibleWorld
p6574
(dp6575
g3
I657
sg4
I0
sg5
(lp6576
(lp6577
(lp6578
I657
ag12
ag18
aa(lp6579
I657
ag9
ag29
aa(lp6580
I657
ag15
ag13
aa(lp6581
I657
ag17
ag18
aa(lp6582
I657
ag20
ag13
aa(lp6583
I657
ag22
ag18
aaasba(ihelper
PossibleWorld
p6584
(dp6585
g3
I658
sg4
I0
sg5
(lp6586
(lp6587
(lp6588
I658
ag12
ag18
aa(lp6589
I658
ag9
ag10
aa(lp6590
I658
ag15
ag10
aa(lp6591
I658
ag17
ag18
aa(lp6592
I658
ag20
ag13
aa(lp6593
I658
ag22
ag18
aaasba(ihelper
PossibleWorld
p6594
(dp6595
g3
I659
sg4
I0
sg5
(lp6596
(lp6597
(lp6598
I659
ag12
ag18
aa(lp6599
I659
ag9
ag10
aa(lp6600
I659
ag15
ag13
aa(lp6601
I659
ag17
ag18
aa(lp6602
I659
ag20
ag13
aa(lp6603
I659
ag22
ag18
aaasba(ihelper
PossibleWorld
p6604
(dp6605
g3
I660
sg4
I0
sg5
(lp6606
(lp6607
(lp6608
I660
ag12
ag18
aa(lp6609
I660
ag9
ag13
aa(lp6610
I660
ag15
ag10
aa(lp6611
I660
ag17
ag18
aa(lp6612
I660
ag20
ag29
aa(lp6613
I660
ag22
ag18
aaasba(ihelper
PossibleWorld
p6614
(dp6615
g3
I661
sg4
I0
sg5
(lp6616
(lp6617
(lp6618
I661
ag12
ag18
aa(lp6619
I661
ag9
ag29
aa(lp6620
I661
ag15
ag10
aa(lp6621
I661
ag17
ag18
aa(lp6622
I661
ag20
ag29
aa(lp6623
I661
ag22
ag18
aaasba(ihelper
PossibleWorld
p6624
(dp6625
g3
I662
sg4
I0
sg5
(lp6626
(lp6627
(lp6628
I662
ag12
ag18
aa(lp6629
I662
ag9
ag10
aa(lp6630
I662
ag15
ag10
aa(lp6631
I662
ag17
ag18
aa(lp6632
I662
ag20
ag29
aa(lp6633
I662
ag22
ag18
aaasba(ihelper
PossibleWorld
p6634
(dp6635
g3
I663
sg4
I0
sg5
(lp6636
(lp6637
(lp6638
I663
ag12
ag18
aa(lp6639
I663
ag9
ag13
aa(lp6640
I663
ag15
ag13
aa(lp6641
I663
ag17
ag18
aa(lp6642
I663
ag20
ag29
aa(lp6643
I663
ag22
ag18
aaasba(ihelper
PossibleWorld
p6644
(dp6645
g3
I664
sg4
I0
sg5
(lp6646
(lp6647
(lp6648
I664
ag12
ag18
aa(lp6649
I664
ag9
ag10
aa(lp6650
I664
ag15
ag13
aa(lp6651
I664
ag17
ag18
aa(lp6652
I664
ag20
ag29
aa(lp6653
I664
ag22
ag18
aaasba(ihelper
PossibleWorld
p6654
(dp6655
g3
I665
sg4
I0
sg5
(lp6656
(lp6657
(lp6658
I665
ag12
ag18
aa(lp6659
I665
ag9
ag29
aa(lp6660
I665
ag15
ag13
aa(lp6661
I665
ag17
ag18
aa(lp6662
I665
ag20
ag29
aa(lp6663
I665
ag22
ag18
aaasba(ihelper
PossibleWorld
p6664
(dp6665
g3
I666
sg4
I0
sg5
(lp6666
(lp6667
(lp6668
I666
ag12
ag18
aa(lp6669
I666
ag9
ag13
aa(lp6670
I666
ag15
ag10
aa(lp6671
I666
ag17
ag18
aa(lp6672
I666
ag20
ag10
aa(lp6673
I666
ag22
ag18
aaasba(ihelper
PossibleWorld
p6674
(dp6675
g3
I667
sg4
I0
sg5
(lp6676
(lp6677
(lp6678
I667
ag12
ag18
aa(lp6679
I667
ag9
ag29
aa(lp6680
I667
ag15
ag10
aa(lp6681
I667
ag17
ag18
aa(lp6682
I667
ag20
ag10
aa(lp6683
I667
ag22
ag18
aaasba(ihelper
PossibleWorld
p6684
(dp6685
g3
I668
sg4
I0
sg5
(lp6686
(lp6687
(lp6688
I668
ag12
ag18
aa(lp6689
I668
ag9
ag13
aa(lp6690
I668
ag15
ag13
aa(lp6691
I668
ag17
ag18
aa(lp6692
I668
ag20
ag10
aa(lp6693
I668
ag22
ag18
aaasba(ihelper
PossibleWorld
p6694
(dp6695
g3
I669
sg4
I0
sg5
(lp6696
(lp6697
(lp6698
I669
ag12
ag18
aa(lp6699
I669
ag9
ag29
aa(lp6700
I669
ag15
ag13
aa(lp6701
I669
ag17
ag18
aa(lp6702
I669
ag20
ag10
aa(lp6703
I669
ag22
ag18
aaasba(ihelper
PossibleWorld
p6704
(dp6705
g3
I670
sg4
I0
sg5
(lp6706
(lp6707
(lp6708
I670
ag12
ag18
aa(lp6709
I670
ag9
ag10
aa(lp6710
I670
ag15
ag10
aa(lp6711
I670
ag17
ag18
aa(lp6712
I670
ag20
ag10
aa(lp6713
I670
ag22
ag18
aaasba(ihelper
PossibleWorld
p6714
(dp6715
g3
I671
sg4
I0
sg5
(lp6716
(lp6717
(lp6718
I671
ag12
ag18
aa(lp6719
I671
ag9
ag10
aa(lp6720
I671
ag15
ag13
aa(lp6721
I671
ag17
ag18
aa(lp6722
I671
ag20
ag10
aa(lp6723
I671
ag22
ag18
aaasba(ihelper
PossibleWorld
p6724
(dp6725
g3
I672
sg4
I0
sg5
(lp6726
(lp6727
(lp6728
I672
ag12
ag18
aa(lp6729
I672
ag9
ag13
aa(lp6730
I672
ag15
ag29
aa(lp6731
I672
ag17
ag18
aa(lp6732
I672
ag20
ag13
aa(lp6733
I672
ag22
ag10
aaasba(ihelper
PossibleWorld
p6734
(dp6735
g3
I673
sg4
I0
sg5
(lp6736
(lp6737
(lp6738
I673
ag12
ag18
aa(lp6739
I673
ag9
ag29
aa(lp6740
I673
ag15
ag29
aa(lp6741
I673
ag17
ag18
aa(lp6742
I673
ag20
ag13
aa(lp6743
I673
ag22
ag10
aaasba(ihelper
PossibleWorld
p6744
(dp6745
g3
I674
sg4
I0
sg5
(lp6746
(lp6747
(lp6748
I674
ag12
ag18
aa(lp6749
I674
ag9
ag13
aa(lp6750
I674
ag15
ag29
aa(lp6751
I674
ag17
ag13
aa(lp6752
I674
ag20
ag29
aa(lp6753
I674
ag22
ag10
aaasba(ihelper
PossibleWorld
p6754
(dp6755
g3
I675
sg4
I0
sg5
(lp6756
(lp6757
(lp6758
I675
ag12
ag18
aa(lp6759
I675
ag9
ag13
aa(lp6760
I675
ag15
ag29
aa(lp6761
I675
ag17
ag18
aa(lp6762
I675
ag20
ag29
aa(lp6763
I675
ag22
ag10
aaasba(ihelper
PossibleWorld
p6764
(dp6765
g3
I676
sg4
I0
sg5
(lp6766
(lp6767
(lp6768
I676
ag12
ag18
aa(lp6769
I676
ag9
ag29
aa(lp6770
I676
ag15
ag29
aa(lp6771
I676
ag17
ag13
aa(lp6772
I676
ag20
ag29
aa(lp6773
I676
ag22
ag10
aaasba(ihelper
PossibleWorld
p6774
(dp6775
g3
I677
sg4
I0
sg5
(lp6776
(lp6777
(lp6778
I677
ag12
ag18
aa(lp6779
I677
ag9
ag29
aa(lp6780
I677
ag15
ag29
aa(lp6781
I677
ag17
ag18
aa(lp6782
I677
ag20
ag29
aa(lp6783
I677
ag22
ag10
aaasba(ihelper
PossibleWorld
p6784
(dp6785
g3
I678
sg4
I0
sg5
(lp6786
(lp6787
(lp6788
I678
ag12
ag18
aa(lp6789
I678
ag9
ag13
aa(lp6790
I678
ag15
ag29
aa(lp6791
I678
ag17
ag13
aa(lp6792
I678
ag20
ag18
aa(lp6793
I678
ag22
ag10
aaasba(ihelper
PossibleWorld
p6794
(dp6795
g3
I679
sg4
I0
sg5
(lp6796
(lp6797
(lp6798
I679
ag12
ag18
aa(lp6799
I679
ag9
ag29
aa(lp6800
I679
ag15
ag29
aa(lp6801
I679
ag17
ag13
aa(lp6802
I679
ag20
ag18
aa(lp6803
I679
ag22
ag10
aaasba(ihelper
PossibleWorld
p6804
(dp6805
g3
I680
sg4
I0
sg5
(lp6806
(lp6807
(lp6808
I680
ag12
ag18
aa(lp6809
I680
ag9
ag13
aa(lp6810
I680
ag15
ag29
aa(lp6811
I680
ag17
ag10
aa(lp6812
I680
ag20
ag13
aa(lp6813
I680
ag22
ag10
aaasba(ihelper
PossibleWorld
p6814
(dp6815
g3
I681
sg4
I0
sg5
(lp6816
(lp6817
(lp6818
I681
ag12
ag18
aa(lp6819
I681
ag9
ag13
aa(lp6820
I681
ag15
ag29
aa(lp6821
I681
ag17
ag10
aa(lp6822
I681
ag20
ag29
aa(lp6823
I681
ag22
ag10
aaasba(ihelper
PossibleWorld
p6824
(dp6825
g3
I682
sg4
I0
sg5
(lp6826
(lp6827
(lp6828
I682
ag12
ag18
aa(lp6829
I682
ag9
ag13
aa(lp6830
I682
ag15
ag29
aa(lp6831
I682
ag17
ag10
aa(lp6832
I682
ag20
ag18
aa(lp6833
I682
ag22
ag10
aaasba(ihelper
PossibleWorld
p6834
(dp6835
g3
I683
sg4
I0
sg5
(lp6836
(lp6837
(lp6838
I683
ag12
ag18
aa(lp6839
I683
ag9
ag29
aa(lp6840
I683
ag15
ag29
aa(lp6841
I683
ag17
ag10
aa(lp6842
I683
ag20
ag13
aa(lp6843
I683
ag22
ag10
aaasba(ihelper
PossibleWorld
p6844
(dp6845
g3
I684
sg4
I0
sg5
(lp6846
(lp6847
(lp6848
I684
ag12
ag18
aa(lp6849
I684
ag9
ag29
aa(lp6850
I684
ag15
ag29
aa(lp6851
I684
ag17
ag10
aa(lp6852
I684
ag20
ag18
aa(lp6853
I684
ag22
ag10
aaasba(ihelper
PossibleWorld
p6854
(dp6855
g3
I685
sg4
I0
sg5
(lp6856
(lp6857
(lp6858
I685
ag12
ag18
aa(lp6859
I685
ag9
ag29
aa(lp6860
I685
ag15
ag29
aa(lp6861
I685
ag17
ag10
aa(lp6862
I685
ag20
ag29
aa(lp6863
I685
ag22
ag10
aaasba(ihelper
PossibleWorld
p6864
(dp6865
g3
I686
sg4
I0
sg5
(lp6866
(lp6867
(lp6868
I686
ag12
ag18
aa(lp6869
I686
ag9
ag13
aa(lp6870
I686
ag15
ag29
aa(lp6871
I686
ag17
ag13
aa(lp6872
I686
ag20
ag29
aa(lp6873
I686
ag22
ag18
aaasba(ihelper
PossibleWorld
p6874
(dp6875
g3
I687
sg4
I0
sg5
(lp6876
(lp6877
(lp6878
I687
ag12
ag18
aa(lp6879
I687
ag9
ag10
aa(lp6880
I687
ag15
ag29
aa(lp6881
I687
ag17
ag13
aa(lp6882
I687
ag20
ag29
aa(lp6883
I687
ag22
ag18
aaasba(ihelper
PossibleWorld
p6884
(dp6885
g3
I688
sg4
I0
sg5
(lp6886
(lp6887
(lp6888
I688
ag12
ag18
aa(lp6889
I688
ag9
ag13
aa(lp6890
I688
ag15
ag29
aa(lp6891
I688
ag17
ag10
aa(lp6892
I688
ag20
ag13
aa(lp6893
I688
ag22
ag18
aaasba(ihelper
PossibleWorld
p6894
(dp6895
g3
I689
sg4
I0
sg5
(lp6896
(lp6897
(lp6898
I689
ag12
ag18
aa(lp6899
I689
ag9
ag13
aa(lp6900
I689
ag15
ag29
aa(lp6901
I689
ag17
ag10
aa(lp6902
I689
ag20
ag29
aa(lp6903
I689
ag22
ag18
aaasba(ihelper
PossibleWorld
p6904
(dp6905
g3
I690
sg4
I0
sg5
(lp6906
(lp6907
(lp6908
I690
ag12
ag18
aa(lp6909
I690
ag9
ag10
aa(lp6910
I690
ag15
ag29
aa(lp6911
I690
ag17
ag10
aa(lp6912
I690
ag20
ag13
aa(lp6913
I690
ag22
ag18
aaasba(ihelper
PossibleWorld
p6914
(dp6915
g3
I691
sg4
I0
sg5
(lp6916
(lp6917
(lp6918
I691
ag12
ag18
aa(lp6919
I691
ag9
ag10
aa(lp6920
I691
ag15
ag29
aa(lp6921
I691
ag17
ag10
aa(lp6922
I691
ag20
ag29
aa(lp6923
I691
ag22
ag18
aaasba(ihelper
PossibleWorld
p6924
(dp6925
g3
I692
sg4
I0
sg5
(lp6926
(lp6927
(lp6928
I692
ag12
ag18
aa(lp6929
I692
ag9
ag13
aa(lp6930
I692
ag15
ag29
aa(lp6931
I692
ag17
ag18
aa(lp6932
I692
ag20
ag13
aa(lp6933
I692
ag22
ag18
aaasba(ihelper
PossibleWorld
p6934
(dp6935
g3
I693
sg4
I0
sg5
(lp6936
(lp6937
(lp6938
I693
ag12
ag18
aa(lp6939
I693
ag9
ag10
aa(lp6940
I693
ag15
ag29
aa(lp6941
I693
ag17
ag18
aa(lp6942
I693
ag20
ag13
aa(lp6943
I693
ag22
ag18
aaasba(ihelper
PossibleWorld
p6944
(dp6945
g3
I694
sg4
I0
sg5
(lp6946
(lp6947
(lp6948
I694
ag12
ag18
aa(lp6949
I694
ag9
ag13
aa(lp6950
I694
ag15
ag29
aa(lp6951
I694
ag17
ag18
aa(lp6952
I694
ag20
ag29
aa(lp6953
I694
ag22
ag18
aaasba(ihelper
PossibleWorld
p6954
(dp6955
g3
I695
sg4
I0
sg5
(lp6956
(lp6957
(lp6958
I695
ag12
ag18
aa(lp6959
I695
ag9
ag10
aa(lp6960
I695
ag15
ag29
aa(lp6961
I695
ag17
ag18
aa(lp6962
I695
ag20
ag29
aa(lp6963
I695
ag22
ag18
aaasba(ihelper
PossibleWorld
p6964
(dp6965
g3
I696
sg4
I0
sg5
(lp6966
(lp6967
(lp6968
I696
ag12
ag18
aa(lp6969
I696
ag9
ag29
aa(lp6970
I696
ag15
ag29
aa(lp6971
I696
ag17
ag10
aa(lp6972
I696
ag20
ag13
aa(lp6973
I696
ag22
ag18
aaasba(ihelper
PossibleWorld
p6974
(dp6975
g3
I697
sg4
I0
sg5
(lp6976
(lp6977
(lp6978
I697
ag12
ag18
aa(lp6979
I697
ag9
ag29
aa(lp6980
I697
ag15
ag29
aa(lp6981
I697
ag17
ag13
aa(lp6982
I697
ag20
ag29
aa(lp6983
I697
ag22
ag18
aaasba(ihelper
PossibleWorld
p6984
(dp6985
g3
I698
sg4
I0
sg5
(lp6986
(lp6987
(lp6988
I698
ag12
ag18
aa(lp6989
I698
ag9
ag29
aa(lp6990
I698
ag15
ag29
aa(lp6991
I698
ag17
ag10
aa(lp6992
I698
ag20
ag29
aa(lp6993
I698
ag22
ag18
aaasba(ihelper
PossibleWorld
p6994
(dp6995
g3
I699
sg4
I0
sg5
(lp6996
(lp6997
(lp6998
I699
ag12
ag18
aa(lp6999
I699
ag9
ag29
aa(lp7000
I699
ag15
ag29
aa(lp7001
I699
ag17
ag18
aa(lp7002
I699
ag20
ag13
aa(lp7003
I699
ag22
ag18
aaasba(ihelper
PossibleWorld
p7004
(dp7005
g3
I700
sg4
I0
sg5
(lp7006
(lp7007
(lp7008
I700
ag12
ag18
aa(lp7009
I700
ag9
ag29
aa(lp7010
I700
ag15
ag29
aa(lp7011
I700
ag17
ag18
aa(lp7012
I700
ag20
ag29
aa(lp7013
I700
ag22
ag18
aaasba(ihelper
PossibleWorld
p7014
(dp7015
g3
I701
sg4
I0
sg5
(lp7016
(lp7017
(lp7018
I701
ag12
ag18
aa(lp7019
I701
ag9
ag13
aa(lp7020
I701
ag15
ag29
aa(lp7021
I701
ag17
ag18
aa(lp7022
I701
ag20
ag13
aa(lp7023
I701
ag22
ag29
aaasba(ihelper
PossibleWorld
p7024
(dp7025
g3
I702
sg4
I0
sg5
(lp7026
(lp7027
(lp7028
I702
ag12
ag18
aa(lp7029
I702
ag9
ag13
aa(lp7030
I702
ag15
ag29
aa(lp7031
I702
ag17
ag13
aa(lp7032
I702
ag20
ag18
aa(lp7033
I702
ag22
ag29
aaasba(ihelper
PossibleWorld
p7034
(dp7035
g3
I703
sg4
I0
sg5
(lp7036
(lp7037
(lp7038
I703
ag12
ag18
aa(lp7039
I703
ag9
ag10
aa(lp7040
I703
ag15
ag29
aa(lp7041
I703
ag17
ag18
aa(lp7042
I703
ag20
ag13
aa(lp7043
I703
ag22
ag29
aaasba(ihelper
PossibleWorld
p7044
(dp7045
g3
I704
sg4
I0
sg5
(lp7046
(lp7047
(lp7048
I704
ag12
ag18
aa(lp7049
I704
ag9
ag10
aa(lp7050
I704
ag15
ag29
aa(lp7051
I704
ag17
ag13
aa(lp7052
I704
ag20
ag18
aa(lp7053
I704
ag22
ag29
aaasba(ihelper
PossibleWorld
p7054
(dp7055
g3
I705
sg4
I0
sg5
(lp7056
(lp7057
(lp7058
I705
ag12
ag18
aa(lp7059
I705
ag9
ag13
aa(lp7060
I705
ag15
ag29
aa(lp7061
I705
ag17
ag10
aa(lp7062
I705
ag20
ag13
aa(lp7063
I705
ag22
ag29
aaasba(ihelper
PossibleWorld
p7064
(dp7065
g3
I706
sg4
I0
sg5
(lp7066
(lp7067
(lp7068
I706
ag12
ag18
aa(lp7069
I706
ag9
ag10
aa(lp7070
I706
ag15
ag29
aa(lp7071
I706
ag17
ag10
aa(lp7072
I706
ag20
ag13
aa(lp7073
I706
ag22
ag29
aaasba(ihelper
PossibleWorld
p7074
(dp7075
g3
I707
sg4
I0
sg5
(lp7076
(lp7077
(lp7078
I707
ag12
ag18
aa(lp7079
I707
ag9
ag13
aa(lp7080
I707
ag15
ag29
aa(lp7081
I707
ag17
ag10
aa(lp7082
I707
ag20
ag18
aa(lp7083
I707
ag22
ag29
aaasba(ihelper
PossibleWorld
p7084
(dp7085
g3
I708
sg4
I0
sg5
(lp7086
(lp7087
(lp7088
I708
ag12
ag18
aa(lp7089
I708
ag9
ag10
aa(lp7090
I708
ag15
ag29
aa(lp7091
I708
ag17
ag10
aa(lp7092
I708
ag20
ag18
aa(lp7093
I708
ag22
ag29
aaasba(ihelper
PossibleWorld
p7094
(dp7095
g3
I709
sg4
I0
sg5
(lp7096
(lp7097
(lp7098
I709
ag12
ag18
aa(lp7099
I709
ag9
ag29
aa(lp7100
I709
ag15
ag29
aa(lp7101
I709
ag17
ag13
aa(lp7102
I709
ag20
ag18
aa(lp7103
I709
ag22
ag13
aaasba(ihelper
PossibleWorld
p7104
(dp7105
g3
I710
sg4
I0
sg5
(lp7106
(lp7107
(lp7108
I710
ag12
ag18
aa(lp7109
I710
ag9
ag29
aa(lp7110
I710
ag15
ag29
aa(lp7111
I710
ag17
ag13
aa(lp7112
I710
ag20
ag29
aa(lp7113
I710
ag22
ag13
aaasba(ihelper
PossibleWorld
p7114
(dp7115
g3
I711
sg4
I0
sg5
(lp7116
(lp7117
(lp7118
I711
ag12
ag18
aa(lp7119
I711
ag9
ag29
aa(lp7120
I711
ag15
ag29
aa(lp7121
I711
ag17
ag18
aa(lp7122
I711
ag20
ag29
aa(lp7123
I711
ag22
ag13
aaasba(ihelper
PossibleWorld
p7124
(dp7125
g3
I712
sg4
I0
sg5
(lp7126
(lp7127
(lp7128
I712
ag12
ag18
aa(lp7129
I712
ag9
ag29
aa(lp7130
I712
ag15
ag29
aa(lp7131
I712
ag17
ag10
aa(lp7132
I712
ag20
ag29
aa(lp7133
I712
ag22
ag13
aaasba(ihelper
PossibleWorld
p7134
(dp7135
g3
I713
sg4
I0
sg5
(lp7136
(lp7137
(lp7138
I713
ag12
ag18
aa(lp7139
I713
ag9
ag29
aa(lp7140
I713
ag15
ag29
aa(lp7141
I713
ag17
ag10
aa(lp7142
I713
ag20
ag18
aa(lp7143
I713
ag22
ag13
aaasba(ihelper
PossibleWorld
p7144
(dp7145
g3
I714
sg4
I0
sg5
(lp7146
(lp7147
(lp7148
I714
ag12
ag18
aa(lp7149
I714
ag9
ag10
aa(lp7150
I714
ag15
ag29
aa(lp7151
I714
ag17
ag13
aa(lp7152
I714
ag20
ag29
aa(lp7153
I714
ag22
ag13
aaasba(ihelper
PossibleWorld
p7154
(dp7155
g3
I715
sg4
I0
sg5
(lp7156
(lp7157
(lp7158
I715
ag12
ag18
aa(lp7159
I715
ag9
ag10
aa(lp7160
I715
ag15
ag29
aa(lp7161
I715
ag17
ag10
aa(lp7162
I715
ag20
ag29
aa(lp7163
I715
ag22
ag13
aaasba(ihelper
PossibleWorld
p7164
(dp7165
g3
I716
sg4
I0
sg5
(lp7166
(lp7167
(lp7168
I716
ag12
ag18
aa(lp7169
I716
ag9
ag10
aa(lp7170
I716
ag15
ag29
aa(lp7171
I716
ag17
ag18
aa(lp7172
I716
ag20
ag29
aa(lp7173
I716
ag22
ag13
aaasba(ihelper
PossibleWorld
p7174
(dp7175
g3
I717
sg4
I0
sg5
(lp7176
(lp7177
(lp7178
I717
ag12
ag18
aa(lp7179
I717
ag9
ag10
aa(lp7180
I717
ag15
ag29
aa(lp7181
I717
ag17
ag13
aa(lp7182
I717
ag20
ag18
aa(lp7183
I717
ag22
ag13
aaasba(ihelper
PossibleWorld
p7184
(dp7185
g3
I718
sg4
I0
sg5
(lp7186
(lp7187
(lp7188
I718
ag12
ag18
aa(lp7189
I718
ag9
ag10
aa(lp7190
I718
ag15
ag29
aa(lp7191
I718
ag17
ag10
aa(lp7192
I718
ag20
ag18
aa(lp7193
I718
ag22
ag13
aaasba(ihelper
PossibleWorld
p7194
(dp7195
g3
I719
sg4
I0
sg5
(lp7196
(lp7197
(lp7198
I719
ag12
ag18
aa(lp7199
I719
ag9
ag13
aa(lp7200
I719
ag15
ag29
aa(lp7201
I719
ag17
ag13
aa(lp7202
I719
ag20
ag10
aa(lp7203
I719
ag22
ag29
aaasba(ihelper
PossibleWorld
p7204
(dp7205
g3
I720
sg4
I0
sg5
(lp7206
(lp7207
(lp7208
I720
ag12
ag18
aa(lp7209
I720
ag9
ag13
aa(lp7210
I720
ag15
ag29
aa(lp7211
I720
ag17
ag18
aa(lp7212
I720
ag20
ag10
aa(lp7213
I720
ag22
ag29
aaasba(ihelper
PossibleWorld
p7214
(dp7215
g3
I721
sg4
I0
sg5
(lp7216
(lp7217
(lp7218
I721
ag12
ag18
aa(lp7219
I721
ag9
ag13
aa(lp7220
I721
ag15
ag29
aa(lp7221
I721
ag17
ag13
aa(lp7222
I721
ag20
ag10
aa(lp7223
I721
ag22
ag18
aaasba(ihelper
PossibleWorld
p7224
(dp7225
g3
I722
sg4
I0
sg5
(lp7226
(lp7227
(lp7228
I722
ag12
ag18
aa(lp7229
I722
ag9
ag13
aa(lp7230
I722
ag15
ag29
aa(lp7231
I722
ag17
ag18
aa(lp7232
I722
ag20
ag10
aa(lp7233
I722
ag22
ag18
aaasba(ihelper
PossibleWorld
p7234
(dp7235
g3
I723
sg4
I0
sg5
(lp7236
(lp7237
(lp7238
I723
ag12
ag18
aa(lp7239
I723
ag9
ag29
aa(lp7240
I723
ag15
ag29
aa(lp7241
I723
ag17
ag13
aa(lp7242
I723
ag20
ag10
aa(lp7243
I723
ag22
ag13
aaasba(ihelper
PossibleWorld
p7244
(dp7245
g3
I724
sg4
I0
sg5
(lp7246
(lp7247
(lp7248
I724
ag12
ag18
aa(lp7249
I724
ag9
ag29
aa(lp7250
I724
ag15
ag29
aa(lp7251
I724
ag17
ag13
aa(lp7252
I724
ag20
ag10
aa(lp7253
I724
ag22
ag18
aaasba(ihelper
PossibleWorld
p7254
(dp7255
g3
I725
sg4
I0
sg5
(lp7256
(lp7257
(lp7258
I725
ag12
ag18
aa(lp7259
I725
ag9
ag29
aa(lp7260
I725
ag15
ag29
aa(lp7261
I725
ag17
ag18
aa(lp7262
I725
ag20
ag10
aa(lp7263
I725
ag22
ag13
aaasba(ihelper
PossibleWorld
p7264
(dp7265
g3
I726
sg4
I0
sg5
(lp7266
(lp7267
(lp7268
I726
ag12
ag18
aa(lp7269
I726
ag9
ag29
aa(lp7270
I726
ag15
ag29
aa(lp7271
I726
ag17
ag18
aa(lp7272
I726
ag20
ag10
aa(lp7273
I726
ag22
ag18
aaasba(ihelper
PossibleWorld
p7274
(dp7275
g3
I727
sg4
I0
sg5
(lp7276
(lp7277
(lp7278
I727
ag12
ag18
aa(lp7279
I727
ag9
ag10
aa(lp7280
I727
ag15
ag29
aa(lp7281
I727
ag17
ag13
aa(lp7282
I727
ag20
ag10
aa(lp7283
I727
ag22
ag13
aaasba(ihelper
PossibleWorld
p7284
(dp7285
g3
I728
sg4
I0
sg5
(lp7286
(lp7287
(lp7288
I728
ag12
ag18
aa(lp7289
I728
ag9
ag10
aa(lp7290
I728
ag15
ag29
aa(lp7291
I728
ag17
ag18
aa(lp7292
I728
ag20
ag10
aa(lp7293
I728
ag22
ag13
aaasba(ihelper
PossibleWorld
p7294
(dp7295
g3
I729
sg4
I0
sg5
(lp7296
(lp7297
(lp7298
I729
ag12
ag18
aa(lp7299
I729
ag9
ag10
aa(lp7300
I729
ag15
ag29
aa(lp7301
I729
ag17
ag13
aa(lp7302
I729
ag20
ag10
aa(lp7303
I729
ag22
ag29
aaasba(ihelper
PossibleWorld
p7304
(dp7305
g3
I730
sg4
I0
sg5
(lp7306
(lp7307
(lp7308
I730
ag12
ag18
aa(lp7309
I730
ag9
ag10
aa(lp7310
I730
ag15
ag29
aa(lp7311
I730
ag17
ag18
aa(lp7312
I730
ag20
ag10
aa(lp7313
I730
ag22
ag29
aaasba(ihelper
PossibleWorld
p7314
(dp7315
g3
I731
sg4
I0
sg5
(lp7316
(lp7317
(lp7318
I731
ag12
ag18
aa(lp7319
I731
ag9
ag10
aa(lp7320
I731
ag15
ag29
aa(lp7321
I731
ag17
ag13
aa(lp7322
I731
ag20
ag10
aa(lp7323
I731
ag22
ag18
aaasba(ihelper
PossibleWorld
p7324
(dp7325
g3
I732
sg4
I0
sg5
(lp7326
(lp7327
(lp7328
I732
ag12
ag18
aa(lp7329
I732
ag9
ag10
aa(lp7330
I732
ag15
ag29
aa(lp7331
I732
ag17
ag18
aa(lp7332
I732
ag20
ag10
aa(lp7333
I732
ag22
ag18
aaasba.