(lp0
(ihelper
PossibleWorld
p1
(dp2
S'pw_id'
p3
I1
sS'pw_soln'
p4
I0
sS'rls'
p5
(lp6
(lp7
(lp8
I1
aVcCEN_West
p9
aVcNDC_USA
p10
aV"<"
p11
aa(lp12
I1
aVcCEN_Northeast
p13
aVcNDC_USA
p14
aV"<"
p15
aa(lp16
I1
aVcCEN_South
p17
aVcNDC_USA
p18
aV"<"
p19
aa(lp20
I1
aVcCEN_USA
p21
aVcNDC_USA
p22
aV"="
p23
aa(lp24
I1
aVcCEN_USA
p25
aVcNDC_Northeast
p26
aV">"
p27
aa(lp28
I1
aVcCEN_USA
p29
aVcNDC_West
p30
aV">"
p31
aa(lp32
I1
aVcCEN_USA
p33
aVcNDC_Southeast
p34
aV">"
p35
aa(lp36
I1
aVcCEN_USA
p37
aVcNDC_Southwest
p38
aV">"
p39
aa(lp40
I1
aVcCEN_South
p41
aVcNDC_Southeast
p42
aV">"
p43
aa(lp44
I1
aVcCEN_West
p45
aVcNDC_Northeast
p46
aV"!"
p47
aa(lp48
I1
aVcCEN_West
p49
aVcNDC_Southeast
p50
aV"!"
p51
aa(lp52
I1
aVcCEN_Northeast
p53
aVcNDC_West
p54
aV"!"
p55
aa(lp56
I1
aVcCEN_Northeast
p57
aVcNDC_Southeast
p58
aV"!"
p59
aa(lp60
I1
aVcCEN_Northeast
p61
aVcNDC_Southwest
p62
aV"!"
p63
aa(lp64
I1
aVcCEN_South
p65
aVcNDC_West
p66
aV"!"
p67
aa(lp68
I1
aVcCEN_Northeast
p69
aVcNDC_Northeast
p70
aV"<"
p71
aa(lp72
I1
aVcCEN_Midwest
p73
aVcNDC_USA
p74
aV"<"
p75
aa(lp76
I1
aVcCEN_Midwest
p77
aVcNDC_Southwest
p78
aV"<"
p79
aa(lp80
I1
aVcCEN_USA
p81
aVcNDC_Midwest
p82
aV">"
p83
aa(lp84
I1
aVcCEN_West
p85
aVcNDC_West
p86
aV">"
p87
aa(lp88
I1
aVcCEN_South
p89
aVcNDC_Midwest
p90
aV">"
p91
aa(lp92
I1
aVcCEN_West
p93
aVcNDC_Southwest
p94
aV"><"
p95
aa(lp96
I1
aVcCEN_South
p97
aVcNDC_Northeast
p98
aV"><"
p99
aa(lp100
I1
aVcCEN_South
p101
aVcNDC_Southwest
p102
aV"><"
p103
aa(lp104
I1
aVcCEN_West
p105
aVcNDC_Midwest
p106
aV"!"
p107
aa(lp108
I1
aVcCEN_Northeast
p109
aVcNDC_Midwest
p110
aV"!"
p111
aa(lp112
I1
aVcCEN_Midwest
p113
aVcNDC_Northeast
p114
aV"!"
p115
aa(lp116
I1
aVcCEN_Midwest
p117
aVcNDC_West
p118
aV"!"
p119
aa(lp120
I1
aVcCEN_Midwest
p121
aVcNDC_Southeast
p122
aV"!"
p123
aa(lp124
I1
aVcCEN_Midwest
p125
aVcNDC_Midwest
p126
aV"!"
p127
aaasba(ihelper
PossibleWorld
p128
(dp129
g3
I2
sg4
I0
sg5
(lp130
(lp131
(lp132
I2
aVcCEN_West
p133
aVcNDC_USA
p134
aV"<"
p135
aa(lp136
I2
aVcCEN_Northeast
p137
aVcNDC_USA
p138
aV"<"
p139
aa(lp140
I2
aVcCEN_South
p141
aVcNDC_USA
p142
aV"<"
p143
aa(lp144
I2
aVcCEN_USA
p145
aVcNDC_USA
p146
aV"="
p147
aa(lp148
I2
aVcCEN_USA
p149
aVcNDC_Northeast
p150
aV">"
p151
aa(lp152
I2
aVcCEN_USA
p153
aVcNDC_West
p154
aV">"
p155
aa(lp156
I2
aVcCEN_USA
p157
aVcNDC_Southeast
p158
aV">"
p159
aa(lp160
I2
aVcCEN_USA
p161
aVcNDC_Southwest
p162
aV">"
p163
aa(lp164
I2
aVcCEN_South
p165
aVcNDC_Southeast
p166
aV">"
p167
aa(lp168
I2
aVcCEN_West
p169
aVcNDC_Northeast
p170
aV"!"
p171
aa(lp172
I2
aVcCEN_West
p173
aVcNDC_Southeast
p174
aV"!"
p175
aa(lp176
I2
aVcCEN_Northeast
p177
aVcNDC_West
p178
aV"!"
p179
aa(lp180
I2
aVcCEN_Northeast
p181
aVcNDC_Southeast
p182
aV"!"
p183
aa(lp184
I2
aVcCEN_Northeast
p185
aVcNDC_Southwest
p186
aV"!"
p187
aa(lp188
I2
aVcCEN_South
p189
aVcNDC_West
p190
aV"!"
p191
aa(lp192
I2
aVcCEN_Northeast
p193
aVcNDC_Northeast
p194
aV"<"
p195
aa(lp196
I2
aVcCEN_Midwest
p197
aVcNDC_USA
p198
aV"<"
p199
aa(lp200
I2
aVcCEN_Midwest
p201
aVcNDC_Southwest
p202
aV"<"
p203
aa(lp204
I2
aVcCEN_USA
p205
aVcNDC_Midwest
p206
aV">"
p207
aa(lp208
I2
aVcCEN_West
p209
aVcNDC_West
p210
aV">"
p211
aa(lp212
I2
aVcCEN_West
p213
aVcNDC_Midwest
p214
aV">"
p215
aa(lp216
I2
aVcCEN_South
p217
aVcNDC_Northeast
p218
aV"><"
p219
aa(lp220
I2
aVcCEN_South
p221
aVcNDC_Southwest
p222
aV"><"
p223
aa(lp224
I2
aVcCEN_West
p225
aVcNDC_Southwest
p226
aV"!"
p227
aa(lp228
I2
aVcCEN_Northeast
p229
aVcNDC_Midwest
p230
aV"!"
p231
aa(lp232
I2
aVcCEN_Midwest
p233
aVcNDC_Northeast
p234
aV"!"
p235
aa(lp236
I2
aVcCEN_Midwest
p237
aVcNDC_West
p238
aV"!"
p239
aa(lp240
I2
aVcCEN_Midwest
p241
aVcNDC_Southeast
p242
aV"!"
p243
aa(lp244
I2
aVcCEN_Midwest
p245
aVcNDC_Midwest
p246
aV"!"
p247
aa(lp248
I2
aVcCEN_South
p249
aVcNDC_Midwest
p250
aV"!"
p251
aaasba(ihelper
PossibleWorld
p252
(dp253
g3
I3
sg4
I0
sg5
(lp254
(lp255
(lp256
I3
aVcCEN_West
p257
aVcNDC_USA
p258
aV"<"
p259
aa(lp260
I3
aVcCEN_Northeast
p261
aVcNDC_USA
p262
aV"<"
p263
aa(lp264
I3
aVcCEN_South
p265
aVcNDC_USA
p266
aV"<"
p267
aa(lp268
I3
aVcCEN_USA
p269
aVcNDC_USA
p270
aV"="
p271
aa(lp272
I3
aVcCEN_USA
p273
aVcNDC_Northeast
p274
aV">"
p275
aa(lp276
I3
aVcCEN_USA
p277
aVcNDC_West
p278
aV">"
p279
aa(lp280
I3
aVcCEN_USA
p281
aVcNDC_Southeast
p282
aV">"
p283
aa(lp284
I3
aVcCEN_USA
p285
aVcNDC_Southwest
p286
aV">"
p287
aa(lp288
I3
aVcCEN_South
p289
aVcNDC_Southeast
p290
aV">"
p291
aa(lp292
I3
aVcCEN_West
p293
aVcNDC_Northeast
p294
aV"!"
p295
aa(lp296
I3
aVcCEN_West
p297
aVcNDC_Southeast
p298
aV"!"
p299
aa(lp300
I3
aVcCEN_Northeast
p301
aVcNDC_West
p302
aV"!"
p303
aa(lp304
I3
aVcCEN_Northeast
p305
aVcNDC_Southeast
p306
aV"!"
p307
aa(lp308
I3
aVcCEN_Northeast
p309
aVcNDC_Southwest
p310
aV"!"
p311
aa(lp312
I3
aVcCEN_South
p313
aVcNDC_West
p314
aV"!"
p315
aa(lp316
I3
aVcCEN_Northeast
p317
aVcNDC_Northeast
p318
aV"<"
p319
aa(lp320
I3
aVcCEN_Midwest
p321
aVcNDC_USA
p322
aV"<"
p323
aa(lp324
I3
aVcCEN_Midwest
p325
aVcNDC_Southwest
p326
aV"<"
p327
aa(lp328
I3
aVcCEN_USA
p329
aVcNDC_Midwest
p330
aV">"
p331
aa(lp332
I3
aVcCEN_West
p333
aVcNDC_West
p334
aV">"
p335
aa(lp336
I3
aVcCEN_West
p337
aVcNDC_Midwest
p338
aV">"
p339
aa(lp340
I3
aVcCEN_West
p341
aVcNDC_Southwest
p342
aV"><"
p343
aa(lp344
I3
aVcCEN_South
p345
aVcNDC_Northeast
p346
aV"><"
p347
aa(lp348
I3
aVcCEN_South
p349
aVcNDC_Southwest
p350
aV"><"
p351
aa(lp352
I3
aVcCEN_Northeast
p353
aVcNDC_Midwest
p354
aV"!"
p355
aa(lp356
I3
aVcCEN_Midwest
p357
aVcNDC_Northeast
p358
aV"!"
p359
aa(lp360
I3
aVcCEN_Midwest
p361
aVcNDC_West
p362
aV"!"
p363
aa(lp364
I3
aVcCEN_Midwest
p365
aVcNDC_Southeast
p366
aV"!"
p367
aa(lp368
I3
aVcCEN_Midwest
p369
aVcNDC_Midwest
p370
aV"!"
p371
aa(lp372
I3
aVcCEN_South
p373
aVcNDC_Midwest
p374
aV"!"
p375
aaasba(ihelper
PossibleWorld
p376
(dp377
g3
I4
sg4
I0
sg5
(lp378
(lp379
(lp380
I4
aVcCEN_West
p381
aVcNDC_USA
p382
aV"<"
p383
aa(lp384
I4
aVcCEN_Northeast
p385
aVcNDC_USA
p386
aV"<"
p387
aa(lp388
I4
aVcCEN_South
p389
aVcNDC_USA
p390
aV"<"
p391
aa(lp392
I4
aVcCEN_USA
p393
aVcNDC_USA
p394
aV"="
p395
aa(lp396
I4
aVcCEN_USA
p397
aVcNDC_Northeast
p398
aV">"
p399
aa(lp400
I4
aVcCEN_USA
p401
aVcNDC_West
p402
aV">"
p403
aa(lp404
I4
aVcCEN_USA
p405
aVcNDC_Southeast
p406
aV">"
p407
aa(lp408
I4
aVcCEN_USA
p409
aVcNDC_Southwest
p410
aV">"
p411
aa(lp412
I4
aVcCEN_South
p413
aVcNDC_Southeast
p414
aV">"
p415
aa(lp416
I4
aVcCEN_West
p417
aVcNDC_Northeast
p418
aV"!"
p419
aa(lp420
I4
aVcCEN_West
p421
aVcNDC_Southeast
p422
aV"!"
p423
aa(lp424
I4
aVcCEN_Northeast
p425
aVcNDC_West
p426
aV"!"
p427
aa(lp428
I4
aVcCEN_Northeast
p429
aVcNDC_Southeast
p430
aV"!"
p431
aa(lp432
I4
aVcCEN_Northeast
p433
aVcNDC_Southwest
p434
aV"!"
p435
aa(lp436
I4
aVcCEN_South
p437
aVcNDC_West
p438
aV"!"
p439
aa(lp440
I4
aVcCEN_Northeast
p441
aVcNDC_Northeast
p442
aV"<"
p443
aa(lp444
I4
aVcCEN_Midwest
p445
aVcNDC_USA
p446
aV"<"
p447
aa(lp448
I4
aVcCEN_Midwest
p449
aVcNDC_Southwest
p450
aV"<"
p451
aa(lp452
I4
aVcCEN_USA
p453
aVcNDC_Midwest
p454
aV">"
p455
aa(lp456
I4
aVcCEN_West
p457
aVcNDC_West
p458
aV">"
p459
aa(lp460
I4
aVcCEN_West
p461
aVcNDC_Midwest
p462
aV"><"
p463
aa(lp464
I4
aVcCEN_South
p465
aVcNDC_Northeast
p466
aV"><"
p467
aa(lp468
I4
aVcCEN_South
p469
aVcNDC_Midwest
p470
aV"><"
p471
aa(lp472
I4
aVcCEN_South
p473
aVcNDC_Southwest
p474
aV"><"
p475
aa(lp476
I4
aVcCEN_West
p477
aVcNDC_Southwest
p478
aV"!"
p479
aa(lp480
I4
aVcCEN_Northeast
p481
aVcNDC_Midwest
p482
aV"!"
p483
aa(lp484
I4
aVcCEN_Midwest
p485
aVcNDC_Northeast
p486
aV"!"
p487
aa(lp488
I4
aVcCEN_Midwest
p489
aVcNDC_West
p490
aV"!"
p491
aa(lp492
I4
aVcCEN_Midwest
p493
aVcNDC_Southeast
p494
aV"!"
p495
aa(lp496
I4
aVcCEN_Midwest
p497
aVcNDC_Midwest
p498
aV"!"
p499
aaasba(ihelper
PossibleWorld
p500
(dp501
g3
I5
sg4
I0
sg5
(lp502
(lp503
(lp504
I5
aVcCEN_West
p505
aVcNDC_USA
p506
aV"<"
p507
aa(lp508
I5
aVcCEN_Northeast
p509
aVcNDC_USA
p510
aV"<"
p511
aa(lp512
I5
aVcCEN_South
p513
aVcNDC_USA
p514
aV"<"
p515
aa(lp516
I5
aVcCEN_USA
p517
aVcNDC_USA
p518
aV"="
p519
aa(lp520
I5
aVcCEN_USA
p521
aVcNDC_Northeast
p522
aV">"
p523
aa(lp524
I5
aVcCEN_USA
p525
aVcNDC_West
p526
aV">"
p527
aa(lp528
I5
aVcCEN_USA
p529
aVcNDC_Southeast
p530
aV">"
p531
aa(lp532
I5
aVcCEN_USA
p533
aVcNDC_Southwest
p534
aV">"
p535
aa(lp536
I5
aVcCEN_South
p537
aVcNDC_Southeast
p538
aV">"
p539
aa(lp540
I5
aVcCEN_West
p541
aVcNDC_Northeast
p542
aV"!"
p543
aa(lp544
I5
aVcCEN_West
p545
aVcNDC_Southeast
p546
aV"!"
p547
aa(lp548
I5
aVcCEN_Northeast
p549
aVcNDC_West
p550
aV"!"
p551
aa(lp552
I5
aVcCEN_Northeast
p553
aVcNDC_Southeast
p554
aV"!"
p555
aa(lp556
I5
aVcCEN_Northeast
p557
aVcNDC_Southwest
p558
aV"!"
p559
aa(lp560
I5
aVcCEN_South
p561
aVcNDC_West
p562
aV"!"
p563
aa(lp564
I5
aVcCEN_Northeast
p565
aVcNDC_Northeast
p566
aV"<"
p567
aa(lp568
I5
aVcCEN_Midwest
p569
aVcNDC_USA
p570
aV"<"
p571
aa(lp572
I5
aVcCEN_Midwest
p573
aVcNDC_Southwest
p574
aV"<"
p575
aa(lp576
I5
aVcCEN_USA
p577
aVcNDC_Midwest
p578
aV">"
p579
aa(lp580
I5
aVcCEN_West
p581
aVcNDC_West
p582
aV">"
p583
aa(lp584
I5
aVcCEN_West
p585
aVcNDC_Midwest
p586
aV"><"
p587
aa(lp588
I5
aVcCEN_West
p589
aVcNDC_Southwest
p590
aV"><"
p591
aa(lp592
I5
aVcCEN_South
p593
aVcNDC_Northeast
p594
aV"><"
p595
aa(lp596
I5
aVcCEN_South
p597
aVcNDC_Midwest
p598
aV"><"
p599
aa(lp600
I5
aVcCEN_South
p601
aVcNDC_Southwest
p602
aV"><"
p603
aa(lp604
I5
aVcCEN_Northeast
p605
aVcNDC_Midwest
p606
aV"!"
p607
aa(lp608
I5
aVcCEN_Midwest
p609
aVcNDC_Northeast
p610
aV"!"
p611
aa(lp612
I5
aVcCEN_Midwest
p613
aVcNDC_West
p614
aV"!"
p615
aa(lp616
I5
aVcCEN_Midwest
p617
aVcNDC_Southeast
p618
aV"!"
p619
aa(lp620
I5
aVcCEN_Midwest
p621
aVcNDC_Midwest
p622
aV"!"
p623
aaasba(ihelper
PossibleWorld
p624
(dp625
g3
I6
sg4
I0
sg5
(lp626
(lp627
(lp628
I6
aVcCEN_West
p629
aVcNDC_USA
p630
aV"<"
p631
aa(lp632
I6
aVcCEN_Northeast
p633
aVcNDC_USA
p634
aV"<"
p635
aa(lp636
I6
aVcCEN_South
p637
aVcNDC_USA
p638
aV"<"
p639
aa(lp640
I6
aVcCEN_USA
p641
aVcNDC_USA
p642
aV"="
p643
aa(lp644
I6
aVcCEN_USA
p645
aVcNDC_Northeast
p646
aV">"
p647
aa(lp648
I6
aVcCEN_USA
p649
aVcNDC_West
p650
aV">"
p651
aa(lp652
I6
aVcCEN_USA
p653
aVcNDC_Southeast
p654
aV">"
p655
aa(lp656
I6
aVcCEN_USA
p657
aVcNDC_Southwest
p658
aV">"
p659
aa(lp660
I6
aVcCEN_South
p661
aVcNDC_Southeast
p662
aV">"
p663
aa(lp664
I6
aVcCEN_West
p665
aVcNDC_Northeast
p666
aV"!"
p667
aa(lp668
I6
aVcCEN_West
p669
aVcNDC_Southeast
p670
aV"!"
p671
aa(lp672
I6
aVcCEN_Northeast
p673
aVcNDC_West
p674
aV"!"
p675
aa(lp676
I6
aVcCEN_Northeast
p677
aVcNDC_Southeast
p678
aV"!"
p679
aa(lp680
I6
aVcCEN_Northeast
p681
aVcNDC_Southwest
p682
aV"!"
p683
aa(lp684
I6
aVcCEN_South
p685
aVcNDC_West
p686
aV"!"
p687
aa(lp688
I6
aVcCEN_Northeast
p689
aVcNDC_Northeast
p690
aV"<"
p691
aa(lp692
I6
aVcCEN_Midwest
p693
aVcNDC_Northeast
p694
aV"<"
p695
aa(lp696
I6
aVcCEN_Midwest
p697
aVcNDC_USA
p698
aV"<"
p699
aa(lp700
I6
aVcCEN_USA
p701
aVcNDC_Midwest
p702
aV">"
p703
aa(lp704
I6
aVcCEN_West
p705
aVcNDC_West
p706
aV">"
p707
aa(lp708
I6
aVcCEN_South
p709
aVcNDC_Midwest
p710
aV">"
p711
aa(lp712
I6
aVcCEN_West
p713
aVcNDC_Southwest
p714
aV"><"
p715
aa(lp716
I6
aVcCEN_South
p717
aVcNDC_Southwest
p718
aV"><"
p719
aa(lp720
I6
aVcCEN_West
p721
aVcNDC_Midwest
p722
aV"!"
p723
aa(lp724
I6
aVcCEN_Northeast
p725
aVcNDC_Midwest
p726
aV"!"
p727
aa(lp728
I6
aVcCEN_Midwest
p729
aVcNDC_West
p730
aV"!"
p731
aa(lp732
I6
aVcCEN_Midwest
p733
aVcNDC_Southeast
p734
aV"!"
p735
aa(lp736
I6
aVcCEN_Midwest
p737
aVcNDC_Midwest
p738
aV"!"
p739
aa(lp740
I6
aVcCEN_Midwest
p741
aVcNDC_Southwest
p742
aV"!"
p743
aa(lp744
I6
aVcCEN_South
p745
aVcNDC_Northeast
p746
aV"!"
p747
aaasba(ihelper
PossibleWorld
p748
(dp749
g3
I7
sg4
I0
sg5
(lp750
(lp751
(lp752
I7
aVcCEN_West
p753
aVcNDC_USA
p754
aV"<"
p755
aa(lp756
I7
aVcCEN_Northeast
p757
aVcNDC_USA
p758
aV"<"
p759
aa(lp760
I7
aVcCEN_South
p761
aVcNDC_USA
p762
aV"<"
p763
aa(lp764
I7
aVcCEN_USA
p765
aVcNDC_USA
p766
aV"="
p767
aa(lp768
I7
aVcCEN_USA
p769
aVcNDC_Northeast
p770
aV">"
p771
aa(lp772
I7
aVcCEN_USA
p773
aVcNDC_West
p774
aV">"
p775
aa(lp776
I7
aVcCEN_USA
p777
aVcNDC_Southeast
p778
aV">"
p779
aa(lp780
I7
aVcCEN_USA
p781
aVcNDC_Southwest
p782
aV">"
p783
aa(lp784
I7
aVcCEN_South
p785
aVcNDC_Southeast
p786
aV">"
p787
aa(lp788
I7
aVcCEN_West
p789
aVcNDC_Northeast
p790
aV"!"
p791
aa(lp792
I7
aVcCEN_West
p793
aVcNDC_Southeast
p794
aV"!"
p795
aa(lp796
I7
aVcCEN_Northeast
p797
aVcNDC_West
p798
aV"!"
p799
aa(lp800
I7
aVcCEN_Northeast
p801
aVcNDC_Southeast
p802
aV"!"
p803
aa(lp804
I7
aVcCEN_Northeast
p805
aVcNDC_Southwest
p806
aV"!"
p807
aa(lp808
I7
aVcCEN_South
p809
aVcNDC_West
p810
aV"!"
p811
aa(lp812
I7
aVcCEN_Northeast
p813
aVcNDC_Northeast
p814
aV"<"
p815
aa(lp816
I7
aVcCEN_Midwest
p817
aVcNDC_Northeast
p818
aV"<"
p819
aa(lp820
I7
aVcCEN_Midwest
p821
aVcNDC_USA
p822
aV"<"
p823
aa(lp824
I7
aVcCEN_USA
p825
aVcNDC_Midwest
p826
aV">"
p827
aa(lp828
I7
aVcCEN_West
p829
aVcNDC_West
p830
aV">"
p831
aa(lp832
I7
aVcCEN_South
p833
aVcNDC_Midwest
p834
aV">"
p835
aa(lp836
I7
aVcCEN_West
p837
aVcNDC_Southwest
p838
aV"><"
p839
aa(lp840
I7
aVcCEN_South
p841
aVcNDC_Northeast
p842
aV"><"
p843
aa(lp844
I7
aVcCEN_South
p845
aVcNDC_Southwest
p846
aV"><"
p847
aa(lp848
I7
aVcCEN_West
p849
aVcNDC_Midwest
p850
aV"!"
p851
aa(lp852
I7
aVcCEN_Northeast
p853
aVcNDC_Midwest
p854
aV"!"
p855
aa(lp856
I7
aVcCEN_Midwest
p857
aVcNDC_West
p858
aV"!"
p859
aa(lp860
I7
aVcCEN_Midwest
p861
aVcNDC_Southeast
p862
aV"!"
p863
aa(lp864
I7
aVcCEN_Midwest
p865
aVcNDC_Midwest
p866
aV"!"
p867
aa(lp868
I7
aVcCEN_Midwest
p869
aVcNDC_Southwest
p870
aV"!"
p871
aaasba(ihelper
PossibleWorld
p872
(dp873
g3
I8
sg4
I0
sg5
(lp874
(lp875
(lp876
I8
aVcCEN_West
p877
aVcNDC_USA
p878
aV"<"
p879
aa(lp880
I8
aVcCEN_Northeast
p881
aVcNDC_USA
p882
aV"<"
p883
aa(lp884
I8
aVcCEN_South
p885
aVcNDC_USA
p886
aV"<"
p887
aa(lp888
I8
aVcCEN_USA
p889
aVcNDC_USA
p890
aV"="
p891
aa(lp892
I8
aVcCEN_USA
p893
aVcNDC_Northeast
p894
aV">"
p895
aa(lp896
I8
aVcCEN_USA
p897
aVcNDC_West
p898
aV">"
p899
aa(lp900
I8
aVcCEN_USA
p901
aVcNDC_Southeast
p902
aV">"
p903
aa(lp904
I8
aVcCEN_USA
p905
aVcNDC_Southwest
p906
aV">"
p907
aa(lp908
I8
aVcCEN_South
p909
aVcNDC_Southeast
p910
aV">"
p911
aa(lp912
I8
aVcCEN_West
p913
aVcNDC_Northeast
p914
aV"!"
p915
aa(lp916
I8
aVcCEN_West
p917
aVcNDC_Southeast
p918
aV"!"
p919
aa(lp920
I8
aVcCEN_Northeast
p921
aVcNDC_West
p922
aV"!"
p923
aa(lp924
I8
aVcCEN_Northeast
p925
aVcNDC_Southeast
p926
aV"!"
p927
aa(lp928
I8
aVcCEN_Northeast
p929
aVcNDC_Southwest
p930
aV"!"
p931
aa(lp932
I8
aVcCEN_South
p933
aVcNDC_West
p934
aV"!"
p935
aa(lp936
I8
aVcCEN_Northeast
p937
aVcNDC_Northeast
p938
aV"<"
p939
aa(lp940
I8
aVcCEN_Midwest
p941
aVcNDC_Northeast
p942
aV"<"
p943
aa(lp944
I8
aVcCEN_Midwest
p945
aVcNDC_USA
p946
aV"<"
p947
aa(lp948
I8
aVcCEN_USA
p949
aVcNDC_Midwest
p950
aV">"
p951
aa(lp952
I8
aVcCEN_West
p953
aVcNDC_West
p954
aV">"
p955
aa(lp956
I8
aVcCEN_West
p957
aVcNDC_Midwest
p958
aV">"
p959
aa(lp960
I8
aVcCEN_West
p961
aVcNDC_Southwest
p962
aV"><"
p963
aa(lp964
I8
aVcCEN_South
p965
aVcNDC_Southwest
p966
aV"><"
p967
aa(lp968
I8
aVcCEN_Northeast
p969
aVcNDC_Midwest
p970
aV"!"
p971
aa(lp972
I8
aVcCEN_Midwest
p973
aVcNDC_West
p974
aV"!"
p975
aa(lp976
I8
aVcCEN_Midwest
p977
aVcNDC_Southeast
p978
aV"!"
p979
aa(lp980
I8
aVcCEN_Midwest
p981
aVcNDC_Midwest
p982
aV"!"
p983
aa(lp984
I8
aVcCEN_Midwest
p985
aVcNDC_Southwest
p986
aV"!"
p987
aa(lp988
I8
aVcCEN_South
p989
aVcNDC_Northeast
p990
aV"!"
p991
aa(lp992
I8
aVcCEN_South
p993
aVcNDC_Midwest
p994
aV"!"
p995
aaasba(ihelper
PossibleWorld
p996
(dp997
g3
I9
sg4
I0
sg5
(lp998
(lp999
(lp1000
I9
aVcCEN_West
p1001
aVcNDC_USA
p1002
aV"<"
p1003
aa(lp1004
I9
aVcCEN_Northeast
p1005
aVcNDC_USA
p1006
aV"<"
p1007
aa(lp1008
I9
aVcCEN_South
p1009
aVcNDC_USA
p1010
aV"<"
p1011
aa(lp1012
I9
aVcCEN_USA
p1013
aVcNDC_USA
p1014
aV"="
p1015
aa(lp1016
I9
aVcCEN_USA
p1017
aVcNDC_Northeast
p1018
aV">"
p1019
aa(lp1020
I9
aVcCEN_USA
p1021
aVcNDC_West
p1022
aV">"
p1023
aa(lp1024
I9
aVcCEN_USA
p1025
aVcNDC_Southeast
p1026
aV">"
p1027
aa(lp1028
I9
aVcCEN_USA
p1029
aVcNDC_Southwest
p1030
aV">"
p1031
aa(lp1032
I9
aVcCEN_South
p1033
aVcNDC_Southeast
p1034
aV">"
p1035
aa(lp1036
I9
aVcCEN_West
p1037
aVcNDC_Northeast
p1038
aV"!"
p1039
aa(lp1040
I9
aVcCEN_West
p1041
aVcNDC_Southeast
p1042
aV"!"
p1043
aa(lp1044
I9
aVcCEN_Northeast
p1045
aVcNDC_West
p1046
aV"!"
p1047
aa(lp1048
I9
aVcCEN_Northeast
p1049
aVcNDC_Southeast
p1050
aV"!"
p1051
aa(lp1052
I9
aVcCEN_Northeast
p1053
aVcNDC_Southwest
p1054
aV"!"
p1055
aa(lp1056
I9
aVcCEN_South
p1057
aVcNDC_West
p1058
aV"!"
p1059
aa(lp1060
I9
aVcCEN_Northeast
p1061
aVcNDC_Northeast
p1062
aV"<"
p1063
aa(lp1064
I9
aVcCEN_Midwest
p1065
aVcNDC_Northeast
p1066
aV"<"
p1067
aa(lp1068
I9
aVcCEN_Midwest
p1069
aVcNDC_USA
p1070
aV"<"
p1071
aa(lp1072
I9
aVcCEN_USA
p1073
aVcNDC_Midwest
p1074
aV">"
p1075
aa(lp1076
I9
aVcCEN_West
p1077
aVcNDC_West
p1078
aV">"
p1079
aa(lp1080
I9
aVcCEN_West
p1081
aVcNDC_Midwest
p1082
aV">"
p1083
aa(lp1084
I9
aVcCEN_West
p1085
aVcNDC_Southwest
p1086
aV"><"
p1087
aa(lp1088
I9
aVcCEN_South
p1089
aVcNDC_Northeast
p1090
aV"><"
p1091
aa(lp1092
I9
aVcCEN_South
p1093
aVcNDC_Southwest
p1094
aV"><"
p1095
aa(lp1096
I9
aVcCEN_Northeast
p1097
aVcNDC_Midwest
p1098
aV"!"
p1099
aa(lp1100
I9
aVcCEN_Midwest
p1101
aVcNDC_West
p1102
aV"!"
p1103
aa(lp1104
I9
aVcCEN_Midwest
p1105
aVcNDC_Southeast
p1106
aV"!"
p1107
aa(lp1108
I9
aVcCEN_Midwest
p1109
aVcNDC_Midwest
p1110
aV"!"
p1111
aa(lp1112
I9
aVcCEN_Midwest
p1113
aVcNDC_Southwest
p1114
aV"!"
p1115
aa(lp1116
I9
aVcCEN_South
p1117
aVcNDC_Midwest
p1118
aV"!"
p1119
aaasba(ihelper
PossibleWorld
p1120
(dp1121
g3
I10
sg4
I0
sg5
(lp1122
(lp1123
(lp1124
I10
aVcCEN_West
p1125
aVcNDC_USA
p1126
aV"<"
p1127
aa(lp1128
I10
aVcCEN_Northeast
p1129
aVcNDC_USA
p1130
aV"<"
p1131
aa(lp1132
I10
aVcCEN_South
p1133
aVcNDC_USA
p1134
aV"<"
p1135
aa(lp1136
I10
aVcCEN_USA
p1137
aVcNDC_USA
p1138
aV"="
p1139
aa(lp1140
I10
aVcCEN_USA
p1141
aVcNDC_Northeast
p1142
aV">"
p1143
aa(lp1144
I10
aVcCEN_USA
p1145
aVcNDC_West
p1146
aV">"
p1147
aa(lp1148
I10
aVcCEN_USA
p1149
aVcNDC_Southeast
p1150
aV">"
p1151
aa(lp1152
I10
aVcCEN_USA
p1153
aVcNDC_Southwest
p1154
aV">"
p1155
aa(lp1156
I10
aVcCEN_South
p1157
aVcNDC_Southeast
p1158
aV">"
p1159
aa(lp1160
I10
aVcCEN_West
p1161
aVcNDC_Northeast
p1162
aV"!"
p1163
aa(lp1164
I10
aVcCEN_West
p1165
aVcNDC_Southeast
p1166
aV"!"
p1167
aa(lp1168
I10
aVcCEN_Northeast
p1169
aVcNDC_West
p1170
aV"!"
p1171
aa(lp1172
I10
aVcCEN_Northeast
p1173
aVcNDC_Southeast
p1174
aV"!"
p1175
aa(lp1176
I10
aVcCEN_Northeast
p1177
aVcNDC_Southwest
p1178
aV"!"
p1179
aa(lp1180
I10
aVcCEN_South
p1181
aVcNDC_West
p1182
aV"!"
p1183
aa(lp1184
I10
aVcCEN_Northeast
p1185
aVcNDC_Northeast
p1186
aV"<"
p1187
aa(lp1188
I10
aVcCEN_Midwest
p1189
aVcNDC_Northeast
p1190
aV"<"
p1191
aa(lp1192
I10
aVcCEN_Midwest
p1193
aVcNDC_USA
p1194
aV"<"
p1195
aa(lp1196
I10
aVcCEN_USA
p1197
aVcNDC_Midwest
p1198
aV">"
p1199
aa(lp1200
I10
aVcCEN_West
p1201
aVcNDC_West
p1202
aV">"
p1203
aa(lp1204
I10
aVcCEN_West
p1205
aVcNDC_Midwest
p1206
aV"><"
p1207
aa(lp1208
I10
aVcCEN_West
p1209
aVcNDC_Southwest
p1210
aV"><"
p1211
aa(lp1212
I10
aVcCEN_South
p1213
aVcNDC_Midwest
p1214
aV"><"
p1215
aa(lp1216
I10
aVcCEN_South
p1217
aVcNDC_Southwest
p1218
aV"><"
p1219
aa(lp1220
I10
aVcCEN_Northeast
p1221
aVcNDC_Midwest
p1222
aV"!"
p1223
aa(lp1224
I10
aVcCEN_Midwest
p1225
aVcNDC_West
p1226
aV"!"
p1227
aa(lp1228
I10
aVcCEN_Midwest
p1229
aVcNDC_Southeast
p1230
aV"!"
p1231
aa(lp1232
I10
aVcCEN_Midwest
p1233
aVcNDC_Midwest
p1234
aV"!"
p1235
aa(lp1236
I10
aVcCEN_Midwest
p1237
aVcNDC_Southwest
p1238
aV"!"
p1239
aa(lp1240
I10
aVcCEN_South
p1241
aVcNDC_Northeast
p1242
aV"!"
p1243
aaasba(ihelper
PossibleWorld
p1244
(dp1245
g3
I11
sg4
I0
sg5
(lp1246
(lp1247
(lp1248
I11
aVcCEN_West
p1249
aVcNDC_USA
p1250
aV"<"
p1251
aa(lp1252
I11
aVcCEN_Northeast
p1253
aVcNDC_USA
p1254
aV"<"
p1255
aa(lp1256
I11
aVcCEN_South
p1257
aVcNDC_USA
p1258
aV"<"
p1259
aa(lp1260
I11
aVcCEN_USA
p1261
aVcNDC_USA
p1262
aV"="
p1263
aa(lp1264
I11
aVcCEN_USA
p1265
aVcNDC_Northeast
p1266
aV">"
p1267
aa(lp1268
I11
aVcCEN_USA
p1269
aVcNDC_West
p1270
aV">"
p1271
aa(lp1272
I11
aVcCEN_USA
p1273
aVcNDC_Southeast
p1274
aV">"
p1275
aa(lp1276
I11
aVcCEN_USA
p1277
aVcNDC_Southwest
p1278
aV">"
p1279
aa(lp1280
I11
aVcCEN_South
p1281
aVcNDC_Southeast
p1282
aV">"
p1283
aa(lp1284
I11
aVcCEN_West
p1285
aVcNDC_Northeast
p1286
aV"!"
p1287
aa(lp1288
I11
aVcCEN_West
p1289
aVcNDC_Southeast
p1290
aV"!"
p1291
aa(lp1292
I11
aVcCEN_Northeast
p1293
aVcNDC_West
p1294
aV"!"
p1295
aa(lp1296
I11
aVcCEN_Northeast
p1297
aVcNDC_Southeast
p1298
aV"!"
p1299
aa(lp1300
I11
aVcCEN_Northeast
p1301
aVcNDC_Southwest
p1302
aV"!"
p1303
aa(lp1304
I11
aVcCEN_South
p1305
aVcNDC_West
p1306
aV"!"
p1307
aa(lp1308
I11
aVcCEN_Northeast
p1309
aVcNDC_Northeast
p1310
aV"<"
p1311
aa(lp1312
I11
aVcCEN_Midwest
p1313
aVcNDC_Northeast
p1314
aV"<"
p1315
aa(lp1316
I11
aVcCEN_Midwest
p1317
aVcNDC_USA
p1318
aV"<"
p1319
aa(lp1320
I11
aVcCEN_USA
p1321
aVcNDC_Midwest
p1322
aV">"
p1323
aa(lp1324
I11
aVcCEN_West
p1325
aVcNDC_West
p1326
aV">"
p1327
aa(lp1328
I11
aVcCEN_West
p1329
aVcNDC_Midwest
p1330
aV"><"
p1331
aa(lp1332
I11
aVcCEN_West
p1333
aVcNDC_Southwest
p1334
aV"><"
p1335
aa(lp1336
I11
aVcCEN_South
p1337
aVcNDC_Northeast
p1338
aV"><"
p1339
aa(lp1340
I11
aVcCEN_South
p1341
aVcNDC_Midwest
p1342
aV"><"
p1343
aa(lp1344
I11
aVcCEN_South
p1345
aVcNDC_Southwest
p1346
aV"><"
p1347
aa(lp1348
I11
aVcCEN_Northeast
p1349
aVcNDC_Midwest
p1350
aV"!"
p1351
aa(lp1352
I11
aVcCEN_Midwest
p1353
aVcNDC_West
p1354
aV"!"
p1355
aa(lp1356
I11
aVcCEN_Midwest
p1357
aVcNDC_Southeast
p1358
aV"!"
p1359
aa(lp1360
I11
aVcCEN_Midwest
p1361
aVcNDC_Midwest
p1362
aV"!"
p1363
aa(lp1364
I11
aVcCEN_Midwest
p1365
aVcNDC_Southwest
p1366
aV"!"
p1367
aaasba(ihelper
PossibleWorld
p1368
(dp1369
g3
I12
sg4
I0
sg5
(lp1370
(lp1371
(lp1372
I12
aVcCEN_West
p1373
aVcNDC_USA
p1374
aV"<"
p1375
aa(lp1376
I12
aVcCEN_Northeast
p1377
aVcNDC_USA
p1378
aV"<"
p1379
aa(lp1380
I12
aVcCEN_South
p1381
aVcNDC_USA
p1382
aV"<"
p1383
aa(lp1384
I12
aVcCEN_USA
p1385
aVcNDC_USA
p1386
aV"="
p1387
aa(lp1388
I12
aVcCEN_USA
p1389
aVcNDC_Northeast
p1390
aV">"
p1391
aa(lp1392
I12
aVcCEN_USA
p1393
aVcNDC_West
p1394
aV">"
p1395
aa(lp1396
I12
aVcCEN_USA
p1397
aVcNDC_Southeast
p1398
aV">"
p1399
aa(lp1400
I12
aVcCEN_USA
p1401
aVcNDC_Southwest
p1402
aV">"
p1403
aa(lp1404
I12
aVcCEN_South
p1405
aVcNDC_Southeast
p1406
aV">"
p1407
aa(lp1408
I12
aVcCEN_West
p1409
aVcNDC_Northeast
p1410
aV"!"
p1411
aa(lp1412
I12
aVcCEN_West
p1413
aVcNDC_Southeast
p1414
aV"!"
p1415
aa(lp1416
I12
aVcCEN_Northeast
p1417
aVcNDC_West
p1418
aV"!"
p1419
aa(lp1420
I12
aVcCEN_Northeast
p1421
aVcNDC_Southeast
p1422
aV"!"
p1423
aa(lp1424
I12
aVcCEN_Northeast
p1425
aVcNDC_Southwest
p1426
aV"!"
p1427
aa(lp1428
I12
aVcCEN_South
p1429
aVcNDC_West
p1430
aV"!"
p1431
aa(lp1432
I12
aVcCEN_Northeast
p1433
aVcNDC_Northeast
p1434
aV"<"
p1435
aa(lp1436
I12
aVcCEN_Midwest
p1437
aVcNDC_USA
p1438
aV"<"
p1439
aa(lp1440
I12
aVcCEN_USA
p1441
aVcNDC_Midwest
p1442
aV">"
p1443
aa(lp1444
I12
aVcCEN_West
p1445
aVcNDC_West
p1446
aV">"
p1447
aa(lp1448
I12
aVcCEN_South
p1449
aVcNDC_Midwest
p1450
aV">"
p1451
aa(lp1452
I12
aVcCEN_West
p1453
aVcNDC_Southwest
p1454
aV"><"
p1455
aa(lp1456
I12
aVcCEN_Midwest
p1457
aVcNDC_Northeast
p1458
aV"><"
p1459
aa(lp1460
I12
aVcCEN_Midwest
p1461
aVcNDC_Southwest
p1462
aV"><"
p1463
aa(lp1464
I12
aVcCEN_South
p1465
aVcNDC_Southwest
p1466
aV"><"
p1467
aa(lp1468
I12
aVcCEN_West
p1469
aVcNDC_Midwest
p1470
aV"!"
p1471
aa(lp1472
I12
aVcCEN_Northeast
p1473
aVcNDC_Midwest
p1474
aV"!"
p1475
aa(lp1476
I12
aVcCEN_Midwest
p1477
aVcNDC_West
p1478
aV"!"
p1479
aa(lp1480
I12
aVcCEN_Midwest
p1481
aVcNDC_Southeast
p1482
aV"!"
p1483
aa(lp1484
I12
aVcCEN_Midwest
p1485
aVcNDC_Midwest
p1486
aV"!"
p1487
aa(lp1488
I12
aVcCEN_South
p1489
aVcNDC_Northeast
p1490
aV"!"
p1491
aaasba(ihelper
PossibleWorld
p1492
(dp1493
g3
I13
sg4
I0
sg5
(lp1494
(lp1495
(lp1496
I13
aVcCEN_West
p1497
aVcNDC_USA
p1498
aV"<"
p1499
aa(lp1500
I13
aVcCEN_Northeast
p1501
aVcNDC_USA
p1502
aV"<"
p1503
aa(lp1504
I13
aVcCEN_South
p1505
aVcNDC_USA
p1506
aV"<"
p1507
aa(lp1508
I13
aVcCEN_USA
p1509
aVcNDC_USA
p1510
aV"="
p1511
aa(lp1512
I13
aVcCEN_USA
p1513
aVcNDC_Northeast
p1514
aV">"
p1515
aa(lp1516
I13
aVcCEN_USA
p1517
aVcNDC_West
p1518
aV">"
p1519
aa(lp1520
I13
aVcCEN_USA
p1521
aVcNDC_Southeast
p1522
aV">"
p1523
aa(lp1524
I13
aVcCEN_USA
p1525
aVcNDC_Southwest
p1526
aV">"
p1527
aa(lp1528
I13
aVcCEN_South
p1529
aVcNDC_Southeast
p1530
aV">"
p1531
aa(lp1532
I13
aVcCEN_West
p1533
aVcNDC_Northeast
p1534
aV"!"
p1535
aa(lp1536
I13
aVcCEN_West
p1537
aVcNDC_Southeast
p1538
aV"!"
p1539
aa(lp1540
I13
aVcCEN_Northeast
p1541
aVcNDC_West
p1542
aV"!"
p1543
aa(lp1544
I13
aVcCEN_Northeast
p1545
aVcNDC_Southeast
p1546
aV"!"
p1547
aa(lp1548
I13
aVcCEN_Northeast
p1549
aVcNDC_Southwest
p1550
aV"!"
p1551
aa(lp1552
I13
aVcCEN_South
p1553
aVcNDC_West
p1554
aV"!"
p1555
aa(lp1556
I13
aVcCEN_Northeast
p1557
aVcNDC_Northeast
p1558
aV"<"
p1559
aa(lp1560
I13
aVcCEN_Midwest
p1561
aVcNDC_USA
p1562
aV"<"
p1563
aa(lp1564
I13
aVcCEN_USA
p1565
aVcNDC_Midwest
p1566
aV">"
p1567
aa(lp1568
I13
aVcCEN_West
p1569
aVcNDC_West
p1570
aV">"
p1571
aa(lp1572
I13
aVcCEN_South
p1573
aVcNDC_Midwest
p1574
aV">"
p1575
aa(lp1576
I13
aVcCEN_West
p1577
aVcNDC_Southwest
p1578
aV"><"
p1579
aa(lp1580
I13
aVcCEN_Midwest
p1581
aVcNDC_Northeast
p1582
aV"><"
p1583
aa(lp1584
I13
aVcCEN_Midwest
p1585
aVcNDC_Southwest
p1586
aV"><"
p1587
aa(lp1588
I13
aVcCEN_South
p1589
aVcNDC_Northeast
p1590
aV"><"
p1591
aa(lp1592
I13
aVcCEN_South
p1593
aVcNDC_Southwest
p1594
aV"><"
p1595
aa(lp1596
I13
aVcCEN_West
p1597
aVcNDC_Midwest
p1598
aV"!"
p1599
aa(lp1600
I13
aVcCEN_Northeast
p1601
aVcNDC_Midwest
p1602
aV"!"
p1603
aa(lp1604
I13
aVcCEN_Midwest
p1605
aVcNDC_West
p1606
aV"!"
p1607
aa(lp1608
I13
aVcCEN_Midwest
p1609
aVcNDC_Southeast
p1610
aV"!"
p1611
aa(lp1612
I13
aVcCEN_Midwest
p1613
aVcNDC_Midwest
p1614
aV"!"
p1615
aaasba(ihelper
PossibleWorld
p1616
(dp1617
g3
I14
sg4
I0
sg5
(lp1618
(lp1619
(lp1620
I14
aVcCEN_West
p1621
aVcNDC_USA
p1622
aV"<"
p1623
aa(lp1624
I14
aVcCEN_Northeast
p1625
aVcNDC_USA
p1626
aV"<"
p1627
aa(lp1628
I14
aVcCEN_South
p1629
aVcNDC_USA
p1630
aV"<"
p1631
aa(lp1632
I14
aVcCEN_USA
p1633
aVcNDC_USA
p1634
aV"="
p1635
aa(lp1636
I14
aVcCEN_USA
p1637
aVcNDC_Northeast
p1638
aV">"
p1639
aa(lp1640
I14
aVcCEN_USA
p1641
aVcNDC_West
p1642
aV">"
p1643
aa(lp1644
I14
aVcCEN_USA
p1645
aVcNDC_Southeast
p1646
aV">"
p1647
aa(lp1648
I14
aVcCEN_USA
p1649
aVcNDC_Southwest
p1650
aV">"
p1651
aa(lp1652
I14
aVcCEN_South
p1653
aVcNDC_Southeast
p1654
aV">"
p1655
aa(lp1656
I14
aVcCEN_West
p1657
aVcNDC_Northeast
p1658
aV"!"
p1659
aa(lp1660
I14
aVcCEN_West
p1661
aVcNDC_Southeast
p1662
aV"!"
p1663
aa(lp1664
I14
aVcCEN_Northeast
p1665
aVcNDC_West
p1666
aV"!"
p1667
aa(lp1668
I14
aVcCEN_Northeast
p1669
aVcNDC_Southeast
p1670
aV"!"
p1671
aa(lp1672
I14
aVcCEN_Northeast
p1673
aVcNDC_Southwest
p1674
aV"!"
p1675
aa(lp1676
I14
aVcCEN_South
p1677
aVcNDC_West
p1678
aV"!"
p1679
aa(lp1680
I14
aVcCEN_Northeast
p1681
aVcNDC_Northeast
p1682
aV"<"
p1683
aa(lp1684
I14
aVcCEN_Midwest
p1685
aVcNDC_USA
p1686
aV"<"
p1687
aa(lp1688
I14
aVcCEN_USA
p1689
aVcNDC_Midwest
p1690
aV">"
p1691
aa(lp1692
I14
aVcCEN_West
p1693
aVcNDC_West
p1694
aV">"
p1695
aa(lp1696
I14
aVcCEN_West
p1697
aVcNDC_Midwest
p1698
aV">"
p1699
aa(lp1700
I14
aVcCEN_Midwest
p1701
aVcNDC_Northeast
p1702
aV"><"
p1703
aa(lp1704
I14
aVcCEN_Midwest
p1705
aVcNDC_Southwest
p1706
aV"><"
p1707
aa(lp1708
I14
aVcCEN_South
p1709
aVcNDC_Southwest
p1710
aV"><"
p1711
aa(lp1712
I14
aVcCEN_West
p1713
aVcNDC_Southwest
p1714
aV"!"
p1715
aa(lp1716
I14
aVcCEN_Northeast
p1717
aVcNDC_Midwest
p1718
aV"!"
p1719
aa(lp1720
I14
aVcCEN_Midwest
p1721
aVcNDC_West
p1722
aV"!"
p1723
aa(lp1724
I14
aVcCEN_Midwest
p1725
aVcNDC_Southeast
p1726
aV"!"
p1727
aa(lp1728
I14
aVcCEN_Midwest
p1729
aVcNDC_Midwest
p1730
aV"!"
p1731
aa(lp1732
I14
aVcCEN_South
p1733
aVcNDC_Northeast
p1734
aV"!"
p1735
aa(lp1736
I14
aVcCEN_South
p1737
aVcNDC_Midwest
p1738
aV"!"
p1739
aaasba(ihelper
PossibleWorld
p1740
(dp1741
g3
I15
sg4
I0
sg5
(lp1742
(lp1743
(lp1744
I15
aVcCEN_West
p1745
aVcNDC_USA
p1746
aV"<"
p1747
aa(lp1748
I15
aVcCEN_Northeast
p1749
aVcNDC_USA
p1750
aV"<"
p1751
aa(lp1752
I15
aVcCEN_South
p1753
aVcNDC_USA
p1754
aV"<"
p1755
aa(lp1756
I15
aVcCEN_USA
p1757
aVcNDC_USA
p1758
aV"="
p1759
aa(lp1760
I15
aVcCEN_USA
p1761
aVcNDC_Northeast
p1762
aV">"
p1763
aa(lp1764
I15
aVcCEN_USA
p1765
aVcNDC_West
p1766
aV">"
p1767
aa(lp1768
I15
aVcCEN_USA
p1769
aVcNDC_Southeast
p1770
aV">"
p1771
aa(lp1772
I15
aVcCEN_USA
p1773
aVcNDC_Southwest
p1774
aV">"
p1775
aa(lp1776
I15
aVcCEN_South
p1777
aVcNDC_Southeast
p1778
aV">"
p1779
aa(lp1780
I15
aVcCEN_West
p1781
aVcNDC_Northeast
p1782
aV"!"
p1783
aa(lp1784
I15
aVcCEN_West
p1785
aVcNDC_Southeast
p1786
aV"!"
p1787
aa(lp1788
I15
aVcCEN_Northeast
p1789
aVcNDC_West
p1790
aV"!"
p1791
aa(lp1792
I15
aVcCEN_Northeast
p1793
aVcNDC_Southeast
p1794
aV"!"
p1795
aa(lp1796
I15
aVcCEN_Northeast
p1797
aVcNDC_Southwest
p1798
aV"!"
p1799
aa(lp1800
I15
aVcCEN_South
p1801
aVcNDC_West
p1802
aV"!"
p1803
aa(lp1804
I15
aVcCEN_Northeast
p1805
aVcNDC_Northeast
p1806
aV"<"
p1807
aa(lp1808
I15
aVcCEN_Midwest
p1809
aVcNDC_USA
p1810
aV"<"
p1811
aa(lp1812
I15
aVcCEN_USA
p1813
aVcNDC_Midwest
p1814
aV">"
p1815
aa(lp1816
I15
aVcCEN_West
p1817
aVcNDC_West
p1818
aV">"
p1819
aa(lp1820
I15
aVcCEN_West
p1821
aVcNDC_Midwest
p1822
aV">"
p1823
aa(lp1824
I15
aVcCEN_Midwest
p1825
aVcNDC_Northeast
p1826
aV"><"
p1827
aa(lp1828
I15
aVcCEN_Midwest
p1829
aVcNDC_Southwest
p1830
aV"><"
p1831
aa(lp1832
I15
aVcCEN_South
p1833
aVcNDC_Northeast
p1834
aV"><"
p1835
aa(lp1836
I15
aVcCEN_South
p1837
aVcNDC_Southwest
p1838
aV"><"
p1839
aa(lp1840
I15
aVcCEN_West
p1841
aVcNDC_Southwest
p1842
aV"!"
p1843
aa(lp1844
I15
aVcCEN_Northeast
p1845
aVcNDC_Midwest
p1846
aV"!"
p1847
aa(lp1848
I15
aVcCEN_Midwest
p1849
aVcNDC_West
p1850
aV"!"
p1851
aa(lp1852
I15
aVcCEN_Midwest
p1853
aVcNDC_Southeast
p1854
aV"!"
p1855
aa(lp1856
I15
aVcCEN_Midwest
p1857
aVcNDC_Midwest
p1858
aV"!"
p1859
aa(lp1860
I15
aVcCEN_South
p1861
aVcNDC_Midwest
p1862
aV"!"
p1863
aaasba(ihelper
PossibleWorld
p1864
(dp1865
g3
I16
sg4
I0
sg5
(lp1866
(lp1867
(lp1868
I16
aVcCEN_West
p1869
aVcNDC_USA
p1870
aV"<"
p1871
aa(lp1872
I16
aVcCEN_Northeast
p1873
aVcNDC_USA
p1874
aV"<"
p1875
aa(lp1876
I16
aVcCEN_South
p1877
aVcNDC_USA
p1878
aV"<"
p1879
aa(lp1880
I16
aVcCEN_USA
p1881
aVcNDC_USA
p1882
aV"="
p1883
aa(lp1884
I16
aVcCEN_USA
p1885
aVcNDC_Northeast
p1886
aV">"
p1887
aa(lp1888
I16
aVcCEN_USA
p1889
aVcNDC_West
p1890
aV">"
p1891
aa(lp1892
I16
aVcCEN_USA
p1893
aVcNDC_Southeast
p1894
aV">"
p1895
aa(lp1896
I16
aVcCEN_USA
p1897
aVcNDC_Southwest
p1898
aV">"
p1899
aa(lp1900
I16
aVcCEN_South
p1901
aVcNDC_Southeast
p1902
aV">"
p1903
aa(lp1904
I16
aVcCEN_West
p1905
aVcNDC_Northeast
p1906
aV"!"
p1907
aa(lp1908
I16
aVcCEN_West
p1909
aVcNDC_Southeast
p1910
aV"!"
p1911
aa(lp1912
I16
aVcCEN_Northeast
p1913
aVcNDC_West
p1914
aV"!"
p1915
aa(lp1916
I16
aVcCEN_Northeast
p1917
aVcNDC_Southeast
p1918
aV"!"
p1919
aa(lp1920
I16
aVcCEN_Northeast
p1921
aVcNDC_Southwest
p1922
aV"!"
p1923
aa(lp1924
I16
aVcCEN_South
p1925
aVcNDC_West
p1926
aV"!"
p1927
aa(lp1928
I16
aVcCEN_Northeast
p1929
aVcNDC_Northeast
p1930
aV"<"
p1931
aa(lp1932
I16
aVcCEN_Midwest
p1933
aVcNDC_USA
p1934
aV"<"
p1935
aa(lp1936
I16
aVcCEN_USA
p1937
aVcNDC_Midwest
p1938
aV">"
p1939
aa(lp1940
I16
aVcCEN_West
p1941
aVcNDC_West
p1942
aV">"
p1943
aa(lp1944
I16
aVcCEN_West
p1945
aVcNDC_Midwest
p1946
aV">"
p1947
aa(lp1948
I16
aVcCEN_West
p1949
aVcNDC_Southwest
p1950
aV"><"
p1951
aa(lp1952
I16
aVcCEN_Midwest
p1953
aVcNDC_Northeast
p1954
aV"><"
p1955
aa(lp1956
I16
aVcCEN_Midwest
p1957
aVcNDC_Southwest
p1958
aV"><"
p1959
aa(lp1960
I16
aVcCEN_South
p1961
aVcNDC_Southwest
p1962
aV"><"
p1963
aa(lp1964
I16
aVcCEN_Northeast
p1965
aVcNDC_Midwest
p1966
aV"!"
p1967
aa(lp1968
I16
aVcCEN_Midwest
p1969
aVcNDC_West
p1970
aV"!"
p1971
aa(lp1972
I16
aVcCEN_Midwest
p1973
aVcNDC_Southeast
p1974
aV"!"
p1975
aa(lp1976
I16
aVcCEN_Midwest
p1977
aVcNDC_Midwest
p1978
aV"!"
p1979
aa(lp1980
I16
aVcCEN_South
p1981
aVcNDC_Northeast
p1982
aV"!"
p1983
aa(lp1984
I16
aVcCEN_South
p1985
aVcNDC_Midwest
p1986
aV"!"
p1987
aaasba(ihelper
PossibleWorld
p1988
(dp1989
g3
I17
sg4
I0
sg5
(lp1990
(lp1991
(lp1992
I17
aVcCEN_West
p1993
aVcNDC_USA
p1994
aV"<"
p1995
aa(lp1996
I17
aVcCEN_Northeast
p1997
aVcNDC_USA
p1998
aV"<"
p1999
aa(lp2000
I17
aVcCEN_South
p2001
aVcNDC_USA
p2002
aV"<"
p2003
aa(lp2004
I17
aVcCEN_USA
p2005
aVcNDC_USA
p2006
aV"="
p2007
aa(lp2008
I17
aVcCEN_USA
p2009
aVcNDC_Northeast
p2010
aV">"
p2011
aa(lp2012
I17
aVcCEN_USA
p2013
aVcNDC_West
p2014
aV">"
p2015
aa(lp2016
I17
aVcCEN_USA
p2017
aVcNDC_Southeast
p2018
aV">"
p2019
aa(lp2020
I17
aVcCEN_USA
p2021
aVcNDC_Southwest
p2022
aV">"
p2023
aa(lp2024
I17
aVcCEN_South
p2025
aVcNDC_Southeast
p2026
aV">"
p2027
aa(lp2028
I17
aVcCEN_West
p2029
aVcNDC_Northeast
p2030
aV"!"
p2031
aa(lp2032
I17
aVcCEN_West
p2033
aVcNDC_Southeast
p2034
aV"!"
p2035
aa(lp2036
I17
aVcCEN_Northeast
p2037
aVcNDC_West
p2038
aV"!"
p2039
aa(lp2040
I17
aVcCEN_Northeast
p2041
aVcNDC_Southeast
p2042
aV"!"
p2043
aa(lp2044
I17
aVcCEN_Northeast
p2045
aVcNDC_Southwest
p2046
aV"!"
p2047
aa(lp2048
I17
aVcCEN_South
p2049
aVcNDC_West
p2050
aV"!"
p2051
aa(lp2052
I17
aVcCEN_Northeast
p2053
aVcNDC_Northeast
p2054
aV"<"
p2055
aa(lp2056
I17
aVcCEN_Midwest
p2057
aVcNDC_USA
p2058
aV"<"
p2059
aa(lp2060
I17
aVcCEN_USA
p2061
aVcNDC_Midwest
p2062
aV">"
p2063
aa(lp2064
I17
aVcCEN_West
p2065
aVcNDC_West
p2066
aV">"
p2067
aa(lp2068
I17
aVcCEN_West
p2069
aVcNDC_Midwest
p2070
aV">"
p2071
aa(lp2072
I17
aVcCEN_West
p2073
aVcNDC_Southwest
p2074
aV"><"
p2075
aa(lp2076
I17
aVcCEN_Midwest
p2077
aVcNDC_Northeast
p2078
aV"><"
p2079
aa(lp2080
I17
aVcCEN_Midwest
p2081
aVcNDC_Southwest
p2082
aV"><"
p2083
aa(lp2084
I17
aVcCEN_South
p2085
aVcNDC_Northeast
p2086
aV"><"
p2087
aa(lp2088
I17
aVcCEN_South
p2089
aVcNDC_Southwest
p2090
aV"><"
p2091
aa(lp2092
I17
aVcCEN_Northeast
p2093
aVcNDC_Midwest
p2094
aV"!"
p2095
aa(lp2096
I17
aVcCEN_Midwest
p2097
aVcNDC_West
p2098
aV"!"
p2099
aa(lp2100
I17
aVcCEN_Midwest
p2101
aVcNDC_Southeast
p2102
aV"!"
p2103
aa(lp2104
I17
aVcCEN_Midwest
p2105
aVcNDC_Midwest
p2106
aV"!"
p2107
aa(lp2108
I17
aVcCEN_South
p2109
aVcNDC_Midwest
p2110
aV"!"
p2111
aaasba(ihelper
PossibleWorld
p2112
(dp2113
g3
I18
sg4
I0
sg5
(lp2114
(lp2115
(lp2116
I18
aVcCEN_West
p2117
aVcNDC_USA
p2118
aV"<"
p2119
aa(lp2120
I18
aVcCEN_Northeast
p2121
aVcNDC_USA
p2122
aV"<"
p2123
aa(lp2124
I18
aVcCEN_South
p2125
aVcNDC_USA
p2126
aV"<"
p2127
aa(lp2128
I18
aVcCEN_USA
p2129
aVcNDC_USA
p2130
aV"="
p2131
aa(lp2132
I18
aVcCEN_USA
p2133
aVcNDC_Northeast
p2134
aV">"
p2135
aa(lp2136
I18
aVcCEN_USA
p2137
aVcNDC_West
p2138
aV">"
p2139
aa(lp2140
I18
aVcCEN_USA
p2141
aVcNDC_Southeast
p2142
aV">"
p2143
aa(lp2144
I18
aVcCEN_USA
p2145
aVcNDC_Southwest
p2146
aV">"
p2147
aa(lp2148
I18
aVcCEN_South
p2149
aVcNDC_Southeast
p2150
aV">"
p2151
aa(lp2152
I18
aVcCEN_West
p2153
aVcNDC_Northeast
p2154
aV"!"
p2155
aa(lp2156
I18
aVcCEN_West
p2157
aVcNDC_Southeast
p2158
aV"!"
p2159
aa(lp2160
I18
aVcCEN_Northeast
p2161
aVcNDC_West
p2162
aV"!"
p2163
aa(lp2164
I18
aVcCEN_Northeast
p2165
aVcNDC_Southeast
p2166
aV"!"
p2167
aa(lp2168
I18
aVcCEN_Northeast
p2169
aVcNDC_Southwest
p2170
aV"!"
p2171
aa(lp2172
I18
aVcCEN_South
p2173
aVcNDC_West
p2174
aV"!"
p2175
aa(lp2176
I18
aVcCEN_Northeast
p2177
aVcNDC_Northeast
p2178
aV"<"
p2179
aa(lp2180
I18
aVcCEN_Midwest
p2181
aVcNDC_USA
p2182
aV"<"
p2183
aa(lp2184
I18
aVcCEN_USA
p2185
aVcNDC_Midwest
p2186
aV">"
p2187
aa(lp2188
I18
aVcCEN_West
p2189
aVcNDC_West
p2190
aV">"
p2191
aa(lp2192
I18
aVcCEN_West
p2193
aVcNDC_Midwest
p2194
aV"><"
p2195
aa(lp2196
I18
aVcCEN_Midwest
p2197
aVcNDC_Northeast
p2198
aV"><"
p2199
aa(lp2200
I18
aVcCEN_Midwest
p2201
aVcNDC_Southwest
p2202
aV"><"
p2203
aa(lp2204
I18
aVcCEN_South
p2205
aVcNDC_Midwest
p2206
aV"><"
p2207
aa(lp2208
I18
aVcCEN_South
p2209
aVcNDC_Southwest
p2210
aV"><"
p2211
aa(lp2212
I18
aVcCEN_West
p2213
aVcNDC_Southwest
p2214
aV"!"
p2215
aa(lp2216
I18
aVcCEN_Northeast
p2217
aVcNDC_Midwest
p2218
aV"!"
p2219
aa(lp2220
I18
aVcCEN_Midwest
p2221
aVcNDC_West
p2222
aV"!"
p2223
aa(lp2224
I18
aVcCEN_Midwest
p2225
aVcNDC_Southeast
p2226
aV"!"
p2227
aa(lp2228
I18
aVcCEN_Midwest
p2229
aVcNDC_Midwest
p2230
aV"!"
p2231
aa(lp2232
I18
aVcCEN_South
p2233
aVcNDC_Northeast
p2234
aV"!"
p2235
aaasba(ihelper
PossibleWorld
p2236
(dp2237
g3
I19
sg4
I0
sg5
(lp2238
(lp2239
(lp2240
I19
aVcCEN_West
p2241
aVcNDC_USA
p2242
aV"<"
p2243
aa(lp2244
I19
aVcCEN_Northeast
p2245
aVcNDC_USA
p2246
aV"<"
p2247
aa(lp2248
I19
aVcCEN_South
p2249
aVcNDC_USA
p2250
aV"<"
p2251
aa(lp2252
I19
aVcCEN_USA
p2253
aVcNDC_USA
p2254
aV"="
p2255
aa(lp2256
I19
aVcCEN_USA
p2257
aVcNDC_Northeast
p2258
aV">"
p2259
aa(lp2260
I19
aVcCEN_USA
p2261
aVcNDC_West
p2262
aV">"
p2263
aa(lp2264
I19
aVcCEN_USA
p2265
aVcNDC_Southeast
p2266
aV">"
p2267
aa(lp2268
I19
aVcCEN_USA
p2269
aVcNDC_Southwest
p2270
aV">"
p2271
aa(lp2272
I19
aVcCEN_South
p2273
aVcNDC_Southeast
p2274
aV">"
p2275
aa(lp2276
I19
aVcCEN_West
p2277
aVcNDC_Northeast
p2278
aV"!"
p2279
aa(lp2280
I19
aVcCEN_West
p2281
aVcNDC_Southeast
p2282
aV"!"
p2283
aa(lp2284
I19
aVcCEN_Northeast
p2285
aVcNDC_West
p2286
aV"!"
p2287
aa(lp2288
I19
aVcCEN_Northeast
p2289
aVcNDC_Southeast
p2290
aV"!"
p2291
aa(lp2292
I19
aVcCEN_Northeast
p2293
aVcNDC_Southwest
p2294
aV"!"
p2295
aa(lp2296
I19
aVcCEN_South
p2297
aVcNDC_West
p2298
aV"!"
p2299
aa(lp2300
I19
aVcCEN_Northeast
p2301
aVcNDC_Northeast
p2302
aV"<"
p2303
aa(lp2304
I19
aVcCEN_Midwest
p2305
aVcNDC_USA
p2306
aV"<"
p2307
aa(lp2308
I19
aVcCEN_USA
p2309
aVcNDC_Midwest
p2310
aV">"
p2311
aa(lp2312
I19
aVcCEN_West
p2313
aVcNDC_West
p2314
aV">"
p2315
aa(lp2316
I19
aVcCEN_West
p2317
aVcNDC_Midwest
p2318
aV"><"
p2319
aa(lp2320
I19
aVcCEN_Midwest
p2321
aVcNDC_Northeast
p2322
aV"><"
p2323
aa(lp2324
I19
aVcCEN_Midwest
p2325
aVcNDC_Southwest
p2326
aV"><"
p2327
aa(lp2328
I19
aVcCEN_South
p2329
aVcNDC_Northeast
p2330
aV"><"
p2331
aa(lp2332
I19
aVcCEN_South
p2333
aVcNDC_Midwest
p2334
aV"><"
p2335
aa(lp2336
I19
aVcCEN_South
p2337
aVcNDC_Southwest
p2338
aV"><"
p2339
aa(lp2340
I19
aVcCEN_West
p2341
aVcNDC_Southwest
p2342
aV"!"
p2343
aa(lp2344
I19
aVcCEN_Northeast
p2345
aVcNDC_Midwest
p2346
aV"!"
p2347
aa(lp2348
I19
aVcCEN_Midwest
p2349
aVcNDC_West
p2350
aV"!"
p2351
aa(lp2352
I19
aVcCEN_Midwest
p2353
aVcNDC_Southeast
p2354
aV"!"
p2355
aa(lp2356
I19
aVcCEN_Midwest
p2357
aVcNDC_Midwest
p2358
aV"!"
p2359
aaasba(ihelper
PossibleWorld
p2360
(dp2361
g3
I20
sg4
I0
sg5
(lp2362
(lp2363
(lp2364
I20
aVcCEN_West
p2365
aVcNDC_USA
p2366
aV"<"
p2367
aa(lp2368
I20
aVcCEN_Northeast
p2369
aVcNDC_USA
p2370
aV"<"
p2371
aa(lp2372
I20
aVcCEN_South
p2373
aVcNDC_USA
p2374
aV"<"
p2375
aa(lp2376
I20
aVcCEN_USA
p2377
aVcNDC_USA
p2378
aV"="
p2379
aa(lp2380
I20
aVcCEN_USA
p2381
aVcNDC_Northeast
p2382
aV">"
p2383
aa(lp2384
I20
aVcCEN_USA
p2385
aVcNDC_West
p2386
aV">"
p2387
aa(lp2388
I20
aVcCEN_USA
p2389
aVcNDC_Southeast
p2390
aV">"
p2391
aa(lp2392
I20
aVcCEN_USA
p2393
aVcNDC_Southwest
p2394
aV">"
p2395
aa(lp2396
I20
aVcCEN_South
p2397
aVcNDC_Southeast
p2398
aV">"
p2399
aa(lp2400
I20
aVcCEN_West
p2401
aVcNDC_Northeast
p2402
aV"!"
p2403
aa(lp2404
I20
aVcCEN_West
p2405
aVcNDC_Southeast
p2406
aV"!"
p2407
aa(lp2408
I20
aVcCEN_Northeast
p2409
aVcNDC_West
p2410
aV"!"
p2411
aa(lp2412
I20
aVcCEN_Northeast
p2413
aVcNDC_Southeast
p2414
aV"!"
p2415
aa(lp2416
I20
aVcCEN_Northeast
p2417
aVcNDC_Southwest
p2418
aV"!"
p2419
aa(lp2420
I20
aVcCEN_South
p2421
aVcNDC_West
p2422
aV"!"
p2423
aa(lp2424
I20
aVcCEN_Northeast
p2425
aVcNDC_Northeast
p2426
aV"<"
p2427
aa(lp2428
I20
aVcCEN_Midwest
p2429
aVcNDC_USA
p2430
aV"<"
p2431
aa(lp2432
I20
aVcCEN_USA
p2433
aVcNDC_Midwest
p2434
aV">"
p2435
aa(lp2436
I20
aVcCEN_West
p2437
aVcNDC_West
p2438
aV">"
p2439
aa(lp2440
I20
aVcCEN_West
p2441
aVcNDC_Midwest
p2442
aV"><"
p2443
aa(lp2444
I20
aVcCEN_West
p2445
aVcNDC_Southwest
p2446
aV"><"
p2447
aa(lp2448
I20
aVcCEN_Midwest
p2449
aVcNDC_Northeast
p2450
aV"><"
p2451
aa(lp2452
I20
aVcCEN_Midwest
p2453
aVcNDC_Southwest
p2454
aV"><"
p2455
aa(lp2456
I20
aVcCEN_South
p2457
aVcNDC_Midwest
p2458
aV"><"
p2459
aa(lp2460
I20
aVcCEN_South
p2461
aVcNDC_Southwest
p2462
aV"><"
p2463
aa(lp2464
I20
aVcCEN_Northeast
p2465
aVcNDC_Midwest
p2466
aV"!"
p2467
aa(lp2468
I20
aVcCEN_Midwest
p2469
aVcNDC_West
p2470
aV"!"
p2471
aa(lp2472
I20
aVcCEN_Midwest
p2473
aVcNDC_Southeast
p2474
aV"!"
p2475
aa(lp2476
I20
aVcCEN_Midwest
p2477
aVcNDC_Midwest
p2478
aV"!"
p2479
aa(lp2480
I20
aVcCEN_South
p2481
aVcNDC_Northeast
p2482
aV"!"
p2483
aaasba(ihelper
PossibleWorld
p2484
(dp2485
g3
I21
sg4
I0
sg5
(lp2486
(lp2487
(lp2488
I21
aVcCEN_West
p2489
aVcNDC_USA
p2490
aV"<"
p2491
aa(lp2492
I21
aVcCEN_Northeast
p2493
aVcNDC_USA
p2494
aV"<"
p2495
aa(lp2496
I21
aVcCEN_South
p2497
aVcNDC_USA
p2498
aV"<"
p2499
aa(lp2500
I21
aVcCEN_USA
p2501
aVcNDC_USA
p2502
aV"="
p2503
aa(lp2504
I21
aVcCEN_USA
p2505
aVcNDC_Northeast
p2506
aV">"
p2507
aa(lp2508
I21
aVcCEN_USA
p2509
aVcNDC_West
p2510
aV">"
p2511
aa(lp2512
I21
aVcCEN_USA
p2513
aVcNDC_Southeast
p2514
aV">"
p2515
aa(lp2516
I21
aVcCEN_USA
p2517
aVcNDC_Southwest
p2518
aV">"
p2519
aa(lp2520
I21
aVcCEN_South
p2521
aVcNDC_Southeast
p2522
aV">"
p2523
aa(lp2524
I21
aVcCEN_West
p2525
aVcNDC_Northeast
p2526
aV"!"
p2527
aa(lp2528
I21
aVcCEN_West
p2529
aVcNDC_Southeast
p2530
aV"!"
p2531
aa(lp2532
I21
aVcCEN_Northeast
p2533
aVcNDC_West
p2534
aV"!"
p2535
aa(lp2536
I21
aVcCEN_Northeast
p2537
aVcNDC_Southeast
p2538
aV"!"
p2539
aa(lp2540
I21
aVcCEN_Northeast
p2541
aVcNDC_Southwest
p2542
aV"!"
p2543
aa(lp2544
I21
aVcCEN_South
p2545
aVcNDC_West
p2546
aV"!"
p2547
aa(lp2548
I21
aVcCEN_Northeast
p2549
aVcNDC_Northeast
p2550
aV"<"
p2551
aa(lp2552
I21
aVcCEN_Midwest
p2553
aVcNDC_USA
p2554
aV"<"
p2555
aa(lp2556
I21
aVcCEN_USA
p2557
aVcNDC_Midwest
p2558
aV">"
p2559
aa(lp2560
I21
aVcCEN_West
p2561
aVcNDC_West
p2562
aV">"
p2563
aa(lp2564
I21
aVcCEN_West
p2565
aVcNDC_Midwest
p2566
aV"><"
p2567
aa(lp2568
I21
aVcCEN_West
p2569
aVcNDC_Southwest
p2570
aV"><"
p2571
aa(lp2572
I21
aVcCEN_Midwest
p2573
aVcNDC_Northeast
p2574
aV"><"
p2575
aa(lp2576
I21
aVcCEN_Midwest
p2577
aVcNDC_Southwest
p2578
aV"><"
p2579
aa(lp2580
I21
aVcCEN_South
p2581
aVcNDC_Northeast
p2582
aV"><"
p2583
aa(lp2584
I21
aVcCEN_South
p2585
aVcNDC_Midwest
p2586
aV"><"
p2587
aa(lp2588
I21
aVcCEN_South
p2589
aVcNDC_Southwest
p2590
aV"><"
p2591
aa(lp2592
I21
aVcCEN_Northeast
p2593
aVcNDC_Midwest
p2594
aV"!"
p2595
aa(lp2596
I21
aVcCEN_Midwest
p2597
aVcNDC_West
p2598
aV"!"
p2599
aa(lp2600
I21
aVcCEN_Midwest
p2601
aVcNDC_Southeast
p2602
aV"!"
p2603
aa(lp2604
I21
aVcCEN_Midwest
p2605
aVcNDC_Midwest
p2606
aV"!"
p2607
aaasba(ihelper
PossibleWorld
p2608
(dp2609
g3
I22
sg4
I0
sg5
(lp2610
(lp2611
(lp2612
I22
aVcCEN_West
p2613
aVcNDC_USA
p2614
aV"<"
p2615
aa(lp2616
I22
aVcCEN_Northeast
p2617
aVcNDC_USA
p2618
aV"<"
p2619
aa(lp2620
I22
aVcCEN_South
p2621
aVcNDC_USA
p2622
aV"<"
p2623
aa(lp2624
I22
aVcCEN_USA
p2625
aVcNDC_USA
p2626
aV"="
p2627
aa(lp2628
I22
aVcCEN_USA
p2629
aVcNDC_Northeast
p2630
aV">"
p2631
aa(lp2632
I22
aVcCEN_USA
p2633
aVcNDC_West
p2634
aV">"
p2635
aa(lp2636
I22
aVcCEN_USA
p2637
aVcNDC_Southeast
p2638
aV">"
p2639
aa(lp2640
I22
aVcCEN_USA
p2641
aVcNDC_Southwest
p2642
aV">"
p2643
aa(lp2644
I22
aVcCEN_South
p2645
aVcNDC_Southeast
p2646
aV">"
p2647
aa(lp2648
I22
aVcCEN_West
p2649
aVcNDC_Northeast
p2650
aV"!"
p2651
aa(lp2652
I22
aVcCEN_West
p2653
aVcNDC_Southeast
p2654
aV"!"
p2655
aa(lp2656
I22
aVcCEN_Northeast
p2657
aVcNDC_West
p2658
aV"!"
p2659
aa(lp2660
I22
aVcCEN_Northeast
p2661
aVcNDC_Southeast
p2662
aV"!"
p2663
aa(lp2664
I22
aVcCEN_Northeast
p2665
aVcNDC_Southwest
p2666
aV"!"
p2667
aa(lp2668
I22
aVcCEN_South
p2669
aVcNDC_West
p2670
aV"!"
p2671
aa(lp2672
I22
aVcCEN_Northeast
p2673
aVcNDC_Northeast
p2674
aV"<"
p2675
aa(lp2676
I22
aVcCEN_Midwest
p2677
aVcNDC_USA
p2678
aV"<"
p2679
aa(lp2680
I22
aVcCEN_Midwest
p2681
aVcNDC_Midwest
p2682
aV"="
p2683
aa(lp2684
I22
aVcCEN_USA
p2685
aVcNDC_Midwest
p2686
aV">"
p2687
aa(lp2688
I22
aVcCEN_West
p2689
aVcNDC_West
p2690
aV">"
p2691
aa(lp2692
I22
aVcCEN_West
p2693
aVcNDC_Southwest
p2694
aV"><"
p2695
aa(lp2696
I22
aVcCEN_South
p2697
aVcNDC_Northeast
p2698
aV"><"
p2699
aa(lp2700
I22
aVcCEN_South
p2701
aVcNDC_Southwest
p2702
aV"><"
p2703
aa(lp2704
I22
aVcCEN_West
p2705
aVcNDC_Midwest
p2706
aV"!"
p2707
aa(lp2708
I22
aVcCEN_Northeast
p2709
aVcNDC_Midwest
p2710
aV"!"
p2711
aa(lp2712
I22
aVcCEN_Midwest
p2713
aVcNDC_Northeast
p2714
aV"!"
p2715
aa(lp2716
I22
aVcCEN_Midwest
p2717
aVcNDC_West
p2718
aV"!"
p2719
aa(lp2720
I22
aVcCEN_Midwest
p2721
aVcNDC_Southeast
p2722
aV"!"
p2723
aa(lp2724
I22
aVcCEN_Midwest
p2725
aVcNDC_Southwest
p2726
aV"!"
p2727
aa(lp2728
I22
aVcCEN_South
p2729
aVcNDC_Midwest
p2730
aV"!"
p2731
aaasba(ihelper
PossibleWorld
p2732
(dp2733
g3
I23
sg4
I0
sg5
(lp2734
(lp2735
(lp2736
I23
aVcCEN_West
p2737
aVcNDC_USA
p2738
aV"<"
p2739
aa(lp2740
I23
aVcCEN_Northeast
p2741
aVcNDC_USA
p2742
aV"<"
p2743
aa(lp2744
I23
aVcCEN_South
p2745
aVcNDC_USA
p2746
aV"<"
p2747
aa(lp2748
I23
aVcCEN_USA
p2749
aVcNDC_USA
p2750
aV"="
p2751
aa(lp2752
I23
aVcCEN_USA
p2753
aVcNDC_Northeast
p2754
aV">"
p2755
aa(lp2756
I23
aVcCEN_USA
p2757
aVcNDC_West
p2758
aV">"
p2759
aa(lp2760
I23
aVcCEN_USA
p2761
aVcNDC_Southeast
p2762
aV">"
p2763
aa(lp2764
I23
aVcCEN_USA
p2765
aVcNDC_Southwest
p2766
aV">"
p2767
aa(lp2768
I23
aVcCEN_South
p2769
aVcNDC_Southeast
p2770
aV">"
p2771
aa(lp2772
I23
aVcCEN_West
p2773
aVcNDC_Northeast
p2774
aV"!"
p2775
aa(lp2776
I23
aVcCEN_West
p2777
aVcNDC_Southeast
p2778
aV"!"
p2779
aa(lp2780
I23
aVcCEN_Northeast
p2781
aVcNDC_West
p2782
aV"!"
p2783
aa(lp2784
I23
aVcCEN_Northeast
p2785
aVcNDC_Southeast
p2786
aV"!"
p2787
aa(lp2788
I23
aVcCEN_Northeast
p2789
aVcNDC_Southwest
p2790
aV"!"
p2791
aa(lp2792
I23
aVcCEN_South
p2793
aVcNDC_West
p2794
aV"!"
p2795
aa(lp2796
I23
aVcCEN_Northeast
p2797
aVcNDC_Northeast
p2798
aV"<"
p2799
aa(lp2800
I23
aVcCEN_Midwest
p2801
aVcNDC_USA
p2802
aV"<"
p2803
aa(lp2804
I23
aVcCEN_Midwest
p2805
aVcNDC_Midwest
p2806
aV"<"
p2807
aa(lp2808
I23
aVcCEN_USA
p2809
aVcNDC_Midwest
p2810
aV">"
p2811
aa(lp2812
I23
aVcCEN_West
p2813
aVcNDC_West
p2814
aV">"
p2815
aa(lp2816
I23
aVcCEN_West
p2817
aVcNDC_Southwest
p2818
aV"><"
p2819
aa(lp2820
I23
aVcCEN_South
p2821
aVcNDC_Northeast
p2822
aV"><"
p2823
aa(lp2824
I23
aVcCEN_South
p2825
aVcNDC_Midwest
p2826
aV"><"
p2827
aa(lp2828
I23
aVcCEN_South
p2829
aVcNDC_Southwest
p2830
aV"><"
p2831
aa(lp2832
I23
aVcCEN_West
p2833
aVcNDC_Midwest
p2834
aV"!"
p2835
aa(lp2836
I23
aVcCEN_Northeast
p2837
aVcNDC_Midwest
p2838
aV"!"
p2839
aa(lp2840
I23
aVcCEN_Midwest
p2841
aVcNDC_Northeast
p2842
aV"!"
p2843
aa(lp2844
I23
aVcCEN_Midwest
p2845
aVcNDC_West
p2846
aV"!"
p2847
aa(lp2848
I23
aVcCEN_Midwest
p2849
aVcNDC_Southeast
p2850
aV"!"
p2851
aa(lp2852
I23
aVcCEN_Midwest
p2853
aVcNDC_Southwest
p2854
aV"!"
p2855
aaasba(ihelper
PossibleWorld
p2856
(dp2857
g3
I24
sg4
I0
sg5
(lp2858
(lp2859
(lp2860
I24
aVcCEN_West
p2861
aVcNDC_USA
p2862
aV"<"
p2863
aa(lp2864
I24
aVcCEN_Northeast
p2865
aVcNDC_USA
p2866
aV"<"
p2867
aa(lp2868
I24
aVcCEN_South
p2869
aVcNDC_USA
p2870
aV"<"
p2871
aa(lp2872
I24
aVcCEN_USA
p2873
aVcNDC_USA
p2874
aV"="
p2875
aa(lp2876
I24
aVcCEN_USA
p2877
aVcNDC_Northeast
p2878
aV">"
p2879
aa(lp2880
I24
aVcCEN_USA
p2881
aVcNDC_West
p2882
aV">"
p2883
aa(lp2884
I24
aVcCEN_USA
p2885
aVcNDC_Southeast
p2886
aV">"
p2887
aa(lp2888
I24
aVcCEN_USA
p2889
aVcNDC_Southwest
p2890
aV">"
p2891
aa(lp2892
I24
aVcCEN_South
p2893
aVcNDC_Southeast
p2894
aV">"
p2895
aa(lp2896
I24
aVcCEN_West
p2897
aVcNDC_Northeast
p2898
aV"!"
p2899
aa(lp2900
I24
aVcCEN_West
p2901
aVcNDC_Southeast
p2902
aV"!"
p2903
aa(lp2904
I24
aVcCEN_Northeast
p2905
aVcNDC_West
p2906
aV"!"
p2907
aa(lp2908
I24
aVcCEN_Northeast
p2909
aVcNDC_Southeast
p2910
aV"!"
p2911
aa(lp2912
I24
aVcCEN_Northeast
p2913
aVcNDC_Southwest
p2914
aV"!"
p2915
aa(lp2916
I24
aVcCEN_South
p2917
aVcNDC_West
p2918
aV"!"
p2919
aa(lp2920
I24
aVcCEN_Northeast
p2921
aVcNDC_Northeast
p2922
aV"<"
p2923
aa(lp2924
I24
aVcCEN_Midwest
p2925
aVcNDC_USA
p2926
aV"<"
p2927
aa(lp2928
I24
aVcCEN_Midwest
p2929
aVcNDC_Midwest
p2930
aV"<"
p2931
aa(lp2932
I24
aVcCEN_USA
p2933
aVcNDC_Midwest
p2934
aV">"
p2935
aa(lp2936
I24
aVcCEN_West
p2937
aVcNDC_West
p2938
aV">"
p2939
aa(lp2940
I24
aVcCEN_West
p2941
aVcNDC_Midwest
p2942
aV"><"
p2943
aa(lp2944
I24
aVcCEN_West
p2945
aVcNDC_Southwest
p2946
aV"><"
p2947
aa(lp2948
I24
aVcCEN_South
p2949
aVcNDC_Northeast
p2950
aV"><"
p2951
aa(lp2952
I24
aVcCEN_South
p2953
aVcNDC_Southwest
p2954
aV"><"
p2955
aa(lp2956
I24
aVcCEN_Northeast
p2957
aVcNDC_Midwest
p2958
aV"!"
p2959
aa(lp2960
I24
aVcCEN_Midwest
p2961
aVcNDC_Northeast
p2962
aV"!"
p2963
aa(lp2964
I24
aVcCEN_Midwest
p2965
aVcNDC_West
p2966
aV"!"
p2967
aa(lp2968
I24
aVcCEN_Midwest
p2969
aVcNDC_Southeast
p2970
aV"!"
p2971
aa(lp2972
I24
aVcCEN_Midwest
p2973
aVcNDC_Southwest
p2974
aV"!"
p2975
aa(lp2976
I24
aVcCEN_South
p2977
aVcNDC_Midwest
p2978
aV"!"
p2979
aaasba(ihelper
PossibleWorld
p2980
(dp2981
g3
I25
sg4
I0
sg5
(lp2982
(lp2983
(lp2984
I25
aVcCEN_West
p2985
aVcNDC_USA
p2986
aV"<"
p2987
aa(lp2988
I25
aVcCEN_Northeast
p2989
aVcNDC_USA
p2990
aV"<"
p2991
aa(lp2992
I25
aVcCEN_South
p2993
aVcNDC_USA
p2994
aV"<"
p2995
aa(lp2996
I25
aVcCEN_USA
p2997
aVcNDC_USA
p2998
aV"="
p2999
aa(lp3000
I25
aVcCEN_USA
p3001
aVcNDC_Northeast
p3002
aV">"
p3003
aa(lp3004
I25
aVcCEN_USA
p3005
aVcNDC_West
p3006
aV">"
p3007
aa(lp3008
I25
aVcCEN_USA
p3009
aVcNDC_Southeast
p3010
aV">"
p3011
aa(lp3012
I25
aVcCEN_USA
p3013
aVcNDC_Southwest
p3014
aV">"
p3015
aa(lp3016
I25
aVcCEN_South
p3017
aVcNDC_Southeast
p3018
aV">"
p3019
aa(lp3020
I25
aVcCEN_West
p3021
aVcNDC_Northeast
p3022
aV"!"
p3023
aa(lp3024
I25
aVcCEN_West
p3025
aVcNDC_Southeast
p3026
aV"!"
p3027
aa(lp3028
I25
aVcCEN_Northeast
p3029
aVcNDC_West
p3030
aV"!"
p3031
aa(lp3032
I25
aVcCEN_Northeast
p3033
aVcNDC_Southeast
p3034
aV"!"
p3035
aa(lp3036
I25
aVcCEN_Northeast
p3037
aVcNDC_Southwest
p3038
aV"!"
p3039
aa(lp3040
I25
aVcCEN_South
p3041
aVcNDC_West
p3042
aV"!"
p3043
aa(lp3044
I25
aVcCEN_Northeast
p3045
aVcNDC_Northeast
p3046
aV"<"
p3047
aa(lp3048
I25
aVcCEN_Midwest
p3049
aVcNDC_USA
p3050
aV"<"
p3051
aa(lp3052
I25
aVcCEN_Midwest
p3053
aVcNDC_Midwest
p3054
aV"<"
p3055
aa(lp3056
I25
aVcCEN_USA
p3057
aVcNDC_Midwest
p3058
aV">"
p3059
aa(lp3060
I25
aVcCEN_West
p3061
aVcNDC_West
p3062
aV">"
p3063
aa(lp3064
I25
aVcCEN_West
p3065
aVcNDC_Midwest
p3066
aV"><"
p3067
aa(lp3068
I25
aVcCEN_West
p3069
aVcNDC_Southwest
p3070
aV"><"
p3071
aa(lp3072
I25
aVcCEN_South
p3073
aVcNDC_Northeast
p3074
aV"><"
p3075
aa(lp3076
I25
aVcCEN_South
p3077
aVcNDC_Midwest
p3078
aV"><"
p3079
aa(lp3080
I25
aVcCEN_South
p3081
aVcNDC_Southwest
p3082
aV"><"
p3083
aa(lp3084
I25
aVcCEN_Northeast
p3085
aVcNDC_Midwest
p3086
aV"!"
p3087
aa(lp3088
I25
aVcCEN_Midwest
p3089
aVcNDC_Northeast
p3090
aV"!"
p3091
aa(lp3092
I25
aVcCEN_Midwest
p3093
aVcNDC_West
p3094
aV"!"
p3095
aa(lp3096
I25
aVcCEN_Midwest
p3097
aVcNDC_Southeast
p3098
aV"!"
p3099
aa(lp3100
I25
aVcCEN_Midwest
p3101
aVcNDC_Southwest
p3102
aV"!"
p3103
aaasba(ihelper
PossibleWorld
p3104
(dp3105
g3
I26
sg4
I0
sg5
(lp3106
(lp3107
(lp3108
I26
aVcCEN_West
p3109
aVcNDC_USA
p3110
aV"<"
p3111
aa(lp3112
I26
aVcCEN_Northeast
p3113
aVcNDC_USA
p3114
aV"<"
p3115
aa(lp3116
I26
aVcCEN_South
p3117
aVcNDC_USA
p3118
aV"<"
p3119
aa(lp3120
I26
aVcCEN_USA
p3121
aVcNDC_USA
p3122
aV"="
p3123
aa(lp3124
I26
aVcCEN_USA
p3125
aVcNDC_Northeast
p3126
aV">"
p3127
aa(lp3128
I26
aVcCEN_USA
p3129
aVcNDC_West
p3130
aV">"
p3131
aa(lp3132
I26
aVcCEN_USA
p3133
aVcNDC_Southeast
p3134
aV">"
p3135
aa(lp3136
I26
aVcCEN_USA
p3137
aVcNDC_Southwest
p3138
aV">"
p3139
aa(lp3140
I26
aVcCEN_South
p3141
aVcNDC_Southeast
p3142
aV">"
p3143
aa(lp3144
I26
aVcCEN_West
p3145
aVcNDC_Northeast
p3146
aV"!"
p3147
aa(lp3148
I26
aVcCEN_West
p3149
aVcNDC_Southeast
p3150
aV"!"
p3151
aa(lp3152
I26
aVcCEN_Northeast
p3153
aVcNDC_West
p3154
aV"!"
p3155
aa(lp3156
I26
aVcCEN_Northeast
p3157
aVcNDC_Southeast
p3158
aV"!"
p3159
aa(lp3160
I26
aVcCEN_Northeast
p3161
aVcNDC_Southwest
p3162
aV"!"
p3163
aa(lp3164
I26
aVcCEN_South
p3165
aVcNDC_West
p3166
aV"!"
p3167
aa(lp3168
I26
aVcCEN_Northeast
p3169
aVcNDC_Northeast
p3170
aV"<"
p3171
aa(lp3172
I26
aVcCEN_Midwest
p3173
aVcNDC_USA
p3174
aV"<"
p3175
aa(lp3176
I26
aVcCEN_USA
p3177
aVcNDC_Midwest
p3178
aV">"
p3179
aa(lp3180
I26
aVcCEN_West
p3181
aVcNDC_West
p3182
aV">"
p3183
aa(lp3184
I26
aVcCEN_Midwest
p3185
aVcNDC_Midwest
p3186
aV">"
p3187
aa(lp3188
I26
aVcCEN_West
p3189
aVcNDC_Southwest
p3190
aV"><"
p3191
aa(lp3192
I26
aVcCEN_Midwest
p3193
aVcNDC_Southwest
p3194
aV"><"
p3195
aa(lp3196
I26
aVcCEN_South
p3197
aVcNDC_Northeast
p3198
aV"><"
p3199
aa(lp3200
I26
aVcCEN_South
p3201
aVcNDC_Southwest
p3202
aV"><"
p3203
aa(lp3204
I26
aVcCEN_West
p3205
aVcNDC_Midwest
p3206
aV"!"
p3207
aa(lp3208
I26
aVcCEN_Northeast
p3209
aVcNDC_Midwest
p3210
aV"!"
p3211
aa(lp3212
I26
aVcCEN_Midwest
p3213
aVcNDC_Northeast
p3214
aV"!"
p3215
aa(lp3216
I26
aVcCEN_Midwest
p3217
aVcNDC_West
p3218
aV"!"
p3219
aa(lp3220
I26
aVcCEN_Midwest
p3221
aVcNDC_Southeast
p3222
aV"!"
p3223
aa(lp3224
I26
aVcCEN_South
p3225
aVcNDC_Midwest
p3226
aV"!"
p3227
aaasba(ihelper
PossibleWorld
p3228
(dp3229
g3
I27
sg4
I0
sg5
(lp3230
(lp3231
(lp3232
I27
aVcCEN_West
p3233
aVcNDC_USA
p3234
aV"<"
p3235
aa(lp3236
I27
aVcCEN_Northeast
p3237
aVcNDC_USA
p3238
aV"<"
p3239
aa(lp3240
I27
aVcCEN_South
p3241
aVcNDC_USA
p3242
aV"<"
p3243
aa(lp3244
I27
aVcCEN_USA
p3245
aVcNDC_USA
p3246
aV"="
p3247
aa(lp3248
I27
aVcCEN_USA
p3249
aVcNDC_Northeast
p3250
aV">"
p3251
aa(lp3252
I27
aVcCEN_USA
p3253
aVcNDC_West
p3254
aV">"
p3255
aa(lp3256
I27
aVcCEN_USA
p3257
aVcNDC_Southeast
p3258
aV">"
p3259
aa(lp3260
I27
aVcCEN_USA
p3261
aVcNDC_Southwest
p3262
aV">"
p3263
aa(lp3264
I27
aVcCEN_South
p3265
aVcNDC_Southeast
p3266
aV">"
p3267
aa(lp3268
I27
aVcCEN_West
p3269
aVcNDC_Northeast
p3270
aV"!"
p3271
aa(lp3272
I27
aVcCEN_West
p3273
aVcNDC_Southeast
p3274
aV"!"
p3275
aa(lp3276
I27
aVcCEN_Northeast
p3277
aVcNDC_West
p3278
aV"!"
p3279
aa(lp3280
I27
aVcCEN_Northeast
p3281
aVcNDC_Southeast
p3282
aV"!"
p3283
aa(lp3284
I27
aVcCEN_Northeast
p3285
aVcNDC_Southwest
p3286
aV"!"
p3287
aa(lp3288
I27
aVcCEN_South
p3289
aVcNDC_West
p3290
aV"!"
p3291
aa(lp3292
I27
aVcCEN_Northeast
p3293
aVcNDC_Northeast
p3294
aV"<"
p3295
aa(lp3296
I27
aVcCEN_Midwest
p3297
aVcNDC_USA
p3298
aV"<"
p3299
aa(lp3300
I27
aVcCEN_USA
p3301
aVcNDC_Midwest
p3302
aV">"
p3303
aa(lp3304
I27
aVcCEN_West
p3305
aVcNDC_West
p3306
aV">"
p3307
aa(lp3308
I27
aVcCEN_West
p3309
aVcNDC_Southwest
p3310
aV"><"
p3311
aa(lp3312
I27
aVcCEN_Midwest
p3313
aVcNDC_Midwest
p3314
aV"><"
p3315
aa(lp3316
I27
aVcCEN_Midwest
p3317
aVcNDC_Southwest
p3318
aV"><"
p3319
aa(lp3320
I27
aVcCEN_South
p3321
aVcNDC_Northeast
p3322
aV"><"
p3323
aa(lp3324
I27
aVcCEN_South
p3325
aVcNDC_Midwest
p3326
aV"><"
p3327
aa(lp3328
I27
aVcCEN_South
p3329
aVcNDC_Southwest
p3330
aV"><"
p3331
aa(lp3332
I27
aVcCEN_West
p3333
aVcNDC_Midwest
p3334
aV"!"
p3335
aa(lp3336
I27
aVcCEN_Northeast
p3337
aVcNDC_Midwest
p3338
aV"!"
p3339
aa(lp3340
I27
aVcCEN_Midwest
p3341
aVcNDC_Northeast
p3342
aV"!"
p3343
aa(lp3344
I27
aVcCEN_Midwest
p3345
aVcNDC_West
p3346
aV"!"
p3347
aa(lp3348
I27
aVcCEN_Midwest
p3349
aVcNDC_Southeast
p3350
aV"!"
p3351
aaasba(ihelper
PossibleWorld
p3352
(dp3353
g3
I28
sg4
I0
sg5
(lp3354
(lp3355
(lp3356
I28
aVcCEN_West
p3357
aVcNDC_USA
p3358
aV"<"
p3359
aa(lp3360
I28
aVcCEN_Northeast
p3361
aVcNDC_USA
p3362
aV"<"
p3363
aa(lp3364
I28
aVcCEN_South
p3365
aVcNDC_USA
p3366
aV"<"
p3367
aa(lp3368
I28
aVcCEN_USA
p3369
aVcNDC_USA
p3370
aV"="
p3371
aa(lp3372
I28
aVcCEN_USA
p3373
aVcNDC_Northeast
p3374
aV">"
p3375
aa(lp3376
I28
aVcCEN_USA
p3377
aVcNDC_West
p3378
aV">"
p3379
aa(lp3380
I28
aVcCEN_USA
p3381
aVcNDC_Southeast
p3382
aV">"
p3383
aa(lp3384
I28
aVcCEN_USA
p3385
aVcNDC_Southwest
p3386
aV">"
p3387
aa(lp3388
I28
aVcCEN_South
p3389
aVcNDC_Southeast
p3390
aV">"
p3391
aa(lp3392
I28
aVcCEN_West
p3393
aVcNDC_Northeast
p3394
aV"!"
p3395
aa(lp3396
I28
aVcCEN_West
p3397
aVcNDC_Southeast
p3398
aV"!"
p3399
aa(lp3400
I28
aVcCEN_Northeast
p3401
aVcNDC_West
p3402
aV"!"
p3403
aa(lp3404
I28
aVcCEN_Northeast
p3405
aVcNDC_Southeast
p3406
aV"!"
p3407
aa(lp3408
I28
aVcCEN_Northeast
p3409
aVcNDC_Southwest
p3410
aV"!"
p3411
aa(lp3412
I28
aVcCEN_South
p3413
aVcNDC_West
p3414
aV"!"
p3415
aa(lp3416
I28
aVcCEN_Northeast
p3417
aVcNDC_Northeast
p3418
aV"<"
p3419
aa(lp3420
I28
aVcCEN_Midwest
p3421
aVcNDC_USA
p3422
aV"<"
p3423
aa(lp3424
I28
aVcCEN_USA
p3425
aVcNDC_Midwest
p3426
aV">"
p3427
aa(lp3428
I28
aVcCEN_West
p3429
aVcNDC_West
p3430
aV">"
p3431
aa(lp3432
I28
aVcCEN_West
p3433
aVcNDC_Midwest
p3434
aV"><"
p3435
aa(lp3436
I28
aVcCEN_Midwest
p3437
aVcNDC_Midwest
p3438
aV"><"
p3439
aa(lp3440
I28
aVcCEN_Midwest
p3441
aVcNDC_Southwest
p3442
aV"><"
p3443
aa(lp3444
I28
aVcCEN_South
p3445
aVcNDC_Northeast
p3446
aV"><"
p3447
aa(lp3448
I28
aVcCEN_South
p3449
aVcNDC_Southwest
p3450
aV"><"
p3451
aa(lp3452
I28
aVcCEN_West
p3453
aVcNDC_Southwest
p3454
aV"!"
p3455
aa(lp3456
I28
aVcCEN_Northeast
p3457
aVcNDC_Midwest
p3458
aV"!"
p3459
aa(lp3460
I28
aVcCEN_Midwest
p3461
aVcNDC_Northeast
p3462
aV"!"
p3463
aa(lp3464
I28
aVcCEN_Midwest
p3465
aVcNDC_West
p3466
aV"!"
p3467
aa(lp3468
I28
aVcCEN_Midwest
p3469
aVcNDC_Southeast
p3470
aV"!"
p3471
aa(lp3472
I28
aVcCEN_South
p3473
aVcNDC_Midwest
p3474
aV"!"
p3475
aaasba(ihelper
PossibleWorld
p3476
(dp3477
g3
I29
sg4
I0
sg5
(lp3478
(lp3479
(lp3480
I29
aVcCEN_West
p3481
aVcNDC_USA
p3482
aV"<"
p3483
aa(lp3484
I29
aVcCEN_Northeast
p3485
aVcNDC_USA
p3486
aV"<"
p3487
aa(lp3488
I29
aVcCEN_South
p3489
aVcNDC_USA
p3490
aV"<"
p3491
aa(lp3492
I29
aVcCEN_USA
p3493
aVcNDC_USA
p3494
aV"="
p3495
aa(lp3496
I29
aVcCEN_USA
p3497
aVcNDC_Northeast
p3498
aV">"
p3499
aa(lp3500
I29
aVcCEN_USA
p3501
aVcNDC_West
p3502
aV">"
p3503
aa(lp3504
I29
aVcCEN_USA
p3505
aVcNDC_Southeast
p3506
aV">"
p3507
aa(lp3508
I29
aVcCEN_USA
p3509
aVcNDC_Southwest
p3510
aV">"
p3511
aa(lp3512
I29
aVcCEN_South
p3513
aVcNDC_Southeast
p3514
aV">"
p3515
aa(lp3516
I29
aVcCEN_West
p3517
aVcNDC_Northeast
p3518
aV"!"
p3519
aa(lp3520
I29
aVcCEN_West
p3521
aVcNDC_Southeast
p3522
aV"!"
p3523
aa(lp3524
I29
aVcCEN_Northeast
p3525
aVcNDC_West
p3526
aV"!"
p3527
aa(lp3528
I29
aVcCEN_Northeast
p3529
aVcNDC_Southeast
p3530
aV"!"
p3531
aa(lp3532
I29
aVcCEN_Northeast
p3533
aVcNDC_Southwest
p3534
aV"!"
p3535
aa(lp3536
I29
aVcCEN_South
p3537
aVcNDC_West
p3538
aV"!"
p3539
aa(lp3540
I29
aVcCEN_Northeast
p3541
aVcNDC_Northeast
p3542
aV"<"
p3543
aa(lp3544
I29
aVcCEN_Midwest
p3545
aVcNDC_USA
p3546
aV"<"
p3547
aa(lp3548
I29
aVcCEN_USA
p3549
aVcNDC_Midwest
p3550
aV">"
p3551
aa(lp3552
I29
aVcCEN_West
p3553
aVcNDC_West
p3554
aV">"
p3555
aa(lp3556
I29
aVcCEN_West
p3557
aVcNDC_Midwest
p3558
aV"><"
p3559
aa(lp3560
I29
aVcCEN_West
p3561
aVcNDC_Southwest
p3562
aV"><"
p3563
aa(lp3564
I29
aVcCEN_Midwest
p3565
aVcNDC_Midwest
p3566
aV"><"
p3567
aa(lp3568
I29
aVcCEN_Midwest
p3569
aVcNDC_Southwest
p3570
aV"><"
p3571
aa(lp3572
I29
aVcCEN_South
p3573
aVcNDC_Northeast
p3574
aV"><"
p3575
aa(lp3576
I29
aVcCEN_South
p3577
aVcNDC_Southwest
p3578
aV"><"
p3579
aa(lp3580
I29
aVcCEN_Northeast
p3581
aVcNDC_Midwest
p3582
aV"!"
p3583
aa(lp3584
I29
aVcCEN_Midwest
p3585
aVcNDC_Northeast
p3586
aV"!"
p3587
aa(lp3588
I29
aVcCEN_Midwest
p3589
aVcNDC_West
p3590
aV"!"
p3591
aa(lp3592
I29
aVcCEN_Midwest
p3593
aVcNDC_Southeast
p3594
aV"!"
p3595
aa(lp3596
I29
aVcCEN_South
p3597
aVcNDC_Midwest
p3598
aV"!"
p3599
aaasba(ihelper
PossibleWorld
p3600
(dp3601
g3
I30
sg4
I0
sg5
(lp3602
(lp3603
(lp3604
I30
aVcCEN_West
p3605
aVcNDC_USA
p3606
aV"<"
p3607
aa(lp3608
I30
aVcCEN_Northeast
p3609
aVcNDC_USA
p3610
aV"<"
p3611
aa(lp3612
I30
aVcCEN_South
p3613
aVcNDC_USA
p3614
aV"<"
p3615
aa(lp3616
I30
aVcCEN_USA
p3617
aVcNDC_USA
p3618
aV"="
p3619
aa(lp3620
I30
aVcCEN_USA
p3621
aVcNDC_Northeast
p3622
aV">"
p3623
aa(lp3624
I30
aVcCEN_USA
p3625
aVcNDC_West
p3626
aV">"
p3627
aa(lp3628
I30
aVcCEN_USA
p3629
aVcNDC_Southeast
p3630
aV">"
p3631
aa(lp3632
I30
aVcCEN_USA
p3633
aVcNDC_Southwest
p3634
aV">"
p3635
aa(lp3636
I30
aVcCEN_South
p3637
aVcNDC_Southeast
p3638
aV">"
p3639
aa(lp3640
I30
aVcCEN_West
p3641
aVcNDC_Northeast
p3642
aV"!"
p3643
aa(lp3644
I30
aVcCEN_West
p3645
aVcNDC_Southeast
p3646
aV"!"
p3647
aa(lp3648
I30
aVcCEN_Northeast
p3649
aVcNDC_West
p3650
aV"!"
p3651
aa(lp3652
I30
aVcCEN_Northeast
p3653
aVcNDC_Southeast
p3654
aV"!"
p3655
aa(lp3656
I30
aVcCEN_Northeast
p3657
aVcNDC_Southwest
p3658
aV"!"
p3659
aa(lp3660
I30
aVcCEN_South
p3661
aVcNDC_West
p3662
aV"!"
p3663
aa(lp3664
I30
aVcCEN_Northeast
p3665
aVcNDC_Northeast
p3666
aV"<"
p3667
aa(lp3668
I30
aVcCEN_Midwest
p3669
aVcNDC_USA
p3670
aV"<"
p3671
aa(lp3672
I30
aVcCEN_USA
p3673
aVcNDC_Midwest
p3674
aV">"
p3675
aa(lp3676
I30
aVcCEN_West
p3677
aVcNDC_West
p3678
aV">"
p3679
aa(lp3680
I30
aVcCEN_West
p3681
aVcNDC_Midwest
p3682
aV"><"
p3683
aa(lp3684
I30
aVcCEN_Midwest
p3685
aVcNDC_Midwest
p3686
aV"><"
p3687
aa(lp3688
I30
aVcCEN_Midwest
p3689
aVcNDC_Southwest
p3690
aV"><"
p3691
aa(lp3692
I30
aVcCEN_South
p3693
aVcNDC_Northeast
p3694
aV"><"
p3695
aa(lp3696
I30
aVcCEN_South
p3697
aVcNDC_Midwest
p3698
aV"><"
p3699
aa(lp3700
I30
aVcCEN_South
p3701
aVcNDC_Southwest
p3702
aV"><"
p3703
aa(lp3704
I30
aVcCEN_West
p3705
aVcNDC_Southwest
p3706
aV"!"
p3707
aa(lp3708
I30
aVcCEN_Northeast
p3709
aVcNDC_Midwest
p3710
aV"!"
p3711
aa(lp3712
I30
aVcCEN_Midwest
p3713
aVcNDC_Northeast
p3714
aV"!"
p3715
aa(lp3716
I30
aVcCEN_Midwest
p3717
aVcNDC_West
p3718
aV"!"
p3719
aa(lp3720
I30
aVcCEN_Midwest
p3721
aVcNDC_Southeast
p3722
aV"!"
p3723
aaasba(ihelper
PossibleWorld
p3724
(dp3725
g3
I31
sg4
I0
sg5
(lp3726
(lp3727
(lp3728
I31
aVcCEN_West
p3729
aVcNDC_USA
p3730
aV"<"
p3731
aa(lp3732
I31
aVcCEN_Northeast
p3733
aVcNDC_USA
p3734
aV"<"
p3735
aa(lp3736
I31
aVcCEN_South
p3737
aVcNDC_USA
p3738
aV"<"
p3739
aa(lp3740
I31
aVcCEN_USA
p3741
aVcNDC_USA
p3742
aV"="
p3743
aa(lp3744
I31
aVcCEN_USA
p3745
aVcNDC_Northeast
p3746
aV">"
p3747
aa(lp3748
I31
aVcCEN_USA
p3749
aVcNDC_West
p3750
aV">"
p3751
aa(lp3752
I31
aVcCEN_USA
p3753
aVcNDC_Southeast
p3754
aV">"
p3755
aa(lp3756
I31
aVcCEN_USA
p3757
aVcNDC_Southwest
p3758
aV">"
p3759
aa(lp3760
I31
aVcCEN_South
p3761
aVcNDC_Southeast
p3762
aV">"
p3763
aa(lp3764
I31
aVcCEN_West
p3765
aVcNDC_Northeast
p3766
aV"!"
p3767
aa(lp3768
I31
aVcCEN_West
p3769
aVcNDC_Southeast
p3770
aV"!"
p3771
aa(lp3772
I31
aVcCEN_Northeast
p3773
aVcNDC_West
p3774
aV"!"
p3775
aa(lp3776
I31
aVcCEN_Northeast
p3777
aVcNDC_Southeast
p3778
aV"!"
p3779
aa(lp3780
I31
aVcCEN_Northeast
p3781
aVcNDC_Southwest
p3782
aV"!"
p3783
aa(lp3784
I31
aVcCEN_South
p3785
aVcNDC_West
p3786
aV"!"
p3787
aa(lp3788
I31
aVcCEN_Northeast
p3789
aVcNDC_Northeast
p3790
aV"<"
p3791
aa(lp3792
I31
aVcCEN_Midwest
p3793
aVcNDC_USA
p3794
aV"<"
p3795
aa(lp3796
I31
aVcCEN_USA
p3797
aVcNDC_Midwest
p3798
aV">"
p3799
aa(lp3800
I31
aVcCEN_West
p3801
aVcNDC_West
p3802
aV">"
p3803
aa(lp3804
I31
aVcCEN_West
p3805
aVcNDC_Midwest
p3806
aV"><"
p3807
aa(lp3808
I31
aVcCEN_West
p3809
aVcNDC_Southwest
p3810
aV"><"
p3811
aa(lp3812
I31
aVcCEN_Midwest
p3813
aVcNDC_Midwest
p3814
aV"><"
p3815
aa(lp3816
I31
aVcCEN_Midwest
p3817
aVcNDC_Southwest
p3818
aV"><"
p3819
aa(lp3820
I31
aVcCEN_South
p3821
aVcNDC_Northeast
p3822
aV"><"
p3823
aa(lp3824
I31
aVcCEN_South
p3825
aVcNDC_Midwest
p3826
aV"><"
p3827
aa(lp3828
I31
aVcCEN_South
p3829
aVcNDC_Southwest
p3830
aV"><"
p3831
aa(lp3832
I31
aVcCEN_Northeast
p3833
aVcNDC_Midwest
p3834
aV"!"
p3835
aa(lp3836
I31
aVcCEN_Midwest
p3837
aVcNDC_Northeast
p3838
aV"!"
p3839
aa(lp3840
I31
aVcCEN_Midwest
p3841
aVcNDC_West
p3842
aV"!"
p3843
aa(lp3844
I31
aVcCEN_Midwest
p3845
aVcNDC_Southeast
p3846
aV"!"
p3847
aaasba(ihelper
PossibleWorld
p3848
(dp3849
g3
I32
sg4
I0
sg5
(lp3850
(lp3851
(lp3852
I32
aVcCEN_West
p3853
aVcNDC_USA
p3854
aV"<"
p3855
aa(lp3856
I32
aVcCEN_Northeast
p3857
aVcNDC_USA
p3858
aV"<"
p3859
aa(lp3860
I32
aVcCEN_South
p3861
aVcNDC_USA
p3862
aV"<"
p3863
aa(lp3864
I32
aVcCEN_USA
p3865
aVcNDC_USA
p3866
aV"="
p3867
aa(lp3868
I32
aVcCEN_USA
p3869
aVcNDC_Northeast
p3870
aV">"
p3871
aa(lp3872
I32
aVcCEN_USA
p3873
aVcNDC_West
p3874
aV">"
p3875
aa(lp3876
I32
aVcCEN_USA
p3877
aVcNDC_Southeast
p3878
aV">"
p3879
aa(lp3880
I32
aVcCEN_USA
p3881
aVcNDC_Southwest
p3882
aV">"
p3883
aa(lp3884
I32
aVcCEN_South
p3885
aVcNDC_Southeast
p3886
aV">"
p3887
aa(lp3888
I32
aVcCEN_West
p3889
aVcNDC_Northeast
p3890
aV"!"
p3891
aa(lp3892
I32
aVcCEN_West
p3893
aVcNDC_Southeast
p3894
aV"!"
p3895
aa(lp3896
I32
aVcCEN_Northeast
p3897
aVcNDC_West
p3898
aV"!"
p3899
aa(lp3900
I32
aVcCEN_Northeast
p3901
aVcNDC_Southeast
p3902
aV"!"
p3903
aa(lp3904
I32
aVcCEN_Northeast
p3905
aVcNDC_Southwest
p3906
aV"!"
p3907
aa(lp3908
I32
aVcCEN_South
p3909
aVcNDC_West
p3910
aV"!"
p3911
aa(lp3912
I32
aVcCEN_Northeast
p3913
aVcNDC_Northeast
p3914
aV"<"
p3915
aa(lp3916
I32
aVcCEN_Midwest
p3917
aVcNDC_USA
p3918
aV"<"
p3919
aa(lp3920
I32
aVcCEN_USA
p3921
aVcNDC_Midwest
p3922
aV">"
p3923
aa(lp3924
I32
aVcCEN_West
p3925
aVcNDC_West
p3926
aV">"
p3927
aa(lp3928
I32
aVcCEN_Midwest
p3929
aVcNDC_Midwest
p3930
aV">"
p3931
aa(lp3932
I32
aVcCEN_West
p3933
aVcNDC_Southwest
p3934
aV"><"
p3935
aa(lp3936
I32
aVcCEN_Midwest
p3937
aVcNDC_Northeast
p3938
aV"><"
p3939
aa(lp3940
I32
aVcCEN_South
p3941
aVcNDC_Southwest
p3942
aV"><"
p3943
aa(lp3944
I32
aVcCEN_West
p3945
aVcNDC_Midwest
p3946
aV"!"
p3947
aa(lp3948
I32
aVcCEN_Northeast
p3949
aVcNDC_Midwest
p3950
aV"!"
p3951
aa(lp3952
I32
aVcCEN_Midwest
p3953
aVcNDC_West
p3954
aV"!"
p3955
aa(lp3956
I32
aVcCEN_Midwest
p3957
aVcNDC_Southeast
p3958
aV"!"
p3959
aa(lp3960
I32
aVcCEN_Midwest
p3961
aVcNDC_Southwest
p3962
aV"!"
p3963
aa(lp3964
I32
aVcCEN_South
p3965
aVcNDC_Northeast
p3966
aV"!"
p3967
aa(lp3968
I32
aVcCEN_South
p3969
aVcNDC_Midwest
p3970
aV"!"
p3971
aaasba(ihelper
PossibleWorld
p3972
(dp3973
g3
I33
sg4
I0
sg5
(lp3974
(lp3975
(lp3976
I33
aVcCEN_West
p3977
aVcNDC_USA
p3978
aV"<"
p3979
aa(lp3980
I33
aVcCEN_Northeast
p3981
aVcNDC_USA
p3982
aV"<"
p3983
aa(lp3984
I33
aVcCEN_South
p3985
aVcNDC_USA
p3986
aV"<"
p3987
aa(lp3988
I33
aVcCEN_USA
p3989
aVcNDC_USA
p3990
aV"="
p3991
aa(lp3992
I33
aVcCEN_USA
p3993
aVcNDC_Northeast
p3994
aV">"
p3995
aa(lp3996
I33
aVcCEN_USA
p3997
aVcNDC_West
p3998
aV">"
p3999
aa(lp4000
I33
aVcCEN_USA
p4001
aVcNDC_Southeast
p4002
aV">"
p4003
aa(lp4004
I33
aVcCEN_USA
p4005
aVcNDC_Southwest
p4006
aV">"
p4007
aa(lp4008
I33
aVcCEN_South
p4009
aVcNDC_Southeast
p4010
aV">"
p4011
aa(lp4012
I33
aVcCEN_West
p4013
aVcNDC_Northeast
p4014
aV"!"
p4015
aa(lp4016
I33
aVcCEN_West
p4017
aVcNDC_Southeast
p4018
aV"!"
p4019
aa(lp4020
I33
aVcCEN_Northeast
p4021
aVcNDC_West
p4022
aV"!"
p4023
aa(lp4024
I33
aVcCEN_Northeast
p4025
aVcNDC_Southeast
p4026
aV"!"
p4027
aa(lp4028
I33
aVcCEN_Northeast
p4029
aVcNDC_Southwest
p4030
aV"!"
p4031
aa(lp4032
I33
aVcCEN_South
p4033
aVcNDC_West
p4034
aV"!"
p4035
aa(lp4036
I33
aVcCEN_Northeast
p4037
aVcNDC_Northeast
p4038
aV"<"
p4039
aa(lp4040
I33
aVcCEN_Midwest
p4041
aVcNDC_USA
p4042
aV"<"
p4043
aa(lp4044
I33
aVcCEN_USA
p4045
aVcNDC_Midwest
p4046
aV">"
p4047
aa(lp4048
I33
aVcCEN_West
p4049
aVcNDC_West
p4050
aV">"
p4051
aa(lp4052
I33
aVcCEN_Midwest
p4053
aVcNDC_Midwest
p4054
aV">"
p4055
aa(lp4056
I33
aVcCEN_West
p4057
aVcNDC_Southwest
p4058
aV"><"
p4059
aa(lp4060
I33
aVcCEN_Midwest
p4061
aVcNDC_Northeast
p4062
aV"><"
p4063
aa(lp4064
I33
aVcCEN_South
p4065
aVcNDC_Northeast
p4066
aV"><"
p4067
aa(lp4068
I33
aVcCEN_South
p4069
aVcNDC_Southwest
p4070
aV"><"
p4071
aa(lp4072
I33
aVcCEN_West
p4073
aVcNDC_Midwest
p4074
aV"!"
p4075
aa(lp4076
I33
aVcCEN_Northeast
p4077
aVcNDC_Midwest
p4078
aV"!"
p4079
aa(lp4080
I33
aVcCEN_Midwest
p4081
aVcNDC_West
p4082
aV"!"
p4083
aa(lp4084
I33
aVcCEN_Midwest
p4085
aVcNDC_Southeast
p4086
aV"!"
p4087
aa(lp4088
I33
aVcCEN_Midwest
p4089
aVcNDC_Southwest
p4090
aV"!"
p4091
aa(lp4092
I33
aVcCEN_South
p4093
aVcNDC_Midwest
p4094
aV"!"
p4095
aaasba(ihelper
PossibleWorld
p4096
(dp4097
g3
I34
sg4
I0
sg5
(lp4098
(lp4099
(lp4100
I34
aVcCEN_West
p4101
aVcNDC_USA
p4102
aV"<"
p4103
aa(lp4104
I34
aVcCEN_Northeast
p4105
aVcNDC_USA
p4106
aV"<"
p4107
aa(lp4108
I34
aVcCEN_South
p4109
aVcNDC_USA
p4110
aV"<"
p4111
aa(lp4112
I34
aVcCEN_USA
p4113
aVcNDC_USA
p4114
aV"="
p4115
aa(lp4116
I34
aVcCEN_USA
p4117
aVcNDC_Northeast
p4118
aV">"
p4119
aa(lp4120
I34
aVcCEN_USA
p4121
aVcNDC_West
p4122
aV">"
p4123
aa(lp4124
I34
aVcCEN_USA
p4125
aVcNDC_Southeast
p4126
aV">"
p4127
aa(lp4128
I34
aVcCEN_USA
p4129
aVcNDC_Southwest
p4130
aV">"
p4131
aa(lp4132
I34
aVcCEN_South
p4133
aVcNDC_Southeast
p4134
aV">"
p4135
aa(lp4136
I34
aVcCEN_West
p4137
aVcNDC_Northeast
p4138
aV"!"
p4139
aa(lp4140
I34
aVcCEN_West
p4141
aVcNDC_Southeast
p4142
aV"!"
p4143
aa(lp4144
I34
aVcCEN_Northeast
p4145
aVcNDC_West
p4146
aV"!"
p4147
aa(lp4148
I34
aVcCEN_Northeast
p4149
aVcNDC_Southeast
p4150
aV"!"
p4151
aa(lp4152
I34
aVcCEN_Northeast
p4153
aVcNDC_Southwest
p4154
aV"!"
p4155
aa(lp4156
I34
aVcCEN_South
p4157
aVcNDC_West
p4158
aV"!"
p4159
aa(lp4160
I34
aVcCEN_Northeast
p4161
aVcNDC_Northeast
p4162
aV"<"
p4163
aa(lp4164
I34
aVcCEN_Midwest
p4165
aVcNDC_USA
p4166
aV"<"
p4167
aa(lp4168
I34
aVcCEN_USA
p4169
aVcNDC_Midwest
p4170
aV">"
p4171
aa(lp4172
I34
aVcCEN_West
p4173
aVcNDC_West
p4174
aV">"
p4175
aa(lp4176
I34
aVcCEN_West
p4177
aVcNDC_Southwest
p4178
aV"><"
p4179
aa(lp4180
I34
aVcCEN_Midwest
p4181
aVcNDC_Northeast
p4182
aV"><"
p4183
aa(lp4184
I34
aVcCEN_Midwest
p4185
aVcNDC_Midwest
p4186
aV"><"
p4187
aa(lp4188
I34
aVcCEN_South
p4189
aVcNDC_Midwest
p4190
aV"><"
p4191
aa(lp4192
I34
aVcCEN_South
p4193
aVcNDC_Southwest
p4194
aV"><"
p4195
aa(lp4196
I34
aVcCEN_West
p4197
aVcNDC_Midwest
p4198
aV"!"
p4199
aa(lp4200
I34
aVcCEN_Northeast
p4201
aVcNDC_Midwest
p4202
aV"!"
p4203
aa(lp4204
I34
aVcCEN_Midwest
p4205
aVcNDC_West
p4206
aV"!"
p4207
aa(lp4208
I34
aVcCEN_Midwest
p4209
aVcNDC_Southeast
p4210
aV"!"
p4211
aa(lp4212
I34
aVcCEN_Midwest
p4213
aVcNDC_Southwest
p4214
aV"!"
p4215
aa(lp4216
I34
aVcCEN_South
p4217
aVcNDC_Northeast
p4218
aV"!"
p4219
aaasba(ihelper
PossibleWorld
p4220
(dp4221
g3
I35
sg4
I0
sg5
(lp4222
(lp4223
(lp4224
I35
aVcCEN_West
p4225
aVcNDC_USA
p4226
aV"<"
p4227
aa(lp4228
I35
aVcCEN_Northeast
p4229
aVcNDC_USA
p4230
aV"<"
p4231
aa(lp4232
I35
aVcCEN_South
p4233
aVcNDC_USA
p4234
aV"<"
p4235
aa(lp4236
I35
aVcCEN_USA
p4237
aVcNDC_USA
p4238
aV"="
p4239
aa(lp4240
I35
aVcCEN_USA
p4241
aVcNDC_Northeast
p4242
aV">"
p4243
aa(lp4244
I35
aVcCEN_USA
p4245
aVcNDC_West
p4246
aV">"
p4247
aa(lp4248
I35
aVcCEN_USA
p4249
aVcNDC_Southeast
p4250
aV">"
p4251
aa(lp4252
I35
aVcCEN_USA
p4253
aVcNDC_Southwest
p4254
aV">"
p4255
aa(lp4256
I35
aVcCEN_South
p4257
aVcNDC_Southeast
p4258
aV">"
p4259
aa(lp4260
I35
aVcCEN_West
p4261
aVcNDC_Northeast
p4262
aV"!"
p4263
aa(lp4264
I35
aVcCEN_West
p4265
aVcNDC_Southeast
p4266
aV"!"
p4267
aa(lp4268
I35
aVcCEN_Northeast
p4269
aVcNDC_West
p4270
aV"!"
p4271
aa(lp4272
I35
aVcCEN_Northeast
p4273
aVcNDC_Southeast
p4274
aV"!"
p4275
aa(lp4276
I35
aVcCEN_Northeast
p4277
aVcNDC_Southwest
p4278
aV"!"
p4279
aa(lp4280
I35
aVcCEN_South
p4281
aVcNDC_West
p4282
aV"!"
p4283
aa(lp4284
I35
aVcCEN_Northeast
p4285
aVcNDC_Northeast
p4286
aV"<"
p4287
aa(lp4288
I35
aVcCEN_Midwest
p4289
aVcNDC_USA
p4290
aV"<"
p4291
aa(lp4292
I35
aVcCEN_USA
p4293
aVcNDC_Midwest
p4294
aV">"
p4295
aa(lp4296
I35
aVcCEN_West
p4297
aVcNDC_West
p4298
aV">"
p4299
aa(lp4300
I35
aVcCEN_West
p4301
aVcNDC_Southwest
p4302
aV"><"
p4303
aa(lp4304
I35
aVcCEN_Midwest
p4305
aVcNDC_Northeast
p4306
aV"><"
p4307
aa(lp4308
I35
aVcCEN_Midwest
p4309
aVcNDC_Midwest
p4310
aV"><"
p4311
aa(lp4312
I35
aVcCEN_South
p4313
aVcNDC_Northeast
p4314
aV"><"
p4315
aa(lp4316
I35
aVcCEN_South
p4317
aVcNDC_Midwest
p4318
aV"><"
p4319
aa(lp4320
I35
aVcCEN_South
p4321
aVcNDC_Southwest
p4322
aV"><"
p4323
aa(lp4324
I35
aVcCEN_West
p4325
aVcNDC_Midwest
p4326
aV"!"
p4327
aa(lp4328
I35
aVcCEN_Northeast
p4329
aVcNDC_Midwest
p4330
aV"!"
p4331
aa(lp4332
I35
aVcCEN_Midwest
p4333
aVcNDC_West
p4334
aV"!"
p4335
aa(lp4336
I35
aVcCEN_Midwest
p4337
aVcNDC_Southeast
p4338
aV"!"
p4339
aa(lp4340
I35
aVcCEN_Midwest
p4341
aVcNDC_Southwest
p4342
aV"!"
p4343
aaasba(ihelper
PossibleWorld
p4344
(dp4345
g3
I36
sg4
I0
sg5
(lp4346
(lp4347
(lp4348
I36
aVcCEN_West
p4349
aVcNDC_USA
p4350
aV"<"
p4351
aa(lp4352
I36
aVcCEN_Northeast
p4353
aVcNDC_USA
p4354
aV"<"
p4355
aa(lp4356
I36
aVcCEN_South
p4357
aVcNDC_USA
p4358
aV"<"
p4359
aa(lp4360
I36
aVcCEN_USA
p4361
aVcNDC_USA
p4362
aV"="
p4363
aa(lp4364
I36
aVcCEN_USA
p4365
aVcNDC_Northeast
p4366
aV">"
p4367
aa(lp4368
I36
aVcCEN_USA
p4369
aVcNDC_West
p4370
aV">"
p4371
aa(lp4372
I36
aVcCEN_USA
p4373
aVcNDC_Southeast
p4374
aV">"
p4375
aa(lp4376
I36
aVcCEN_USA
p4377
aVcNDC_Southwest
p4378
aV">"
p4379
aa(lp4380
I36
aVcCEN_South
p4381
aVcNDC_Southeast
p4382
aV">"
p4383
aa(lp4384
I36
aVcCEN_West
p4385
aVcNDC_Northeast
p4386
aV"!"
p4387
aa(lp4388
I36
aVcCEN_West
p4389
aVcNDC_Southeast
p4390
aV"!"
p4391
aa(lp4392
I36
aVcCEN_Northeast
p4393
aVcNDC_West
p4394
aV"!"
p4395
aa(lp4396
I36
aVcCEN_Northeast
p4397
aVcNDC_Southeast
p4398
aV"!"
p4399
aa(lp4400
I36
aVcCEN_Northeast
p4401
aVcNDC_Southwest
p4402
aV"!"
p4403
aa(lp4404
I36
aVcCEN_South
p4405
aVcNDC_West
p4406
aV"!"
p4407
aa(lp4408
I36
aVcCEN_Northeast
p4409
aVcNDC_Northeast
p4410
aV"<"
p4411
aa(lp4412
I36
aVcCEN_Midwest
p4413
aVcNDC_USA
p4414
aV"<"
p4415
aa(lp4416
I36
aVcCEN_USA
p4417
aVcNDC_Midwest
p4418
aV">"
p4419
aa(lp4420
I36
aVcCEN_West
p4421
aVcNDC_West
p4422
aV">"
p4423
aa(lp4424
I36
aVcCEN_West
p4425
aVcNDC_Midwest
p4426
aV"><"
p4427
aa(lp4428
I36
aVcCEN_West
p4429
aVcNDC_Southwest
p4430
aV"><"
p4431
aa(lp4432
I36
aVcCEN_Midwest
p4433
aVcNDC_Northeast
p4434
aV"><"
p4435
aa(lp4436
I36
aVcCEN_Midwest
p4437
aVcNDC_Midwest
p4438
aV"><"
p4439
aa(lp4440
I36
aVcCEN_South
p4441
aVcNDC_Southwest
p4442
aV"><"
p4443
aa(lp4444
I36
aVcCEN_Northeast
p4445
aVcNDC_Midwest
p4446
aV"!"
p4447
aa(lp4448
I36
aVcCEN_Midwest
p4449
aVcNDC_West
p4450
aV"!"
p4451
aa(lp4452
I36
aVcCEN_Midwest
p4453
aVcNDC_Southeast
p4454
aV"!"
p4455
aa(lp4456
I36
aVcCEN_Midwest
p4457
aVcNDC_Southwest
p4458
aV"!"
p4459
aa(lp4460
I36
aVcCEN_South
p4461
aVcNDC_Northeast
p4462
aV"!"
p4463
aa(lp4464
I36
aVcCEN_South
p4465
aVcNDC_Midwest
p4466
aV"!"
p4467
aaasba(ihelper
PossibleWorld
p4468
(dp4469
g3
I37
sg4
I0
sg5
(lp4470
(lp4471
(lp4472
I37
aVcCEN_West
p4473
aVcNDC_USA
p4474
aV"<"
p4475
aa(lp4476
I37
aVcCEN_Northeast
p4477
aVcNDC_USA
p4478
aV"<"
p4479
aa(lp4480
I37
aVcCEN_South
p4481
aVcNDC_USA
p4482
aV"<"
p4483
aa(lp4484
I37
aVcCEN_USA
p4485
aVcNDC_USA
p4486
aV"="
p4487
aa(lp4488
I37
aVcCEN_USA
p4489
aVcNDC_Northeast
p4490
aV">"
p4491
aa(lp4492
I37
aVcCEN_USA
p4493
aVcNDC_West
p4494
aV">"
p4495
aa(lp4496
I37
aVcCEN_USA
p4497
aVcNDC_Southeast
p4498
aV">"
p4499
aa(lp4500
I37
aVcCEN_USA
p4501
aVcNDC_Southwest
p4502
aV">"
p4503
aa(lp4504
I37
aVcCEN_South
p4505
aVcNDC_Southeast
p4506
aV">"
p4507
aa(lp4508
I37
aVcCEN_West
p4509
aVcNDC_Northeast
p4510
aV"!"
p4511
aa(lp4512
I37
aVcCEN_West
p4513
aVcNDC_Southeast
p4514
aV"!"
p4515
aa(lp4516
I37
aVcCEN_Northeast
p4517
aVcNDC_West
p4518
aV"!"
p4519
aa(lp4520
I37
aVcCEN_Northeast
p4521
aVcNDC_Southeast
p4522
aV"!"
p4523
aa(lp4524
I37
aVcCEN_Northeast
p4525
aVcNDC_Southwest
p4526
aV"!"
p4527
aa(lp4528
I37
aVcCEN_South
p4529
aVcNDC_West
p4530
aV"!"
p4531
aa(lp4532
I37
aVcCEN_Northeast
p4533
aVcNDC_Northeast
p4534
aV"<"
p4535
aa(lp4536
I37
aVcCEN_Midwest
p4537
aVcNDC_USA
p4538
aV"<"
p4539
aa(lp4540
I37
aVcCEN_USA
p4541
aVcNDC_Midwest
p4542
aV">"
p4543
aa(lp4544
I37
aVcCEN_West
p4545
aVcNDC_West
p4546
aV">"
p4547
aa(lp4548
I37
aVcCEN_West
p4549
aVcNDC_Midwest
p4550
aV"><"
p4551
aa(lp4552
I37
aVcCEN_West
p4553
aVcNDC_Southwest
p4554
aV"><"
p4555
aa(lp4556
I37
aVcCEN_Midwest
p4557
aVcNDC_Northeast
p4558
aV"><"
p4559
aa(lp4560
I37
aVcCEN_Midwest
p4561
aVcNDC_Midwest
p4562
aV"><"
p4563
aa(lp4564
I37
aVcCEN_South
p4565
aVcNDC_Northeast
p4566
aV"><"
p4567
aa(lp4568
I37
aVcCEN_South
p4569
aVcNDC_Southwest
p4570
aV"><"
p4571
aa(lp4572
I37
aVcCEN_Northeast
p4573
aVcNDC_Midwest
p4574
aV"!"
p4575
aa(lp4576
I37
aVcCEN_Midwest
p4577
aVcNDC_West
p4578
aV"!"
p4579
aa(lp4580
I37
aVcCEN_Midwest
p4581
aVcNDC_Southeast
p4582
aV"!"
p4583
aa(lp4584
I37
aVcCEN_Midwest
p4585
aVcNDC_Southwest
p4586
aV"!"
p4587
aa(lp4588
I37
aVcCEN_South
p4589
aVcNDC_Midwest
p4590
aV"!"
p4591
aaasba(ihelper
PossibleWorld
p4592
(dp4593
g3
I38
sg4
I0
sg5
(lp4594
(lp4595
(lp4596
I38
aVcCEN_West
p4597
aVcNDC_USA
p4598
aV"<"
p4599
aa(lp4600
I38
aVcCEN_Northeast
p4601
aVcNDC_USA
p4602
aV"<"
p4603
aa(lp4604
I38
aVcCEN_South
p4605
aVcNDC_USA
p4606
aV"<"
p4607
aa(lp4608
I38
aVcCEN_USA
p4609
aVcNDC_USA
p4610
aV"="
p4611
aa(lp4612
I38
aVcCEN_USA
p4613
aVcNDC_Northeast
p4614
aV">"
p4615
aa(lp4616
I38
aVcCEN_USA
p4617
aVcNDC_West
p4618
aV">"
p4619
aa(lp4620
I38
aVcCEN_USA
p4621
aVcNDC_Southeast
p4622
aV">"
p4623
aa(lp4624
I38
aVcCEN_USA
p4625
aVcNDC_Southwest
p4626
aV">"
p4627
aa(lp4628
I38
aVcCEN_South
p4629
aVcNDC_Southeast
p4630
aV">"
p4631
aa(lp4632
I38
aVcCEN_West
p4633
aVcNDC_Northeast
p4634
aV"!"
p4635
aa(lp4636
I38
aVcCEN_West
p4637
aVcNDC_Southeast
p4638
aV"!"
p4639
aa(lp4640
I38
aVcCEN_Northeast
p4641
aVcNDC_West
p4642
aV"!"
p4643
aa(lp4644
I38
aVcCEN_Northeast
p4645
aVcNDC_Southeast
p4646
aV"!"
p4647
aa(lp4648
I38
aVcCEN_Northeast
p4649
aVcNDC_Southwest
p4650
aV"!"
p4651
aa(lp4652
I38
aVcCEN_South
p4653
aVcNDC_West
p4654
aV"!"
p4655
aa(lp4656
I38
aVcCEN_Northeast
p4657
aVcNDC_Northeast
p4658
aV"<"
p4659
aa(lp4660
I38
aVcCEN_Midwest
p4661
aVcNDC_USA
p4662
aV"<"
p4663
aa(lp4664
I38
aVcCEN_USA
p4665
aVcNDC_Midwest
p4666
aV">"
p4667
aa(lp4668
I38
aVcCEN_West
p4669
aVcNDC_West
p4670
aV">"
p4671
aa(lp4672
I38
aVcCEN_West
p4673
aVcNDC_Midwest
p4674
aV"><"
p4675
aa(lp4676
I38
aVcCEN_West
p4677
aVcNDC_Southwest
p4678
aV"><"
p4679
aa(lp4680
I38
aVcCEN_Midwest
p4681
aVcNDC_Northeast
p4682
aV"><"
p4683
aa(lp4684
I38
aVcCEN_Midwest
p4685
aVcNDC_Midwest
p4686
aV"><"
p4687
aa(lp4688
I38
aVcCEN_South
p4689
aVcNDC_Midwest
p4690
aV"><"
p4691
aa(lp4692
I38
aVcCEN_South
p4693
aVcNDC_Southwest
p4694
aV"><"
p4695
aa(lp4696
I38
aVcCEN_Northeast
p4697
aVcNDC_Midwest
p4698
aV"!"
p4699
aa(lp4700
I38
aVcCEN_Midwest
p4701
aVcNDC_West
p4702
aV"!"
p4703
aa(lp4704
I38
aVcCEN_Midwest
p4705
aVcNDC_Southeast
p4706
aV"!"
p4707
aa(lp4708
I38
aVcCEN_Midwest
p4709
aVcNDC_Southwest
p4710
aV"!"
p4711
aa(lp4712
I38
aVcCEN_South
p4713
aVcNDC_Northeast
p4714
aV"!"
p4715
aaasba(ihelper
PossibleWorld
p4716
(dp4717
g3
I39
sg4
I0
sg5
(lp4718
(lp4719
(lp4720
I39
aVcCEN_West
p4721
aVcNDC_USA
p4722
aV"<"
p4723
aa(lp4724
I39
aVcCEN_Northeast
p4725
aVcNDC_USA
p4726
aV"<"
p4727
aa(lp4728
I39
aVcCEN_South
p4729
aVcNDC_USA
p4730
aV"<"
p4731
aa(lp4732
I39
aVcCEN_USA
p4733
aVcNDC_USA
p4734
aV"="
p4735
aa(lp4736
I39
aVcCEN_USA
p4737
aVcNDC_Northeast
p4738
aV">"
p4739
aa(lp4740
I39
aVcCEN_USA
p4741
aVcNDC_West
p4742
aV">"
p4743
aa(lp4744
I39
aVcCEN_USA
p4745
aVcNDC_Southeast
p4746
aV">"
p4747
aa(lp4748
I39
aVcCEN_USA
p4749
aVcNDC_Southwest
p4750
aV">"
p4751
aa(lp4752
I39
aVcCEN_South
p4753
aVcNDC_Southeast
p4754
aV">"
p4755
aa(lp4756
I39
aVcCEN_West
p4757
aVcNDC_Northeast
p4758
aV"!"
p4759
aa(lp4760
I39
aVcCEN_West
p4761
aVcNDC_Southeast
p4762
aV"!"
p4763
aa(lp4764
I39
aVcCEN_Northeast
p4765
aVcNDC_West
p4766
aV"!"
p4767
aa(lp4768
I39
aVcCEN_Northeast
p4769
aVcNDC_Southeast
p4770
aV"!"
p4771
aa(lp4772
I39
aVcCEN_Northeast
p4773
aVcNDC_Southwest
p4774
aV"!"
p4775
aa(lp4776
I39
aVcCEN_South
p4777
aVcNDC_West
p4778
aV"!"
p4779
aa(lp4780
I39
aVcCEN_Northeast
p4781
aVcNDC_Northeast
p4782
aV"<"
p4783
aa(lp4784
I39
aVcCEN_Midwest
p4785
aVcNDC_USA
p4786
aV"<"
p4787
aa(lp4788
I39
aVcCEN_USA
p4789
aVcNDC_Midwest
p4790
aV">"
p4791
aa(lp4792
I39
aVcCEN_West
p4793
aVcNDC_West
p4794
aV">"
p4795
aa(lp4796
I39
aVcCEN_West
p4797
aVcNDC_Midwest
p4798
aV"><"
p4799
aa(lp4800
I39
aVcCEN_West
p4801
aVcNDC_Southwest
p4802
aV"><"
p4803
aa(lp4804
I39
aVcCEN_Midwest
p4805
aVcNDC_Northeast
p4806
aV"><"
p4807
aa(lp4808
I39
aVcCEN_Midwest
p4809
aVcNDC_Midwest
p4810
aV"><"
p4811
aa(lp4812
I39
aVcCEN_South
p4813
aVcNDC_Northeast
p4814
aV"><"
p4815
aa(lp4816
I39
aVcCEN_South
p4817
aVcNDC_Midwest
p4818
aV"><"
p4819
aa(lp4820
I39
aVcCEN_South
p4821
aVcNDC_Southwest
p4822
aV"><"
p4823
aa(lp4824
I39
aVcCEN_Northeast
p4825
aVcNDC_Midwest
p4826
aV"!"
p4827
aa(lp4828
I39
aVcCEN_Midwest
p4829
aVcNDC_West
p4830
aV"!"
p4831
aa(lp4832
I39
aVcCEN_Midwest
p4833
aVcNDC_Southeast
p4834
aV"!"
p4835
aa(lp4836
I39
aVcCEN_Midwest
p4837
aVcNDC_Southwest
p4838
aV"!"
p4839
aaasba(ihelper
PossibleWorld
p4840
(dp4841
g3
I40
sg4
I0
sg5
(lp4842
(lp4843
(lp4844
I40
aVcCEN_West
p4845
aVcNDC_USA
p4846
aV"<"
p4847
aa(lp4848
I40
aVcCEN_Northeast
p4849
aVcNDC_USA
p4850
aV"<"
p4851
aa(lp4852
I40
aVcCEN_South
p4853
aVcNDC_USA
p4854
aV"<"
p4855
aa(lp4856
I40
aVcCEN_USA
p4857
aVcNDC_USA
p4858
aV"="
p4859
aa(lp4860
I40
aVcCEN_USA
p4861
aVcNDC_Northeast
p4862
aV">"
p4863
aa(lp4864
I40
aVcCEN_USA
p4865
aVcNDC_West
p4866
aV">"
p4867
aa(lp4868
I40
aVcCEN_USA
p4869
aVcNDC_Southeast
p4870
aV">"
p4871
aa(lp4872
I40
aVcCEN_USA
p4873
aVcNDC_Southwest
p4874
aV">"
p4875
aa(lp4876
I40
aVcCEN_South
p4877
aVcNDC_Southeast
p4878
aV">"
p4879
aa(lp4880
I40
aVcCEN_West
p4881
aVcNDC_Northeast
p4882
aV"!"
p4883
aa(lp4884
I40
aVcCEN_West
p4885
aVcNDC_Southeast
p4886
aV"!"
p4887
aa(lp4888
I40
aVcCEN_Northeast
p4889
aVcNDC_West
p4890
aV"!"
p4891
aa(lp4892
I40
aVcCEN_Northeast
p4893
aVcNDC_Southeast
p4894
aV"!"
p4895
aa(lp4896
I40
aVcCEN_Northeast
p4897
aVcNDC_Southwest
p4898
aV"!"
p4899
aa(lp4900
I40
aVcCEN_South
p4901
aVcNDC_West
p4902
aV"!"
p4903
aa(lp4904
I40
aVcCEN_Northeast
p4905
aVcNDC_Northeast
p4906
aV"<"
p4907
aa(lp4908
I40
aVcCEN_Midwest
p4909
aVcNDC_USA
p4910
aV"<"
p4911
aa(lp4912
I40
aVcCEN_USA
p4913
aVcNDC_Midwest
p4914
aV">"
p4915
aa(lp4916
I40
aVcCEN_West
p4917
aVcNDC_West
p4918
aV">"
p4919
aa(lp4920
I40
aVcCEN_Midwest
p4921
aVcNDC_Midwest
p4922
aV">"
p4923
aa(lp4924
I40
aVcCEN_West
p4925
aVcNDC_Southwest
p4926
aV"><"
p4927
aa(lp4928
I40
aVcCEN_Midwest
p4929
aVcNDC_Northeast
p4930
aV"><"
p4931
aa(lp4932
I40
aVcCEN_Midwest
p4933
aVcNDC_Southwest
p4934
aV"><"
p4935
aa(lp4936
I40
aVcCEN_South
p4937
aVcNDC_Southwest
p4938
aV"><"
p4939
aa(lp4940
I40
aVcCEN_West
p4941
aVcNDC_Midwest
p4942
aV"!"
p4943
aa(lp4944
I40
aVcCEN_Northeast
p4945
aVcNDC_Midwest
p4946
aV"!"
p4947
aa(lp4948
I40
aVcCEN_Midwest
p4949
aVcNDC_West
p4950
aV"!"
p4951
aa(lp4952
I40
aVcCEN_Midwest
p4953
aVcNDC_Southeast
p4954
aV"!"
p4955
aa(lp4956
I40
aVcCEN_South
p4957
aVcNDC_Northeast
p4958
aV"!"
p4959
aa(lp4960
I40
aVcCEN_South
p4961
aVcNDC_Midwest
p4962
aV"!"
p4963
aaasba(ihelper
PossibleWorld
p4964
(dp4965
g3
I41
sg4
I0
sg5
(lp4966
(lp4967
(lp4968
I41
aVcCEN_West
p4969
aVcNDC_USA
p4970
aV"<"
p4971
aa(lp4972
I41
aVcCEN_Northeast
p4973
aVcNDC_USA
p4974
aV"<"
p4975
aa(lp4976
I41
aVcCEN_South
p4977
aVcNDC_USA
p4978
aV"<"
p4979
aa(lp4980
I41
aVcCEN_USA
p4981
aVcNDC_USA
p4982
aV"="
p4983
aa(lp4984
I41
aVcCEN_USA
p4985
aVcNDC_Northeast
p4986
aV">"
p4987
aa(lp4988
I41
aVcCEN_USA
p4989
aVcNDC_West
p4990
aV">"
p4991
aa(lp4992
I41
aVcCEN_USA
p4993
aVcNDC_Southeast
p4994
aV">"
p4995
aa(lp4996
I41
aVcCEN_USA
p4997
aVcNDC_Southwest
p4998
aV">"
p4999
aa(lp5000
I41
aVcCEN_South
p5001
aVcNDC_Southeast
p5002
aV">"
p5003
aa(lp5004
I41
aVcCEN_West
p5005
aVcNDC_Northeast
p5006
aV"!"
p5007
aa(lp5008
I41
aVcCEN_West
p5009
aVcNDC_Southeast
p5010
aV"!"
p5011
aa(lp5012
I41
aVcCEN_Northeast
p5013
aVcNDC_West
p5014
aV"!"
p5015
aa(lp5016
I41
aVcCEN_Northeast
p5017
aVcNDC_Southeast
p5018
aV"!"
p5019
aa(lp5020
I41
aVcCEN_Northeast
p5021
aVcNDC_Southwest
p5022
aV"!"
p5023
aa(lp5024
I41
aVcCEN_South
p5025
aVcNDC_West
p5026
aV"!"
p5027
aa(lp5028
I41
aVcCEN_Northeast
p5029
aVcNDC_Northeast
p5030
aV"<"
p5031
aa(lp5032
I41
aVcCEN_Midwest
p5033
aVcNDC_USA
p5034
aV"<"
p5035
aa(lp5036
I41
aVcCEN_USA
p5037
aVcNDC_Midwest
p5038
aV">"
p5039
aa(lp5040
I41
aVcCEN_West
p5041
aVcNDC_West
p5042
aV">"
p5043
aa(lp5044
I41
aVcCEN_Midwest
p5045
aVcNDC_Midwest
p5046
aV">"
p5047
aa(lp5048
I41
aVcCEN_West
p5049
aVcNDC_Southwest
p5050
aV"><"
p5051
aa(lp5052
I41
aVcCEN_Midwest
p5053
aVcNDC_Northeast
p5054
aV"><"
p5055
aa(lp5056
I41
aVcCEN_Midwest
p5057
aVcNDC_Southwest
p5058
aV"><"
p5059
aa(lp5060
I41
aVcCEN_South
p5061
aVcNDC_Northeast
p5062
aV"><"
p5063
aa(lp5064
I41
aVcCEN_South
p5065
aVcNDC_Southwest
p5066
aV"><"
p5067
aa(lp5068
I41
aVcCEN_West
p5069
aVcNDC_Midwest
p5070
aV"!"
p5071
aa(lp5072
I41
aVcCEN_Northeast
p5073
aVcNDC_Midwest
p5074
aV"!"
p5075
aa(lp5076
I41
aVcCEN_Midwest
p5077
aVcNDC_West
p5078
aV"!"
p5079
aa(lp5080
I41
aVcCEN_Midwest
p5081
aVcNDC_Southeast
p5082
aV"!"
p5083
aa(lp5084
I41
aVcCEN_South
p5085
aVcNDC_Midwest
p5086
aV"!"
p5087
aaasba(ihelper
PossibleWorld
p5088
(dp5089
g3
I42
sg4
I0
sg5
(lp5090
(lp5091
(lp5092
I42
aVcCEN_West
p5093
aVcNDC_USA
p5094
aV"<"
p5095
aa(lp5096
I42
aVcCEN_Northeast
p5097
aVcNDC_USA
p5098
aV"<"
p5099
aa(lp5100
I42
aVcCEN_South
p5101
aVcNDC_USA
p5102
aV"<"
p5103
aa(lp5104
I42
aVcCEN_USA
p5105
aVcNDC_USA
p5106
aV"="
p5107
aa(lp5108
I42
aVcCEN_USA
p5109
aVcNDC_Northeast
p5110
aV">"
p5111
aa(lp5112
I42
aVcCEN_USA
p5113
aVcNDC_West
p5114
aV">"
p5115
aa(lp5116
I42
aVcCEN_USA
p5117
aVcNDC_Southeast
p5118
aV">"
p5119
aa(lp5120
I42
aVcCEN_USA
p5121
aVcNDC_Southwest
p5122
aV">"
p5123
aa(lp5124
I42
aVcCEN_South
p5125
aVcNDC_Southeast
p5126
aV">"
p5127
aa(lp5128
I42
aVcCEN_West
p5129
aVcNDC_Northeast
p5130
aV"!"
p5131
aa(lp5132
I42
aVcCEN_West
p5133
aVcNDC_Southeast
p5134
aV"!"
p5135
aa(lp5136
I42
aVcCEN_Northeast
p5137
aVcNDC_West
p5138
aV"!"
p5139
aa(lp5140
I42
aVcCEN_Northeast
p5141
aVcNDC_Southeast
p5142
aV"!"
p5143
aa(lp5144
I42
aVcCEN_Northeast
p5145
aVcNDC_Southwest
p5146
aV"!"
p5147
aa(lp5148
I42
aVcCEN_South
p5149
aVcNDC_West
p5150
aV"!"
p5151
aa(lp5152
I42
aVcCEN_Northeast
p5153
aVcNDC_Northeast
p5154
aV"<"
p5155
aa(lp5156
I42
aVcCEN_Midwest
p5157
aVcNDC_USA
p5158
aV"<"
p5159
aa(lp5160
I42
aVcCEN_USA
p5161
aVcNDC_Midwest
p5162
aV">"
p5163
aa(lp5164
I42
aVcCEN_West
p5165
aVcNDC_West
p5166
aV">"
p5167
aa(lp5168
I42
aVcCEN_West
p5169
aVcNDC_Southwest
p5170
aV"><"
p5171
aa(lp5172
I42
aVcCEN_Midwest
p5173
aVcNDC_Northeast
p5174
aV"><"
p5175
aa(lp5176
I42
aVcCEN_Midwest
p5177
aVcNDC_Midwest
p5178
aV"><"
p5179
aa(lp5180
I42
aVcCEN_Midwest
p5181
aVcNDC_Southwest
p5182
aV"><"
p5183
aa(lp5184
I42
aVcCEN_South
p5185
aVcNDC_Midwest
p5186
aV"><"
p5187
aa(lp5188
I42
aVcCEN_South
p5189
aVcNDC_Southwest
p5190
aV"><"
p5191
aa(lp5192
I42
aVcCEN_West
p5193
aVcNDC_Midwest
p5194
aV"!"
p5195
aa(lp5196
I42
aVcCEN_Northeast
p5197
aVcNDC_Midwest
p5198
aV"!"
p5199
aa(lp5200
I42
aVcCEN_Midwest
p5201
aVcNDC_West
p5202
aV"!"
p5203
aa(lp5204
I42
aVcCEN_Midwest
p5205
aVcNDC_Southeast
p5206
aV"!"
p5207
aa(lp5208
I42
aVcCEN_South
p5209
aVcNDC_Northeast
p5210
aV"!"
p5211
aaasba(ihelper
PossibleWorld
p5212
(dp5213
g3
I43
sg4
I0
sg5
(lp5214
(lp5215
(lp5216
I43
aVcCEN_West
p5217
aVcNDC_USA
p5218
aV"<"
p5219
aa(lp5220
I43
aVcCEN_Northeast
p5221
aVcNDC_USA
p5222
aV"<"
p5223
aa(lp5224
I43
aVcCEN_South
p5225
aVcNDC_USA
p5226
aV"<"
p5227
aa(lp5228
I43
aVcCEN_USA
p5229
aVcNDC_USA
p5230
aV"="
p5231
aa(lp5232
I43
aVcCEN_USA
p5233
aVcNDC_Northeast
p5234
aV">"
p5235
aa(lp5236
I43
aVcCEN_USA
p5237
aVcNDC_West
p5238
aV">"
p5239
aa(lp5240
I43
aVcCEN_USA
p5241
aVcNDC_Southeast
p5242
aV">"
p5243
aa(lp5244
I43
aVcCEN_USA
p5245
aVcNDC_Southwest
p5246
aV">"
p5247
aa(lp5248
I43
aVcCEN_South
p5249
aVcNDC_Southeast
p5250
aV">"
p5251
aa(lp5252
I43
aVcCEN_West
p5253
aVcNDC_Northeast
p5254
aV"!"
p5255
aa(lp5256
I43
aVcCEN_West
p5257
aVcNDC_Southeast
p5258
aV"!"
p5259
aa(lp5260
I43
aVcCEN_Northeast
p5261
aVcNDC_West
p5262
aV"!"
p5263
aa(lp5264
I43
aVcCEN_Northeast
p5265
aVcNDC_Southeast
p5266
aV"!"
p5267
aa(lp5268
I43
aVcCEN_Northeast
p5269
aVcNDC_Southwest
p5270
aV"!"
p5271
aa(lp5272
I43
aVcCEN_South
p5273
aVcNDC_West
p5274
aV"!"
p5275
aa(lp5276
I43
aVcCEN_Northeast
p5277
aVcNDC_Northeast
p5278
aV"<"
p5279
aa(lp5280
I43
aVcCEN_Midwest
p5281
aVcNDC_USA
p5282
aV"<"
p5283
aa(lp5284
I43
aVcCEN_USA
p5285
aVcNDC_Midwest
p5286
aV">"
p5287
aa(lp5288
I43
aVcCEN_West
p5289
aVcNDC_West
p5290
aV">"
p5291
aa(lp5292
I43
aVcCEN_West
p5293
aVcNDC_Southwest
p5294
aV"><"
p5295
aa(lp5296
I43
aVcCEN_Midwest
p5297
aVcNDC_Northeast
p5298
aV"><"
p5299
aa(lp5300
I43
aVcCEN_Midwest
p5301
aVcNDC_Midwest
p5302
aV"><"
p5303
aa(lp5304
I43
aVcCEN_Midwest
p5305
aVcNDC_Southwest
p5306
aV"><"
p5307
aa(lp5308
I43
aVcCEN_South
p5309
aVcNDC_Northeast
p5310
aV"><"
p5311
aa(lp5312
I43
aVcCEN_South
p5313
aVcNDC_Midwest
p5314
aV"><"
p5315
aa(lp5316
I43
aVcCEN_South
p5317
aVcNDC_Southwest
p5318
aV"><"
p5319
aa(lp5320
I43
aVcCEN_West
p5321
aVcNDC_Midwest
p5322
aV"!"
p5323
aa(lp5324
I43
aVcCEN_Northeast
p5325
aVcNDC_Midwest
p5326
aV"!"
p5327
aa(lp5328
I43
aVcCEN_Midwest
p5329
aVcNDC_West
p5330
aV"!"
p5331
aa(lp5332
I43
aVcCEN_Midwest
p5333
aVcNDC_Southeast
p5334
aV"!"
p5335
aaasba(ihelper
PossibleWorld
p5336
(dp5337
g3
I44
sg4
I0
sg5
(lp5338
(lp5339
(lp5340
I44
aVcCEN_West
p5341
aVcNDC_USA
p5342
aV"<"
p5343
aa(lp5344
I44
aVcCEN_Northeast
p5345
aVcNDC_USA
p5346
aV"<"
p5347
aa(lp5348
I44
aVcCEN_South
p5349
aVcNDC_USA
p5350
aV"<"
p5351
aa(lp5352
I44
aVcCEN_USA
p5353
aVcNDC_USA
p5354
aV"="
p5355
aa(lp5356
I44
aVcCEN_USA
p5357
aVcNDC_Northeast
p5358
aV">"
p5359
aa(lp5360
I44
aVcCEN_USA
p5361
aVcNDC_West
p5362
aV">"
p5363
aa(lp5364
I44
aVcCEN_USA
p5365
aVcNDC_Southeast
p5366
aV">"
p5367
aa(lp5368
I44
aVcCEN_USA
p5369
aVcNDC_Southwest
p5370
aV">"
p5371
aa(lp5372
I44
aVcCEN_South
p5373
aVcNDC_Southeast
p5374
aV">"
p5375
aa(lp5376
I44
aVcCEN_West
p5377
aVcNDC_Northeast
p5378
aV"!"
p5379
aa(lp5380
I44
aVcCEN_West
p5381
aVcNDC_Southeast
p5382
aV"!"
p5383
aa(lp5384
I44
aVcCEN_Northeast
p5385
aVcNDC_West
p5386
aV"!"
p5387
aa(lp5388
I44
aVcCEN_Northeast
p5389
aVcNDC_Southeast
p5390
aV"!"
p5391
aa(lp5392
I44
aVcCEN_Northeast
p5393
aVcNDC_Southwest
p5394
aV"!"
p5395
aa(lp5396
I44
aVcCEN_South
p5397
aVcNDC_West
p5398
aV"!"
p5399
aa(lp5400
I44
aVcCEN_Northeast
p5401
aVcNDC_Northeast
p5402
aV"<"
p5403
aa(lp5404
I44
aVcCEN_Midwest
p5405
aVcNDC_USA
p5406
aV"<"
p5407
aa(lp5408
I44
aVcCEN_USA
p5409
aVcNDC_Midwest
p5410
aV">"
p5411
aa(lp5412
I44
aVcCEN_West
p5413
aVcNDC_West
p5414
aV">"
p5415
aa(lp5416
I44
aVcCEN_West
p5417
aVcNDC_Midwest
p5418
aV"><"
p5419
aa(lp5420
I44
aVcCEN_Midwest
p5421
aVcNDC_Northeast
p5422
aV"><"
p5423
aa(lp5424
I44
aVcCEN_Midwest
p5425
aVcNDC_Midwest
p5426
aV"><"
p5427
aa(lp5428
I44
aVcCEN_Midwest
p5429
aVcNDC_Southwest
p5430
aV"><"
p5431
aa(lp5432
I44
aVcCEN_South
p5433
aVcNDC_Southwest
p5434
aV"><"
p5435
aa(lp5436
I44
aVcCEN_West
p5437
aVcNDC_Southwest
p5438
aV"!"
p5439
aa(lp5440
I44
aVcCEN_Northeast
p5441
aVcNDC_Midwest
p5442
aV"!"
p5443
aa(lp5444
I44
aVcCEN_Midwest
p5445
aVcNDC_West
p5446
aV"!"
p5447
aa(lp5448
I44
aVcCEN_Midwest
p5449
aVcNDC_Southeast
p5450
aV"!"
p5451
aa(lp5452
I44
aVcCEN_South
p5453
aVcNDC_Northeast
p5454
aV"!"
p5455
aa(lp5456
I44
aVcCEN_South
p5457
aVcNDC_Midwest
p5458
aV"!"
p5459
aaasba(ihelper
PossibleWorld
p5460
(dp5461
g3
I45
sg4
I0
sg5
(lp5462
(lp5463
(lp5464
I45
aVcCEN_West
p5465
aVcNDC_USA
p5466
aV"<"
p5467
aa(lp5468
I45
aVcCEN_Northeast
p5469
aVcNDC_USA
p5470
aV"<"
p5471
aa(lp5472
I45
aVcCEN_South
p5473
aVcNDC_USA
p5474
aV"<"
p5475
aa(lp5476
I45
aVcCEN_USA
p5477
aVcNDC_USA
p5478
aV"="
p5479
aa(lp5480
I45
aVcCEN_USA
p5481
aVcNDC_Northeast
p5482
aV">"
p5483
aa(lp5484
I45
aVcCEN_USA
p5485
aVcNDC_West
p5486
aV">"
p5487
aa(lp5488
I45
aVcCEN_USA
p5489
aVcNDC_Southeast
p5490
aV">"
p5491
aa(lp5492
I45
aVcCEN_USA
p5493
aVcNDC_Southwest
p5494
aV">"
p5495
aa(lp5496
I45
aVcCEN_South
p5497
aVcNDC_Southeast
p5498
aV">"
p5499
aa(lp5500
I45
aVcCEN_West
p5501
aVcNDC_Northeast
p5502
aV"!"
p5503
aa(lp5504
I45
aVcCEN_West
p5505
aVcNDC_Southeast
p5506
aV"!"
p5507
aa(lp5508
I45
aVcCEN_Northeast
p5509
aVcNDC_West
p5510
aV"!"
p5511
aa(lp5512
I45
aVcCEN_Northeast
p5513
aVcNDC_Southeast
p5514
aV"!"
p5515
aa(lp5516
I45
aVcCEN_Northeast
p5517
aVcNDC_Southwest
p5518
aV"!"
p5519
aa(lp5520
I45
aVcCEN_South
p5521
aVcNDC_West
p5522
aV"!"
p5523
aa(lp5524
I45
aVcCEN_Northeast
p5525
aVcNDC_Northeast
p5526
aV"<"
p5527
aa(lp5528
I45
aVcCEN_Midwest
p5529
aVcNDC_USA
p5530
aV"<"
p5531
aa(lp5532
I45
aVcCEN_USA
p5533
aVcNDC_Midwest
p5534
aV">"
p5535
aa(lp5536
I45
aVcCEN_West
p5537
aVcNDC_West
p5538
aV">"
p5539
aa(lp5540
I45
aVcCEN_West
p5541
aVcNDC_Midwest
p5542
aV"><"
p5543
aa(lp5544
I45
aVcCEN_Midwest
p5545
aVcNDC_Northeast
p5546
aV"><"
p5547
aa(lp5548
I45
aVcCEN_Midwest
p5549
aVcNDC_Midwest
p5550
aV"><"
p5551
aa(lp5552
I45
aVcCEN_Midwest
p5553
aVcNDC_Southwest
p5554
aV"><"
p5555
aa(lp5556
I45
aVcCEN_South
p5557
aVcNDC_Northeast
p5558
aV"><"
p5559
aa(lp5560
I45
aVcCEN_South
p5561
aVcNDC_Southwest
p5562
aV"><"
p5563
aa(lp5564
I45
aVcCEN_West
p5565
aVcNDC_Southwest
p5566
aV"!"
p5567
aa(lp5568
I45
aVcCEN_Northeast
p5569
aVcNDC_Midwest
p5570
aV"!"
p5571
aa(lp5572
I45
aVcCEN_Midwest
p5573
aVcNDC_West
p5574
aV"!"
p5575
aa(lp5576
I45
aVcCEN_Midwest
p5577
aVcNDC_Southeast
p5578
aV"!"
p5579
aa(lp5580
I45
aVcCEN_South
p5581
aVcNDC_Midwest
p5582
aV"!"
p5583
aaasba(ihelper
PossibleWorld
p5584
(dp5585
g3
I46
sg4
I0
sg5
(lp5586
(lp5587
(lp5588
I46
aVcCEN_West
p5589
aVcNDC_USA
p5590
aV"<"
p5591
aa(lp5592
I46
aVcCEN_Northeast
p5593
aVcNDC_USA
p5594
aV"<"
p5595
aa(lp5596
I46
aVcCEN_South
p5597
aVcNDC_USA
p5598
aV"<"
p5599
aa(lp5600
I46
aVcCEN_USA
p5601
aVcNDC_USA
p5602
aV"="
p5603
aa(lp5604
I46
aVcCEN_USA
p5605
aVcNDC_Northeast
p5606
aV">"
p5607
aa(lp5608
I46
aVcCEN_USA
p5609
aVcNDC_West
p5610
aV">"
p5611
aa(lp5612
I46
aVcCEN_USA
p5613
aVcNDC_Southeast
p5614
aV">"
p5615
aa(lp5616
I46
aVcCEN_USA
p5617
aVcNDC_Southwest
p5618
aV">"
p5619
aa(lp5620
I46
aVcCEN_South
p5621
aVcNDC_Southeast
p5622
aV">"
p5623
aa(lp5624
I46
aVcCEN_West
p5625
aVcNDC_Northeast
p5626
aV"!"
p5627
aa(lp5628
I46
aVcCEN_West
p5629
aVcNDC_Southeast
p5630
aV"!"
p5631
aa(lp5632
I46
aVcCEN_Northeast
p5633
aVcNDC_West
p5634
aV"!"
p5635
aa(lp5636
I46
aVcCEN_Northeast
p5637
aVcNDC_Southeast
p5638
aV"!"
p5639
aa(lp5640
I46
aVcCEN_Northeast
p5641
aVcNDC_Southwest
p5642
aV"!"
p5643
aa(lp5644
I46
aVcCEN_South
p5645
aVcNDC_West
p5646
aV"!"
p5647
aa(lp5648
I46
aVcCEN_Northeast
p5649
aVcNDC_Northeast
p5650
aV"<"
p5651
aa(lp5652
I46
aVcCEN_Midwest
p5653
aVcNDC_USA
p5654
aV"<"
p5655
aa(lp5656
I46
aVcCEN_USA
p5657
aVcNDC_Midwest
p5658
aV">"
p5659
aa(lp5660
I46
aVcCEN_West
p5661
aVcNDC_West
p5662
aV">"
p5663
aa(lp5664
I46
aVcCEN_West
p5665
aVcNDC_Midwest
p5666
aV"><"
p5667
aa(lp5668
I46
aVcCEN_West
p5669
aVcNDC_Southwest
p5670
aV"><"
p5671
aa(lp5672
I46
aVcCEN_Midwest
p5673
aVcNDC_Northeast
p5674
aV"><"
p5675
aa(lp5676
I46
aVcCEN_Midwest
p5677
aVcNDC_Midwest
p5678
aV"><"
p5679
aa(lp5680
I46
aVcCEN_Midwest
p5681
aVcNDC_Southwest
p5682
aV"><"
p5683
aa(lp5684
I46
aVcCEN_South
p5685
aVcNDC_Southwest
p5686
aV"><"
p5687
aa(lp5688
I46
aVcCEN_Northeast
p5689
aVcNDC_Midwest
p5690
aV"!"
p5691
aa(lp5692
I46
aVcCEN_Midwest
p5693
aVcNDC_West
p5694
aV"!"
p5695
aa(lp5696
I46
aVcCEN_Midwest
p5697
aVcNDC_Southeast
p5698
aV"!"
p5699
aa(lp5700
I46
aVcCEN_South
p5701
aVcNDC_Northeast
p5702
aV"!"
p5703
aa(lp5704
I46
aVcCEN_South
p5705
aVcNDC_Midwest
p5706
aV"!"
p5707
aaasba(ihelper
PossibleWorld
p5708
(dp5709
g3
I47
sg4
I0
sg5
(lp5710
(lp5711
(lp5712
I47
aVcCEN_West
p5713
aVcNDC_USA
p5714
aV"<"
p5715
aa(lp5716
I47
aVcCEN_Northeast
p5717
aVcNDC_USA
p5718
aV"<"
p5719
aa(lp5720
I47
aVcCEN_South
p5721
aVcNDC_USA
p5722
aV"<"
p5723
aa(lp5724
I47
aVcCEN_USA
p5725
aVcNDC_USA
p5726
aV"="
p5727
aa(lp5728
I47
aVcCEN_USA
p5729
aVcNDC_Northeast
p5730
aV">"
p5731
aa(lp5732
I47
aVcCEN_USA
p5733
aVcNDC_West
p5734
aV">"
p5735
aa(lp5736
I47
aVcCEN_USA
p5737
aVcNDC_Southeast
p5738
aV">"
p5739
aa(lp5740
I47
aVcCEN_USA
p5741
aVcNDC_Southwest
p5742
aV">"
p5743
aa(lp5744
I47
aVcCEN_South
p5745
aVcNDC_Southeast
p5746
aV">"
p5747
aa(lp5748
I47
aVcCEN_West
p5749
aVcNDC_Northeast
p5750
aV"!"
p5751
aa(lp5752
I47
aVcCEN_West
p5753
aVcNDC_Southeast
p5754
aV"!"
p5755
aa(lp5756
I47
aVcCEN_Northeast
p5757
aVcNDC_West
p5758
aV"!"
p5759
aa(lp5760
I47
aVcCEN_Northeast
p5761
aVcNDC_Southeast
p5762
aV"!"
p5763
aa(lp5764
I47
aVcCEN_Northeast
p5765
aVcNDC_Southwest
p5766
aV"!"
p5767
aa(lp5768
I47
aVcCEN_South
p5769
aVcNDC_West
p5770
aV"!"
p5771
aa(lp5772
I47
aVcCEN_Northeast
p5773
aVcNDC_Northeast
p5774
aV"<"
p5775
aa(lp5776
I47
aVcCEN_Midwest
p5777
aVcNDC_USA
p5778
aV"<"
p5779
aa(lp5780
I47
aVcCEN_USA
p5781
aVcNDC_Midwest
p5782
aV">"
p5783
aa(lp5784
I47
aVcCEN_West
p5785
aVcNDC_West
p5786
aV">"
p5787
aa(lp5788
I47
aVcCEN_West
p5789
aVcNDC_Midwest
p5790
aV"><"
p5791
aa(lp5792
I47
aVcCEN_West
p5793
aVcNDC_Southwest
p5794
aV"><"
p5795
aa(lp5796
I47
aVcCEN_Midwest
p5797
aVcNDC_Northeast
p5798
aV"><"
p5799
aa(lp5800
I47
aVcCEN_Midwest
p5801
aVcNDC_Midwest
p5802
aV"><"
p5803
aa(lp5804
I47
aVcCEN_Midwest
p5805
aVcNDC_Southwest
p5806
aV"><"
p5807
aa(lp5808
I47
aVcCEN_South
p5809
aVcNDC_Northeast
p5810
aV"><"
p5811
aa(lp5812
I47
aVcCEN_South
p5813
aVcNDC_Southwest
p5814
aV"><"
p5815
aa(lp5816
I47
aVcCEN_Northeast
p5817
aVcNDC_Midwest
p5818
aV"!"
p5819
aa(lp5820
I47
aVcCEN_Midwest
p5821
aVcNDC_West
p5822
aV"!"
p5823
aa(lp5824
I47
aVcCEN_Midwest
p5825
aVcNDC_Southeast
p5826
aV"!"
p5827
aa(lp5828
I47
aVcCEN_South
p5829
aVcNDC_Midwest
p5830
aV"!"
p5831
aaasba(ihelper
PossibleWorld
p5832
(dp5833
g3
I48
sg4
I0
sg5
(lp5834
(lp5835
(lp5836
I48
aVcCEN_West
p5837
aVcNDC_USA
p5838
aV"<"
p5839
aa(lp5840
I48
aVcCEN_Northeast
p5841
aVcNDC_USA
p5842
aV"<"
p5843
aa(lp5844
I48
aVcCEN_South
p5845
aVcNDC_USA
p5846
aV"<"
p5847
aa(lp5848
I48
aVcCEN_USA
p5849
aVcNDC_USA
p5850
aV"="
p5851
aa(lp5852
I48
aVcCEN_USA
p5853
aVcNDC_Northeast
p5854
aV">"
p5855
aa(lp5856
I48
aVcCEN_USA
p5857
aVcNDC_West
p5858
aV">"
p5859
aa(lp5860
I48
aVcCEN_USA
p5861
aVcNDC_Southeast
p5862
aV">"
p5863
aa(lp5864
I48
aVcCEN_USA
p5865
aVcNDC_Southwest
p5866
aV">"
p5867
aa(lp5868
I48
aVcCEN_South
p5869
aVcNDC_Southeast
p5870
aV">"
p5871
aa(lp5872
I48
aVcCEN_West
p5873
aVcNDC_Northeast
p5874
aV"!"
p5875
aa(lp5876
I48
aVcCEN_West
p5877
aVcNDC_Southeast
p5878
aV"!"
p5879
aa(lp5880
I48
aVcCEN_Northeast
p5881
aVcNDC_West
p5882
aV"!"
p5883
aa(lp5884
I48
aVcCEN_Northeast
p5885
aVcNDC_Southeast
p5886
aV"!"
p5887
aa(lp5888
I48
aVcCEN_Northeast
p5889
aVcNDC_Southwest
p5890
aV"!"
p5891
aa(lp5892
I48
aVcCEN_South
p5893
aVcNDC_West
p5894
aV"!"
p5895
aa(lp5896
I48
aVcCEN_Northeast
p5897
aVcNDC_Northeast
p5898
aV"<"
p5899
aa(lp5900
I48
aVcCEN_Midwest
p5901
aVcNDC_USA
p5902
aV"<"
p5903
aa(lp5904
I48
aVcCEN_USA
p5905
aVcNDC_Midwest
p5906
aV">"
p5907
aa(lp5908
I48
aVcCEN_West
p5909
aVcNDC_West
p5910
aV">"
p5911
aa(lp5912
I48
aVcCEN_West
p5913
aVcNDC_Midwest
p5914
aV"><"
p5915
aa(lp5916
I48
aVcCEN_Midwest
p5917
aVcNDC_Northeast
p5918
aV"><"
p5919
aa(lp5920
I48
aVcCEN_Midwest
p5921
aVcNDC_Midwest
p5922
aV"><"
p5923
aa(lp5924
I48
aVcCEN_Midwest
p5925
aVcNDC_Southwest
p5926
aV"><"
p5927
aa(lp5928
I48
aVcCEN_South
p5929
aVcNDC_Midwest
p5930
aV"><"
p5931
aa(lp5932
I48
aVcCEN_South
p5933
aVcNDC_Southwest
p5934
aV"><"
p5935
aa(lp5936
I48
aVcCEN_West
p5937
aVcNDC_Southwest
p5938
aV"!"
p5939
aa(lp5940
I48
aVcCEN_Northeast
p5941
aVcNDC_Midwest
p5942
aV"!"
p5943
aa(lp5944
I48
aVcCEN_Midwest
p5945
aVcNDC_West
p5946
aV"!"
p5947
aa(lp5948
I48
aVcCEN_Midwest
p5949
aVcNDC_Southeast
p5950
aV"!"
p5951
aa(lp5952
I48
aVcCEN_South
p5953
aVcNDC_Northeast
p5954
aV"!"
p5955
aaasba(ihelper
PossibleWorld
p5956
(dp5957
g3
I49
sg4
I0
sg5
(lp5958
(lp5959
(lp5960
I49
aVcCEN_West
p5961
aVcNDC_USA
p5962
aV"<"
p5963
aa(lp5964
I49
aVcCEN_Northeast
p5965
aVcNDC_USA
p5966
aV"<"
p5967
aa(lp5968
I49
aVcCEN_South
p5969
aVcNDC_USA
p5970
aV"<"
p5971
aa(lp5972
I49
aVcCEN_USA
p5973
aVcNDC_USA
p5974
aV"="
p5975
aa(lp5976
I49
aVcCEN_USA
p5977
aVcNDC_Northeast
p5978
aV">"
p5979
aa(lp5980
I49
aVcCEN_USA
p5981
aVcNDC_West
p5982
aV">"
p5983
aa(lp5984
I49
aVcCEN_USA
p5985
aVcNDC_Southeast
p5986
aV">"
p5987
aa(lp5988
I49
aVcCEN_USA
p5989
aVcNDC_Southwest
p5990
aV">"
p5991
aa(lp5992
I49
aVcCEN_South
p5993
aVcNDC_Southeast
p5994
aV">"
p5995
aa(lp5996
I49
aVcCEN_West
p5997
aVcNDC_Northeast
p5998
aV"!"
p5999
aa(lp6000
I49
aVcCEN_West
p6001
aVcNDC_Southeast
p6002
aV"!"
p6003
aa(lp6004
I49
aVcCEN_Northeast
p6005
aVcNDC_West
p6006
aV"!"
p6007
aa(lp6008
I49
aVcCEN_Northeast
p6009
aVcNDC_Southeast
p6010
aV"!"
p6011
aa(lp6012
I49
aVcCEN_Northeast
p6013
aVcNDC_Southwest
p6014
aV"!"
p6015
aa(lp6016
I49
aVcCEN_South
p6017
aVcNDC_West
p6018
aV"!"
p6019
aa(lp6020
I49
aVcCEN_Northeast
p6021
aVcNDC_Northeast
p6022
aV"<"
p6023
aa(lp6024
I49
aVcCEN_Midwest
p6025
aVcNDC_USA
p6026
aV"<"
p6027
aa(lp6028
I49
aVcCEN_USA
p6029
aVcNDC_Midwest
p6030
aV">"
p6031
aa(lp6032
I49
aVcCEN_West
p6033
aVcNDC_West
p6034
aV">"
p6035
aa(lp6036
I49
aVcCEN_West
p6037
aVcNDC_Midwest
p6038
aV"><"
p6039
aa(lp6040
I49
aVcCEN_Midwest
p6041
aVcNDC_Northeast
p6042
aV"><"
p6043
aa(lp6044
I49
aVcCEN_Midwest
p6045
aVcNDC_Midwest
p6046
aV"><"
p6047
aa(lp6048
I49
aVcCEN_Midwest
p6049
aVcNDC_Southwest
p6050
aV"><"
p6051
aa(lp6052
I49
aVcCEN_South
p6053
aVcNDC_Northeast
p6054
aV"><"
p6055
aa(lp6056
I49
aVcCEN_South
p6057
aVcNDC_Midwest
p6058
aV"><"
p6059
aa(lp6060
I49
aVcCEN_South
p6061
aVcNDC_Southwest
p6062
aV"><"
p6063
aa(lp6064
I49
aVcCEN_West
p6065
aVcNDC_Southwest
p6066
aV"!"
p6067
aa(lp6068
I49
aVcCEN_Northeast
p6069
aVcNDC_Midwest
p6070
aV"!"
p6071
aa(lp6072
I49
aVcCEN_Midwest
p6073
aVcNDC_West
p6074
aV"!"
p6075
aa(lp6076
I49
aVcCEN_Midwest
p6077
aVcNDC_Southeast
p6078
aV"!"
p6079
aaasba(ihelper
PossibleWorld
p6080
(dp6081
g3
I50
sg4
I0
sg5
(lp6082
(lp6083
(lp6084
I50
aVcCEN_West
p6085
aVcNDC_USA
p6086
aV"<"
p6087
aa(lp6088
I50
aVcCEN_Northeast
p6089
aVcNDC_USA
p6090
aV"<"
p6091
aa(lp6092
I50
aVcCEN_South
p6093
aVcNDC_USA
p6094
aV"<"
p6095
aa(lp6096
I50
aVcCEN_USA
p6097
aVcNDC_USA
p6098
aV"="
p6099
aa(lp6100
I50
aVcCEN_USA
p6101
aVcNDC_Northeast
p6102
aV">"
p6103
aa(lp6104
I50
aVcCEN_USA
p6105
aVcNDC_West
p6106
aV">"
p6107
aa(lp6108
I50
aVcCEN_USA
p6109
aVcNDC_Southeast
p6110
aV">"
p6111
aa(lp6112
I50
aVcCEN_USA
p6113
aVcNDC_Southwest
p6114
aV">"
p6115
aa(lp6116
I50
aVcCEN_South
p6117
aVcNDC_Southeast
p6118
aV">"
p6119
aa(lp6120
I50
aVcCEN_West
p6121
aVcNDC_Northeast
p6122
aV"!"
p6123
aa(lp6124
I50
aVcCEN_West
p6125
aVcNDC_Southeast
p6126
aV"!"
p6127
aa(lp6128
I50
aVcCEN_Northeast
p6129
aVcNDC_West
p6130
aV"!"
p6131
aa(lp6132
I50
aVcCEN_Northeast
p6133
aVcNDC_Southeast
p6134
aV"!"
p6135
aa(lp6136
I50
aVcCEN_Northeast
p6137
aVcNDC_Southwest
p6138
aV"!"
p6139
aa(lp6140
I50
aVcCEN_South
p6141
aVcNDC_West
p6142
aV"!"
p6143
aa(lp6144
I50
aVcCEN_Northeast
p6145
aVcNDC_Northeast
p6146
aV"<"
p6147
aa(lp6148
I50
aVcCEN_Midwest
p6149
aVcNDC_USA
p6150
aV"<"
p6151
aa(lp6152
I50
aVcCEN_USA
p6153
aVcNDC_Midwest
p6154
aV">"
p6155
aa(lp6156
I50
aVcCEN_West
p6157
aVcNDC_West
p6158
aV">"
p6159
aa(lp6160
I50
aVcCEN_West
p6161
aVcNDC_Midwest
p6162
aV"><"
p6163
aa(lp6164
I50
aVcCEN_West
p6165
aVcNDC_Southwest
p6166
aV"><"
p6167
aa(lp6168
I50
aVcCEN_Midwest
p6169
aVcNDC_Northeast
p6170
aV"><"
p6171
aa(lp6172
I50
aVcCEN_Midwest
p6173
aVcNDC_Midwest
p6174
aV"><"
p6175
aa(lp6176
I50
aVcCEN_Midwest
p6177
aVcNDC_Southwest
p6178
aV"><"
p6179
aa(lp6180
I50
aVcCEN_South
p6181
aVcNDC_Midwest
p6182
aV"><"
p6183
aa(lp6184
I50
aVcCEN_South
p6185
aVcNDC_Southwest
p6186
aV"><"
p6187
aa(lp6188
I50
aVcCEN_Northeast
p6189
aVcNDC_Midwest
p6190
aV"!"
p6191
aa(lp6192
I50
aVcCEN_Midwest
p6193
aVcNDC_West
p6194
aV"!"
p6195
aa(lp6196
I50
aVcCEN_Midwest
p6197
aVcNDC_Southeast
p6198
aV"!"
p6199
aa(lp6200
I50
aVcCEN_South
p6201
aVcNDC_Northeast
p6202
aV"!"
p6203
aaasba(ihelper
PossibleWorld
p6204
(dp6205
g3
I51
sg4
I0
sg5
(lp6206
(lp6207
(lp6208
I51
aVcCEN_West
p6209
aVcNDC_USA
p6210
aV"<"
p6211
aa(lp6212
I51
aVcCEN_Northeast
p6213
aVcNDC_USA
p6214
aV"<"
p6215
aa(lp6216
I51
aVcCEN_South
p6217
aVcNDC_USA
p6218
aV"<"
p6219
aa(lp6220
I51
aVcCEN_USA
p6221
aVcNDC_USA
p6222
aV"="
p6223
aa(lp6224
I51
aVcCEN_USA
p6225
aVcNDC_Northeast
p6226
aV">"
p6227
aa(lp6228
I51
aVcCEN_USA
p6229
aVcNDC_West
p6230
aV">"
p6231
aa(lp6232
I51
aVcCEN_USA
p6233
aVcNDC_Southeast
p6234
aV">"
p6235
aa(lp6236
I51
aVcCEN_USA
p6237
aVcNDC_Southwest
p6238
aV">"
p6239
aa(lp6240
I51
aVcCEN_South
p6241
aVcNDC_Southeast
p6242
aV">"
p6243
aa(lp6244
I51
aVcCEN_West
p6245
aVcNDC_Northeast
p6246
aV"!"
p6247
aa(lp6248
I51
aVcCEN_West
p6249
aVcNDC_Southeast
p6250
aV"!"
p6251
aa(lp6252
I51
aVcCEN_Northeast
p6253
aVcNDC_West
p6254
aV"!"
p6255
aa(lp6256
I51
aVcCEN_Northeast
p6257
aVcNDC_Southeast
p6258
aV"!"
p6259
aa(lp6260
I51
aVcCEN_Northeast
p6261
aVcNDC_Southwest
p6262
aV"!"
p6263
aa(lp6264
I51
aVcCEN_South
p6265
aVcNDC_West
p6266
aV"!"
p6267
aa(lp6268
I51
aVcCEN_Northeast
p6269
aVcNDC_Northeast
p6270
aV"<"
p6271
aa(lp6272
I51
aVcCEN_Midwest
p6273
aVcNDC_USA
p6274
aV"<"
p6275
aa(lp6276
I51
aVcCEN_USA
p6277
aVcNDC_Midwest
p6278
aV">"
p6279
aa(lp6280
I51
aVcCEN_West
p6281
aVcNDC_West
p6282
aV">"
p6283
aa(lp6284
I51
aVcCEN_West
p6285
aVcNDC_Midwest
p6286
aV"><"
p6287
aa(lp6288
I51
aVcCEN_West
p6289
aVcNDC_Southwest
p6290
aV"><"
p6291
aa(lp6292
I51
aVcCEN_Midwest
p6293
aVcNDC_Northeast
p6294
aV"><"
p6295
aa(lp6296
I51
aVcCEN_Midwest
p6297
aVcNDC_Midwest
p6298
aV"><"
p6299
aa(lp6300
I51
aVcCEN_Midwest
p6301
aVcNDC_Southwest
p6302
aV"><"
p6303
aa(lp6304
I51
aVcCEN_South
p6305
aVcNDC_Northeast
p6306
aV"><"
p6307
aa(lp6308
I51
aVcCEN_South
p6309
aVcNDC_Midwest
p6310
aV"><"
p6311
aa(lp6312
I51
aVcCEN_South
p6313
aVcNDC_Southwest
p6314
aV"><"
p6315
aa(lp6316
I51
aVcCEN_Northeast
p6317
aVcNDC_Midwest
p6318
aV"!"
p6319
aa(lp6320
I51
aVcCEN_Midwest
p6321
aVcNDC_West
p6322
aV"!"
p6323
aa(lp6324
I51
aVcCEN_Midwest
p6325
aVcNDC_Southeast
p6326
aV"!"
p6327
aaasba.