(lp0
(ihelper
PossibleWorld
p1
(dp2
S'pw_id'
p3
I1
sS'pw_soln'
p4
I0
sS'rls'
p5
(lp6
(lp7
(lp8
I1
aV1
p9
aa(lp10
I1
aV2
p11
aa(lp12
I1
aV3
p13
aa(lp14
I1
aV4
p15
aa(lp16
I1
aV5
p17
aa(lp18
I1
aV6
p19
aa(lp20
I1
aV7
p21
aa(lp22
I1
aV8
p23
aaa(lp24
(lp25
I1
aVcT2_C
p26
aV0
p27
ag27
aa(lp28
I1
aVcT2_B
p29
ag27
ag9
aa(lp30
I1
aVcT1_c
p31
ag9
ag27
aa(lp32
I1
aVcT1_b
p33
ag9
ag9
aaa(lp34
(lp35
I1
aVcT2_A
p36
ag27
aa(lp37
I1
aVcT1_a
p38
ag9
aa(lp39
I1
aVcT2_C
p40
ag27
aa(lp41
I1
aVcT2_B
p42
ag27
aa(lp43
I1
aVcT1_c
p44
ag9
aa(lp45
I1
aVcT1_b
p46
ag9
aaa(lp47
(lp48
I1
ag9
ag27
ag9
aa(lp49
I1
ag11
ag27
ag11
aa(lp50
I1
ag13
ag27
ag27
aa(lp51
I1
ag15
ag27
ag9
aa(lp52
I1
ag17
ag27
ag11
aa(lp53
I1
ag19
ag27
ag27
aa(lp54
I1
ag21
ag27
ag9
aa(lp55
I1
ag23
ag27
ag11
aa(lp56
I1
ag9
ag9
ag27
aa(lp57
I1
ag11
ag9
ag27
aa(lp58
I1
ag13
ag9
ag9
aa(lp59
I1
ag15
ag9
ag9
aa(lp60
I1
ag17
ag9
ag9
aa(lp61
I1
ag19
ag9
ag11
aa(lp62
I1
ag21
ag9
ag11
aa(lp63
I1
ag23
ag9
ag11
aaa(lp64
(lp65
I1
aVcT2_C
p66
ag9
aa(lp67
I1
aVcT2_C
p68
ag15
aa(lp69
I1
aVcT2_C
p70
ag21
aa(lp71
I1
aVcT2_B
p72
ag11
aa(lp73
I1
aVcT2_B
p74
ag17
aa(lp75
I1
aVcT2_B
p76
ag23
aa(lp77
I1
aVcT1_c
p78
ag13
aa(lp79
I1
aVcT1_c
p80
ag15
aa(lp81
I1
aVcT1_c
p82
ag17
aa(lp83
I1
aVcT1_b
p84
ag19
aa(lp85
I1
aVcT1_b
p86
ag21
aa(lp87
I1
aVcT1_b
p88
ag23
aa(lp89
I1
aVcT2_A
p90
ag9
aa(lp91
I1
aVcT2_A
p92
ag11
aa(lp93
I1
aVcT2_A
p94
ag15
aa(lp95
I1
aVcT2_A
p96
ag17
aa(lp97
I1
aVcT2_A
p98
ag21
aa(lp99
I1
aVcT2_A
p100
ag23
aa(lp101
I1
aVcT1_a
p102
ag13
aa(lp103
I1
aVcT1_a
p104
ag15
aa(lp105
I1
aVcT1_a
p106
ag17
aa(lp107
I1
aVcT1_a
p108
ag19
aa(lp109
I1
aVcT1_a
p110
ag21
aa(lp111
I1
aVcT1_a
p112
ag23
aaa(lp113
(lp114
I1
aVcT2_C
p115
ag11
aa(lp116
I1
aVcT2_C
p117
ag13
aa(lp118
I1
aVcT2_C
p119
ag17
aa(lp120
I1
aVcT2_C
p121
ag19
aa(lp122
I1
aVcT2_C
p123
ag23
aa(lp124
I1
aVcT2_B
p125
ag9
aa(lp126
I1
aVcT2_B
p127
ag13
aa(lp128
I1
aVcT2_B
p129
ag15
aa(lp130
I1
aVcT2_B
p131
ag19
aa(lp132
I1
aVcT2_B
p133
ag21
aa(lp134
I1
aVcT1_c
p135
ag9
aa(lp136
I1
aVcT1_c
p137
ag11
aa(lp138
I1
aVcT1_c
p139
ag19
aa(lp140
I1
aVcT1_c
p141
ag21
aa(lp142
I1
aVcT1_c
p143
ag23
aa(lp144
I1
aVcT1_b
p145
ag9
aa(lp146
I1
aVcT1_b
p147
ag11
aa(lp148
I1
aVcT1_b
p149
ag13
aa(lp150
I1
aVcT1_b
p151
ag15
aa(lp152
I1
aVcT1_b
p153
ag17
aa(lp154
I1
aVcT2_A
p155
ag13
aa(lp156
I1
aVcT2_A
p157
ag19
aa(lp158
I1
aVcT1_a
p159
ag9
aa(lp160
I1
aVcT1_a
p161
ag11
aaa(lp162
(lp163
I1
ag9
aa(lp164
I1
ag11
aa(lp165
I1
ag13
aa(lp166
I1
ag19
aa(lp167
I1
ag15
aa(lp168
I1
ag23
aaa(lp169
(lp170
I1
ag9
aVr8
p171
aa(lp172
I1
ag11
aVr8
p173
aa(lp174
I1
ag13
aVr8
p175
aa(lp176
I1
ag19
aVr8
p177
aa(lp178
I1
ag9
ag9
aa(lp179
I1
ag11
ag11
aa(lp180
I1
ag13
ag13
aa(lp181
I1
ag19
ag19
aa(lp182
I1
ag15
ag15
aa(lp183
I1
ag23
ag23
aaa(lp184
(lp185
I1
aVtT2
p186
ag27
aa(lp187
I1
aVtT1
p188
ag9
aaa(lp189
(lp190
I1
ag17
aa(lp191
I1
ag21
aaa(lp192
(lp193
I1
ag17
ag17
aa(lp194
I1
ag21
ag21
aaa(lp195
(lp196
I1
aVcT2_C
p197
aVcT1_c
p198
ag11
aa(lp199
I1
aVcT2_C
p200
aVcT1_a
p201
ag11
aa(lp202
I1
aVcT2_B
p203
aVcT1_a
p204
ag11
aa(lp205
I1
aVcT2_B
p206
aVcT1_b
p207
ag11
aa(lp208
I1
aVcT2_A
p209
aVcT1_c
p210
ag9
aa(lp211
I1
aVcT2_A
p212
aVcT1_a
p213
ag9
aa(lp214
I1
aVcT2_A
p215
aVcT1_b
p216
ag9
aa(lp217
I1
aVcT2_C
p218
aVcT1_a
p219
ag9
aa(lp220
I1
aVcT2_C
p221
aVcT1_b
p222
ag9
aa(lp223
I1
aVcT2_B
p224
aVcT1_c
p225
ag9
aa(lp226
I1
aVcT2_B
p227
aVcT1_a
p228
ag9
aa(lp229
I1
aVcT2_A
p230
aVcT1_b
p231
ag27
aa(lp232
I1
aVcT2_A
p233
aVcT1_c
p234
ag27
aa(lp235
I1
aVcT2_C
p236
aVcT1_c
p237
ag27
aa(lp238
I1
aVcT2_B
p239
aVcT1_b
p240
ag27
aaa(lp241
(lp242
I1
aVcT2_C
p243
aVcT1_a
p244
aV"<"
p245
aa(lp246
I1
aVcT2_B
p247
aVcT1_a
p248
aV"<"
p249
aa(lp250
I1
aVcT2_A
p251
aVcT1_a
p252
aV"="
p253
aa(lp254
I1
aVcT2_C
p255
aVcT1_b
p256
aV"="
p257
aa(lp258
I1
aVcT2_B
p259
aVcT1_c
p260
aV"="
p261
aa(lp262
I1
aVcT2_A
p263
aVcT1_c
p264
aV">"
p265
aa(lp266
I1
aVcT2_A
p267
aVcT1_b
p268
aV">"
p269
aa(lp270
I1
aVcT2_C
p271
aVcT1_c
p272
aV"!"
p273
aa(lp274
I1
aVcT2_B
p275
aVcT1_b
p276
aV"!"
p277
aaasba(ihelper
PossibleWorld
p278
(dp279
g3
I2
sg4
I0
sg5
(lp280
(lp281
(lp282
I2
ag9
aa(lp283
I2
ag11
aa(lp284
I2
ag13
aa(lp285
I2
ag15
aa(lp286
I2
ag17
aa(lp287
I2
ag19
aa(lp288
I2
ag21
aa(lp289
I2
ag23
aaa(lp290
(lp291
I2
aVcT2_C
p292
ag27
ag27
aa(lp293
I2
aVcT2_B
p294
ag27
ag9
aa(lp295
I2
aVcT1_c
p296
ag9
ag27
aa(lp297
I2
aVcT1_b
p298
ag9
ag9
aaa(lp299
(lp300
I2
aVcT2_A
p301
ag27
aa(lp302
I2
aVcT1_a
p303
ag9
aa(lp304
I2
aVcT2_C
p305
ag27
aa(lp306
I2
aVcT2_B
p307
ag27
aa(lp308
I2
aVcT1_c
p309
ag9
aa(lp310
I2
aVcT1_b
p311
ag9
aaa(lp312
(lp313
I2
ag9
ag27
ag9
aa(lp314
I2
ag11
ag27
ag11
aa(lp315
I2
ag13
ag27
ag27
aa(lp316
I2
ag15
ag27
ag9
aa(lp317
I2
ag17
ag27
ag11
aa(lp318
I2
ag19
ag27
ag27
aa(lp319
I2
ag21
ag27
ag9
aa(lp320
I2
ag23
ag27
ag11
aa(lp321
I2
ag9
ag9
ag27
aa(lp322
I2
ag11
ag9
ag27
aa(lp323
I2
ag13
ag9
ag9
aa(lp324
I2
ag15
ag9
ag9
aa(lp325
I2
ag17
ag9
ag9
aa(lp326
I2
ag19
ag9
ag11
aa(lp327
I2
ag21
ag9
ag11
aa(lp328
I2
ag23
ag9
ag11
aaa(lp329
(lp330
I2
aVcT2_C
p331
ag9
aa(lp332
I2
aVcT2_C
p333
ag15
aa(lp334
I2
aVcT2_C
p335
ag21
aa(lp336
I2
aVcT2_B
p337
ag11
aa(lp338
I2
aVcT2_B
p339
ag17
aa(lp340
I2
aVcT2_B
p341
ag23
aa(lp342
I2
aVcT1_c
p343
ag13
aa(lp344
I2
aVcT1_c
p345
ag15
aa(lp346
I2
aVcT1_c
p347
ag17
aa(lp348
I2
aVcT1_b
p349
ag19
aa(lp350
I2
aVcT1_b
p351
ag21
aa(lp352
I2
aVcT1_b
p353
ag23
aa(lp354
I2
aVcT2_A
p355
ag9
aa(lp356
I2
aVcT2_A
p357
ag11
aa(lp358
I2
aVcT2_A
p359
ag15
aa(lp360
I2
aVcT2_A
p361
ag17
aa(lp362
I2
aVcT2_A
p363
ag21
aa(lp364
I2
aVcT2_A
p365
ag23
aa(lp366
I2
aVcT1_a
p367
ag13
aa(lp368
I2
aVcT1_a
p369
ag15
aa(lp370
I2
aVcT1_a
p371
ag17
aa(lp372
I2
aVcT1_a
p373
ag19
aa(lp374
I2
aVcT1_a
p375
ag21
aa(lp376
I2
aVcT1_a
p377
ag23
aaa(lp378
(lp379
I2
aVcT2_C
p380
ag11
aa(lp381
I2
aVcT2_C
p382
ag13
aa(lp383
I2
aVcT2_C
p384
ag17
aa(lp385
I2
aVcT2_C
p386
ag19
aa(lp387
I2
aVcT2_C
p388
ag23
aa(lp389
I2
aVcT2_B
p390
ag9
aa(lp391
I2
aVcT2_B
p392
ag13
aa(lp393
I2
aVcT2_B
p394
ag15
aa(lp395
I2
aVcT2_B
p396
ag19
aa(lp397
I2
aVcT2_B
p398
ag21
aa(lp399
I2
aVcT1_c
p400
ag9
aa(lp401
I2
aVcT1_c
p402
ag11
aa(lp403
I2
aVcT1_c
p404
ag19
aa(lp405
I2
aVcT1_c
p406
ag21
aa(lp407
I2
aVcT1_c
p408
ag23
aa(lp409
I2
aVcT1_b
p410
ag9
aa(lp411
I2
aVcT1_b
p412
ag11
aa(lp413
I2
aVcT1_b
p414
ag13
aa(lp415
I2
aVcT1_b
p416
ag15
aa(lp417
I2
aVcT1_b
p418
ag17
aa(lp419
I2
aVcT2_A
p420
ag13
aa(lp421
I2
aVcT2_A
p422
ag19
aa(lp423
I2
aVcT1_a
p424
ag9
aa(lp425
I2
aVcT1_a
p426
ag11
aaa(lp427
(lp428
I2
ag9
aa(lp429
I2
ag11
aa(lp430
I2
ag13
aa(lp431
I2
ag19
aa(lp432
I2
ag15
aaa(lp433
(lp434
I2
ag9
aVr8
p435
aa(lp436
I2
ag11
aVr8
p437
aa(lp438
I2
ag13
aVr8
p439
aa(lp440
I2
ag19
aVr8
p441
aa(lp442
I2
ag9
ag9
aa(lp443
I2
ag11
ag11
aa(lp444
I2
ag13
ag13
aa(lp445
I2
ag19
ag19
aa(lp446
I2
ag15
ag15
aaa(lp447
(lp448
I2
aVtT2
p449
ag27
aa(lp450
I2
aVtT1
p451
ag9
aaa(lp452
(lp453
I2
ag17
aa(lp454
I2
ag21
aa(lp455
I2
ag23
aaa(lp456
(lp457
I2
ag17
ag17
aa(lp458
I2
ag21
ag21
aa(lp459
I2
ag23
ag23
aaa(lp460
(lp461
I2
aVcT2_C
p462
aVcT1_c
p463
ag11
aa(lp464
I2
aVcT2_C
p465
aVcT1_a
p466
ag11
aa(lp467
I2
aVcT2_C
p468
aVcT1_b
p469
ag11
aa(lp470
I2
aVcT2_B
p471
aVcT1_a
p472
ag11
aa(lp473
I2
aVcT2_B
p474
aVcT1_b
p475
ag11
aa(lp476
I2
aVcT2_A
p477
aVcT1_c
p478
ag9
aa(lp479
I2
aVcT2_A
p480
aVcT1_a
p481
ag9
aa(lp482
I2
aVcT2_A
p483
aVcT1_b
p484
ag9
aa(lp485
I2
aVcT2_C
p486
aVcT1_a
p487
ag9
aa(lp488
I2
aVcT2_C
p489
aVcT1_b
p490
ag9
aa(lp491
I2
aVcT2_B
p492
aVcT1_c
p493
ag9
aa(lp494
I2
aVcT2_B
p495
aVcT1_a
p496
ag9
aa(lp497
I2
aVcT2_B
p498
aVcT1_b
p499
ag9
aa(lp500
I2
aVcT2_A
p501
aVcT1_b
p502
ag27
aa(lp503
I2
aVcT2_A
p504
aVcT1_c
p505
ag27
aa(lp506
I2
aVcT2_C
p507
aVcT1_c
p508
ag27
aa(lp509
I2
aVcT2_B
p510
aVcT1_b
p511
ag27
aa(lp512
I2
aVcT2_B
p513
aVcT1_c
p514
ag27
aaa(lp515
(lp516
I2
aVcT2_C
p517
aVcT1_a
p518
aV"<"
p519
aa(lp520
I2
aVcT2_C
p521
aVcT1_b
p522
aV"<"
p523
aa(lp524
I2
aVcT2_B
p525
aVcT1_a
p526
aV"<"
p527
aa(lp528
I2
aVcT2_A
p529
aVcT1_a
p530
aV"="
p531
aa(lp532
I2
aVcT2_A
p533
aVcT1_c
p534
aV">"
p535
aa(lp536
I2
aVcT2_A
p537
aVcT1_b
p538
aV">"
p539
aa(lp540
I2
aVcT2_B
p541
aVcT1_c
p542
aV">"
p543
aa(lp544
I2
aVcT2_B
p545
aVcT1_b
p546
aV"><"
p547
aa(lp548
I2
aVcT2_C
p549
aVcT1_c
p550
aV"!"
p551
aaasba(ihelper
PossibleWorld
p552
(dp553
g3
I3
sg4
I0
sg5
(lp554
(lp555
(lp556
I3
ag9
aa(lp557
I3
ag11
aa(lp558
I3
ag13
aa(lp559
I3
ag15
aa(lp560
I3
ag17
aa(lp561
I3
ag19
aa(lp562
I3
ag21
aa(lp563
I3
ag23
aaa(lp564
(lp565
I3
aVcT2_C
p566
ag27
ag27
aa(lp567
I3
aVcT2_B
p568
ag27
ag9
aa(lp569
I3
aVcT1_c
p570
ag9
ag27
aa(lp571
I3
aVcT1_b
p572
ag9
ag9
aaa(lp573
(lp574
I3
aVcT2_A
p575
ag27
aa(lp576
I3
aVcT1_a
p577
ag9
aa(lp578
I3
aVcT2_C
p579
ag27
aa(lp580
I3
aVcT2_B
p581
ag27
aa(lp582
I3
aVcT1_c
p583
ag9
aa(lp584
I3
aVcT1_b
p585
ag9
aaa(lp586
(lp587
I3
ag9
ag27
ag9
aa(lp588
I3
ag11
ag27
ag11
aa(lp589
I3
ag13
ag27
ag27
aa(lp590
I3
ag15
ag27
ag9
aa(lp591
I3
ag17
ag27
ag11
aa(lp592
I3
ag19
ag27
ag27
aa(lp593
I3
ag21
ag27
ag9
aa(lp594
I3
ag23
ag27
ag11
aa(lp595
I3
ag9
ag9
ag27
aa(lp596
I3
ag11
ag9
ag27
aa(lp597
I3
ag13
ag9
ag9
aa(lp598
I3
ag15
ag9
ag9
aa(lp599
I3
ag17
ag9
ag9
aa(lp600
I3
ag19
ag9
ag11
aa(lp601
I3
ag21
ag9
ag11
aa(lp602
I3
ag23
ag9
ag11
aaa(lp603
(lp604
I3
aVcT2_C
p605
ag9
aa(lp606
I3
aVcT2_C
p607
ag15
aa(lp608
I3
aVcT2_C
p609
ag21
aa(lp610
I3
aVcT2_B
p611
ag11
aa(lp612
I3
aVcT2_B
p613
ag17
aa(lp614
I3
aVcT2_B
p615
ag23
aa(lp616
I3
aVcT1_c
p617
ag13
aa(lp618
I3
aVcT1_c
p619
ag15
aa(lp620
I3
aVcT1_c
p621
ag17
aa(lp622
I3
aVcT1_b
p623
ag19
aa(lp624
I3
aVcT1_b
p625
ag21
aa(lp626
I3
aVcT1_b
p627
ag23
aa(lp628
I3
aVcT2_A
p629
ag9
aa(lp630
I3
aVcT2_A
p631
ag11
aa(lp632
I3
aVcT2_A
p633
ag15
aa(lp634
I3
aVcT2_A
p635
ag17
aa(lp636
I3
aVcT2_A
p637
ag21
aa(lp638
I3
aVcT2_A
p639
ag23
aa(lp640
I3
aVcT1_a
p641
ag13
aa(lp642
I3
aVcT1_a
p643
ag15
aa(lp644
I3
aVcT1_a
p645
ag17
aa(lp646
I3
aVcT1_a
p647
ag19
aa(lp648
I3
aVcT1_a
p649
ag21
aa(lp650
I3
aVcT1_a
p651
ag23
aaa(lp652
(lp653
I3
aVcT2_C
p654
ag11
aa(lp655
I3
aVcT2_C
p656
ag13
aa(lp657
I3
aVcT2_C
p658
ag17
aa(lp659
I3
aVcT2_C
p660
ag19
aa(lp661
I3
aVcT2_C
p662
ag23
aa(lp663
I3
aVcT2_B
p664
ag9
aa(lp665
I3
aVcT2_B
p666
ag13
aa(lp667
I3
aVcT2_B
p668
ag15
aa(lp669
I3
aVcT2_B
p670
ag19
aa(lp671
I3
aVcT2_B
p672
ag21
aa(lp673
I3
aVcT1_c
p674
ag9
aa(lp675
I3
aVcT1_c
p676
ag11
aa(lp677
I3
aVcT1_c
p678
ag19
aa(lp679
I3
aVcT1_c
p680
ag21
aa(lp681
I3
aVcT1_c
p682
ag23
aa(lp683
I3
aVcT1_b
p684
ag9
aa(lp685
I3
aVcT1_b
p686
ag11
aa(lp687
I3
aVcT1_b
p688
ag13
aa(lp689
I3
aVcT1_b
p690
ag15
aa(lp691
I3
aVcT1_b
p692
ag17
aa(lp693
I3
aVcT2_A
p694
ag13
aa(lp695
I3
aVcT2_A
p696
ag19
aa(lp697
I3
aVcT1_a
p698
ag9
aa(lp699
I3
aVcT1_a
p700
ag11
aaa(lp701
(lp702
I3
ag9
aa(lp703
I3
ag11
aa(lp704
I3
ag13
aa(lp705
I3
ag19
aa(lp706
I3
ag23
aaa(lp707
(lp708
I3
ag9
aVr8
p709
aa(lp710
I3
ag11
aVr8
p711
aa(lp712
I3
ag13
aVr8
p713
aa(lp714
I3
ag19
aVr8
p715
aa(lp716
I3
ag9
ag9
aa(lp717
I3
ag11
ag11
aa(lp718
I3
ag13
ag13
aa(lp719
I3
ag19
ag19
aa(lp720
I3
ag23
ag23
aaa(lp721
(lp722
I3
aVtT2
p723
ag27
aa(lp724
I3
aVtT1
p725
ag9
aaa(lp726
(lp727
I3
ag15
aa(lp728
I3
ag17
aa(lp729
I3
ag21
aaa(lp730
(lp731
I3
ag15
ag15
aa(lp732
I3
ag17
ag17
aa(lp733
I3
ag21
ag21
aaa(lp734
(lp735
I3
aVcT2_C
p736
aVcT1_c
p737
ag11
aa(lp738
I3
aVcT2_C
p739
aVcT1_a
p740
ag11
aa(lp741
I3
aVcT2_B
p742
aVcT1_c
p743
ag11
aa(lp744
I3
aVcT2_B
p745
aVcT1_a
p746
ag11
aa(lp747
I3
aVcT2_B
p748
aVcT1_b
p749
ag11
aa(lp750
I3
aVcT2_A
p751
aVcT1_c
p752
ag9
aa(lp753
I3
aVcT2_A
p754
aVcT1_a
p755
ag9
aa(lp756
I3
aVcT2_A
p757
aVcT1_b
p758
ag9
aa(lp759
I3
aVcT2_C
p760
aVcT1_c
p761
ag9
aa(lp762
I3
aVcT2_C
p763
aVcT1_a
p764
ag9
aa(lp765
I3
aVcT2_C
p766
aVcT1_b
p767
ag9
aa(lp768
I3
aVcT2_B
p769
aVcT1_c
p770
ag9
aa(lp771
I3
aVcT2_B
p772
aVcT1_a
p773
ag9
aa(lp774
I3
aVcT2_A
p775
aVcT1_b
p776
ag27
aa(lp777
I3
aVcT2_A
p778
aVcT1_c
p779
ag27
aa(lp780
I3
aVcT2_C
p781
aVcT1_b
p782
ag27
aa(lp783
I3
aVcT2_C
p784
aVcT1_c
p785
ag27
aa(lp786
I3
aVcT2_B
p787
aVcT1_b
p788
ag27
aaa(lp789
(lp790
I3
aVcT2_C
p791
aVcT1_a
p792
aV"<"
p793
aa(lp794
I3
aVcT2_B
p795
aVcT1_c
p796
aV"<"
p797
aa(lp798
I3
aVcT2_B
p799
aVcT1_a
p800
aV"<"
p801
aa(lp802
I3
aVcT2_A
p803
aVcT1_a
p804
aV"="
p805
aa(lp806
I3
aVcT2_A
p807
aVcT1_c
p808
aV">"
p809
aa(lp810
I3
aVcT2_A
p811
aVcT1_b
p812
aV">"
p813
aa(lp814
I3
aVcT2_C
p815
aVcT1_b
p816
aV">"
p817
aa(lp818
I3
aVcT2_C
p819
aVcT1_c
p820
aV"><"
p821
aa(lp822
I3
aVcT2_B
p823
aVcT1_b
p824
aV"!"
p825
aaasba(ihelper
PossibleWorld
p826
(dp827
g3
I4
sg4
I0
sg5
(lp828
(lp829
(lp830
I4
ag9
aa(lp831
I4
ag11
aa(lp832
I4
ag13
aa(lp833
I4
ag15
aa(lp834
I4
ag17
aa(lp835
I4
ag19
aa(lp836
I4
ag21
aa(lp837
I4
ag23
aaa(lp838
(lp839
I4
aVcT2_C
p840
ag27
ag27
aa(lp841
I4
aVcT2_B
p842
ag27
ag9
aa(lp843
I4
aVcT1_c
p844
ag9
ag27
aa(lp845
I4
aVcT1_b
p846
ag9
ag9
aaa(lp847
(lp848
I4
aVcT2_A
p849
ag27
aa(lp850
I4
aVcT1_a
p851
ag9
aa(lp852
I4
aVcT2_C
p853
ag27
aa(lp854
I4
aVcT2_B
p855
ag27
aa(lp856
I4
aVcT1_c
p857
ag9
aa(lp858
I4
aVcT1_b
p859
ag9
aaa(lp860
(lp861
I4
ag9
ag27
ag9
aa(lp862
I4
ag11
ag27
ag11
aa(lp863
I4
ag13
ag27
ag27
aa(lp864
I4
ag15
ag27
ag9
aa(lp865
I4
ag17
ag27
ag11
aa(lp866
I4
ag19
ag27
ag27
aa(lp867
I4
ag21
ag27
ag9
aa(lp868
I4
ag23
ag27
ag11
aa(lp869
I4
ag9
ag9
ag27
aa(lp870
I4
ag11
ag9
ag27
aa(lp871
I4
ag13
ag9
ag9
aa(lp872
I4
ag15
ag9
ag9
aa(lp873
I4
ag17
ag9
ag9
aa(lp874
I4
ag19
ag9
ag11
aa(lp875
I4
ag21
ag9
ag11
aa(lp876
I4
ag23
ag9
ag11
aaa(lp877
(lp878
I4
aVcT2_C
p879
ag9
aa(lp880
I4
aVcT2_C
p881
ag15
aa(lp882
I4
aVcT2_C
p883
ag21
aa(lp884
I4
aVcT2_B
p885
ag11
aa(lp886
I4
aVcT2_B
p887
ag17
aa(lp888
I4
aVcT2_B
p889
ag23
aa(lp890
I4
aVcT1_c
p891
ag13
aa(lp892
I4
aVcT1_c
p893
ag15
aa(lp894
I4
aVcT1_c
p895
ag17
aa(lp896
I4
aVcT1_b
p897
ag19
aa(lp898
I4
aVcT1_b
p899
ag21
aa(lp900
I4
aVcT1_b
p901
ag23
aa(lp902
I4
aVcT2_A
p903
ag9
aa(lp904
I4
aVcT2_A
p905
ag11
aa(lp906
I4
aVcT2_A
p907
ag15
aa(lp908
I4
aVcT2_A
p909
ag17
aa(lp910
I4
aVcT2_A
p911
ag21
aa(lp912
I4
aVcT2_A
p913
ag23
aa(lp914
I4
aVcT1_a
p915
ag13
aa(lp916
I4
aVcT1_a
p917
ag15
aa(lp918
I4
aVcT1_a
p919
ag17
aa(lp920
I4
aVcT1_a
p921
ag19
aa(lp922
I4
aVcT1_a
p923
ag21
aa(lp924
I4
aVcT1_a
p925
ag23
aaa(lp926
(lp927
I4
aVcT2_C
p928
ag11
aa(lp929
I4
aVcT2_C
p930
ag13
aa(lp931
I4
aVcT2_C
p932
ag17
aa(lp933
I4
aVcT2_C
p934
ag19
aa(lp935
I4
aVcT2_C
p936
ag23
aa(lp937
I4
aVcT2_B
p938
ag9
aa(lp939
I4
aVcT2_B
p940
ag13
aa(lp941
I4
aVcT2_B
p942
ag15
aa(lp943
I4
aVcT2_B
p944
ag19
aa(lp945
I4
aVcT2_B
p946
ag21
aa(lp947
I4
aVcT1_c
p948
ag9
aa(lp949
I4
aVcT1_c
p950
ag11
aa(lp951
I4
aVcT1_c
p952
ag19
aa(lp953
I4
aVcT1_c
p954
ag21
aa(lp955
I4
aVcT1_c
p956
ag23
aa(lp957
I4
aVcT1_b
p958
ag9
aa(lp959
I4
aVcT1_b
p960
ag11
aa(lp961
I4
aVcT1_b
p962
ag13
aa(lp963
I4
aVcT1_b
p964
ag15
aa(lp965
I4
aVcT1_b
p966
ag17
aa(lp967
I4
aVcT2_A
p968
ag13
aa(lp969
I4
aVcT2_A
p970
ag19
aa(lp971
I4
aVcT1_a
p972
ag9
aa(lp973
I4
aVcT1_a
p974
ag11
aaa(lp975
(lp976
I4
ag9
aa(lp977
I4
ag11
aa(lp978
I4
ag13
aa(lp979
I4
ag19
aa(lp980
I4
ag17
aa(lp981
I4
ag21
aaa(lp982
(lp983
I4
ag9
aVr8
p984
aa(lp985
I4
ag11
aVr8
p986
aa(lp987
I4
ag13
aVr8
p988
aa(lp989
I4
ag19
aVr8
p990
aa(lp991
I4
ag9
ag9
aa(lp992
I4
ag11
ag11
aa(lp993
I4
ag13
ag13
aa(lp994
I4
ag19
ag19
aa(lp995
I4
ag17
ag17
aa(lp996
I4
ag21
ag21
aaa(lp997
(lp998
I4
aVtT2
p999
ag27
aa(lp1000
I4
aVtT1
p1001
ag9
aaa(lp1002
(lp1003
I4
ag15
aa(lp1004
I4
ag23
aaa(lp1005
(lp1006
I4
ag15
ag15
aa(lp1007
I4
ag23
ag23
aaa(lp1008
(lp1009
I4
aVcT2_C
p1010
aVcT1_a
p1011
ag11
aa(lp1012
I4
aVcT2_C
p1013
aVcT1_b
p1014
ag11
aa(lp1015
I4
aVcT2_B
p1016
aVcT1_c
p1017
ag11
aa(lp1018
I4
aVcT2_B
p1019
aVcT1_a
p1020
ag11
aa(lp1021
I4
aVcT2_A
p1022
aVcT1_c
p1023
ag9
aa(lp1024
I4
aVcT2_A
p1025
aVcT1_a
p1026
ag9
aa(lp1027
I4
aVcT2_A
p1028
aVcT1_b
p1029
ag9
aa(lp1030
I4
aVcT2_C
p1031
aVcT1_c
p1032
ag9
aa(lp1033
I4
aVcT2_C
p1034
aVcT1_a
p1035
ag9
aa(lp1036
I4
aVcT2_B
p1037
aVcT1_a
p1038
ag9
aa(lp1039
I4
aVcT2_B
p1040
aVcT1_b
p1041
ag9
aa(lp1042
I4
aVcT2_A
p1043
aVcT1_b
p1044
ag27
aa(lp1045
I4
aVcT2_A
p1046
aVcT1_c
p1047
ag27
aa(lp1048
I4
aVcT2_C
p1049
aVcT1_b
p1050
ag27
aa(lp1051
I4
aVcT2_B
p1052
aVcT1_c
p1053
ag27
aaa(lp1054
(lp1055
I4
aVcT2_C
p1056
aVcT1_a
p1057
aV"<"
p1058
aa(lp1059
I4
aVcT2_B
p1060
aVcT1_a
p1061
aV"<"
p1062
aa(lp1063
I4
aVcT2_A
p1064
aVcT1_a
p1065
aV"="
p1066
aa(lp1067
I4
aVcT2_C
p1068
aVcT1_c
p1069
aV"="
p1070
aa(lp1071
I4
aVcT2_B
p1072
aVcT1_b
p1073
aV"="
p1074
aa(lp1075
I4
aVcT2_A
p1076
aVcT1_c
p1077
aV">"
p1078
aa(lp1079
I4
aVcT2_A
p1080
aVcT1_b
p1081
aV">"
p1082
aa(lp1083
I4
aVcT2_C
p1084
aVcT1_b
p1085
aV"!"
p1086
aa(lp1087
I4
aVcT2_B
p1088
aVcT1_c
p1089
aV"!"
p1090
aaasba(ihelper
PossibleWorld
p1091
(dp1092
g3
I5
sg4
I0
sg5
(lp1093
(lp1094
(lp1095
I5
ag9
aa(lp1096
I5
ag11
aa(lp1097
I5
ag13
aa(lp1098
I5
ag15
aa(lp1099
I5
ag17
aa(lp1100
I5
ag19
aa(lp1101
I5
ag21
aa(lp1102
I5
ag23
aaa(lp1103
(lp1104
I5
aVcT2_C
p1105
ag27
ag27
aa(lp1106
I5
aVcT2_B
p1107
ag27
ag9
aa(lp1108
I5
aVcT1_c
p1109
ag9
ag27
aa(lp1110
I5
aVcT1_b
p1111
ag9
ag9
aaa(lp1112
(lp1113
I5
aVcT2_A
p1114
ag27
aa(lp1115
I5
aVcT1_a
p1116
ag9
aa(lp1117
I5
aVcT2_C
p1118
ag27
aa(lp1119
I5
aVcT2_B
p1120
ag27
aa(lp1121
I5
aVcT1_c
p1122
ag9
aa(lp1123
I5
aVcT1_b
p1124
ag9
aaa(lp1125
(lp1126
I5
ag9
ag27
ag9
aa(lp1127
I5
ag11
ag27
ag11
aa(lp1128
I5
ag13
ag27
ag27
aa(lp1129
I5
ag15
ag27
ag9
aa(lp1130
I5
ag17
ag27
ag11
aa(lp1131
I5
ag19
ag27
ag27
aa(lp1132
I5
ag21
ag27
ag9
aa(lp1133
I5
ag23
ag27
ag11
aa(lp1134
I5
ag9
ag9
ag27
aa(lp1135
I5
ag11
ag9
ag27
aa(lp1136
I5
ag13
ag9
ag9
aa(lp1137
I5
ag15
ag9
ag9
aa(lp1138
I5
ag17
ag9
ag9
aa(lp1139
I5
ag19
ag9
ag11
aa(lp1140
I5
ag21
ag9
ag11
aa(lp1141
I5
ag23
ag9
ag11
aaa(lp1142
(lp1143
I5
aVcT2_C
p1144
ag9
aa(lp1145
I5
aVcT2_C
p1146
ag15
aa(lp1147
I5
aVcT2_C
p1148
ag21
aa(lp1149
I5
aVcT2_B
p1150
ag11
aa(lp1151
I5
aVcT2_B
p1152
ag17
aa(lp1153
I5
aVcT2_B
p1154
ag23
aa(lp1155
I5
aVcT1_c
p1156
ag13
aa(lp1157
I5
aVcT1_c
p1158
ag15
aa(lp1159
I5
aVcT1_c
p1160
ag17
aa(lp1161
I5
aVcT1_b
p1162
ag19
aa(lp1163
I5
aVcT1_b
p1164
ag21
aa(lp1165
I5
aVcT1_b
p1166
ag23
aa(lp1167
I5
aVcT2_A
p1168
ag9
aa(lp1169
I5
aVcT2_A
p1170
ag11
aa(lp1171
I5
aVcT2_A
p1172
ag15
aa(lp1173
I5
aVcT2_A
p1174
ag17
aa(lp1175
I5
aVcT2_A
p1176
ag21
aa(lp1177
I5
aVcT2_A
p1178
ag23
aa(lp1179
I5
aVcT1_a
p1180
ag13
aa(lp1181
I5
aVcT1_a
p1182
ag15
aa(lp1183
I5
aVcT1_a
p1184
ag17
aa(lp1185
I5
aVcT1_a
p1186
ag19
aa(lp1187
I5
aVcT1_a
p1188
ag21
aa(lp1189
I5
aVcT1_a
p1190
ag23
aaa(lp1191
(lp1192
I5
aVcT2_C
p1193
ag11
aa(lp1194
I5
aVcT2_C
p1195
ag13
aa(lp1196
I5
aVcT2_C
p1197
ag17
aa(lp1198
I5
aVcT2_C
p1199
ag19
aa(lp1200
I5
aVcT2_C
p1201
ag23
aa(lp1202
I5
aVcT2_B
p1203
ag9
aa(lp1204
I5
aVcT2_B
p1205
ag13
aa(lp1206
I5
aVcT2_B
p1207
ag15
aa(lp1208
I5
aVcT2_B
p1209
ag19
aa(lp1210
I5
aVcT2_B
p1211
ag21
aa(lp1212
I5
aVcT1_c
p1213
ag9
aa(lp1214
I5
aVcT1_c
p1215
ag11
aa(lp1216
I5
aVcT1_c
p1217
ag19
aa(lp1218
I5
aVcT1_c
p1219
ag21
aa(lp1220
I5
aVcT1_c
p1221
ag23
aa(lp1222
I5
aVcT1_b
p1223
ag9
aa(lp1224
I5
aVcT1_b
p1225
ag11
aa(lp1226
I5
aVcT1_b
p1227
ag13
aa(lp1228
I5
aVcT1_b
p1229
ag15
aa(lp1230
I5
aVcT1_b
p1231
ag17
aa(lp1232
I5
aVcT2_A
p1233
ag13
aa(lp1234
I5
aVcT2_A
p1235
ag19
aa(lp1236
I5
aVcT1_a
p1237
ag9
aa(lp1238
I5
aVcT1_a
p1239
ag11
aaa(lp1240
(lp1241
I5
ag9
aa(lp1242
I5
ag11
aa(lp1243
I5
ag13
aa(lp1244
I5
ag19
aa(lp1245
I5
ag21
aaa(lp1246
(lp1247
I5
ag9
aVr8
p1248
aa(lp1249
I5
ag11
aVr8
p1250
aa(lp1251
I5
ag13
aVr8
p1252
aa(lp1253
I5
ag19
aVr8
p1254
aa(lp1255
I5
ag9
ag9
aa(lp1256
I5
ag11
ag11
aa(lp1257
I5
ag13
ag13
aa(lp1258
I5
ag19
ag19
aa(lp1259
I5
ag21
ag21
aaa(lp1260
(lp1261
I5
aVtT2
p1262
ag27
aa(lp1263
I5
aVtT1
p1264
ag9
aaa(lp1265
(lp1266
I5
ag15
aa(lp1267
I5
ag17
aa(lp1268
I5
ag23
aaa(lp1269
(lp1270
I5
ag15
ag15
aa(lp1271
I5
ag17
ag17
aa(lp1272
I5
ag23
ag23
aaa(lp1273
(lp1274
I5
aVcT2_C
p1275
aVcT1_c
p1276
ag11
aa(lp1277
I5
aVcT2_C
p1278
aVcT1_a
p1279
ag11
aa(lp1280
I5
aVcT2_C
p1281
aVcT1_b
p1282
ag11
aa(lp1283
I5
aVcT2_B
p1284
aVcT1_c
p1285
ag11
aa(lp1286
I5
aVcT2_B
p1287
aVcT1_a
p1288
ag11
aa(lp1289
I5
aVcT2_A
p1290
aVcT1_c
p1291
ag9
aa(lp1292
I5
aVcT2_A
p1293
aVcT1_a
p1294
ag9
aa(lp1295
I5
aVcT2_A
p1296
aVcT1_b
p1297
ag9
aa(lp1298
I5
aVcT2_C
p1299
aVcT1_c
p1300
ag9
aa(lp1301
I5
aVcT2_C
p1302
aVcT1_a
p1303
ag9
aa(lp1304
I5
aVcT2_B
p1305
aVcT1_c
p1306
ag9
aa(lp1307
I5
aVcT2_B
p1308
aVcT1_a
p1309
ag9
aa(lp1310
I5
aVcT2_B
p1311
aVcT1_b
p1312
ag9
aa(lp1313
I5
aVcT2_A
p1314
aVcT1_b
p1315
ag27
aa(lp1316
I5
aVcT2_A
p1317
aVcT1_c
p1318
ag27
aa(lp1319
I5
aVcT2_C
p1320
aVcT1_b
p1321
ag27
aa(lp1322
I5
aVcT2_B
p1323
aVcT1_b
p1324
ag27
aa(lp1325
I5
aVcT2_B
p1326
aVcT1_c
p1327
ag27
aaa(lp1328
(lp1329
I5
aVcT2_C
p1330
aVcT1_c
p1331
aV"<"
p1332
aa(lp1333
I5
aVcT2_C
p1334
aVcT1_a
p1335
aV"<"
p1336
aa(lp1337
I5
aVcT2_B
p1338
aVcT1_a
p1339
aV"<"
p1340
aa(lp1341
I5
aVcT2_A
p1342
aVcT1_a
p1343
aV"="
p1344
aa(lp1345
I5
aVcT2_A
p1346
aVcT1_c
p1347
aV">"
p1348
aa(lp1349
I5
aVcT2_A
p1350
aVcT1_b
p1351
aV">"
p1352
aa(lp1353
I5
aVcT2_B
p1354
aVcT1_b
p1355
aV">"
p1356
aa(lp1357
I5
aVcT2_B
p1358
aVcT1_c
p1359
aV"><"
p1360
aa(lp1361
I5
aVcT2_C
p1362
aVcT1_b
p1363
aV"!"
p1364
aaasba(ihelper
PossibleWorld
p1365
(dp1366
g3
I6
sg4
I0
sg5
(lp1367
(lp1368
(lp1369
I6
ag9
aa(lp1370
I6
ag11
aa(lp1371
I6
ag13
aa(lp1372
I6
ag15
aa(lp1373
I6
ag17
aa(lp1374
I6
ag19
aa(lp1375
I6
ag21
aa(lp1376
I6
ag23
aaa(lp1377
(lp1378
I6
aVcT2_C
p1379
ag27
ag27
aa(lp1380
I6
aVcT2_B
p1381
ag27
ag9
aa(lp1382
I6
aVcT1_c
p1383
ag9
ag27
aa(lp1384
I6
aVcT1_b
p1385
ag9
ag9
aaa(lp1386
(lp1387
I6
aVcT2_A
p1388
ag27
aa(lp1389
I6
aVcT1_a
p1390
ag9
aa(lp1391
I6
aVcT2_C
p1392
ag27
aa(lp1393
I6
aVcT2_B
p1394
ag27
aa(lp1395
I6
aVcT1_c
p1396
ag9
aa(lp1397
I6
aVcT1_b
p1398
ag9
aaa(lp1399
(lp1400
I6
ag9
ag27
ag9
aa(lp1401
I6
ag11
ag27
ag11
aa(lp1402
I6
ag13
ag27
ag27
aa(lp1403
I6
ag15
ag27
ag9
aa(lp1404
I6
ag17
ag27
ag11
aa(lp1405
I6
ag19
ag27
ag27
aa(lp1406
I6
ag21
ag27
ag9
aa(lp1407
I6
ag23
ag27
ag11
aa(lp1408
I6
ag9
ag9
ag27
aa(lp1409
I6
ag11
ag9
ag27
aa(lp1410
I6
ag13
ag9
ag9
aa(lp1411
I6
ag15
ag9
ag9
aa(lp1412
I6
ag17
ag9
ag9
aa(lp1413
I6
ag19
ag9
ag11
aa(lp1414
I6
ag21
ag9
ag11
aa(lp1415
I6
ag23
ag9
ag11
aaa(lp1416
(lp1417
I6
aVcT2_C
p1418
ag9
aa(lp1419
I6
aVcT2_C
p1420
ag15
aa(lp1421
I6
aVcT2_C
p1422
ag21
aa(lp1423
I6
aVcT2_B
p1424
ag11
aa(lp1425
I6
aVcT2_B
p1426
ag17
aa(lp1427
I6
aVcT2_B
p1428
ag23
aa(lp1429
I6
aVcT1_c
p1430
ag13
aa(lp1431
I6
aVcT1_c
p1432
ag15
aa(lp1433
I6
aVcT1_c
p1434
ag17
aa(lp1435
I6
aVcT1_b
p1436
ag19
aa(lp1437
I6
aVcT1_b
p1438
ag21
aa(lp1439
I6
aVcT1_b
p1440
ag23
aa(lp1441
I6
aVcT2_A
p1442
ag9
aa(lp1443
I6
aVcT2_A
p1444
ag11
aa(lp1445
I6
aVcT2_A
p1446
ag15
aa(lp1447
I6
aVcT2_A
p1448
ag17
aa(lp1449
I6
aVcT2_A
p1450
ag21
aa(lp1451
I6
aVcT2_A
p1452
ag23
aa(lp1453
I6
aVcT1_a
p1454
ag13
aa(lp1455
I6
aVcT1_a
p1456
ag15
aa(lp1457
I6
aVcT1_a
p1458
ag17
aa(lp1459
I6
aVcT1_a
p1460
ag19
aa(lp1461
I6
aVcT1_a
p1462
ag21
aa(lp1463
I6
aVcT1_a
p1464
ag23
aaa(lp1465
(lp1466
I6
aVcT2_C
p1467
ag11
aa(lp1468
I6
aVcT2_C
p1469
ag13
aa(lp1470
I6
aVcT2_C
p1471
ag17
aa(lp1472
I6
aVcT2_C
p1473
ag19
aa(lp1474
I6
aVcT2_C
p1475
ag23
aa(lp1476
I6
aVcT2_B
p1477
ag9
aa(lp1478
I6
aVcT2_B
p1479
ag13
aa(lp1480
I6
aVcT2_B
p1481
ag15
aa(lp1482
I6
aVcT2_B
p1483
ag19
aa(lp1484
I6
aVcT2_B
p1485
ag21
aa(lp1486
I6
aVcT1_c
p1487
ag9
aa(lp1488
I6
aVcT1_c
p1489
ag11
aa(lp1490
I6
aVcT1_c
p1491
ag19
aa(lp1492
I6
aVcT1_c
p1493
ag21
aa(lp1494
I6
aVcT1_c
p1495
ag23
aa(lp1496
I6
aVcT1_b
p1497
ag9
aa(lp1498
I6
aVcT1_b
p1499
ag11
aa(lp1500
I6
aVcT1_b
p1501
ag13
aa(lp1502
I6
aVcT1_b
p1503
ag15
aa(lp1504
I6
aVcT1_b
p1505
ag17
aa(lp1506
I6
aVcT2_A
p1507
ag13
aa(lp1508
I6
aVcT2_A
p1509
ag19
aa(lp1510
I6
aVcT1_a
p1511
ag9
aa(lp1512
I6
aVcT1_a
p1513
ag11
aaa(lp1514
(lp1515
I6
ag9
aa(lp1516
I6
ag11
aa(lp1517
I6
ag13
aa(lp1518
I6
ag19
aa(lp1519
I6
ag17
aaa(lp1520
(lp1521
I6
ag9
aVr8
p1522
aa(lp1523
I6
ag11
aVr8
p1524
aa(lp1525
I6
ag13
aVr8
p1526
aa(lp1527
I6
ag19
aVr8
p1528
aa(lp1529
I6
ag9
ag9
aa(lp1530
I6
ag11
ag11
aa(lp1531
I6
ag13
ag13
aa(lp1532
I6
ag19
ag19
aa(lp1533
I6
ag17
ag17
aaa(lp1534
(lp1535
I6
aVtT2
p1536
ag27
aa(lp1537
I6
aVtT1
p1538
ag9
aaa(lp1539
(lp1540
I6
ag15
aa(lp1541
I6
ag21
aa(lp1542
I6
ag23
aaa(lp1543
(lp1544
I6
ag15
ag15
aa(lp1545
I6
ag21
ag21
aa(lp1546
I6
ag23
ag23
aaa(lp1547
(lp1548
I6
aVcT2_C
p1549
aVcT1_a
p1550
ag11
aa(lp1551
I6
aVcT2_C
p1552
aVcT1_b
p1553
ag11
aa(lp1554
I6
aVcT2_B
p1555
aVcT1_c
p1556
ag11
aa(lp1557
I6
aVcT2_B
p1558
aVcT1_a
p1559
ag11
aa(lp1560
I6
aVcT2_B
p1561
aVcT1_b
p1562
ag11
aa(lp1563
I6
aVcT2_A
p1564
aVcT1_c
p1565
ag9
aa(lp1566
I6
aVcT2_A
p1567
aVcT1_a
p1568
ag9
aa(lp1569
I6
aVcT2_A
p1570
aVcT1_b
p1571
ag9
aa(lp1572
I6
aVcT2_C
p1573
aVcT1_c
p1574
ag9
aa(lp1575
I6
aVcT2_C
p1576
aVcT1_a
p1577
ag9
aa(lp1578
I6
aVcT2_C
p1579
aVcT1_b
p1580
ag9
aa(lp1581
I6
aVcT2_B
p1582
aVcT1_a
p1583
ag9
aa(lp1584
I6
aVcT2_B
p1585
aVcT1_b
p1586
ag9
aa(lp1587
I6
aVcT2_A
p1588
aVcT1_b
p1589
ag27
aa(lp1590
I6
aVcT2_A
p1591
aVcT1_c
p1592
ag27
aa(lp1593
I6
aVcT2_C
p1594
aVcT1_b
p1595
ag27
aa(lp1596
I6
aVcT2_C
p1597
aVcT1_c
p1598
ag27
aa(lp1599
I6
aVcT2_B
p1600
aVcT1_c
p1601
ag27
aaa(lp1602
(lp1603
I6
aVcT2_C
p1604
aVcT1_a
p1605
aV"<"
p1606
aa(lp1607
I6
aVcT2_B
p1608
aVcT1_a
p1609
aV"<"
p1610
aa(lp1611
I6
aVcT2_B
p1612
aVcT1_b
p1613
aV"<"
p1614
aa(lp1615
I6
aVcT2_A
p1616
aVcT1_a
p1617
aV"="
p1618
aa(lp1619
I6
aVcT2_A
p1620
aVcT1_c
p1621
aV">"
p1622
aa(lp1623
I6
aVcT2_A
p1624
aVcT1_b
p1625
aV">"
p1626
aa(lp1627
I6
aVcT2_C
p1628
aVcT1_c
p1629
aV">"
p1630
aa(lp1631
I6
aVcT2_C
p1632
aVcT1_b
p1633
aV"><"
p1634
aa(lp1635
I6
aVcT2_B
p1636
aVcT1_c
p1637
aV"!"
p1638
aaasba(ihelper
PossibleWorld
p1639
(dp1640
g3
I7
sg4
I0
sg5
(lp1641
(lp1642
(lp1643
I7
ag9
aa(lp1644
I7
ag11
aa(lp1645
I7
ag13
aa(lp1646
I7
ag15
aa(lp1647
I7
ag17
aa(lp1648
I7
ag19
aa(lp1649
I7
ag21
aa(lp1650
I7
ag23
aaa(lp1651
(lp1652
I7
aVcT2_C
p1653
ag27
ag27
aa(lp1654
I7
aVcT2_B
p1655
ag27
ag9
aa(lp1656
I7
aVcT1_c
p1657
ag9
ag27
aa(lp1658
I7
aVcT1_b
p1659
ag9
ag9
aaa(lp1660
(lp1661
I7
aVcT2_A
p1662
ag27
aa(lp1663
I7
aVcT1_a
p1664
ag9
aa(lp1665
I7
aVcT2_C
p1666
ag27
aa(lp1667
I7
aVcT2_B
p1668
ag27
aa(lp1669
I7
aVcT1_c
p1670
ag9
aa(lp1671
I7
aVcT1_b
p1672
ag9
aaa(lp1673
(lp1674
I7
ag9
ag27
ag9
aa(lp1675
I7
ag11
ag27
ag11
aa(lp1676
I7
ag13
ag27
ag27
aa(lp1677
I7
ag15
ag27
ag9
aa(lp1678
I7
ag17
ag27
ag11
aa(lp1679
I7
ag19
ag27
ag27
aa(lp1680
I7
ag21
ag27
ag9
aa(lp1681
I7
ag23
ag27
ag11
aa(lp1682
I7
ag9
ag9
ag27
aa(lp1683
I7
ag11
ag9
ag27
aa(lp1684
I7
ag13
ag9
ag9
aa(lp1685
I7
ag15
ag9
ag9
aa(lp1686
I7
ag17
ag9
ag9
aa(lp1687
I7
ag19
ag9
ag11
aa(lp1688
I7
ag21
ag9
ag11
aa(lp1689
I7
ag23
ag9
ag11
aaa(lp1690
(lp1691
I7
aVcT2_C
p1692
ag9
aa(lp1693
I7
aVcT2_C
p1694
ag15
aa(lp1695
I7
aVcT2_C
p1696
ag21
aa(lp1697
I7
aVcT2_B
p1698
ag11
aa(lp1699
I7
aVcT2_B
p1700
ag17
aa(lp1701
I7
aVcT2_B
p1702
ag23
aa(lp1703
I7
aVcT1_c
p1704
ag13
aa(lp1705
I7
aVcT1_c
p1706
ag15
aa(lp1707
I7
aVcT1_c
p1708
ag17
aa(lp1709
I7
aVcT1_b
p1710
ag19
aa(lp1711
I7
aVcT1_b
p1712
ag21
aa(lp1713
I7
aVcT1_b
p1714
ag23
aa(lp1715
I7
aVcT2_A
p1716
ag9
aa(lp1717
I7
aVcT2_A
p1718
ag11
aa(lp1719
I7
aVcT2_A
p1720
ag15
aa(lp1721
I7
aVcT2_A
p1722
ag17
aa(lp1723
I7
aVcT2_A
p1724
ag21
aa(lp1725
I7
aVcT2_A
p1726
ag23
aa(lp1727
I7
aVcT1_a
p1728
ag13
aa(lp1729
I7
aVcT1_a
p1730
ag15
aa(lp1731
I7
aVcT1_a
p1732
ag17
aa(lp1733
I7
aVcT1_a
p1734
ag19
aa(lp1735
I7
aVcT1_a
p1736
ag21
aa(lp1737
I7
aVcT1_a
p1738
ag23
aaa(lp1739
(lp1740
I7
aVcT2_C
p1741
ag11
aa(lp1742
I7
aVcT2_C
p1743
ag13
aa(lp1744
I7
aVcT2_C
p1745
ag17
aa(lp1746
I7
aVcT2_C
p1747
ag19
aa(lp1748
I7
aVcT2_C
p1749
ag23
aa(lp1750
I7
aVcT2_B
p1751
ag9
aa(lp1752
I7
aVcT2_B
p1753
ag13
aa(lp1754
I7
aVcT2_B
p1755
ag15
aa(lp1756
I7
aVcT2_B
p1757
ag19
aa(lp1758
I7
aVcT2_B
p1759
ag21
aa(lp1760
I7
aVcT1_c
p1761
ag9
aa(lp1762
I7
aVcT1_c
p1763
ag11
aa(lp1764
I7
aVcT1_c
p1765
ag19
aa(lp1766
I7
aVcT1_c
p1767
ag21
aa(lp1768
I7
aVcT1_c
p1769
ag23
aa(lp1770
I7
aVcT1_b
p1771
ag9
aa(lp1772
I7
aVcT1_b
p1773
ag11
aa(lp1774
I7
aVcT1_b
p1775
ag13
aa(lp1776
I7
aVcT1_b
p1777
ag15
aa(lp1778
I7
aVcT1_b
p1779
ag17
aa(lp1780
I7
aVcT2_A
p1781
ag13
aa(lp1782
I7
aVcT2_A
p1783
ag19
aa(lp1784
I7
aVcT1_a
p1785
ag9
aa(lp1786
I7
aVcT1_a
p1787
ag11
aaa(lp1788
(lp1789
I7
ag9
aa(lp1790
I7
ag11
aa(lp1791
I7
ag13
aa(lp1792
I7
ag19
aaa(lp1793
(lp1794
I7
ag9
aVr8
p1795
aa(lp1796
I7
ag11
aVr8
p1797
aa(lp1798
I7
ag13
aVr8
p1799
aa(lp1800
I7
ag19
aVr8
p1801
aa(lp1802
I7
ag9
ag9
aa(lp1803
I7
ag11
ag11
aa(lp1804
I7
ag13
ag13
aa(lp1805
I7
ag19
ag19
aaa(lp1806
(lp1807
I7
aVtT2
p1808
ag27
aa(lp1809
I7
aVtT1
p1810
ag9
aaa(lp1811
(lp1812
I7
ag15
aa(lp1813
I7
ag17
aa(lp1814
I7
ag21
aa(lp1815
I7
ag23
aaa(lp1816
(lp1817
I7
ag15
ag15
aa(lp1818
I7
ag17
ag17
aa(lp1819
I7
ag21
ag21
aa(lp1820
I7
ag23
ag23
aaa(lp1821
(lp1822
I7
aVcT2_C
p1823
aVcT1_c
p1824
ag11
aa(lp1825
I7
aVcT2_C
p1826
aVcT1_a
p1827
ag11
aa(lp1828
I7
aVcT2_C
p1829
aVcT1_b
p1830
ag11
aa(lp1831
I7
aVcT2_B
p1832
aVcT1_c
p1833
ag11
aa(lp1834
I7
aVcT2_B
p1835
aVcT1_a
p1836
ag11
aa(lp1837
I7
aVcT2_B
p1838
aVcT1_b
p1839
ag11
aa(lp1840
I7
aVcT2_A
p1841
aVcT1_c
p1842
ag9
aa(lp1843
I7
aVcT2_A
p1844
aVcT1_a
p1845
ag9
aa(lp1846
I7
aVcT2_A
p1847
aVcT1_b
p1848
ag9
aa(lp1849
I7
aVcT2_C
p1850
aVcT1_c
p1851
ag9
aa(lp1852
I7
aVcT2_C
p1853
aVcT1_a
p1854
ag9
aa(lp1855
I7
aVcT2_C
p1856
aVcT1_b
p1857
ag9
aa(lp1858
I7
aVcT2_B
p1859
aVcT1_c
p1860
ag9
aa(lp1861
I7
aVcT2_B
p1862
aVcT1_a
p1863
ag9
aa(lp1864
I7
aVcT2_B
p1865
aVcT1_b
p1866
ag9
aa(lp1867
I7
aVcT2_A
p1868
aVcT1_b
p1869
ag27
aa(lp1870
I7
aVcT2_A
p1871
aVcT1_c
p1872
ag27
aa(lp1873
I7
aVcT2_C
p1874
aVcT1_b
p1875
ag27
aa(lp1876
I7
aVcT2_C
p1877
aVcT1_c
p1878
ag27
aa(lp1879
I7
aVcT2_B
p1880
aVcT1_b
p1881
ag27
aa(lp1882
I7
aVcT2_B
p1883
aVcT1_c
p1884
ag27
aaa(lp1885
(lp1886
I7
aVcT2_C
p1887
aVcT1_a
p1888
aV"<"
p1889
aa(lp1890
I7
aVcT2_B
p1891
aVcT1_a
p1892
aV"<"
p1893
aa(lp1894
I7
aVcT2_A
p1895
aVcT1_a
p1896
aV"="
p1897
aa(lp1898
I7
aVcT2_A
p1899
aVcT1_c
p1900
aV">"
p1901
aa(lp1902
I7
aVcT2_A
p1903
aVcT1_b
p1904
aV">"
p1905
aa(lp1906
I7
aVcT2_C
p1907
aVcT1_c
p1908
aV"><"
p1909
aa(lp1910
I7
aVcT2_C
p1911
aVcT1_b
p1912
aV"><"
p1913
aa(lp1914
I7
aVcT2_B
p1915
aVcT1_c
p1916
aV"><"
p1917
aa(lp1918
I7
aVcT2_B
p1919
aVcT1_b
p1920
aV"><"
p1921
aaasba.