(lp0
(ihelper
Relation
p1
(dp2
S'arrity'
p3
I1
sS'relation_name'
p4
S'r_1'
p5
sS'r_id'
p6
I0
sba(ihelper
Relation
p7
(dp8
g3
I3
sg4
S'concept_3'
p9
sg6
I1
sba(ihelper
Relation
p10
(dp11
g3
I2
sg4
S'concept2_2'
p12
sg6
I2
sba(ihelper
Relation
p13
(dp14
g3
I3
sg4
S'bit_3'
p15
sg6
I3
sba(ihelper
Relation
p16
(dp17
g3
I2
sg4
S'in_2'
p18
sg6
I4
sba(ihelper
Relation
p19
(dp20
g3
I2
sg4
S'out_2'
p21
sg6
I5
sba(ihelper
Relation
p22
(dp23
g3
I1
sg4
S'irs_1'
p24
sg6
I6
sba(ihelper
Relation
p25
(dp26
g3
I2
sg4
S'ir_2'
p27
sg6
I7
sba(ihelper
Relation
p28
(dp29
g3
I2
sg4
S'tax_2'
p30
sg6
I8
sba(ihelper
Relation
p31
(dp32
g3
I1
sg4
S'vrs_1'
p33
sg6
I9
sba(ihelper
Relation
p34
(dp35
g3
I2
sg4
S'vr_2'
p36
sg6
I10
sba(ihelper
Relation
p37
(dp38
g3
I3
sg4
S'hint_3'
p39
sg6
I11
sba(ihelper
Relation
p40
(dp41
g3
I3
sg4
S'rel_3'
p42
sg6
I12
sba.