(lp0
(ihelper
PossibleWorld
p1
(dp2
S'pw_id'
p3
I1
sS'pw_soln'
p4
I0
sS'rls'
p5
(lp6
(lp7
(lp8
I1
aV4
p9
aV1
p10
aa(lp11
I1
aV6
p12
aV2
p13
aa(lp14
I1
aV8
p15
aV3
p16
aa(lp17
I1
ag13
ag9
aa(lp18
I1
aV7
p19
aV5
p20
aa(lp21
I1
ag10
ag12
aa(lp22
I1
ag16
ag19
aa(lp23
I1
ag20
ag15
aaasba(ihelper
PossibleWorld
p24
(dp25
g3
I2
sg4
I0
sg5
(lp26
(lp27
(lp28
I2
ag16
ag10
aa(lp29
I2
ag20
ag13
aa(lp30
I2
ag13
ag16
aa(lp31
I2
ag15
ag9
aa(lp32
I2
ag10
ag20
aa(lp33
I2
ag19
ag12
aa(lp34
I2
ag9
ag19
aa(lp35
I2
ag12
ag15
aaasba(ihelper
PossibleWorld
p36
(dp37
g3
I3
sg4
I0
sg5
(lp38
(lp39
(lp40
I3
ag20
ag10
aa(lp41
I3
ag16
ag13
aa(lp42
I3
ag10
ag16
aa(lp43
I3
ag19
ag9
aa(lp44
I3
ag13
ag20
aa(lp45
I3
ag15
ag12
aa(lp46
I3
ag12
ag19
aa(lp47
I3
ag9
ag15
aaasba(ihelper
PossibleWorld
p48
(dp49
g3
I4
sg4
I0
sg5
(lp50
(lp51
(lp52
I4
ag12
ag10
aa(lp53
I4
ag9
ag13
aa(lp54
I4
ag19
ag16
aa(lp55
I4
ag10
ag9
aa(lp56
I4
ag15
ag20
aa(lp57
I4
ag13
ag12
aa(lp58
I4
ag20
ag19
aa(lp59
I4
ag16
ag15
aaasba(ihelper
PossibleWorld
p60
(dp61
g3
I5
sg4
I0
sg5
(lp62
(lp63
(lp64
I5
ag20
ag10
aa(lp65
I5
ag16
ag13
aa(lp66
I5
ag10
ag16
aa(lp67
I5
ag12
ag9
aa(lp68
I5
ag15
ag20
aa(lp69
I5
ag13
ag12
aa(lp70
I5
ag9
ag19
aa(lp71
I5
ag19
ag15
aaasba(ihelper
PossibleWorld
p72
(dp73
g3
I6
sg4
I0
sg5
(lp74
(lp75
(lp76
I6
ag9
ag10
aa(lp77
I6
ag12
ag13
aa(lp78
I6
ag15
ag16
aa(lp79
I6
ag16
ag9
aa(lp80
I6
ag10
ag20
aa(lp81
I6
ag19
ag12
aa(lp82
I6
ag20
ag19
aa(lp83
I6
ag13
ag15
aaasba(ihelper
PossibleWorld
p84
(dp85
g3
I7
sg4
I0
sg5
(lp86
(lp87
(lp88
I7
ag20
ag10
aa(lp89
I7
ag19
ag13
aa(lp90
I7
ag10
ag16
aa(lp91
I7
ag16
ag9
aa(lp92
I7
ag15
ag20
aa(lp93
I7
ag12
ag12
aa(lp94
I7
ag9
ag19
aa(lp95
I7
ag13
ag15
aaasba(ihelper
PossibleWorld
p96
(dp97
g3
I8
sg4
I0
sg5
(lp98
(lp99
(lp100
I8
ag15
ag10
aa(lp101
I8
ag16
ag13
aa(lp102
I8
ag10
ag16
aa(lp103
I8
ag12
ag9
aa(lp104
I8
ag13
ag20
aa(lp105
I8
ag20
ag12
aa(lp106
I8
ag19
ag19
aa(lp107
I8
ag9
ag15
aaasba(ihelper
PossibleWorld
p108
(dp109
g3
I9
sg4
I0
sg5
(lp110
(lp111
(lp112
I9
ag9
ag10
aa(lp113
I9
ag19
ag13
aa(lp114
I9
ag16
ag16
aa(lp115
I9
ag15
ag9
aa(lp116
I9
ag13
ag20
aa(lp117
I9
ag20
ag12
aa(lp118
I9
ag10
ag19
aa(lp119
I9
ag12
ag15
aaasba(ihelper
PossibleWorld
p120
(dp121
g3
I10
sg4
I0
sg5
(lp122
(lp123
(lp124
I10
ag12
ag10
aa(lp125
I10
ag16
ag13
aa(lp126
I10
ag19
ag16
aa(lp127
I10
ag13
ag9
aa(lp128
I10
ag15
ag20
aa(lp129
I10
ag20
ag12
aa(lp130
I10
ag10
ag19
aa(lp131
I10
ag9
ag15
aaasba(ihelper
PossibleWorld
p132
(dp133
g3
I11
sg4
I0
sg5
(lp134
(lp135
(lp136
I11
ag19
ag10
aa(lp137
I11
ag16
ag13
aa(lp138
I11
ag10
ag16
aa(lp139
I11
ag12
ag9
aa(lp140
I11
ag15
ag20
aa(lp141
I11
ag20
ag12
aa(lp142
I11
ag13
ag19
aa(lp143
I11
ag9
ag15
aaasba(ihelper
PossibleWorld
p144
(dp145
g3
I12
sg4
I0
sg5
(lp146
(lp147
(lp148
I12
ag13
ag10
aa(lp149
I12
ag19
ag13
aa(lp150
I12
ag16
ag16
aa(lp151
I12
ag12
ag9
aa(lp152
I12
ag15
ag20
aa(lp153
I12
ag20
ag12
aa(lp154
I12
ag10
ag19
aa(lp155
I12
ag9
ag15
aaasba(ihelper
PossibleWorld
p156
(dp157
g3
I13
sg4
I0
sg5
(lp158
(lp159
(lp160
I13
ag13
ag10
aa(lp161
I13
ag12
ag13
aa(lp162
I13
ag15
ag16
aa(lp163
I13
ag16
ag9
aa(lp164
I13
ag10
ag20
aa(lp165
I13
ag9
ag12
aa(lp166
I13
ag19
ag19
aa(lp167
I13
ag20
ag15
aaasba(ihelper
PossibleWorld
p168
(dp169
g3
I14
sg4
I0
sg5
(lp170
(lp171
(lp172
I14
ag10
ag10
aa(lp173
I14
ag12
ag13
aa(lp174
I14
ag15
ag16
aa(lp175
I14
ag16
ag9
aa(lp176
I14
ag19
ag20
aa(lp177
I14
ag9
ag12
aa(lp178
I14
ag13
ag19
aa(lp179
I14
ag20
ag15
aaasba(ihelper
PossibleWorld
p180
(dp181
g3
I15
sg4
I0
sg5
(lp182
(lp183
(lp184
I15
ag16
ag10
aa(lp185
I15
ag12
ag13
aa(lp186
I15
ag13
ag16
aa(lp187
I15
ag19
ag9
aa(lp188
I15
ag10
ag20
aa(lp189
I15
ag9
ag12
aa(lp190
I15
ag15
ag19
aa(lp191
I15
ag20
ag15
aaasba(ihelper
PossibleWorld
p192
(dp193
g3
I16
sg4
I0
sg5
(lp194
(lp195
(lp196
I16
ag19
ag10
aa(lp197
I16
ag13
ag13
aa(lp198
I16
ag12
ag16
aa(lp199
I16
ag16
ag9
aa(lp200
I16
ag10
ag20
aa(lp201
I16
ag9
ag12
aa(lp202
I16
ag15
ag19
aa(lp203
I16
ag20
ag15
aaasba(ihelper
PossibleWorld
p204
(dp205
g3
I17
sg4
I0
sg5
(lp206
(lp207
(lp208
I17
ag20
ag10
aa(lp209
I17
ag13
ag13
aa(lp210
I17
ag12
ag16
aa(lp211
I17
ag10
ag9
aa(lp212
I17
ag19
ag20
aa(lp213
I17
ag9
ag12
aa(lp214
I17
ag15
ag19
aa(lp215
I17
ag16
ag15
aaasba(ihelper
PossibleWorld
p216
(dp217
g3
I18
sg4
I0
sg5
(lp218
(lp219
(lp220
I18
ag9
ag10
aa(lp221
I18
ag13
ag13
aa(lp222
I18
ag15
ag16
aa(lp223
I18
ag12
ag9
aa(lp224
I18
ag10
ag20
aa(lp225
I18
ag16
ag12
aa(lp226
I18
ag20
ag19
aa(lp227
I18
ag19
ag15
aaasba(ihelper
PossibleWorld
p228
(dp229
g3
I19
sg4
I0
sg5
(lp230
(lp231
(lp232
I19
ag10
ag10
aa(lp233
I19
ag19
ag13
aa(lp234
I19
ag20
ag16
aa(lp235
I19
ag15
ag9
aa(lp236
I19
ag13
ag20
aa(lp237
I19
ag9
ag12
aa(lp238
I19
ag12
ag19
aa(lp239
I19
ag16
ag15
aaasba(ihelper
PossibleWorld
p240
(dp241
g3
I20
sg4
I0
sg5
(lp242
(lp243
(lp244
I20
ag9
ag10
aa(lp245
I20
ag10
ag13
aa(lp246
I20
ag20
ag16
aa(lp247
I20
ag15
ag9
aa(lp248
I20
ag13
ag20
aa(lp249
I20
ag19
ag12
aa(lp250
I20
ag16
ag19
aa(lp251
I20
ag12
ag15
aaasba(ihelper
PossibleWorld
p252
(dp253
g3
I21
sg4
I0
sg5
(lp254
(lp255
(lp256
I21
ag15
ag10
aa(lp257
I21
ag13
ag13
aa(lp258
I21
ag20
ag16
aa(lp259
I21
ag16
ag9
aa(lp260
I21
ag10
ag20
aa(lp261
I21
ag19
ag12
aa(lp262
I21
ag9
ag19
aa(lp263
I21
ag12
ag15
aaasba(ihelper
PossibleWorld
p264
(dp265
g3
I22
sg4
I0
sg5
(lp266
(lp267
(lp268
I22
ag9
ag10
aa(lp269
I22
ag15
ag13
aa(lp270
I22
ag20
ag16
aa(lp271
I22
ag16
ag9
aa(lp272
I22
ag10
ag20
aa(lp273
I22
ag19
ag12
aa(lp274
I22
ag13
ag19
aa(lp275
I22
ag12
ag15
aaasba(ihelper
PossibleWorld
p276
(dp277
g3
I23
sg4
I0
sg5
(lp278
(lp279
(lp280
I23
ag9
ag10
aa(lp281
I23
ag19
ag13
aa(lp282
I23
ag20
ag16
aa(lp283
I23
ag16
ag9
aa(lp284
I23
ag10
ag20
aa(lp285
I23
ag12
ag12
aa(lp286
I23
ag15
ag19
aa(lp287
I23
ag13
ag15
aaasba(ihelper
PossibleWorld
p288
(dp289
g3
I24
sg4
I0
sg5
(lp290
(lp291
(lp292
I24
ag12
ag10
aa(lp293
I24
ag16
ag13
aa(lp294
I24
ag20
ag16
aa(lp295
I24
ag19
ag9
aa(lp296
I24
ag10
ag20
aa(lp297
I24
ag9
ag12
aa(lp298
I24
ag13
ag19
aa(lp299
I24
ag15
ag15
aaasba(ihelper
PossibleWorld
p300
(dp301
g3
I25
sg4
I0
sg5
(lp302
(lp303
(lp304
I25
ag12
ag10
aa(lp305
I25
ag16
ag13
aa(lp306
I25
ag20
ag16
aa(lp307
I25
ag15
ag9
aa(lp308
I25
ag10
ag20
aa(lp309
I25
ag9
ag12
aa(lp310
I25
ag13
ag19
aa(lp311
I25
ag19
ag15
aaasba(ihelper
PossibleWorld
p312
(dp313
g3
I26
sg4
I0
sg5
(lp314
(lp315
(lp316
I26
ag13
ag10
aa(lp317
I26
ag19
ag13
aa(lp318
I26
ag20
ag16
aa(lp319
I26
ag15
ag9
aa(lp320
I26
ag10
ag20
aa(lp321
I26
ag9
ag12
aa(lp322
I26
ag12
ag19
aa(lp323
I26
ag16
ag15
aaasba(ihelper
PossibleWorld
p324
(dp325
g3
I27
sg4
I0
sg5
(lp326
(lp327
(lp328
I27
ag12
ag10
aa(lp329
I27
ag10
ag13
aa(lp330
I27
ag20
ag16
aa(lp331
I27
ag13
ag9
aa(lp332
I27
ag15
ag20
aa(lp333
I27
ag16
ag12
aa(lp334
I27
ag19
ag19
aa(lp335
I27
ag9
ag15
aaasba(ihelper
PossibleWorld
p336
(dp337
g3
I28
sg4
I0
sg5
(lp338
(lp339
(lp340
I28
ag9
ag10
aa(lp341
I28
ag13
ag13
aa(lp342
I28
ag19
ag16
aa(lp343
I28
ag16
ag9
aa(lp344
I28
ag12
ag20
aa(lp345
I28
ag15
ag12
aa(lp346
I28
ag10
ag19
aa(lp347
I28
ag20
ag15
aaasba(ihelper
PossibleWorld
p348
(dp349
g3
I29
sg4
I0
sg5
(lp350
(lp351
(lp352
I29
ag9
ag10
aa(lp353
I29
ag13
ag13
aa(lp354
I29
ag19
ag16
aa(lp355
I29
ag16
ag9
aa(lp356
I29
ag12
ag20
aa(lp357
I29
ag15
ag12
aa(lp358
I29
ag20
ag19
aa(lp359
I29
ag10
ag15
aaasba(ihelper
PossibleWorld
p360
(dp361
g3
I30
sg4
I0
sg5
(lp362
(lp363
(lp364
I30
ag15
ag10
aa(lp365
I30
ag9
ag13
aa(lp366
I30
ag10
ag16
aa(lp367
I30
ag16
ag9
aa(lp368
I30
ag12
ag20
aa(lp369
I30
ag13
ag12
aa(lp370
I30
ag19
ag19
aa(lp371
I30
ag20
ag15
aaasba(ihelper
PossibleWorld
p372
(dp373
g3
I31
sg4
I0
sg5
(lp374
(lp375
(lp376
I31
ag9
ag10
aa(lp377
I31
ag15
ag13
aa(lp378
I31
ag10
ag16
aa(lp379
I31
ag16
ag9
aa(lp380
I31
ag12
ag20
aa(lp381
I31
ag13
ag12
aa(lp382
I31
ag19
ag19
aa(lp383
I31
ag20
ag15
aaasba(ihelper
PossibleWorld
p384
(dp385
g3
I32
sg4
I0
sg5
(lp386
(lp387
(lp388
I32
ag19
ag10
aa(lp389
I32
ag10
ag13
aa(lp390
I32
ag16
ag16
aa(lp391
I32
ag15
ag9
aa(lp392
I32
ag12
ag20
aa(lp393
I32
ag9
ag12
aa(lp394
I32
ag13
ag19
aa(lp395
I32
ag20
ag15
aaasba(ihelper
PossibleWorld
p396
(dp397
g3
I33
sg4
I0
sg5
(lp398
(lp399
(lp400
I33
ag16
ag10
aa(lp401
I33
ag19
ag13
aa(lp402
I33
ag13
ag16
aa(lp403
I33
ag15
ag9
aa(lp404
I33
ag12
ag20
aa(lp405
I33
ag9
ag12
aa(lp406
I33
ag10
ag19
aa(lp407
I33
ag20
ag15
aaasba(ihelper
PossibleWorld
p408
(dp409
g3
I34
sg4
I0
sg5
(lp410
(lp411
(lp412
I34
ag16
ag10
aa(lp413
I34
ag20
ag13
aa(lp414
I34
ag13
ag16
aa(lp415
I34
ag15
ag9
aa(lp416
I34
ag12
ag20
aa(lp417
I34
ag9
ag12
aa(lp418
I34
ag19
ag19
aa(lp419
I34
ag10
ag15
aaasba(ihelper
PossibleWorld
p420
(dp421
g3
I35
sg4
I0
sg5
(lp422
(lp423
(lp424
I35
ag19
ag10
aa(lp425
I35
ag20
ag13
aa(lp426
I35
ag16
ag16
aa(lp427
I35
ag10
ag9
aa(lp428
I35
ag12
ag20
aa(lp429
I35
ag15
ag12
aa(lp430
I35
ag13
ag19
aa(lp431
I35
ag9
ag15
aaasba(ihelper
PossibleWorld
p432
(dp433
g3
I36
sg4
I0
sg5
(lp434
(lp435
(lp436
I36
ag9
ag10
aa(lp437
I36
ag10
ag13
aa(lp438
I36
ag20
ag16
aa(lp439
I36
ag15
ag9
aa(lp440
I36
ag12
ag20
aa(lp441
I36
ag16
ag12
aa(lp442
I36
ag19
ag19
aa(lp443
I36
ag13
ag15
aaasba(ihelper
PossibleWorld
p444
(dp445
g3
I37
sg4
I0
sg5
(lp446
(lp447
(lp448
I37
ag19
ag10
aa(lp449
I37
ag9
ag13
aa(lp450
I37
ag13
ag16
aa(lp451
I37
ag15
ag9
aa(lp452
I37
ag12
ag20
aa(lp453
I37
ag10
ag12
aa(lp454
I37
ag16
ag19
aa(lp455
I37
ag20
ag15
aaasba(ihelper
PossibleWorld
p456
(dp457
g3
I38
sg4
I0
sg5
(lp458
(lp459
(lp460
I38
ag9
ag10
aa(lp461
I38
ag19
ag13
aa(lp462
I38
ag20
ag16
aa(lp463
I38
ag13
ag9
aa(lp464
I38
ag12
ag20
aa(lp465
I38
ag10
ag12
aa(lp466
I38
ag16
ag19
aa(lp467
I38
ag15
ag15
aaasba(ihelper
PossibleWorld
p468
(dp469
g3
I39
sg4
I0
sg5
(lp470
(lp471
(lp472
I39
ag9
ag10
aa(lp473
I39
ag13
ag13
aa(lp474
I39
ag20
ag16
aa(lp475
I39
ag15
ag9
aa(lp476
I39
ag12
ag20
aa(lp477
I39
ag10
ag12
aa(lp478
I39
ag16
ag19
aa(lp479
I39
ag19
ag15
aaasba(ihelper
PossibleWorld
p480
(dp481
g3
I40
sg4
I0
sg5
(lp482
(lp483
(lp484
I40
ag12
ag10
aa(lp485
I40
ag9
ag13
aa(lp486
I40
ag19
ag16
aa(lp487
I40
ag10
ag9
aa(lp488
I40
ag16
ag20
aa(lp489
I40
ag20
ag12
aa(lp490
I40
ag13
ag19
aa(lp491
I40
ag15
ag15
aaasba(ihelper
PossibleWorld
p492
(dp493
g3
I41
sg4
I0
sg5
(lp494
(lp495
(lp496
I41
ag13
ag10
aa(lp497
I41
ag15
ag13
aa(lp498
I41
ag12
ag16
aa(lp499
I41
ag10
ag9
aa(lp500
I41
ag16
ag20
aa(lp501
I41
ag20
ag12
aa(lp502
I41
ag19
ag19
aa(lp503
I41
ag9
ag15
aaasba(ihelper
PossibleWorld
p504
(dp505
g3
I42
sg4
I0
sg5
(lp506
(lp507
(lp508
I42
ag12
ag10
aa(lp509
I42
ag13
ag13
aa(lp510
I42
ag19
ag16
aa(lp511
I42
ag10
ag9
aa(lp512
I42
ag16
ag20
aa(lp513
I42
ag20
ag12
aa(lp514
I42
ag15
ag19
aa(lp515
I42
ag9
ag15
aaasba(ihelper
PossibleWorld
p516
(dp517
g3
I43
sg4
I0
sg5
(lp518
(lp519
(lp520
I43
ag13
ag10
aa(lp521
I43
ag20
ag13
aa(lp522
I43
ag19
ag16
aa(lp523
I43
ag10
ag9
aa(lp524
I43
ag16
ag20
aa(lp525
I43
ag15
ag12
aa(lp526
I43
ag12
ag19
aa(lp527
I43
ag9
ag15
aaasba(ihelper
PossibleWorld
p528
(dp529
g3
I44
sg4
I0
sg5
(lp530
(lp531
(lp532
I44
ag13
ag10
aa(lp533
I44
ag9
ag13
aa(lp534
I44
ag12
ag16
aa(lp535
I44
ag15
ag9
aa(lp536
I44
ag16
ag20
aa(lp537
I44
ag10
ag12
aa(lp538
I44
ag19
ag19
aa(lp539
I44
ag20
ag15
aaasba(ihelper
PossibleWorld
p540
(dp541
g3
I45
sg4
I0
sg5
(lp542
(lp543
(lp544
I45
ag10
ag10
aa(lp545
I45
ag20
ag13
aa(lp546
I45
ag15
ag16
aa(lp547
I45
ag12
ag9
aa(lp548
I45
ag16
ag20
aa(lp549
I45
ag19
ag12
aa(lp550
I45
ag13
ag19
aa(lp551
I45
ag9
ag15
aaasba(ihelper
PossibleWorld
p552
(dp553
g3
I46
sg4
I0
sg5
(lp554
(lp555
(lp556
I46
ag20
ag10
aa(lp557
I46
ag10
ag13
aa(lp558
I46
ag15
ag16
aa(lp559
I46
ag12
ag9
aa(lp560
I46
ag16
ag20
aa(lp561
I46
ag19
ag12
aa(lp562
I46
ag13
ag19
aa(lp563
I46
ag9
ag15
aaasba(ihelper
PossibleWorld
p564
(dp565
g3
I47
sg4
I0
sg5
(lp566
(lp567
(lp568
I47
ag20
ag10
aa(lp569
I47
ag19
ag13
aa(lp570
I47
ag13
ag16
aa(lp571
I47
ag12
ag9
aa(lp572
I47
ag16
ag20
aa(lp573
I47
ag10
ag12
aa(lp574
I47
ag9
ag19
aa(lp575
I47
ag15
ag15
aaasba(ihelper
PossibleWorld
p576
(dp577
g3
I48
sg4
I0
sg5
(lp578
(lp579
(lp580
I48
ag20
ag10
aa(lp581
I48
ag19
ag13
aa(lp582
I48
ag13
ag16
aa(lp583
I48
ag12
ag9
aa(lp584
I48
ag16
ag20
aa(lp585
I48
ag10
ag12
aa(lp586
I48
ag15
ag19
aa(lp587
I48
ag9
ag15
aaasba(ihelper
PossibleWorld
p588
(dp589
g3
I49
sg4
I0
sg5
(lp590
(lp591
(lp592
I49
ag16
ag10
aa(lp593
I49
ag12
ag13
aa(lp594
I49
ag9
ag16
aa(lp595
I49
ag10
ag9
aa(lp596
I49
ag15
ag20
aa(lp597
I49
ag20
ag12
aa(lp598
I49
ag19
ag19
aa(lp599
I49
ag13
ag15
aaasba(ihelper
PossibleWorld
p600
(dp601
g3
I50
sg4
I0
sg5
(lp602
(lp603
(lp604
I50
ag16
ag10
aa(lp605
I50
ag12
ag13
aa(lp606
I50
ag9
ag16
aa(lp607
I50
ag13
ag9
aa(lp608
I50
ag15
ag20
aa(lp609
I50
ag20
ag12
aa(lp610
I50
ag19
ag19
aa(lp611
I50
ag10
ag15
aaasba(ihelper
PossibleWorld
p612
(dp613
g3
I51
sg4
I0
sg5
(lp614
(lp615
(lp616
I51
ag20
ag10
aa(lp617
I51
ag10
ag13
aa(lp618
I51
ag9
ag16
aa(lp619
I51
ag12
ag9
aa(lp620
I51
ag15
ag20
aa(lp621
I51
ag13
ag12
aa(lp622
I51
ag19
ag19
aa(lp623
I51
ag16
ag15
aaasba(ihelper
PossibleWorld
p624
(dp625
g3
I52
sg4
I0
sg5
(lp626
(lp627
(lp628
I52
ag20
ag10
aa(lp629
I52
ag13
ag13
aa(lp630
I52
ag9
ag16
aa(lp631
I52
ag12
ag9
aa(lp632
I52
ag15
ag20
aa(lp633
I52
ag16
ag12
aa(lp634
I52
ag10
ag19
aa(lp635
I52
ag19
ag15
aaasba(ihelper
PossibleWorld
p636
(dp637
g3
I53
sg4
I0
sg5
(lp638
(lp639
(lp640
I53
ag10
ag10
aa(lp641
I53
ag19
ag13
aa(lp642
I53
ag9
ag16
aa(lp643
I53
ag12
ag9
aa(lp644
I53
ag15
ag20
aa(lp645
I53
ag13
ag12
aa(lp646
I53
ag20
ag19
aa(lp647
I53
ag16
ag15
aaasba(ihelper
PossibleWorld
p648
(dp649
g3
I54
sg4
I0
sg5
(lp650
(lp651
(lp652
I54
ag15
ag10
aa(lp653
I54
ag13
ag13
aa(lp654
I54
ag9
ag16
aa(lp655
I54
ag10
ag9
aa(lp656
I54
ag19
ag20
aa(lp657
I54
ag20
ag12
aa(lp658
I54
ag16
ag19
aa(lp659
I54
ag12
ag15
aaasba(ihelper
PossibleWorld
p660
(dp661
g3
I55
sg4
I0
sg5
(lp662
(lp663
(lp664
I55
ag19
ag10
aa(lp665
I55
ag13
ag13
aa(lp666
I55
ag9
ag16
aa(lp667
I55
ag10
ag9
aa(lp668
I55
ag15
ag20
aa(lp669
I55
ag20
ag12
aa(lp670
I55
ag16
ag19
aa(lp671
I55
ag12
ag15
aaasba(ihelper
PossibleWorld
p672
(dp673
g3
I56
sg4
I0
sg5
(lp674
(lp675
(lp676
I56
ag16
ag10
aa(lp677
I56
ag15
ag13
aa(lp678
I56
ag9
ag16
aa(lp679
I56
ag19
ag9
aa(lp680
I56
ag10
ag20
aa(lp681
I56
ag12
ag12
aa(lp682
I56
ag13
ag19
aa(lp683
I56
ag20
ag15
aaasba(ihelper
PossibleWorld
p684
(dp685
g3
I57
sg4
I0
sg5
(lp686
(lp687
(lp688
I57
ag20
ag10
aa(lp689
I57
ag15
ag13
aa(lp690
I57
ag9
ag16
aa(lp691
I57
ag10
ag9
aa(lp692
I57
ag16
ag20
aa(lp693
I57
ag12
ag12
aa(lp694
I57
ag13
ag19
aa(lp695
I57
ag19
ag15
aaasba(ihelper
PossibleWorld
p696
(dp697
g3
I58
sg4
I0
sg5
(lp698
(lp699
(lp700
I58
ag20
ag10
aa(lp701
I58
ag13
ag13
aa(lp702
I58
ag9
ag16
aa(lp703
I58
ag19
ag9
aa(lp704
I58
ag16
ag20
aa(lp705
I58
ag15
ag12
aa(lp706
I58
ag12
ag19
aa(lp707
I58
ag10
ag15
aaasba(ihelper
PossibleWorld
p708
(dp709
g3
I59
sg4
I0
sg5
(lp710
(lp711
(lp712
I59
ag20
ag10
aa(lp713
I59
ag19
ag13
aa(lp714
I59
ag9
ag16
aa(lp715
I59
ag10
ag9
aa(lp716
I59
ag16
ag20
aa(lp717
I59
ag15
ag12
aa(lp718
I59
ag12
ag19
aa(lp719
I59
ag13
ag15
aaasba(ihelper
PossibleWorld
p720
(dp721
g3
I60
sg4
I0
sg5
(lp722
(lp723
(lp724
I60
ag20
ag10
aa(lp725
I60
ag15
ag13
aa(lp726
I60
ag9
ag16
aa(lp727
I60
ag10
ag9
aa(lp728
I60
ag19
ag20
aa(lp729
I60
ag13
ag12
aa(lp730
I60
ag12
ag19
aa(lp731
I60
ag16
ag15
aaasba(ihelper
PossibleWorld
p732
(dp733
g3
I61
sg4
I0
sg5
(lp734
(lp735
(lp736
I61
ag9
ag10
aa(lp737
I61
ag12
ag13
aa(lp738
I61
ag10
ag16
aa(lp739
I61
ag20
ag9
aa(lp740
I61
ag13
ag20
aa(lp741
I61
ag15
ag12
aa(lp742
I61
ag16
ag19
aa(lp743
I61
ag19
ag15
aaasba(ihelper
PossibleWorld
p744
(dp745
g3
I62
sg4
I0
sg5
(lp746
(lp747
(lp748
I62
ag19
ag10
aa(lp749
I62
ag9
ag13
aa(lp750
I62
ag13
ag16
aa(lp751
I62
ag20
ag9
aa(lp752
I62
ag15
ag20
aa(lp753
I62
ag10
ag12
aa(lp754
I62
ag16
ag19
aa(lp755
I62
ag12
ag15
aaasba(ihelper
PossibleWorld
p756
(dp757
g3
I63
sg4
I0
sg5
(lp758
(lp759
(lp760
I63
ag9
ag10
aa(lp761
I63
ag13
ag13
aa(lp762
I63
ag15
ag16
aa(lp763
I63
ag20
ag9
aa(lp764
I63
ag19
ag20
aa(lp765
I63
ag10
ag12
aa(lp766
I63
ag16
ag19
aa(lp767
I63
ag12
ag15
aaasba(ihelper
PossibleWorld
p768
(dp769
g3
I64
sg4
I0
sg5
(lp770
(lp771
(lp772
I64
ag9
ag10
aa(lp773
I64
ag15
ag13
aa(lp774
I64
ag10
ag16
aa(lp775
I64
ag20
ag9
aa(lp776
I64
ag19
ag20
aa(lp777
I64
ag13
ag12
aa(lp778
I64
ag12
ag19
aa(lp779
I64
ag16
ag15
aaasba(ihelper
PossibleWorld
p780
(dp781
g3
I65
sg4
I0
sg5
(lp782
(lp783
(lp784
I65
ag16
ag10
aa(lp785
I65
ag12
ag13
aa(lp786
I65
ag13
ag16
aa(lp787
I65
ag20
ag9
aa(lp788
I65
ag15
ag20
aa(lp789
I65
ag10
ag12
aa(lp790
I65
ag19
ag19
aa(lp791
I65
ag9
ag15
aaasba(ihelper
PossibleWorld
p792
(dp793
g3
I66
sg4
I0
sg5
(lp794
(lp795
(lp796
I66
ag12
ag10
aa(lp797
I66
ag9
ag13
aa(lp798
I66
ag10
ag16
aa(lp799
I66
ag20
ag9
aa(lp800
I66
ag15
ag20
aa(lp801
I66
ag13
ag12
aa(lp802
I66
ag19
ag19
aa(lp803
I66
ag16
ag15
aaasba(ihelper
PossibleWorld
p804
(dp805
g3
I67
sg4
I0
sg5
(lp806
(lp807
(lp808
I67
ag9
ag10
aa(lp809
I67
ag13
ag13
aa(lp810
I67
ag19
ag16
aa(lp811
I67
ag20
ag9
aa(lp812
I67
ag10
ag20
aa(lp813
I67
ag15
ag12
aa(lp814
I67
ag12
ag19
aa(lp815
I67
ag16
ag15
aaasba(ihelper
PossibleWorld
p816
(dp817
g3
I68
sg4
I0
sg5
(lp818
(lp819
(lp820
I68
ag16
ag10
aa(lp821
I68
ag10
ag13
aa(lp822
I68
ag19
ag16
aa(lp823
I68
ag20
ag9
aa(lp824
I68
ag15
ag20
aa(lp825
I68
ag13
ag12
aa(lp826
I68
ag9
ag19
aa(lp827
I68
ag12
ag15
aaasba(ihelper
PossibleWorld
p828
(dp829
g3
I69
sg4
I0
sg5
(lp830
(lp831
(lp832
I69
ag16
ag10
aa(lp833
I69
ag19
ag13
aa(lp834
I69
ag13
ag16
aa(lp835
I69
ag15
ag9
aa(lp836
I69
ag20
ag20
aa(lp837
I69
ag10
ag12
aa(lp838
I69
ag9
ag19
aa(lp839
I69
ag12
ag15
aaasba(ihelper
PossibleWorld
p840
(dp841
g3
I70
sg4
I0
sg5
(lp842
(lp843
(lp844
I70
ag9
ag10
aa(lp845
I70
ag19
ag13
aa(lp846
I70
ag10
ag16
aa(lp847
I70
ag15
ag9
aa(lp848
I70
ag20
ag20
aa(lp849
I70
ag13
ag12
aa(lp850
I70
ag12
ag19
aa(lp851
I70
ag16
ag15
aaasba(ihelper
PossibleWorld
p852
(dp853
g3
I71
sg4
I0
sg5
(lp854
(lp855
(lp856
I71
ag12
ag10
aa(lp857
I71
ag16
ag13
aa(lp858
I71
ag10
ag16
aa(lp859
I71
ag19
ag9
aa(lp860
I71
ag20
ag20
aa(lp861
I71
ag15
ag12
aa(lp862
I71
ag13
ag19
aa(lp863
I71
ag9
ag15
aaasba(ihelper
PossibleWorld
p864
(dp865
g3
I72
sg4
I0
sg5
(lp866
(lp867
(lp868
I72
ag16
ag10
aa(lp869
I72
ag12
ag13
aa(lp870
I72
ag15
ag16
aa(lp871
I72
ag10
ag9
aa(lp872
I72
ag20
ag20
aa(lp873
I72
ag19
ag12
aa(lp874
I72
ag13
ag19
aa(lp875
I72
ag9
ag15
aaasba(ihelper
PossibleWorld
p876
(dp877
g3
I73
sg4
I0
sg5
(lp878
(lp879
(lp880
I73
ag12
ag10
aa(lp881
I73
ag16
ag13
aa(lp882
I73
ag10
ag16
aa(lp883
I73
ag15
ag9
aa(lp884
I73
ag20
ag20
aa(lp885
I73
ag13
ag12
aa(lp886
I73
ag9
ag19
aa(lp887
I73
ag19
ag15
aaasba(ihelper
PossibleWorld
p888
(dp889
g3
I74
sg4
I0
sg5
(lp890
(lp891
(lp892
I74
ag19
ag10
aa(lp893
I74
ag16
ag13
aa(lp894
I74
ag15
ag16
aa(lp895
I74
ag13
ag9
aa(lp896
I74
ag20
ag20
aa(lp897
I74
ag10
ag12
aa(lp898
I74
ag12
ag19
aa(lp899
I74
ag9
ag15
aaasba(ihelper
PossibleWorld
p900
(dp901
g3
I75
sg4
I0
sg5
(lp902
(lp903
(lp904
I75
ag12
ag10
aa(lp905
I75
ag9
ag13
aa(lp906
I75
ag13
ag16
aa(lp907
I75
ag15
ag9
aa(lp908
I75
ag20
ag20
aa(lp909
I75
ag19
ag12
aa(lp910
I75
ag10
ag19
aa(lp911
I75
ag16
ag15
aaasba(ihelper
PossibleWorld
p912
(dp913
g3
I76
sg4
I0
sg5
(lp914
(lp915
(lp916
I76
ag16
ag10
aa(lp917
I76
ag12
ag13
aa(lp918
I76
ag13
ag16
aa(lp919
I76
ag19
ag9
aa(lp920
I76
ag20
ag20
aa(lp921
I76
ag10
ag12
aa(lp922
I76
ag15
ag19
aa(lp923
I76
ag9
ag15
aaasba(ihelper
PossibleWorld
p924
(dp925
g3
I77
sg4
I0
sg5
(lp926
(lp927
(lp928
I77
ag12
ag10
aa(lp929
I77
ag13
ag13
aa(lp930
I77
ag19
ag16
aa(lp931
I77
ag10
ag9
aa(lp932
I77
ag9
ag20
aa(lp933
I77
ag15
ag12
aa(lp934
I77
ag20
ag19
aa(lp935
I77
ag16
ag15
aaasba(ihelper
PossibleWorld
p936
(dp937
g3
I78
sg4
I0
sg5
(lp938
(lp939
(lp940
I78
ag20
ag10
aa(lp941
I78
ag13
ag13
aa(lp942
I78
ag15
ag16
aa(lp943
I78
ag10
ag9
aa(lp944
I78
ag9
ag20
aa(lp945
I78
ag19
ag12
aa(lp946
I78
ag16
ag19
aa(lp947
I78
ag12
ag15
aaasba(ihelper
PossibleWorld
p948
(dp949
g3
I79
sg4
I0
sg5
(lp950
(lp951
(lp952
I79
ag12
ag10
aa(lp953
I79
ag16
ag13
aa(lp954
I79
ag19
ag16
aa(lp955
I79
ag13
ag9
aa(lp956
I79
ag9
ag20
aa(lp957
I79
ag15
ag12
aa(lp958
I79
ag10
ag19
aa(lp959
I79
ag20
ag15
aaasba(ihelper
PossibleWorld
p960
(dp961
g3
I80
sg4
I0
sg5
(lp962
(lp963
(lp964
I80
ag13
ag10
aa(lp965
I80
ag12
ag13
aa(lp966
I80
ag10
ag16
aa(lp967
I80
ag19
ag9
aa(lp968
I80
ag9
ag20
aa(lp969
I80
ag15
ag12
aa(lp970
I80
ag16
ag19
aa(lp971
I80
ag20
ag15
aaasba(ihelper
PossibleWorld
p972
(dp973
g3
I81
sg4
I0
sg5
(lp974
(lp975
(lp976
I81
ag16
ag10
aa(lp977
I81
ag12
ag13
aa(lp978
I81
ag15
ag16
aa(lp979
I81
ag10
ag9
aa(lp980
I81
ag9
ag20
aa(lp981
I81
ag19
ag12
aa(lp982
I81
ag20
ag19
aa(lp983
I81
ag13
ag15
aaasba(ihelper
PossibleWorld
p984
(dp985
g3
I82
sg4
I0
sg5
(lp986
(lp987
(lp988
I82
ag16
ag10
aa(lp989
I82
ag12
ag13
aa(lp990
I82
ag15
ag16
aa(lp991
I82
ag13
ag9
aa(lp992
I82
ag9
ag20
aa(lp993
I82
ag10
ag12
aa(lp994
I82
ag19
ag19
aa(lp995
I82
ag20
ag15
aaasba(ihelper
PossibleWorld
p996
(dp997
g3
I83
sg4
I0
sg5
(lp998
(lp999
(lp1000
I83
ag12
ag10
aa(lp1001
I83
ag16
ag13
aa(lp1002
I83
ag10
ag16
aa(lp1003
I83
ag15
ag9
aa(lp1004
I83
ag9
ag20
aa(lp1005
I83
ag13
ag12
aa(lp1006
I83
ag19
ag19
aa(lp1007
I83
ag20
ag15
aaasba(ihelper
PossibleWorld
p1008
(dp1009
g3
I84
sg4
I0
sg5
(lp1010
(lp1011
(lp1012
I84
ag16
ag10
aa(lp1013
I84
ag20
ag13
aa(lp1014
I84
ag19
ag16
aa(lp1015
I84
ag10
ag9
aa(lp1016
I84
ag9
ag20
aa(lp1017
I84
ag13
ag12
aa(lp1018
I84
ag15
ag19
aa(lp1019
I84
ag12
ag15
aaasba(ihelper
PossibleWorld
p1020
(dp1021
g3
I85
sg4
I0
sg5
(lp1022
(lp1023
(lp1024
I85
ag20
ag10
aa(lp1025
I85
ag19
ag13
aa(lp1026
I85
ag10
ag16
aa(lp1027
I85
ag9
ag9
aa(lp1028
I85
ag13
ag20
aa(lp1029
I85
ag15
ag12
aa(lp1030
I85
ag12
ag19
aa(lp1031
I85
ag16
ag15
aaasba(ihelper
PossibleWorld
p1032
(dp1033
g3
I86
sg4
I0
sg5
(lp1034
(lp1035
(lp1036
I86
ag20
ag10
aa(lp1037
I86
ag19
ag13
aa(lp1038
I86
ag13
ag16
aa(lp1039
I86
ag9
ag9
aa(lp1040
I86
ag15
ag20
aa(lp1041
I86
ag10
ag12
aa(lp1042
I86
ag16
ag19
aa(lp1043
I86
ag12
ag15
aaasba(ihelper
PossibleWorld
p1044
(dp1045
g3
I87
sg4
I0
sg5
(lp1046
(lp1047
(lp1048
I87
ag20
ag10
aa(lp1049
I87
ag16
ag13
aa(lp1050
I87
ag15
ag16
aa(lp1051
I87
ag9
ag9
aa(lp1052
I87
ag19
ag20
aa(lp1053
I87
ag10
ag12
aa(lp1054
I87
ag12
ag19
aa(lp1055
I87
ag13
ag15
aaasba(ihelper
PossibleWorld
p1056
(dp1057
g3
I88
sg4
I0
sg5
(lp1058
(lp1059
(lp1060
I88
ag13
ag10
aa(lp1061
I88
ag20
ag13
aa(lp1062
I88
ag19
ag16
aa(lp1063
I88
ag9
ag9
aa(lp1064
I88
ag10
ag20
aa(lp1065
I88
ag15
ag12
aa(lp1066
I88
ag12
ag19
aa(lp1067
I88
ag16
ag15
aaasba(ihelper
PossibleWorld
p1068
(dp1069
g3
I89
sg4
I0
sg5
(lp1070
(lp1071
(lp1072
I89
ag12
ag10
aa(lp1073
I89
ag16
ag13
aa(lp1074
I89
ag19
ag16
aa(lp1075
I89
ag9
ag9
aa(lp1076
I89
ag10
ag20
aa(lp1077
I89
ag15
ag12
aa(lp1078
I89
ag13
ag19
aa(lp1079
I89
ag20
ag15
aaasba(ihelper
PossibleWorld
p1080
(dp1081
g3
I90
sg4
I0
sg5
(lp1082
(lp1083
(lp1084
I90
ag12
ag10
aa(lp1085
I90
ag15
ag13
aa(lp1086
I90
ag13
ag16
aa(lp1087
I90
ag9
ag9
aa(lp1088
I90
ag10
ag20
aa(lp1089
I90
ag19
ag12
aa(lp1090
I90
ag20
ag19
aa(lp1091
I90
ag16
ag15
aaasba(ihelper
PossibleWorld
p1092
(dp1093
g3
I91
sg4
I0
sg5
(lp1094
(lp1095
(lp1096
I91
ag16
ag10
aa(lp1097
I91
ag20
ag13
aa(lp1098
I91
ag15
ag16
aa(lp1099
I91
ag9
ag9
aa(lp1100
I91
ag10
ag20
aa(lp1101
I91
ag19
ag12
aa(lp1102
I91
ag13
ag19
aa(lp1103
I91
ag12
ag15
aaasba(ihelper
PossibleWorld
p1104
(dp1105
g3
I92
sg4
I0
sg5
(lp1106
(lp1107
(lp1108
I92
ag20
ag10
aa(lp1109
I92
ag10
ag13
aa(lp1110
I92
ag15
ag16
aa(lp1111
I92
ag9
ag9
aa(lp1112
I92
ag13
ag20
aa(lp1113
I92
ag19
ag12
aa(lp1114
I92
ag16
ag19
aa(lp1115
I92
ag12
ag15
aaasba.