(lp0
ccopy_reg
_reconstructor
p1
(cpandas.core.frame
DataFrame
p2
c__builtin__
object
p3
Ntp4
Rp5
(dp6
S'_metadata'
p7
(lp8
sS'_typ'
p9
S'dataframe'
p10
sS'_data'
p11
g1
(cpandas.core.internals
BlockManager
p12
g3
Ntp13
Rp14
((lp15
cpandas.core.indexes.base
_new_Index
p16
(cpandas.core.indexes.base
Index
p17
(dp18
S'data'
p19
cnumpy.core.multiarray
_reconstruct
p20
(cnumpy
ndarray
p21
(I0
tp22
S'b'
p23
tp24
Rp25
(I1
(I2
tp26
cnumpy
dtype
p27
(S'O8'
p28
I0
I1
tp29
Rp30
(I3
S'|'
p31
NNNI-1
I-1
I63
tp32
bI00
(lp33
S'pw'
p34
aS'x1'
p35
atp36
bsS'name'
p37
Nstp38
Rp39
ag16
(cpandas.core.indexes.range
RangeIndex
p40
(dp41
S'start'
p42
I0
sS'step'
p43
I1
sS'stop'
p44
I5
sg37
Nstp45
Rp46
a(lp47
g20
(g21
(I0
tp48
g23
tp49
Rp50
(I1
(I1
I5
tp51
g27
(S'i8'
p52
I0
I1
tp53
Rp54
(I3
S'<'
p55
NNNI-1
I-1
I0
tp56
bI00
S'\x01\x00\x00\x00\x00\x00\x00\x00\x02\x00\x00\x00\x00\x00\x00\x00\x03\x00\x00\x00\x00\x00\x00\x00\x04\x00\x00\x00\x00\x00\x00\x00\x05\x00\x00\x00\x00\x00\x00\x00'
p57
tp58
bag20
(g21
(I0
tp59
g23
tp60
Rp61
(I1
(I1
I5
tp62
g30
I00
(lp63
V0
p64
aV2
p65
ag65
aV7
p66
aV11
p67
atp68
ba(lp69
g16
(g17
(dp70
g19
g20
(g21
(I0
tp71
g23
tp72
Rp73
(I1
(I1
tp74
g30
I00
(lp75
g34
atp76
bsg37
Nstp77
Rp78
ag16
(g17
(dp79
g19
g20
(g21
(I0
tp80
g23
tp81
Rp82
(I1
(I1
tp83
g30
I00
(lp84
g35
atp85
bsg37
Nstp86
Rp87
a(dp88
S'0.14.1'
p89
(dp90
S'axes'
p91
g15
sS'blocks'
p92
(lp93
(dp94
S'mgr_locs'
p95
c__builtin__
slice
p96
(I0
I1
I1
tp97
Rp98
sS'values'
p99
g50
sa(dp100
g95
g96
(I1
I2
I1
tp101
Rp102
sg99
g61
sasstp103
bsbag1
(g2
g3
Ntp104
Rp105
(dp106
g7
g8
sg9
g10
sg11
g1
(g12
g3
Ntp107
Rp108
((lp109
g16
(g17
(dp110
g19
g20
(g21
(I0
tp111
g23
tp112
Rp113
(I1
(I2
tp114
g30
I00
(lp115
g34
aS'x1'
p116
atp117
bsg37
Nstp118
Rp119
ag16
(g40
(dp120
g42
I0
sg43
I1
sg44
I7
sg37
Nstp121
Rp122
a(lp123
g20
(g21
(I0
tp124
g23
tp125
Rp126
(I1
(I1
I7
tp127
g54
I00
S'\x02\x00\x00\x00\x00\x00\x00\x00\x03\x00\x00\x00\x00\x00\x00\x00\x03\x00\x00\x00\x00\x00\x00\x00\x04\x00\x00\x00\x00\x00\x00\x00\x04\x00\x00\x00\x00\x00\x00\x00\x05\x00\x00\x00\x00\x00\x00\x00\x05\x00\x00\x00\x00\x00\x00\x00'
p128
tp129
bag20
(g21
(I0
tp130
g23
tp131
Rp132
(I1
(I1
I7
tp133
g30
I00
(lp134
V4
p135
ag135
aV5
p136
ag135
aV3
p137
ag65
ag137
atp138
ba(lp139
g16
(g17
(dp140
g19
g20
(g21
(I0
tp141
g23
tp142
Rp143
(I1
(I1
tp144
g30
I00
(lp145
g34
atp146
bsg37
Nstp147
Rp148
ag16
(g17
(dp149
g19
g20
(g21
(I0
tp150
g23
tp151
Rp152
(I1
(I1
tp153
g30
I00
(lp154
g116
atp155
bsg37
Nstp156
Rp157
a(dp158
g89
(dp159
g91
g109
sg92
(lp160
(dp161
g95
g96
(I0
I1
I1
tp162
Rp163
sg99
g126
sa(dp164
g95
g96
(I1
I2
I1
tp165
Rp166
sg99
g132
sasstp167
bsba.