(lp0
(ihelper
PossibleWorld
p1
(dp2
S'pw_id'
p3
I1
sS'pw_soln'
p4
F0.0
sS'rls'
p5
(lp6
(lp7
(lp8
I1
aV0
p9
aaasba(ihelper
PossibleWorld
p10
(dp11
g3
I2
sg4
F-2.0
sg5
(lp12
(lp13
(lp14
I2
aV2
p15
aaa(lp16
(lp17
I2
aV4
p18
aaasba(ihelper
PossibleWorld
p19
(dp20
g3
I3
sg4
F-4.0
sg5
(lp21
(lp22
(lp23
I3
ag15
aaa(lp24
(lp25
I3
ag18
aa(lp26
I3
aV5
p27
aaasba(ihelper
PossibleWorld
p28
(dp29
g3
I4
sg4
F-7.0
sg5
(lp30
(lp31
(lp32
I4
aV7
p33
aaa(lp34
(lp35
I4
ag18
aa(lp36
I4
aV3
p37
aaasba(ihelper
PossibleWorld
p38
(dp39
g3
I5
sg4
F-11.0
sg5
(lp40
(lp41
(lp42
I5
aV11
p43
aaa(lp44
(lp45
I5
ag15
aa(lp46
I5
ag37
aaasba.