(lp0
(ihelper
PossibleWorld
p1
(dp2
S'pw_id'
p3
I1
sS'pw_soln'
p4
I0
sS'rls'
p5
(lp6
(lp7
(lp8
I1
aVcCEN_USA
p9
aVnNDC_USA
p10
aa(lp11
I1
aVcCEN_Midwest
p12
aVnNDC_Midwest
p13
aa(lp14
I1
aVnNDC_Midwest
p15
aVcCEN_Midwest
p16
aa(lp17
I1
aVnNDC_USA
p18
aVcCEN_USA
p19
aa(lp20
I1
aVnNDC_USA
p21
aVnNDC_USA
p22
aa(lp23
I1
aVcCEN_USA
p24
aVcCEN_USA
p25
aa(lp26
I1
aVnNDC_West
p27
aVnNDC_West
p28
aa(lp29
I1
aVnNDC_Southwest
p30
aVnNDC_Southwest
p31
aa(lp32
I1
aVnNDC_Southeast
p33
aVnNDC_Southeast
p34
aa(lp35
I1
aVnNDC_Northeast
p36
aVnNDC_Northeast
p37
aa(lp38
I1
aVnNDC_Midwest
p39
aVnNDC_Midwest
p40
aa(lp41
I1
aVcCEN_West
p42
aVcCEN_West
p43
aa(lp44
I1
aVcCEN_South
p45
aVcCEN_South
p46
aa(lp47
I1
aVcCEN_Midwest
p48
aVcCEN_Midwest
p49
aa(lp50
I1
aVcCEN_Northeast
p51
aVcCEN_Northeast
p52
aaa(lp53
(lp54
I1
aVcCEN_West
p55
aVnNDC_Northeast
p56
aa(lp57
I1
aVcCEN_Midwest
p58
aVcCEN_Northeast
p59
aa(lp60
I1
aVcCEN_South
p61
aVcCEN_Northeast
p62
aa(lp63
I1
aVcCEN_West
p64
aVcCEN_Northeast
p65
aa(lp66
I1
aVcCEN_Northeast
p67
aVcCEN_Midwest
p68
aa(lp69
I1
aVcCEN_South
p70
aVcCEN_Midwest
p71
aa(lp72
I1
aVcCEN_West
p73
aVcCEN_Midwest
p74
aa(lp75
I1
aVcCEN_Northeast
p76
aVcCEN_South
p77
aa(lp78
I1
aVcCEN_Midwest
p79
aVcCEN_South
p80
aa(lp81
I1
aVcCEN_West
p82
aVcCEN_South
p83
aa(lp84
I1
aVcCEN_Northeast
p85
aVcCEN_West
p86
aa(lp87
I1
aVcCEN_Midwest
p88
aVcCEN_West
p89
aa(lp90
I1
aVcCEN_South
p91
aVcCEN_West
p92
aa(lp93
I1
aVnNDC_Northeast
p94
aVnNDC_Midwest
p95
aa(lp96
I1
aVnNDC_Southeast
p97
aVnNDC_Midwest
p98
aa(lp99
I1
aVnNDC_Southwest
p100
aVnNDC_Midwest
p101
aa(lp102
I1
aVnNDC_West
p103
aVnNDC_Midwest
p104
aa(lp105
I1
aVnNDC_Midwest
p106
aVnNDC_Northeast
p107
aa(lp108
I1
aVnNDC_Southeast
p109
aVnNDC_Northeast
p110
aa(lp111
I1
aVnNDC_Southwest
p112
aVnNDC_Northeast
p113
aa(lp114
I1
aVnNDC_West
p115
aVnNDC_Northeast
p116
aa(lp117
I1
aVnNDC_Midwest
p118
aVnNDC_Southeast
p119
aa(lp120
I1
aVnNDC_Northeast
p121
aVnNDC_Southeast
p122
aa(lp123
I1
aVnNDC_Southwest
p124
aVnNDC_Southeast
p125
aa(lp126
I1
aVnNDC_West
p127
aVnNDC_Southeast
p128
aa(lp129
I1
aVnNDC_Midwest
p130
aVnNDC_Southwest
p131
aa(lp132
I1
aVnNDC_Northeast
p133
aVnNDC_Southwest
p134
aa(lp135
I1
aVnNDC_Southeast
p136
aVnNDC_Southwest
p137
aa(lp138
I1
aVnNDC_West
p139
aVnNDC_Southwest
p140
aa(lp141
I1
aVnNDC_Midwest
p142
aVnNDC_West
p143
aa(lp144
I1
aVnNDC_Northeast
p145
aVnNDC_West
p146
aa(lp147
I1
aVnNDC_Southeast
p148
aVnNDC_West
p149
aa(lp150
I1
aVnNDC_Southwest
p151
aVnNDC_West
p152
aa(lp153
I1
aVnNDC_Northeast
p154
aVcCEN_West
p155
aa(lp156
I1
aVcCEN_Northeast
p157
aVnNDC_West
p158
aa(lp159
I1
aVcCEN_Northeast
p160
aVnNDC_Southwest
p161
aa(lp162
I1
aVcCEN_Northeast
p163
aVnNDC_Southeast
p164
aa(lp165
I1
aVcCEN_Northeast
p166
aVnNDC_Midwest
p167
aa(lp168
I1
aVcCEN_South
p169
aVnNDC_Midwest
p170
aa(lp171
I1
aVcCEN_West
p172
aVnNDC_Midwest
p173
aa(lp174
I1
aVcCEN_Midwest
p175
aVnNDC_West
p176
aa(lp177
I1
aVcCEN_Midwest
p178
aVnNDC_Southwest
p179
aa(lp180
I1
aVcCEN_Midwest
p181
aVnNDC_Southeast
p182
aa(lp183
I1
aVcCEN_Midwest
p184
aVnNDC_Northeast
p185
aa(lp186
I1
aVnNDC_Northeast
p187
aVcCEN_Midwest
p188
aa(lp189
I1
aVnNDC_Southeast
p190
aVcCEN_Midwest
p191
aa(lp192
I1
aVnNDC_Southwest
p193
aVcCEN_Midwest
p194
aa(lp195
I1
aVnNDC_West
p196
aVcCEN_Midwest
p197
aa(lp198
I1
aVnNDC_Midwest
p199
aVcCEN_West
p200
aa(lp201
I1
aVnNDC_Midwest
p202
aVcCEN_South
p203
aa(lp204
I1
aVnNDC_Midwest
p205
aVcCEN_Northeast
p206
aa(lp207
I1
aVnNDC_Southeast
p208
aVcCEN_Northeast
p209
aa(lp210
I1
aVnNDC_Southwest
p211
aVcCEN_Northeast
p212
aa(lp213
I1
aVnNDC_West
p214
aVcCEN_Northeast
p215
aa(lp216
I1
aVnNDC_West
p217
aVcCEN_South
p218
aa(lp219
I1
aVcCEN_South
p220
aVnNDC_West
p221
aa(lp222
I1
aVcCEN_South
p223
aVnNDC_Southeast
p224
aa(lp225
I1
aVnNDC_Southeast
p226
aVcCEN_South
p227
aa(lp228
I1
aVcCEN_South
p229
aVnNDC_Northeast
p230
aa(lp231
I1
aVnNDC_Northeast
p232
aVcCEN_South
p233
aa(lp234
I1
aVnNDC_Southwest
p235
aVcCEN_West
p236
aa(lp237
I1
aVcCEN_West
p238
aVnNDC_Southwest
p239
aaa(lp240
(lp241
I1
aVcCEN_Northeast
p242
aVnNDC_Northeast
p243
aa(lp244
I1
aVcCEN_Northeast
p245
aVcCEN_USA
p246
aa(lp247
I1
aVcCEN_Midwest
p248
aVcCEN_USA
p249
aa(lp250
I1
aVcCEN_South
p251
aVcCEN_USA
p252
aa(lp253
I1
aVcCEN_West
p254
aVcCEN_USA
p255
aa(lp256
I1
aVnNDC_Midwest
p257
aVnNDC_USA
p258
aa(lp259
I1
aVnNDC_Northeast
p260
aVnNDC_USA
p261
aa(lp262
I1
aVnNDC_Southeast
p263
aVnNDC_USA
p264
aa(lp265
I1
aVnNDC_Southwest
p266
aVnNDC_USA
p267
aa(lp268
I1
aVnNDC_West
p269
aVnNDC_USA
p270
aa(lp271
I1
aVnNDC_West
p272
aVcCEN_West
p273
aa(lp274
I1
aVcCEN_Northeast
p275
aVnNDC_USA
p276
aa(lp277
I1
aVcCEN_Midwest
p278
aVnNDC_USA
p279
aa(lp280
I1
aVcCEN_South
p281
aVnNDC_USA
p282
aa(lp283
I1
aVcCEN_West
p284
aVnNDC_USA
p285
aa(lp286
I1
aVnNDC_West
p287
aVcCEN_USA
p288
aa(lp289
I1
aVnNDC_Southwest
p290
aVcCEN_USA
p291
aa(lp292
I1
aVnNDC_Southeast
p293
aVcCEN_USA
p294
aa(lp295
I1
aVnNDC_Northeast
p296
aVcCEN_USA
p297
aa(lp298
I1
aVnNDC_Midwest
p299
aVcCEN_USA
p300
aa(lp301
I1
aVnNDC_Southeast
p302
aVcCEN_West
p303
aaa(lp304
(lp305
I1
aVcCEN_West
p306
aVnNDC_West
p307
aa(lp308
I1
aVnNDC_USA
p309
aVnNDC_West
p310
aa(lp311
I1
aVnNDC_USA
p312
aVnNDC_Southwest
p313
aa(lp314
I1
aVnNDC_USA
p315
aVnNDC_Southeast
p316
aa(lp317
I1
aVnNDC_USA
p318
aVnNDC_Northeast
p319
aa(lp320
I1
aVnNDC_USA
p321
aVnNDC_Midwest
p322
aa(lp323
I1
aVcCEN_USA
p324
aVcCEN_West
p325
aa(lp326
I1
aVcCEN_USA
p327
aVcCEN_South
p328
aa(lp329
I1
aVcCEN_USA
p330
aVcCEN_Midwest
p331
aa(lp332
I1
aVcCEN_USA
p333
aVcCEN_Northeast
p334
aa(lp335
I1
aVnNDC_Northeast
p336
aVcCEN_Northeast
p337
aa(lp338
I1
aVnNDC_USA
p339
aVcCEN_West
p340
aa(lp341
I1
aVnNDC_USA
p342
aVcCEN_South
p343
aa(lp344
I1
aVnNDC_USA
p345
aVcCEN_Midwest
p346
aa(lp347
I1
aVnNDC_USA
p348
aVcCEN_Northeast
p349
aa(lp350
I1
aVcCEN_USA
p351
aVnNDC_West
p352
aa(lp353
I1
aVcCEN_USA
p354
aVnNDC_Midwest
p355
aa(lp356
I1
aVcCEN_USA
p357
aVnNDC_Northeast
p358
aa(lp359
I1
aVcCEN_USA
p360
aVnNDC_Southeast
p361
aa(lp362
I1
aVcCEN_USA
p363
aVnNDC_Southwest
p364
aa(lp365
I1
aVcCEN_West
p366
aVnNDC_Southeast
p367
aaa(lp368
(lp369
I1
aVcCEN_South
p370
aVnNDC_Southwest
p371
aa(lp372
I1
aVnNDC_Southwest
p373
aVcCEN_South
p374
aaa(lp375
(lp376
I1
aVcCEN_Northeast
p377
aa(lp378
I1
aVcCEN_Midwest
p379
aa(lp380
I1
aVcCEN_South
p381
aa(lp382
I1
aVcCEN_West
p383
aa(lp384
I1
aVnNDC_Midwest
p385
aa(lp386
I1
aVnNDC_Northeast
p387
aa(lp388
I1
aVnNDC_Southeast
p389
aa(lp390
I1
aVnNDC_Southwest
p391
aa(lp392
I1
aVnNDC_West
p393
aa(lp394
I1
aVcCEN_USA
p395
aa(lp396
I1
aVnNDC_USA
p397
aaa(lp398
(lp399
I1
aVcCEN_USA
p400
aVcCEN_Northeast
p401
aa(lp402
I1
aVcCEN_USA
p403
aVcCEN_Midwest
p404
aa(lp405
I1
aVcCEN_USA
p406
aVcCEN_South
p407
aa(lp408
I1
aVcCEN_USA
p409
aVcCEN_West
p410
aa(lp411
I1
aVnNDC_USA
p412
aVnNDC_Midwest
p413
aa(lp414
I1
aVnNDC_USA
p415
aVnNDC_Northeast
p416
aa(lp417
I1
aVnNDC_USA
p418
aVnNDC_Southeast
p419
aa(lp420
I1
aVnNDC_USA
p421
aVnNDC_Southwest
p422
aa(lp423
I1
aVnNDC_USA
p424
aVnNDC_West
p425
aaasba(ihelper
PossibleWorld
p426
(dp427
g3
I2
sg4
I0
sg5
(lp428
(lp429
(lp430
I2
aVcCEN_USA
p431
aVnNDC_USA
p432
aa(lp433
I2
aVcCEN_Midwest
p434
aVnNDC_Midwest
p435
aa(lp436
I2
aVnNDC_Midwest
p437
aVcCEN_Midwest
p438
aa(lp439
I2
aVnNDC_USA
p440
aVcCEN_USA
p441
aa(lp442
I2
aVnNDC_USA
p443
aVnNDC_USA
p444
aa(lp445
I2
aVcCEN_USA
p446
aVcCEN_USA
p447
aa(lp448
I2
aVnNDC_West
p449
aVnNDC_West
p450
aa(lp451
I2
aVnNDC_Southwest
p452
aVnNDC_Southwest
p453
aa(lp454
I2
aVnNDC_Southeast
p455
aVnNDC_Southeast
p456
aa(lp457
I2
aVnNDC_Northeast
p458
aVnNDC_Northeast
p459
aa(lp460
I2
aVnNDC_Midwest
p461
aVnNDC_Midwest
p462
aa(lp463
I2
aVcCEN_West
p464
aVcCEN_West
p465
aa(lp466
I2
aVcCEN_South
p467
aVcCEN_South
p468
aa(lp469
I2
aVcCEN_Midwest
p470
aVcCEN_Midwest
p471
aa(lp472
I2
aVcCEN_Northeast
p473
aVcCEN_Northeast
p474
aaa(lp475
(lp476
I2
aVcCEN_West
p477
aVnNDC_Northeast
p478
aa(lp479
I2
aVcCEN_Midwest
p480
aVcCEN_Northeast
p481
aa(lp482
I2
aVcCEN_South
p483
aVcCEN_Northeast
p484
aa(lp485
I2
aVcCEN_West
p486
aVcCEN_Northeast
p487
aa(lp488
I2
aVcCEN_Northeast
p489
aVcCEN_Midwest
p490
aa(lp491
I2
aVcCEN_South
p492
aVcCEN_Midwest
p493
aa(lp494
I2
aVcCEN_West
p495
aVcCEN_Midwest
p496
aa(lp497
I2
aVcCEN_Northeast
p498
aVcCEN_South
p499
aa(lp500
I2
aVcCEN_Midwest
p501
aVcCEN_South
p502
aa(lp503
I2
aVcCEN_West
p504
aVcCEN_South
p505
aa(lp506
I2
aVcCEN_Northeast
p507
aVcCEN_West
p508
aa(lp509
I2
aVcCEN_Midwest
p510
aVcCEN_West
p511
aa(lp512
I2
aVcCEN_South
p513
aVcCEN_West
p514
aa(lp515
I2
aVnNDC_Northeast
p516
aVnNDC_Midwest
p517
aa(lp518
I2
aVnNDC_Southeast
p519
aVnNDC_Midwest
p520
aa(lp521
I2
aVnNDC_Southwest
p522
aVnNDC_Midwest
p523
aa(lp524
I2
aVnNDC_West
p525
aVnNDC_Midwest
p526
aa(lp527
I2
aVnNDC_Midwest
p528
aVnNDC_Northeast
p529
aa(lp530
I2
aVnNDC_Southeast
p531
aVnNDC_Northeast
p532
aa(lp533
I2
aVnNDC_Southwest
p534
aVnNDC_Northeast
p535
aa(lp536
I2
aVnNDC_West
p537
aVnNDC_Northeast
p538
aa(lp539
I2
aVnNDC_Midwest
p540
aVnNDC_Southeast
p541
aa(lp542
I2
aVnNDC_Northeast
p543
aVnNDC_Southeast
p544
aa(lp545
I2
aVnNDC_Southwest
p546
aVnNDC_Southeast
p547
aa(lp548
I2
aVnNDC_West
p549
aVnNDC_Southeast
p550
aa(lp551
I2
aVnNDC_Midwest
p552
aVnNDC_Southwest
p553
aa(lp554
I2
aVnNDC_Northeast
p555
aVnNDC_Southwest
p556
aa(lp557
I2
aVnNDC_Southeast
p558
aVnNDC_Southwest
p559
aa(lp560
I2
aVnNDC_West
p561
aVnNDC_Southwest
p562
aa(lp563
I2
aVnNDC_Midwest
p564
aVnNDC_West
p565
aa(lp566
I2
aVnNDC_Northeast
p567
aVnNDC_West
p568
aa(lp569
I2
aVnNDC_Southeast
p570
aVnNDC_West
p571
aa(lp572
I2
aVnNDC_Southwest
p573
aVnNDC_West
p574
aa(lp575
I2
aVnNDC_Northeast
p576
aVcCEN_West
p577
aa(lp578
I2
aVcCEN_Northeast
p579
aVnNDC_West
p580
aa(lp581
I2
aVcCEN_Northeast
p582
aVnNDC_Southwest
p583
aa(lp584
I2
aVcCEN_Northeast
p585
aVnNDC_Southeast
p586
aa(lp587
I2
aVcCEN_Northeast
p588
aVnNDC_Midwest
p589
aa(lp590
I2
aVcCEN_South
p591
aVnNDC_Midwest
p592
aa(lp593
I2
aVcCEN_West
p594
aVnNDC_Midwest
p595
aa(lp596
I2
aVcCEN_Midwest
p597
aVnNDC_West
p598
aa(lp599
I2
aVcCEN_Midwest
p600
aVnNDC_Southwest
p601
aa(lp602
I2
aVcCEN_Midwest
p603
aVnNDC_Southeast
p604
aa(lp605
I2
aVcCEN_Midwest
p606
aVnNDC_Northeast
p607
aa(lp608
I2
aVnNDC_Northeast
p609
aVcCEN_Midwest
p610
aa(lp611
I2
aVnNDC_Southeast
p612
aVcCEN_Midwest
p613
aa(lp614
I2
aVnNDC_Southwest
p615
aVcCEN_Midwest
p616
aa(lp617
I2
aVnNDC_West
p618
aVcCEN_Midwest
p619
aa(lp620
I2
aVnNDC_Midwest
p621
aVcCEN_West
p622
aa(lp623
I2
aVnNDC_Midwest
p624
aVcCEN_South
p625
aa(lp626
I2
aVnNDC_Midwest
p627
aVcCEN_Northeast
p628
aa(lp629
I2
aVnNDC_Southeast
p630
aVcCEN_Northeast
p631
aa(lp632
I2
aVnNDC_Southwest
p633
aVcCEN_Northeast
p634
aa(lp635
I2
aVnNDC_West
p636
aVcCEN_Northeast
p637
aa(lp638
I2
aVnNDC_West
p639
aVcCEN_South
p640
aa(lp641
I2
aVcCEN_South
p642
aVnNDC_West
p643
aa(lp644
I2
aVcCEN_South
p645
aVnNDC_Southeast
p646
aa(lp647
I2
aVnNDC_Southeast
p648
aVcCEN_South
p649
aa(lp650
I2
aVnNDC_Southwest
p651
aVcCEN_West
p652
aa(lp653
I2
aVcCEN_West
p654
aVnNDC_Southwest
p655
aaa(lp656
(lp657
I2
aVcCEN_Northeast
p658
aVnNDC_Northeast
p659
aa(lp660
I2
aVcCEN_Northeast
p661
aVcCEN_USA
p662
aa(lp663
I2
aVcCEN_Midwest
p664
aVcCEN_USA
p665
aa(lp666
I2
aVcCEN_South
p667
aVcCEN_USA
p668
aa(lp669
I2
aVcCEN_West
p670
aVcCEN_USA
p671
aa(lp672
I2
aVnNDC_Midwest
p673
aVnNDC_USA
p674
aa(lp675
I2
aVnNDC_Northeast
p676
aVnNDC_USA
p677
aa(lp678
I2
aVnNDC_Southeast
p679
aVnNDC_USA
p680
aa(lp681
I2
aVnNDC_Southwest
p682
aVnNDC_USA
p683
aa(lp684
I2
aVnNDC_West
p685
aVnNDC_USA
p686
aa(lp687
I2
aVnNDC_West
p688
aVcCEN_West
p689
aa(lp690
I2
aVcCEN_Northeast
p691
aVnNDC_USA
p692
aa(lp693
I2
aVcCEN_Midwest
p694
aVnNDC_USA
p695
aa(lp696
I2
aVcCEN_South
p697
aVnNDC_USA
p698
aa(lp699
I2
aVcCEN_West
p700
aVnNDC_USA
p701
aa(lp702
I2
aVnNDC_West
p703
aVcCEN_USA
p704
aa(lp705
I2
aVnNDC_Southwest
p706
aVcCEN_USA
p707
aa(lp708
I2
aVnNDC_Southeast
p709
aVcCEN_USA
p710
aa(lp711
I2
aVnNDC_Northeast
p712
aVcCEN_USA
p713
aa(lp714
I2
aVnNDC_Midwest
p715
aVcCEN_USA
p716
aa(lp717
I2
aVnNDC_Southeast
p718
aVcCEN_West
p719
aaa(lp720
(lp721
I2
aVcCEN_West
p722
aVnNDC_West
p723
aa(lp724
I2
aVnNDC_USA
p725
aVnNDC_West
p726
aa(lp727
I2
aVnNDC_USA
p728
aVnNDC_Southwest
p729
aa(lp730
I2
aVnNDC_USA
p731
aVnNDC_Southeast
p732
aa(lp733
I2
aVnNDC_USA
p734
aVnNDC_Northeast
p735
aa(lp736
I2
aVnNDC_USA
p737
aVnNDC_Midwest
p738
aa(lp739
I2
aVcCEN_USA
p740
aVcCEN_West
p741
aa(lp742
I2
aVcCEN_USA
p743
aVcCEN_South
p744
aa(lp745
I2
aVcCEN_USA
p746
aVcCEN_Midwest
p747
aa(lp748
I2
aVcCEN_USA
p749
aVcCEN_Northeast
p750
aa(lp751
I2
aVnNDC_Northeast
p752
aVcCEN_Northeast
p753
aa(lp754
I2
aVnNDC_USA
p755
aVcCEN_West
p756
aa(lp757
I2
aVnNDC_USA
p758
aVcCEN_South
p759
aa(lp760
I2
aVnNDC_USA
p761
aVcCEN_Midwest
p762
aa(lp763
I2
aVnNDC_USA
p764
aVcCEN_Northeast
p765
aa(lp766
I2
aVcCEN_USA
p767
aVnNDC_West
p768
aa(lp769
I2
aVcCEN_USA
p770
aVnNDC_Midwest
p771
aa(lp772
I2
aVcCEN_USA
p773
aVnNDC_Northeast
p774
aa(lp775
I2
aVcCEN_USA
p776
aVnNDC_Southeast
p777
aa(lp778
I2
aVcCEN_USA
p779
aVnNDC_Southwest
p780
aa(lp781
I2
aVcCEN_West
p782
aVnNDC_Southeast
p783
aaa(lp784
(lp785
I2
aVcCEN_South
p786
aVnNDC_Southwest
p787
aa(lp788
I2
aVnNDC_Southwest
p789
aVcCEN_South
p790
aa(lp791
I2
aVnNDC_Northeast
p792
aVcCEN_South
p793
aa(lp794
I2
aVcCEN_South
p795
aVnNDC_Northeast
p796
aaa(lp797
(lp798
I2
aVcCEN_Northeast
p799
aa(lp800
I2
aVcCEN_Midwest
p801
aa(lp802
I2
aVcCEN_South
p803
aa(lp804
I2
aVcCEN_West
p805
aa(lp806
I2
aVnNDC_Midwest
p807
aa(lp808
I2
aVnNDC_Northeast
p809
aa(lp810
I2
aVnNDC_Southeast
p811
aa(lp812
I2
aVnNDC_Southwest
p813
aa(lp814
I2
aVnNDC_West
p815
aa(lp816
I2
aVcCEN_USA
p817
aa(lp818
I2
aVnNDC_USA
p819
aaa(lp820
(lp821
I2
aVcCEN_USA
p822
aVcCEN_Northeast
p823
aa(lp824
I2
aVcCEN_USA
p825
aVcCEN_Midwest
p826
aa(lp827
I2
aVcCEN_USA
p828
aVcCEN_South
p829
aa(lp830
I2
aVcCEN_USA
p831
aVcCEN_West
p832
aa(lp833
I2
aVnNDC_USA
p834
aVnNDC_Midwest
p835
aa(lp836
I2
aVnNDC_USA
p837
aVnNDC_Northeast
p838
aa(lp839
I2
aVnNDC_USA
p840
aVnNDC_Southeast
p841
aa(lp842
I2
aVnNDC_USA
p843
aVnNDC_Southwest
p844
aa(lp845
I2
aVnNDC_USA
p846
aVnNDC_West
p847
aaasba(ihelper
PossibleWorld
p848
(dp849
g3
I3
sg4
I0
sg5
(lp850
(lp851
(lp852
I3
aVcCEN_USA
p853
aVnNDC_USA
p854
aa(lp855
I3
aVcCEN_Midwest
p856
aVnNDC_Midwest
p857
aa(lp858
I3
aVnNDC_Midwest
p859
aVcCEN_Midwest
p860
aa(lp861
I3
aVnNDC_USA
p862
aVcCEN_USA
p863
aa(lp864
I3
aVnNDC_USA
p865
aVnNDC_USA
p866
aa(lp867
I3
aVcCEN_USA
p868
aVcCEN_USA
p869
aa(lp870
I3
aVnNDC_West
p871
aVnNDC_West
p872
aa(lp873
I3
aVnNDC_Southwest
p874
aVnNDC_Southwest
p875
aa(lp876
I3
aVnNDC_Southeast
p877
aVnNDC_Southeast
p878
aa(lp879
I3
aVnNDC_Northeast
p880
aVnNDC_Northeast
p881
aa(lp882
I3
aVnNDC_Midwest
p883
aVnNDC_Midwest
p884
aa(lp885
I3
aVcCEN_West
p886
aVcCEN_West
p887
aa(lp888
I3
aVcCEN_South
p889
aVcCEN_South
p890
aa(lp891
I3
aVcCEN_Midwest
p892
aVcCEN_Midwest
p893
aa(lp894
I3
aVcCEN_Northeast
p895
aVcCEN_Northeast
p896
aaa(lp897
(lp898
I3
aVcCEN_West
p899
aVnNDC_Northeast
p900
aa(lp901
I3
aVcCEN_Midwest
p902
aVcCEN_Northeast
p903
aa(lp904
I3
aVcCEN_South
p905
aVcCEN_Northeast
p906
aa(lp907
I3
aVcCEN_West
p908
aVcCEN_Northeast
p909
aa(lp910
I3
aVcCEN_Northeast
p911
aVcCEN_Midwest
p912
aa(lp913
I3
aVcCEN_South
p914
aVcCEN_Midwest
p915
aa(lp916
I3
aVcCEN_West
p917
aVcCEN_Midwest
p918
aa(lp919
I3
aVcCEN_Northeast
p920
aVcCEN_South
p921
aa(lp922
I3
aVcCEN_Midwest
p923
aVcCEN_South
p924
aa(lp925
I3
aVcCEN_West
p926
aVcCEN_South
p927
aa(lp928
I3
aVcCEN_Northeast
p929
aVcCEN_West
p930
aa(lp931
I3
aVcCEN_Midwest
p932
aVcCEN_West
p933
aa(lp934
I3
aVcCEN_South
p935
aVcCEN_West
p936
aa(lp937
I3
aVnNDC_Northeast
p938
aVnNDC_Midwest
p939
aa(lp940
I3
aVnNDC_Southeast
p941
aVnNDC_Midwest
p942
aa(lp943
I3
aVnNDC_Southwest
p944
aVnNDC_Midwest
p945
aa(lp946
I3
aVnNDC_West
p947
aVnNDC_Midwest
p948
aa(lp949
I3
aVnNDC_Midwest
p950
aVnNDC_Northeast
p951
aa(lp952
I3
aVnNDC_Southeast
p953
aVnNDC_Northeast
p954
aa(lp955
I3
aVnNDC_Southwest
p956
aVnNDC_Northeast
p957
aa(lp958
I3
aVnNDC_West
p959
aVnNDC_Northeast
p960
aa(lp961
I3
aVnNDC_Midwest
p962
aVnNDC_Southeast
p963
aa(lp964
I3
aVnNDC_Northeast
p965
aVnNDC_Southeast
p966
aa(lp967
I3
aVnNDC_Southwest
p968
aVnNDC_Southeast
p969
aa(lp970
I3
aVnNDC_West
p971
aVnNDC_Southeast
p972
aa(lp973
I3
aVnNDC_Midwest
p974
aVnNDC_Southwest
p975
aa(lp976
I3
aVnNDC_Northeast
p977
aVnNDC_Southwest
p978
aa(lp979
I3
aVnNDC_Southeast
p980
aVnNDC_Southwest
p981
aa(lp982
I3
aVnNDC_West
p983
aVnNDC_Southwest
p984
aa(lp985
I3
aVnNDC_Midwest
p986
aVnNDC_West
p987
aa(lp988
I3
aVnNDC_Northeast
p989
aVnNDC_West
p990
aa(lp991
I3
aVnNDC_Southeast
p992
aVnNDC_West
p993
aa(lp994
I3
aVnNDC_Southwest
p995
aVnNDC_West
p996
aa(lp997
I3
aVnNDC_Northeast
p998
aVcCEN_West
p999
aa(lp1000
I3
aVcCEN_Northeast
p1001
aVnNDC_West
p1002
aa(lp1003
I3
aVcCEN_Northeast
p1004
aVnNDC_Southwest
p1005
aa(lp1006
I3
aVcCEN_Northeast
p1007
aVnNDC_Southeast
p1008
aa(lp1009
I3
aVcCEN_Northeast
p1010
aVnNDC_Midwest
p1011
aa(lp1012
I3
aVcCEN_South
p1013
aVnNDC_Midwest
p1014
aa(lp1015
I3
aVcCEN_West
p1016
aVnNDC_Midwest
p1017
aa(lp1018
I3
aVcCEN_Midwest
p1019
aVnNDC_West
p1020
aa(lp1021
I3
aVcCEN_Midwest
p1022
aVnNDC_Southwest
p1023
aa(lp1024
I3
aVcCEN_Midwest
p1025
aVnNDC_Southeast
p1026
aa(lp1027
I3
aVcCEN_Midwest
p1028
aVnNDC_Northeast
p1029
aa(lp1030
I3
aVnNDC_Northeast
p1031
aVcCEN_Midwest
p1032
aa(lp1033
I3
aVnNDC_Southeast
p1034
aVcCEN_Midwest
p1035
aa(lp1036
I3
aVnNDC_Southwest
p1037
aVcCEN_Midwest
p1038
aa(lp1039
I3
aVnNDC_West
p1040
aVcCEN_Midwest
p1041
aa(lp1042
I3
aVnNDC_Midwest
p1043
aVcCEN_West
p1044
aa(lp1045
I3
aVnNDC_Midwest
p1046
aVcCEN_South
p1047
aa(lp1048
I3
aVnNDC_Midwest
p1049
aVcCEN_Northeast
p1050
aa(lp1051
I3
aVnNDC_Southeast
p1052
aVcCEN_Northeast
p1053
aa(lp1054
I3
aVnNDC_Southwest
p1055
aVcCEN_Northeast
p1056
aa(lp1057
I3
aVnNDC_West
p1058
aVcCEN_Northeast
p1059
aa(lp1060
I3
aVnNDC_West
p1061
aVcCEN_South
p1062
aa(lp1063
I3
aVcCEN_South
p1064
aVnNDC_West
p1065
aa(lp1066
I3
aVcCEN_West
p1067
aVnNDC_Southeast
p1068
aa(lp1069
I3
aVnNDC_Southeast
p1070
aVcCEN_West
p1071
aa(lp1072
I3
aVcCEN_South
p1073
aVnNDC_Southeast
p1074
aa(lp1075
I3
aVnNDC_Southeast
p1076
aVcCEN_South
p1077
aa(lp1078
I3
aVcCEN_South
p1079
aVnNDC_Northeast
p1080
aa(lp1081
I3
aVnNDC_Northeast
p1082
aVcCEN_South
p1083
aa(lp1084
I3
aVnNDC_Southwest
p1085
aVcCEN_West
p1086
aa(lp1087
I3
aVcCEN_West
p1088
aVnNDC_Southwest
p1089
aaa(lp1090
(lp1091
I3
aVcCEN_Northeast
p1092
aVnNDC_Northeast
p1093
aa(lp1094
I3
aVcCEN_Northeast
p1095
aVcCEN_USA
p1096
aa(lp1097
I3
aVcCEN_Midwest
p1098
aVcCEN_USA
p1099
aa(lp1100
I3
aVcCEN_South
p1101
aVcCEN_USA
p1102
aa(lp1103
I3
aVcCEN_West
p1104
aVcCEN_USA
p1105
aa(lp1106
I3
aVnNDC_Midwest
p1107
aVnNDC_USA
p1108
aa(lp1109
I3
aVnNDC_Northeast
p1110
aVnNDC_USA
p1111
aa(lp1112
I3
aVnNDC_Southeast
p1113
aVnNDC_USA
p1114
aa(lp1115
I3
aVnNDC_Southwest
p1116
aVnNDC_USA
p1117
aa(lp1118
I3
aVnNDC_West
p1119
aVnNDC_USA
p1120
aa(lp1121
I3
aVnNDC_West
p1122
aVcCEN_West
p1123
aa(lp1124
I3
aVcCEN_Northeast
p1125
aVnNDC_USA
p1126
aa(lp1127
I3
aVcCEN_Midwest
p1128
aVnNDC_USA
p1129
aa(lp1130
I3
aVcCEN_South
p1131
aVnNDC_USA
p1132
aa(lp1133
I3
aVcCEN_West
p1134
aVnNDC_USA
p1135
aa(lp1136
I3
aVnNDC_West
p1137
aVcCEN_USA
p1138
aa(lp1139
I3
aVnNDC_Southwest
p1140
aVcCEN_USA
p1141
aa(lp1142
I3
aVnNDC_Southeast
p1143
aVcCEN_USA
p1144
aa(lp1145
I3
aVnNDC_Northeast
p1146
aVcCEN_USA
p1147
aa(lp1148
I3
aVnNDC_Midwest
p1149
aVcCEN_USA
p1150
aaa(lp1151
(lp1152
I3
aVcCEN_West
p1153
aVnNDC_West
p1154
aa(lp1155
I3
aVnNDC_USA
p1156
aVnNDC_West
p1157
aa(lp1158
I3
aVnNDC_USA
p1159
aVnNDC_Southwest
p1160
aa(lp1161
I3
aVnNDC_USA
p1162
aVnNDC_Southeast
p1163
aa(lp1164
I3
aVnNDC_USA
p1165
aVnNDC_Northeast
p1166
aa(lp1167
I3
aVnNDC_USA
p1168
aVnNDC_Midwest
p1169
aa(lp1170
I3
aVcCEN_USA
p1171
aVcCEN_West
p1172
aa(lp1173
I3
aVcCEN_USA
p1174
aVcCEN_South
p1175
aa(lp1176
I3
aVcCEN_USA
p1177
aVcCEN_Midwest
p1178
aa(lp1179
I3
aVcCEN_USA
p1180
aVcCEN_Northeast
p1181
aa(lp1182
I3
aVnNDC_Northeast
p1183
aVcCEN_Northeast
p1184
aa(lp1185
I3
aVnNDC_USA
p1186
aVcCEN_West
p1187
aa(lp1188
I3
aVnNDC_USA
p1189
aVcCEN_South
p1190
aa(lp1191
I3
aVnNDC_USA
p1192
aVcCEN_Midwest
p1193
aa(lp1194
I3
aVnNDC_USA
p1195
aVcCEN_Northeast
p1196
aa(lp1197
I3
aVcCEN_USA
p1198
aVnNDC_West
p1199
aa(lp1200
I3
aVcCEN_USA
p1201
aVnNDC_Midwest
p1202
aa(lp1203
I3
aVcCEN_USA
p1204
aVnNDC_Northeast
p1205
aa(lp1206
I3
aVcCEN_USA
p1207
aVnNDC_Southeast
p1208
aa(lp1209
I3
aVcCEN_USA
p1210
aVnNDC_Southwest
p1211
aaa(lp1212
(lp1213
I3
aVcCEN_South
p1214
aVnNDC_Southwest
p1215
aa(lp1216
I3
aVnNDC_Southwest
p1217
aVcCEN_South
p1218
aaa(lp1219
(lp1220
I3
aVcCEN_Northeast
p1221
aa(lp1222
I3
aVcCEN_Midwest
p1223
aa(lp1224
I3
aVcCEN_South
p1225
aa(lp1226
I3
aVcCEN_West
p1227
aa(lp1228
I3
aVnNDC_Midwest
p1229
aa(lp1230
I3
aVnNDC_Northeast
p1231
aa(lp1232
I3
aVnNDC_Southeast
p1233
aa(lp1234
I3
aVnNDC_Southwest
p1235
aa(lp1236
I3
aVnNDC_West
p1237
aa(lp1238
I3
aVcCEN_USA
p1239
aa(lp1240
I3
aVnNDC_USA
p1241
aaa(lp1242
(lp1243
I3
aVcCEN_USA
p1244
aVcCEN_Northeast
p1245
aa(lp1246
I3
aVcCEN_USA
p1247
aVcCEN_Midwest
p1248
aa(lp1249
I3
aVcCEN_USA
p1250
aVcCEN_South
p1251
aa(lp1252
I3
aVcCEN_USA
p1253
aVcCEN_West
p1254
aa(lp1255
I3
aVnNDC_USA
p1256
aVnNDC_Midwest
p1257
aa(lp1258
I3
aVnNDC_USA
p1259
aVnNDC_Northeast
p1260
aa(lp1261
I3
aVnNDC_USA
p1262
aVnNDC_Southeast
p1263
aa(lp1264
I3
aVnNDC_USA
p1265
aVnNDC_Southwest
p1266
aa(lp1267
I3
aVnNDC_USA
p1268
aVnNDC_West
p1269
aaasba(ihelper
PossibleWorld
p1270
(dp1271
g3
I4
sg4
I0
sg5
(lp1272
(lp1273
(lp1274
I4
aVcCEN_USA
p1275
aVnNDC_USA
p1276
aa(lp1277
I4
aVcCEN_Midwest
p1278
aVnNDC_Midwest
p1279
aa(lp1280
I4
aVnNDC_Midwest
p1281
aVcCEN_Midwest
p1282
aa(lp1283
I4
aVnNDC_USA
p1284
aVcCEN_USA
p1285
aa(lp1286
I4
aVnNDC_USA
p1287
aVnNDC_USA
p1288
aa(lp1289
I4
aVcCEN_USA
p1290
aVcCEN_USA
p1291
aa(lp1292
I4
aVnNDC_West
p1293
aVnNDC_West
p1294
aa(lp1295
I4
aVnNDC_Southwest
p1296
aVnNDC_Southwest
p1297
aa(lp1298
I4
aVnNDC_Southeast
p1299
aVnNDC_Southeast
p1300
aa(lp1301
I4
aVnNDC_Northeast
p1302
aVnNDC_Northeast
p1303
aa(lp1304
I4
aVnNDC_Midwest
p1305
aVnNDC_Midwest
p1306
aa(lp1307
I4
aVcCEN_West
p1308
aVcCEN_West
p1309
aa(lp1310
I4
aVcCEN_South
p1311
aVcCEN_South
p1312
aa(lp1313
I4
aVcCEN_Midwest
p1314
aVcCEN_Midwest
p1315
aa(lp1316
I4
aVcCEN_Northeast
p1317
aVcCEN_Northeast
p1318
aaa(lp1319
(lp1320
I4
aVcCEN_West
p1321
aVnNDC_Northeast
p1322
aa(lp1323
I4
aVcCEN_Midwest
p1324
aVcCEN_Northeast
p1325
aa(lp1326
I4
aVcCEN_South
p1327
aVcCEN_Northeast
p1328
aa(lp1329
I4
aVcCEN_West
p1330
aVcCEN_Northeast
p1331
aa(lp1332
I4
aVcCEN_Northeast
p1333
aVcCEN_Midwest
p1334
aa(lp1335
I4
aVcCEN_South
p1336
aVcCEN_Midwest
p1337
aa(lp1338
I4
aVcCEN_West
p1339
aVcCEN_Midwest
p1340
aa(lp1341
I4
aVcCEN_Northeast
p1342
aVcCEN_South
p1343
aa(lp1344
I4
aVcCEN_Midwest
p1345
aVcCEN_South
p1346
aa(lp1347
I4
aVcCEN_West
p1348
aVcCEN_South
p1349
aa(lp1350
I4
aVcCEN_Northeast
p1351
aVcCEN_West
p1352
aa(lp1353
I4
aVcCEN_Midwest
p1354
aVcCEN_West
p1355
aa(lp1356
I4
aVcCEN_South
p1357
aVcCEN_West
p1358
aa(lp1359
I4
aVnNDC_Northeast
p1360
aVnNDC_Midwest
p1361
aa(lp1362
I4
aVnNDC_Southeast
p1363
aVnNDC_Midwest
p1364
aa(lp1365
I4
aVnNDC_Southwest
p1366
aVnNDC_Midwest
p1367
aa(lp1368
I4
aVnNDC_West
p1369
aVnNDC_Midwest
p1370
aa(lp1371
I4
aVnNDC_Midwest
p1372
aVnNDC_Northeast
p1373
aa(lp1374
I4
aVnNDC_Southeast
p1375
aVnNDC_Northeast
p1376
aa(lp1377
I4
aVnNDC_Southwest
p1378
aVnNDC_Northeast
p1379
aa(lp1380
I4
aVnNDC_West
p1381
aVnNDC_Northeast
p1382
aa(lp1383
I4
aVnNDC_Midwest
p1384
aVnNDC_Southeast
p1385
aa(lp1386
I4
aVnNDC_Northeast
p1387
aVnNDC_Southeast
p1388
aa(lp1389
I4
aVnNDC_Southwest
p1390
aVnNDC_Southeast
p1391
aa(lp1392
I4
aVnNDC_West
p1393
aVnNDC_Southeast
p1394
aa(lp1395
I4
aVnNDC_Midwest
p1396
aVnNDC_Southwest
p1397
aa(lp1398
I4
aVnNDC_Northeast
p1399
aVnNDC_Southwest
p1400
aa(lp1401
I4
aVnNDC_Southeast
p1402
aVnNDC_Southwest
p1403
aa(lp1404
I4
aVnNDC_West
p1405
aVnNDC_Southwest
p1406
aa(lp1407
I4
aVnNDC_Midwest
p1408
aVnNDC_West
p1409
aa(lp1410
I4
aVnNDC_Northeast
p1411
aVnNDC_West
p1412
aa(lp1413
I4
aVnNDC_Southeast
p1414
aVnNDC_West
p1415
aa(lp1416
I4
aVnNDC_Southwest
p1417
aVnNDC_West
p1418
aa(lp1419
I4
aVnNDC_Northeast
p1420
aVcCEN_West
p1421
aa(lp1422
I4
aVcCEN_Northeast
p1423
aVnNDC_West
p1424
aa(lp1425
I4
aVcCEN_Northeast
p1426
aVnNDC_Southwest
p1427
aa(lp1428
I4
aVcCEN_Northeast
p1429
aVnNDC_Southeast
p1430
aa(lp1431
I4
aVcCEN_Northeast
p1432
aVnNDC_Midwest
p1433
aa(lp1434
I4
aVcCEN_South
p1435
aVnNDC_Midwest
p1436
aa(lp1437
I4
aVcCEN_West
p1438
aVnNDC_Midwest
p1439
aa(lp1440
I4
aVcCEN_Midwest
p1441
aVnNDC_West
p1442
aa(lp1443
I4
aVcCEN_Midwest
p1444
aVnNDC_Southwest
p1445
aa(lp1446
I4
aVcCEN_Midwest
p1447
aVnNDC_Southeast
p1448
aa(lp1449
I4
aVcCEN_Midwest
p1450
aVnNDC_Northeast
p1451
aa(lp1452
I4
aVnNDC_Northeast
p1453
aVcCEN_Midwest
p1454
aa(lp1455
I4
aVnNDC_Southeast
p1456
aVcCEN_Midwest
p1457
aa(lp1458
I4
aVnNDC_Southwest
p1459
aVcCEN_Midwest
p1460
aa(lp1461
I4
aVnNDC_West
p1462
aVcCEN_Midwest
p1463
aa(lp1464
I4
aVnNDC_Midwest
p1465
aVcCEN_West
p1466
aa(lp1467
I4
aVnNDC_Midwest
p1468
aVcCEN_South
p1469
aa(lp1470
I4
aVnNDC_Midwest
p1471
aVcCEN_Northeast
p1472
aa(lp1473
I4
aVnNDC_Southeast
p1474
aVcCEN_Northeast
p1475
aa(lp1476
I4
aVnNDC_Southwest
p1477
aVcCEN_Northeast
p1478
aa(lp1479
I4
aVnNDC_West
p1480
aVcCEN_Northeast
p1481
aa(lp1482
I4
aVnNDC_West
p1483
aVcCEN_South
p1484
aa(lp1485
I4
aVcCEN_South
p1486
aVnNDC_West
p1487
aa(lp1488
I4
aVcCEN_West
p1489
aVnNDC_Southeast
p1490
aa(lp1491
I4
aVnNDC_Southeast
p1492
aVcCEN_West
p1493
aa(lp1494
I4
aVcCEN_South
p1495
aVnNDC_Southeast
p1496
aa(lp1497
I4
aVnNDC_Southeast
p1498
aVcCEN_South
p1499
aa(lp1500
I4
aVnNDC_Southwest
p1501
aVcCEN_West
p1502
aa(lp1503
I4
aVcCEN_West
p1504
aVnNDC_Southwest
p1505
aaa(lp1506
(lp1507
I4
aVcCEN_Northeast
p1508
aVnNDC_Northeast
p1509
aa(lp1510
I4
aVcCEN_Northeast
p1511
aVcCEN_USA
p1512
aa(lp1513
I4
aVcCEN_Midwest
p1514
aVcCEN_USA
p1515
aa(lp1516
I4
aVcCEN_South
p1517
aVcCEN_USA
p1518
aa(lp1519
I4
aVcCEN_West
p1520
aVcCEN_USA
p1521
aa(lp1522
I4
aVnNDC_Midwest
p1523
aVnNDC_USA
p1524
aa(lp1525
I4
aVnNDC_Northeast
p1526
aVnNDC_USA
p1527
aa(lp1528
I4
aVnNDC_Southeast
p1529
aVnNDC_USA
p1530
aa(lp1531
I4
aVnNDC_Southwest
p1532
aVnNDC_USA
p1533
aa(lp1534
I4
aVnNDC_West
p1535
aVnNDC_USA
p1536
aa(lp1537
I4
aVnNDC_West
p1538
aVcCEN_West
p1539
aa(lp1540
I4
aVcCEN_Northeast
p1541
aVnNDC_USA
p1542
aa(lp1543
I4
aVcCEN_Midwest
p1544
aVnNDC_USA
p1545
aa(lp1546
I4
aVcCEN_South
p1547
aVnNDC_USA
p1548
aa(lp1549
I4
aVcCEN_West
p1550
aVnNDC_USA
p1551
aa(lp1552
I4
aVnNDC_West
p1553
aVcCEN_USA
p1554
aa(lp1555
I4
aVnNDC_Southwest
p1556
aVcCEN_USA
p1557
aa(lp1558
I4
aVnNDC_Southeast
p1559
aVcCEN_USA
p1560
aa(lp1561
I4
aVnNDC_Northeast
p1562
aVcCEN_USA
p1563
aa(lp1564
I4
aVnNDC_Midwest
p1565
aVcCEN_USA
p1566
aaa(lp1567
(lp1568
I4
aVcCEN_West
p1569
aVnNDC_West
p1570
aa(lp1571
I4
aVnNDC_USA
p1572
aVnNDC_West
p1573
aa(lp1574
I4
aVnNDC_USA
p1575
aVnNDC_Southwest
p1576
aa(lp1577
I4
aVnNDC_USA
p1578
aVnNDC_Southeast
p1579
aa(lp1580
I4
aVnNDC_USA
p1581
aVnNDC_Northeast
p1582
aa(lp1583
I4
aVnNDC_USA
p1584
aVnNDC_Midwest
p1585
aa(lp1586
I4
aVcCEN_USA
p1587
aVcCEN_West
p1588
aa(lp1589
I4
aVcCEN_USA
p1590
aVcCEN_South
p1591
aa(lp1592
I4
aVcCEN_USA
p1593
aVcCEN_Midwest
p1594
aa(lp1595
I4
aVcCEN_USA
p1596
aVcCEN_Northeast
p1597
aa(lp1598
I4
aVnNDC_Northeast
p1599
aVcCEN_Northeast
p1600
aa(lp1601
I4
aVnNDC_USA
p1602
aVcCEN_West
p1603
aa(lp1604
I4
aVnNDC_USA
p1605
aVcCEN_South
p1606
aa(lp1607
I4
aVnNDC_USA
p1608
aVcCEN_Midwest
p1609
aa(lp1610
I4
aVnNDC_USA
p1611
aVcCEN_Northeast
p1612
aa(lp1613
I4
aVcCEN_USA
p1614
aVnNDC_West
p1615
aa(lp1616
I4
aVcCEN_USA
p1617
aVnNDC_Midwest
p1618
aa(lp1619
I4
aVcCEN_USA
p1620
aVnNDC_Northeast
p1621
aa(lp1622
I4
aVcCEN_USA
p1623
aVnNDC_Southeast
p1624
aa(lp1625
I4
aVcCEN_USA
p1626
aVnNDC_Southwest
p1627
aaa(lp1628
(lp1629
I4
aVcCEN_South
p1630
aVnNDC_Southwest
p1631
aa(lp1632
I4
aVnNDC_Southwest
p1633
aVcCEN_South
p1634
aa(lp1635
I4
aVnNDC_Northeast
p1636
aVcCEN_South
p1637
aa(lp1638
I4
aVcCEN_South
p1639
aVnNDC_Northeast
p1640
aaa(lp1641
(lp1642
I4
aVcCEN_Northeast
p1643
aa(lp1644
I4
aVcCEN_Midwest
p1645
aa(lp1646
I4
aVcCEN_South
p1647
aa(lp1648
I4
aVcCEN_West
p1649
aa(lp1650
I4
aVnNDC_Midwest
p1651
aa(lp1652
I4
aVnNDC_Northeast
p1653
aa(lp1654
I4
aVnNDC_Southeast
p1655
aa(lp1656
I4
aVnNDC_Southwest
p1657
aa(lp1658
I4
aVnNDC_West
p1659
aa(lp1660
I4
aVcCEN_USA
p1661
aa(lp1662
I4
aVnNDC_USA
p1663
aaa(lp1664
(lp1665
I4
aVcCEN_USA
p1666
aVcCEN_Northeast
p1667
aa(lp1668
I4
aVcCEN_USA
p1669
aVcCEN_Midwest
p1670
aa(lp1671
I4
aVcCEN_USA
p1672
aVcCEN_South
p1673
aa(lp1674
I4
aVcCEN_USA
p1675
aVcCEN_West
p1676
aa(lp1677
I4
aVnNDC_USA
p1678
aVnNDC_Midwest
p1679
aa(lp1680
I4
aVnNDC_USA
p1681
aVnNDC_Northeast
p1682
aa(lp1683
I4
aVnNDC_USA
p1684
aVnNDC_Southeast
p1685
aa(lp1686
I4
aVnNDC_USA
p1687
aVnNDC_Southwest
p1688
aa(lp1689
I4
aVnNDC_USA
p1690
aVnNDC_West
p1691
aaasba(ihelper
PossibleWorld
p1692
(dp1693
g3
I5
sg4
I0
sg5
(lp1694
(lp1695
(lp1696
I5
aVcCEN_USA
p1697
aVnNDC_USA
p1698
aa(lp1699
I5
aVcCEN_Midwest
p1700
aVnNDC_Midwest
p1701
aa(lp1702
I5
aVnNDC_Midwest
p1703
aVcCEN_Midwest
p1704
aa(lp1705
I5
aVnNDC_USA
p1706
aVcCEN_USA
p1707
aa(lp1708
I5
aVnNDC_USA
p1709
aVnNDC_USA
p1710
aa(lp1711
I5
aVcCEN_USA
p1712
aVcCEN_USA
p1713
aa(lp1714
I5
aVnNDC_West
p1715
aVnNDC_West
p1716
aa(lp1717
I5
aVnNDC_Southwest
p1718
aVnNDC_Southwest
p1719
aa(lp1720
I5
aVnNDC_Southeast
p1721
aVnNDC_Southeast
p1722
aa(lp1723
I5
aVnNDC_Northeast
p1724
aVnNDC_Northeast
p1725
aa(lp1726
I5
aVnNDC_Midwest
p1727
aVnNDC_Midwest
p1728
aa(lp1729
I5
aVcCEN_West
p1730
aVcCEN_West
p1731
aa(lp1732
I5
aVcCEN_South
p1733
aVcCEN_South
p1734
aa(lp1735
I5
aVcCEN_Midwest
p1736
aVcCEN_Midwest
p1737
aa(lp1738
I5
aVcCEN_Northeast
p1739
aVcCEN_Northeast
p1740
aaa(lp1741
(lp1742
I5
aVcCEN_West
p1743
aVnNDC_Northeast
p1744
aa(lp1745
I5
aVcCEN_Midwest
p1746
aVcCEN_Northeast
p1747
aa(lp1748
I5
aVcCEN_South
p1749
aVcCEN_Northeast
p1750
aa(lp1751
I5
aVcCEN_West
p1752
aVcCEN_Northeast
p1753
aa(lp1754
I5
aVcCEN_Northeast
p1755
aVcCEN_Midwest
p1756
aa(lp1757
I5
aVcCEN_South
p1758
aVcCEN_Midwest
p1759
aa(lp1760
I5
aVcCEN_West
p1761
aVcCEN_Midwest
p1762
aa(lp1763
I5
aVcCEN_Northeast
p1764
aVcCEN_South
p1765
aa(lp1766
I5
aVcCEN_Midwest
p1767
aVcCEN_South
p1768
aa(lp1769
I5
aVcCEN_West
p1770
aVcCEN_South
p1771
aa(lp1772
I5
aVcCEN_Northeast
p1773
aVcCEN_West
p1774
aa(lp1775
I5
aVcCEN_Midwest
p1776
aVcCEN_West
p1777
aa(lp1778
I5
aVcCEN_South
p1779
aVcCEN_West
p1780
aa(lp1781
I5
aVnNDC_Northeast
p1782
aVnNDC_Midwest
p1783
aa(lp1784
I5
aVnNDC_Southeast
p1785
aVnNDC_Midwest
p1786
aa(lp1787
I5
aVnNDC_Southwest
p1788
aVnNDC_Midwest
p1789
aa(lp1790
I5
aVnNDC_West
p1791
aVnNDC_Midwest
p1792
aa(lp1793
I5
aVnNDC_Midwest
p1794
aVnNDC_Northeast
p1795
aa(lp1796
I5
aVnNDC_Southeast
p1797
aVnNDC_Northeast
p1798
aa(lp1799
I5
aVnNDC_Southwest
p1800
aVnNDC_Northeast
p1801
aa(lp1802
I5
aVnNDC_West
p1803
aVnNDC_Northeast
p1804
aa(lp1805
I5
aVnNDC_Midwest
p1806
aVnNDC_Southeast
p1807
aa(lp1808
I5
aVnNDC_Northeast
p1809
aVnNDC_Southeast
p1810
aa(lp1811
I5
aVnNDC_Southwest
p1812
aVnNDC_Southeast
p1813
aa(lp1814
I5
aVnNDC_West
p1815
aVnNDC_Southeast
p1816
aa(lp1817
I5
aVnNDC_Midwest
p1818
aVnNDC_Southwest
p1819
aa(lp1820
I5
aVnNDC_Northeast
p1821
aVnNDC_Southwest
p1822
aa(lp1823
I5
aVnNDC_Southeast
p1824
aVnNDC_Southwest
p1825
aa(lp1826
I5
aVnNDC_West
p1827
aVnNDC_Southwest
p1828
aa(lp1829
I5
aVnNDC_Midwest
p1830
aVnNDC_West
p1831
aa(lp1832
I5
aVnNDC_Northeast
p1833
aVnNDC_West
p1834
aa(lp1835
I5
aVnNDC_Southeast
p1836
aVnNDC_West
p1837
aa(lp1838
I5
aVnNDC_Southwest
p1839
aVnNDC_West
p1840
aa(lp1841
I5
aVnNDC_Northeast
p1842
aVcCEN_West
p1843
aa(lp1844
I5
aVcCEN_Northeast
p1845
aVnNDC_West
p1846
aa(lp1847
I5
aVcCEN_Northeast
p1848
aVnNDC_Southwest
p1849
aa(lp1850
I5
aVcCEN_Northeast
p1851
aVnNDC_Southeast
p1852
aa(lp1853
I5
aVcCEN_Northeast
p1854
aVnNDC_Midwest
p1855
aa(lp1856
I5
aVcCEN_South
p1857
aVnNDC_Midwest
p1858
aa(lp1859
I5
aVcCEN_West
p1860
aVnNDC_Midwest
p1861
aa(lp1862
I5
aVcCEN_Midwest
p1863
aVnNDC_West
p1864
aa(lp1865
I5
aVcCEN_Midwest
p1866
aVnNDC_Southwest
p1867
aa(lp1868
I5
aVcCEN_Midwest
p1869
aVnNDC_Southeast
p1870
aa(lp1871
I5
aVcCEN_Midwest
p1872
aVnNDC_Northeast
p1873
aa(lp1874
I5
aVnNDC_Northeast
p1875
aVcCEN_Midwest
p1876
aa(lp1877
I5
aVnNDC_Southeast
p1878
aVcCEN_Midwest
p1879
aa(lp1880
I5
aVnNDC_Southwest
p1881
aVcCEN_Midwest
p1882
aa(lp1883
I5
aVnNDC_West
p1884
aVcCEN_Midwest
p1885
aa(lp1886
I5
aVnNDC_Midwest
p1887
aVcCEN_West
p1888
aa(lp1889
I5
aVnNDC_Midwest
p1890
aVcCEN_South
p1891
aa(lp1892
I5
aVnNDC_Midwest
p1893
aVcCEN_Northeast
p1894
aa(lp1895
I5
aVnNDC_Southeast
p1896
aVcCEN_Northeast
p1897
aa(lp1898
I5
aVnNDC_Southwest
p1899
aVcCEN_Northeast
p1900
aa(lp1901
I5
aVnNDC_West
p1902
aVcCEN_Northeast
p1903
aa(lp1904
I5
aVnNDC_West
p1905
aVcCEN_South
p1906
aa(lp1907
I5
aVcCEN_South
p1908
aVnNDC_West
p1909
aa(lp1910
I5
aVcCEN_West
p1911
aVnNDC_Southeast
p1912
aa(lp1913
I5
aVnNDC_Southeast
p1914
aVcCEN_West
p1915
aa(lp1916
I5
aVcCEN_South
p1917
aVnNDC_Northeast
p1918
aa(lp1919
I5
aVnNDC_Northeast
p1920
aVcCEN_South
p1921
aa(lp1922
I5
aVnNDC_Southwest
p1923
aVcCEN_West
p1924
aa(lp1925
I5
aVcCEN_West
p1926
aVnNDC_Southwest
p1927
aaa(lp1928
(lp1929
I5
aVcCEN_Northeast
p1930
aVnNDC_Northeast
p1931
aa(lp1932
I5
aVcCEN_Northeast
p1933
aVcCEN_USA
p1934
aa(lp1935
I5
aVcCEN_Midwest
p1936
aVcCEN_USA
p1937
aa(lp1938
I5
aVcCEN_South
p1939
aVcCEN_USA
p1940
aa(lp1941
I5
aVcCEN_West
p1942
aVcCEN_USA
p1943
aa(lp1944
I5
aVnNDC_Midwest
p1945
aVnNDC_USA
p1946
aa(lp1947
I5
aVnNDC_Northeast
p1948
aVnNDC_USA
p1949
aa(lp1950
I5
aVnNDC_Southeast
p1951
aVnNDC_USA
p1952
aa(lp1953
I5
aVnNDC_Southwest
p1954
aVnNDC_USA
p1955
aa(lp1956
I5
aVnNDC_West
p1957
aVnNDC_USA
p1958
aa(lp1959
I5
aVnNDC_West
p1960
aVcCEN_West
p1961
aa(lp1962
I5
aVcCEN_Northeast
p1963
aVnNDC_USA
p1964
aa(lp1965
I5
aVcCEN_Midwest
p1966
aVnNDC_USA
p1967
aa(lp1968
I5
aVcCEN_South
p1969
aVnNDC_USA
p1970
aa(lp1971
I5
aVcCEN_West
p1972
aVnNDC_USA
p1973
aa(lp1974
I5
aVnNDC_West
p1975
aVcCEN_USA
p1976
aa(lp1977
I5
aVnNDC_Southwest
p1978
aVcCEN_USA
p1979
aa(lp1980
I5
aVnNDC_Southeast
p1981
aVcCEN_USA
p1982
aa(lp1983
I5
aVnNDC_Northeast
p1984
aVcCEN_USA
p1985
aa(lp1986
I5
aVnNDC_Midwest
p1987
aVcCEN_USA
p1988
aaa(lp1989
(lp1990
I5
aVcCEN_West
p1991
aVnNDC_West
p1992
aa(lp1993
I5
aVnNDC_USA
p1994
aVnNDC_West
p1995
aa(lp1996
I5
aVnNDC_USA
p1997
aVnNDC_Southwest
p1998
aa(lp1999
I5
aVnNDC_USA
p2000
aVnNDC_Southeast
p2001
aa(lp2002
I5
aVnNDC_USA
p2003
aVnNDC_Northeast
p2004
aa(lp2005
I5
aVnNDC_USA
p2006
aVnNDC_Midwest
p2007
aa(lp2008
I5
aVcCEN_USA
p2009
aVcCEN_West
p2010
aa(lp2011
I5
aVcCEN_USA
p2012
aVcCEN_South
p2013
aa(lp2014
I5
aVcCEN_USA
p2015
aVcCEN_Midwest
p2016
aa(lp2017
I5
aVcCEN_USA
p2018
aVcCEN_Northeast
p2019
aa(lp2020
I5
aVnNDC_Northeast
p2021
aVcCEN_Northeast
p2022
aa(lp2023
I5
aVnNDC_USA
p2024
aVcCEN_West
p2025
aa(lp2026
I5
aVnNDC_USA
p2027
aVcCEN_South
p2028
aa(lp2029
I5
aVnNDC_USA
p2030
aVcCEN_Midwest
p2031
aa(lp2032
I5
aVnNDC_USA
p2033
aVcCEN_Northeast
p2034
aa(lp2035
I5
aVcCEN_USA
p2036
aVnNDC_West
p2037
aa(lp2038
I5
aVcCEN_USA
p2039
aVnNDC_Midwest
p2040
aa(lp2041
I5
aVcCEN_USA
p2042
aVnNDC_Northeast
p2043
aa(lp2044
I5
aVcCEN_USA
p2045
aVnNDC_Southeast
p2046
aa(lp2047
I5
aVcCEN_USA
p2048
aVnNDC_Southwest
p2049
aaa(lp2050
(lp2051
I5
aVcCEN_South
p2052
aVnNDC_Southwest
p2053
aa(lp2054
I5
aVnNDC_Southwest
p2055
aVcCEN_South
p2056
aa(lp2057
I5
aVcCEN_South
p2058
aVnNDC_Southeast
p2059
aa(lp2060
I5
aVnNDC_Southeast
p2061
aVcCEN_South
p2062
aaa(lp2063
(lp2064
I5
aVcCEN_Northeast
p2065
aa(lp2066
I5
aVcCEN_Midwest
p2067
aa(lp2068
I5
aVcCEN_South
p2069
aa(lp2070
I5
aVcCEN_West
p2071
aa(lp2072
I5
aVnNDC_Midwest
p2073
aa(lp2074
I5
aVnNDC_Northeast
p2075
aa(lp2076
I5
aVnNDC_Southeast
p2077
aa(lp2078
I5
aVnNDC_Southwest
p2079
aa(lp2080
I5
aVnNDC_West
p2081
aa(lp2082
I5
aVcCEN_USA
p2083
aa(lp2084
I5
aVnNDC_USA
p2085
aaa(lp2086
(lp2087
I5
aVcCEN_USA
p2088
aVcCEN_Northeast
p2089
aa(lp2090
I5
aVcCEN_USA
p2091
aVcCEN_Midwest
p2092
aa(lp2093
I5
aVcCEN_USA
p2094
aVcCEN_South
p2095
aa(lp2096
I5
aVcCEN_USA
p2097
aVcCEN_West
p2098
aa(lp2099
I5
aVnNDC_USA
p2100
aVnNDC_Midwest
p2101
aa(lp2102
I5
aVnNDC_USA
p2103
aVnNDC_Northeast
p2104
aa(lp2105
I5
aVnNDC_USA
p2106
aVnNDC_Southeast
p2107
aa(lp2108
I5
aVnNDC_USA
p2109
aVnNDC_Southwest
p2110
aa(lp2111
I5
aVnNDC_USA
p2112
aVnNDC_West
p2113
aaasba(ihelper
PossibleWorld
p2114
(dp2115
g3
I6
sg4
I0
sg5
(lp2116
(lp2117
(lp2118
I6
aVcCEN_USA
p2119
aVnNDC_USA
p2120
aa(lp2121
I6
aVcCEN_Midwest
p2122
aVnNDC_Midwest
p2123
aa(lp2124
I6
aVnNDC_Midwest
p2125
aVcCEN_Midwest
p2126
aa(lp2127
I6
aVnNDC_USA
p2128
aVcCEN_USA
p2129
aa(lp2130
I6
aVnNDC_USA
p2131
aVnNDC_USA
p2132
aa(lp2133
I6
aVcCEN_USA
p2134
aVcCEN_USA
p2135
aa(lp2136
I6
aVnNDC_West
p2137
aVnNDC_West
p2138
aa(lp2139
I6
aVnNDC_Southwest
p2140
aVnNDC_Southwest
p2141
aa(lp2142
I6
aVnNDC_Southeast
p2143
aVnNDC_Southeast
p2144
aa(lp2145
I6
aVnNDC_Northeast
p2146
aVnNDC_Northeast
p2147
aa(lp2148
I6
aVnNDC_Midwest
p2149
aVnNDC_Midwest
p2150
aa(lp2151
I6
aVcCEN_West
p2152
aVcCEN_West
p2153
aa(lp2154
I6
aVcCEN_South
p2155
aVcCEN_South
p2156
aa(lp2157
I6
aVcCEN_Midwest
p2158
aVcCEN_Midwest
p2159
aa(lp2160
I6
aVcCEN_Northeast
p2161
aVcCEN_Northeast
p2162
aaa(lp2163
(lp2164
I6
aVcCEN_West
p2165
aVnNDC_Northeast
p2166
aa(lp2167
I6
aVcCEN_Midwest
p2168
aVcCEN_Northeast
p2169
aa(lp2170
I6
aVcCEN_South
p2171
aVcCEN_Northeast
p2172
aa(lp2173
I6
aVcCEN_West
p2174
aVcCEN_Northeast
p2175
aa(lp2176
I6
aVcCEN_Northeast
p2177
aVcCEN_Midwest
p2178
aa(lp2179
I6
aVcCEN_South
p2180
aVcCEN_Midwest
p2181
aa(lp2182
I6
aVcCEN_West
p2183
aVcCEN_Midwest
p2184
aa(lp2185
I6
aVcCEN_Northeast
p2186
aVcCEN_South
p2187
aa(lp2188
I6
aVcCEN_Midwest
p2189
aVcCEN_South
p2190
aa(lp2191
I6
aVcCEN_West
p2192
aVcCEN_South
p2193
aa(lp2194
I6
aVcCEN_Northeast
p2195
aVcCEN_West
p2196
aa(lp2197
I6
aVcCEN_Midwest
p2198
aVcCEN_West
p2199
aa(lp2200
I6
aVcCEN_South
p2201
aVcCEN_West
p2202
aa(lp2203
I6
aVnNDC_Northeast
p2204
aVnNDC_Midwest
p2205
aa(lp2206
I6
aVnNDC_Southeast
p2207
aVnNDC_Midwest
p2208
aa(lp2209
I6
aVnNDC_Southwest
p2210
aVnNDC_Midwest
p2211
aa(lp2212
I6
aVnNDC_West
p2213
aVnNDC_Midwest
p2214
aa(lp2215
I6
aVnNDC_Midwest
p2216
aVnNDC_Northeast
p2217
aa(lp2218
I6
aVnNDC_Southeast
p2219
aVnNDC_Northeast
p2220
aa(lp2221
I6
aVnNDC_Southwest
p2222
aVnNDC_Northeast
p2223
aa(lp2224
I6
aVnNDC_West
p2225
aVnNDC_Northeast
p2226
aa(lp2227
I6
aVnNDC_Midwest
p2228
aVnNDC_Southeast
p2229
aa(lp2230
I6
aVnNDC_Northeast
p2231
aVnNDC_Southeast
p2232
aa(lp2233
I6
aVnNDC_Southwest
p2234
aVnNDC_Southeast
p2235
aa(lp2236
I6
aVnNDC_West
p2237
aVnNDC_Southeast
p2238
aa(lp2239
I6
aVnNDC_Midwest
p2240
aVnNDC_Southwest
p2241
aa(lp2242
I6
aVnNDC_Northeast
p2243
aVnNDC_Southwest
p2244
aa(lp2245
I6
aVnNDC_Southeast
p2246
aVnNDC_Southwest
p2247
aa(lp2248
I6
aVnNDC_West
p2249
aVnNDC_Southwest
p2250
aa(lp2251
I6
aVnNDC_Midwest
p2252
aVnNDC_West
p2253
aa(lp2254
I6
aVnNDC_Northeast
p2255
aVnNDC_West
p2256
aa(lp2257
I6
aVnNDC_Southeast
p2258
aVnNDC_West
p2259
aa(lp2260
I6
aVnNDC_Southwest
p2261
aVnNDC_West
p2262
aa(lp2263
I6
aVnNDC_Northeast
p2264
aVcCEN_West
p2265
aa(lp2266
I6
aVcCEN_Northeast
p2267
aVnNDC_West
p2268
aa(lp2269
I6
aVcCEN_Northeast
p2270
aVnNDC_Southwest
p2271
aa(lp2272
I6
aVcCEN_Northeast
p2273
aVnNDC_Southeast
p2274
aa(lp2275
I6
aVcCEN_Northeast
p2276
aVnNDC_Midwest
p2277
aa(lp2278
I6
aVcCEN_South
p2279
aVnNDC_Midwest
p2280
aa(lp2281
I6
aVcCEN_West
p2282
aVnNDC_Midwest
p2283
aa(lp2284
I6
aVcCEN_Midwest
p2285
aVnNDC_West
p2286
aa(lp2287
I6
aVcCEN_Midwest
p2288
aVnNDC_Southwest
p2289
aa(lp2290
I6
aVcCEN_Midwest
p2291
aVnNDC_Southeast
p2292
aa(lp2293
I6
aVcCEN_Midwest
p2294
aVnNDC_Northeast
p2295
aa(lp2296
I6
aVnNDC_Northeast
p2297
aVcCEN_Midwest
p2298
aa(lp2299
I6
aVnNDC_Southeast
p2300
aVcCEN_Midwest
p2301
aa(lp2302
I6
aVnNDC_Southwest
p2303
aVcCEN_Midwest
p2304
aa(lp2305
I6
aVnNDC_West
p2306
aVcCEN_Midwest
p2307
aa(lp2308
I6
aVnNDC_Midwest
p2309
aVcCEN_West
p2310
aa(lp2311
I6
aVnNDC_Midwest
p2312
aVcCEN_South
p2313
aa(lp2314
I6
aVnNDC_Midwest
p2315
aVcCEN_Northeast
p2316
aa(lp2317
I6
aVnNDC_Southeast
p2318
aVcCEN_Northeast
p2319
aa(lp2320
I6
aVnNDC_Southwest
p2321
aVcCEN_Northeast
p2322
aa(lp2323
I6
aVnNDC_West
p2324
aVcCEN_Northeast
p2325
aa(lp2326
I6
aVnNDC_West
p2327
aVcCEN_South
p2328
aa(lp2329
I6
aVcCEN_South
p2330
aVnNDC_West
p2331
aa(lp2332
I6
aVcCEN_West
p2333
aVnNDC_Southeast
p2334
aa(lp2335
I6
aVnNDC_Southeast
p2336
aVcCEN_West
p2337
aa(lp2338
I6
aVnNDC_Southwest
p2339
aVcCEN_West
p2340
aa(lp2341
I6
aVcCEN_West
p2342
aVnNDC_Southwest
p2343
aaa(lp2344
(lp2345
I6
aVcCEN_Northeast
p2346
aVnNDC_Northeast
p2347
aa(lp2348
I6
aVcCEN_Northeast
p2349
aVcCEN_USA
p2350
aa(lp2351
I6
aVcCEN_Midwest
p2352
aVcCEN_USA
p2353
aa(lp2354
I6
aVcCEN_South
p2355
aVcCEN_USA
p2356
aa(lp2357
I6
aVcCEN_West
p2358
aVcCEN_USA
p2359
aa(lp2360
I6
aVnNDC_Midwest
p2361
aVnNDC_USA
p2362
aa(lp2363
I6
aVnNDC_Northeast
p2364
aVnNDC_USA
p2365
aa(lp2366
I6
aVnNDC_Southeast
p2367
aVnNDC_USA
p2368
aa(lp2369
I6
aVnNDC_Southwest
p2370
aVnNDC_USA
p2371
aa(lp2372
I6
aVnNDC_West
p2373
aVnNDC_USA
p2374
aa(lp2375
I6
aVnNDC_West
p2376
aVcCEN_West
p2377
aa(lp2378
I6
aVcCEN_Northeast
p2379
aVnNDC_USA
p2380
aa(lp2381
I6
aVcCEN_Midwest
p2382
aVnNDC_USA
p2383
aa(lp2384
I6
aVcCEN_South
p2385
aVnNDC_USA
p2386
aa(lp2387
I6
aVcCEN_West
p2388
aVnNDC_USA
p2389
aa(lp2390
I6
aVnNDC_West
p2391
aVcCEN_USA
p2392
aa(lp2393
I6
aVnNDC_Southwest
p2394
aVcCEN_USA
p2395
aa(lp2396
I6
aVnNDC_Southeast
p2397
aVcCEN_USA
p2398
aa(lp2399
I6
aVnNDC_Northeast
p2400
aVcCEN_USA
p2401
aa(lp2402
I6
aVnNDC_Midwest
p2403
aVcCEN_USA
p2404
aaa(lp2405
(lp2406
I6
aVcCEN_West
p2407
aVnNDC_West
p2408
aa(lp2409
I6
aVnNDC_USA
p2410
aVnNDC_West
p2411
aa(lp2412
I6
aVnNDC_USA
p2413
aVnNDC_Southwest
p2414
aa(lp2415
I6
aVnNDC_USA
p2416
aVnNDC_Southeast
p2417
aa(lp2418
I6
aVnNDC_USA
p2419
aVnNDC_Northeast
p2420
aa(lp2421
I6
aVnNDC_USA
p2422
aVnNDC_Midwest
p2423
aa(lp2424
I6
aVcCEN_USA
p2425
aVcCEN_West
p2426
aa(lp2427
I6
aVcCEN_USA
p2428
aVcCEN_South
p2429
aa(lp2430
I6
aVcCEN_USA
p2431
aVcCEN_Midwest
p2432
aa(lp2433
I6
aVcCEN_USA
p2434
aVcCEN_Northeast
p2435
aa(lp2436
I6
aVnNDC_Northeast
p2437
aVcCEN_Northeast
p2438
aa(lp2439
I6
aVnNDC_USA
p2440
aVcCEN_West
p2441
aa(lp2442
I6
aVnNDC_USA
p2443
aVcCEN_South
p2444
aa(lp2445
I6
aVnNDC_USA
p2446
aVcCEN_Midwest
p2447
aa(lp2448
I6
aVnNDC_USA
p2449
aVcCEN_Northeast
p2450
aa(lp2451
I6
aVcCEN_USA
p2452
aVnNDC_West
p2453
aa(lp2454
I6
aVcCEN_USA
p2455
aVnNDC_Midwest
p2456
aa(lp2457
I6
aVcCEN_USA
p2458
aVnNDC_Northeast
p2459
aa(lp2460
I6
aVcCEN_USA
p2461
aVnNDC_Southeast
p2462
aa(lp2463
I6
aVcCEN_USA
p2464
aVnNDC_Southwest
p2465
aaa(lp2466
(lp2467
I6
aVcCEN_South
p2468
aVnNDC_Southwest
p2469
aa(lp2470
I6
aVnNDC_Southwest
p2471
aVcCEN_South
p2472
aa(lp2473
I6
aVcCEN_South
p2474
aVnNDC_Southeast
p2475
aa(lp2476
I6
aVnNDC_Northeast
p2477
aVcCEN_South
p2478
aa(lp2479
I6
aVnNDC_Southeast
p2480
aVcCEN_South
p2481
aa(lp2482
I6
aVcCEN_South
p2483
aVnNDC_Northeast
p2484
aaa(lp2485
(lp2486
I6
aVcCEN_Northeast
p2487
aa(lp2488
I6
aVcCEN_Midwest
p2489
aa(lp2490
I6
aVcCEN_South
p2491
aa(lp2492
I6
aVcCEN_West
p2493
aa(lp2494
I6
aVnNDC_Midwest
p2495
aa(lp2496
I6
aVnNDC_Northeast
p2497
aa(lp2498
I6
aVnNDC_Southeast
p2499
aa(lp2500
I6
aVnNDC_Southwest
p2501
aa(lp2502
I6
aVnNDC_West
p2503
aa(lp2504
I6
aVcCEN_USA
p2505
aa(lp2506
I6
aVnNDC_USA
p2507
aaa(lp2508
(lp2509
I6
aVcCEN_USA
p2510
aVcCEN_Northeast
p2511
aa(lp2512
I6
aVcCEN_USA
p2513
aVcCEN_Midwest
p2514
aa(lp2515
I6
aVcCEN_USA
p2516
aVcCEN_South
p2517
aa(lp2518
I6
aVcCEN_USA
p2519
aVcCEN_West
p2520
aa(lp2521
I6
aVnNDC_USA
p2522
aVnNDC_Midwest
p2523
aa(lp2524
I6
aVnNDC_USA
p2525
aVnNDC_Northeast
p2526
aa(lp2527
I6
aVnNDC_USA
p2528
aVnNDC_Southeast
p2529
aa(lp2530
I6
aVnNDC_USA
p2531
aVnNDC_Southwest
p2532
aa(lp2533
I6
aVnNDC_USA
p2534
aVnNDC_West
p2535
aaasba(ihelper
PossibleWorld
p2536
(dp2537
g3
I7
sg4
I0
sg5
(lp2538
(lp2539
(lp2540
I7
aVcCEN_USA
p2541
aVnNDC_USA
p2542
aa(lp2543
I7
aVcCEN_Midwest
p2544
aVnNDC_Midwest
p2545
aa(lp2546
I7
aVnNDC_Midwest
p2547
aVcCEN_Midwest
p2548
aa(lp2549
I7
aVnNDC_USA
p2550
aVcCEN_USA
p2551
aa(lp2552
I7
aVnNDC_USA
p2553
aVnNDC_USA
p2554
aa(lp2555
I7
aVcCEN_USA
p2556
aVcCEN_USA
p2557
aa(lp2558
I7
aVnNDC_West
p2559
aVnNDC_West
p2560
aa(lp2561
I7
aVnNDC_Southwest
p2562
aVnNDC_Southwest
p2563
aa(lp2564
I7
aVnNDC_Southeast
p2565
aVnNDC_Southeast
p2566
aa(lp2567
I7
aVnNDC_Northeast
p2568
aVnNDC_Northeast
p2569
aa(lp2570
I7
aVnNDC_Midwest
p2571
aVnNDC_Midwest
p2572
aa(lp2573
I7
aVcCEN_West
p2574
aVcCEN_West
p2575
aa(lp2576
I7
aVcCEN_South
p2577
aVcCEN_South
p2578
aa(lp2579
I7
aVcCEN_Midwest
p2580
aVcCEN_Midwest
p2581
aa(lp2582
I7
aVcCEN_Northeast
p2583
aVcCEN_Northeast
p2584
aaa(lp2585
(lp2586
I7
aVcCEN_West
p2587
aVnNDC_Northeast
p2588
aa(lp2589
I7
aVcCEN_Midwest
p2590
aVcCEN_Northeast
p2591
aa(lp2592
I7
aVcCEN_South
p2593
aVcCEN_Northeast
p2594
aa(lp2595
I7
aVcCEN_West
p2596
aVcCEN_Northeast
p2597
aa(lp2598
I7
aVcCEN_Northeast
p2599
aVcCEN_Midwest
p2600
aa(lp2601
I7
aVcCEN_South
p2602
aVcCEN_Midwest
p2603
aa(lp2604
I7
aVcCEN_West
p2605
aVcCEN_Midwest
p2606
aa(lp2607
I7
aVcCEN_Northeast
p2608
aVcCEN_South
p2609
aa(lp2610
I7
aVcCEN_Midwest
p2611
aVcCEN_South
p2612
aa(lp2613
I7
aVcCEN_West
p2614
aVcCEN_South
p2615
aa(lp2616
I7
aVcCEN_Northeast
p2617
aVcCEN_West
p2618
aa(lp2619
I7
aVcCEN_Midwest
p2620
aVcCEN_West
p2621
aa(lp2622
I7
aVcCEN_South
p2623
aVcCEN_West
p2624
aa(lp2625
I7
aVnNDC_Northeast
p2626
aVnNDC_Midwest
p2627
aa(lp2628
I7
aVnNDC_Southeast
p2629
aVnNDC_Midwest
p2630
aa(lp2631
I7
aVnNDC_Southwest
p2632
aVnNDC_Midwest
p2633
aa(lp2634
I7
aVnNDC_West
p2635
aVnNDC_Midwest
p2636
aa(lp2637
I7
aVnNDC_Midwest
p2638
aVnNDC_Northeast
p2639
aa(lp2640
I7
aVnNDC_Southeast
p2641
aVnNDC_Northeast
p2642
aa(lp2643
I7
aVnNDC_Southwest
p2644
aVnNDC_Northeast
p2645
aa(lp2646
I7
aVnNDC_West
p2647
aVnNDC_Northeast
p2648
aa(lp2649
I7
aVnNDC_Midwest
p2650
aVnNDC_Southeast
p2651
aa(lp2652
I7
aVnNDC_Northeast
p2653
aVnNDC_Southeast
p2654
aa(lp2655
I7
aVnNDC_Southwest
p2656
aVnNDC_Southeast
p2657
aa(lp2658
I7
aVnNDC_West
p2659
aVnNDC_Southeast
p2660
aa(lp2661
I7
aVnNDC_Midwest
p2662
aVnNDC_Southwest
p2663
aa(lp2664
I7
aVnNDC_Northeast
p2665
aVnNDC_Southwest
p2666
aa(lp2667
I7
aVnNDC_Southeast
p2668
aVnNDC_Southwest
p2669
aa(lp2670
I7
aVnNDC_West
p2671
aVnNDC_Southwest
p2672
aa(lp2673
I7
aVnNDC_Midwest
p2674
aVnNDC_West
p2675
aa(lp2676
I7
aVnNDC_Northeast
p2677
aVnNDC_West
p2678
aa(lp2679
I7
aVnNDC_Southeast
p2680
aVnNDC_West
p2681
aa(lp2682
I7
aVnNDC_Southwest
p2683
aVnNDC_West
p2684
aa(lp2685
I7
aVnNDC_Northeast
p2686
aVcCEN_West
p2687
aa(lp2688
I7
aVcCEN_Northeast
p2689
aVnNDC_West
p2690
aa(lp2691
I7
aVcCEN_Northeast
p2692
aVnNDC_Southwest
p2693
aa(lp2694
I7
aVcCEN_Northeast
p2695
aVnNDC_Southeast
p2696
aa(lp2697
I7
aVcCEN_Northeast
p2698
aVnNDC_Midwest
p2699
aa(lp2700
I7
aVcCEN_South
p2701
aVnNDC_Midwest
p2702
aa(lp2703
I7
aVcCEN_West
p2704
aVnNDC_Midwest
p2705
aa(lp2706
I7
aVcCEN_Midwest
p2707
aVnNDC_West
p2708
aa(lp2709
I7
aVcCEN_Midwest
p2710
aVnNDC_Southwest
p2711
aa(lp2712
I7
aVcCEN_Midwest
p2713
aVnNDC_Southeast
p2714
aa(lp2715
I7
aVcCEN_Midwest
p2716
aVnNDC_Northeast
p2717
aa(lp2718
I7
aVnNDC_Northeast
p2719
aVcCEN_Midwest
p2720
aa(lp2721
I7
aVnNDC_Southeast
p2722
aVcCEN_Midwest
p2723
aa(lp2724
I7
aVnNDC_Southwest
p2725
aVcCEN_Midwest
p2726
aa(lp2727
I7
aVnNDC_West
p2728
aVcCEN_Midwest
p2729
aa(lp2730
I7
aVnNDC_Midwest
p2731
aVcCEN_West
p2732
aa(lp2733
I7
aVnNDC_Midwest
p2734
aVcCEN_South
p2735
aa(lp2736
I7
aVnNDC_Midwest
p2737
aVcCEN_Northeast
p2738
aa(lp2739
I7
aVnNDC_Southeast
p2740
aVcCEN_Northeast
p2741
aa(lp2742
I7
aVnNDC_Southwest
p2743
aVcCEN_Northeast
p2744
aa(lp2745
I7
aVnNDC_West
p2746
aVcCEN_Northeast
p2747
aa(lp2748
I7
aVnNDC_West
p2749
aVcCEN_South
p2750
aa(lp2751
I7
aVcCEN_South
p2752
aVnNDC_West
p2753
aa(lp2754
I7
aVcCEN_West
p2755
aVnNDC_Southeast
p2756
aa(lp2757
I7
aVnNDC_Southeast
p2758
aVcCEN_West
p2759
aa(lp2760
I7
aVcCEN_South
p2761
aVnNDC_Northeast
p2762
aa(lp2763
I7
aVnNDC_Northeast
p2764
aVcCEN_South
p2765
aa(lp2766
I7
aVnNDC_Southwest
p2767
aVcCEN_West
p2768
aa(lp2769
I7
aVcCEN_West
p2770
aVnNDC_Southwest
p2771
aaa(lp2772
(lp2773
I7
aVcCEN_Northeast
p2774
aVnNDC_Northeast
p2775
aa(lp2776
I7
aVcCEN_Northeast
p2777
aVcCEN_USA
p2778
aa(lp2779
I7
aVcCEN_Midwest
p2780
aVcCEN_USA
p2781
aa(lp2782
I7
aVcCEN_South
p2783
aVcCEN_USA
p2784
aa(lp2785
I7
aVcCEN_West
p2786
aVcCEN_USA
p2787
aa(lp2788
I7
aVnNDC_Midwest
p2789
aVnNDC_USA
p2790
aa(lp2791
I7
aVnNDC_Northeast
p2792
aVnNDC_USA
p2793
aa(lp2794
I7
aVnNDC_Southeast
p2795
aVnNDC_USA
p2796
aa(lp2797
I7
aVnNDC_Southwest
p2798
aVnNDC_USA
p2799
aa(lp2800
I7
aVnNDC_West
p2801
aVnNDC_USA
p2802
aa(lp2803
I7
aVnNDC_West
p2804
aVcCEN_West
p2805
aa(lp2806
I7
aVcCEN_Northeast
p2807
aVnNDC_USA
p2808
aa(lp2809
I7
aVcCEN_Midwest
p2810
aVnNDC_USA
p2811
aa(lp2812
I7
aVcCEN_South
p2813
aVnNDC_USA
p2814
aa(lp2815
I7
aVcCEN_West
p2816
aVnNDC_USA
p2817
aa(lp2818
I7
aVnNDC_West
p2819
aVcCEN_USA
p2820
aa(lp2821
I7
aVnNDC_Southwest
p2822
aVcCEN_USA
p2823
aa(lp2824
I7
aVnNDC_Southeast
p2825
aVcCEN_USA
p2826
aa(lp2827
I7
aVnNDC_Northeast
p2828
aVcCEN_USA
p2829
aa(lp2830
I7
aVnNDC_Midwest
p2831
aVcCEN_USA
p2832
aa(lp2833
I7
aVnNDC_Southeast
p2834
aVcCEN_South
p2835
aaa(lp2836
(lp2837
I7
aVcCEN_West
p2838
aVnNDC_West
p2839
aa(lp2840
I7
aVnNDC_USA
p2841
aVnNDC_West
p2842
aa(lp2843
I7
aVnNDC_USA
p2844
aVnNDC_Southwest
p2845
aa(lp2846
I7
aVnNDC_USA
p2847
aVnNDC_Southeast
p2848
aa(lp2849
I7
aVnNDC_USA
p2850
aVnNDC_Northeast
p2851
aa(lp2852
I7
aVnNDC_USA
p2853
aVnNDC_Midwest
p2854
aa(lp2855
I7
aVcCEN_USA
p2856
aVcCEN_West
p2857
aa(lp2858
I7
aVcCEN_USA
p2859
aVcCEN_South
p2860
aa(lp2861
I7
aVcCEN_USA
p2862
aVcCEN_Midwest
p2863
aa(lp2864
I7
aVcCEN_USA
p2865
aVcCEN_Northeast
p2866
aa(lp2867
I7
aVnNDC_Northeast
p2868
aVcCEN_Northeast
p2869
aa(lp2870
I7
aVnNDC_USA
p2871
aVcCEN_West
p2872
aa(lp2873
I7
aVnNDC_USA
p2874
aVcCEN_South
p2875
aa(lp2876
I7
aVnNDC_USA
p2877
aVcCEN_Midwest
p2878
aa(lp2879
I7
aVnNDC_USA
p2880
aVcCEN_Northeast
p2881
aa(lp2882
I7
aVcCEN_USA
p2883
aVnNDC_West
p2884
aa(lp2885
I7
aVcCEN_USA
p2886
aVnNDC_Midwest
p2887
aa(lp2888
I7
aVcCEN_USA
p2889
aVnNDC_Northeast
p2890
aa(lp2891
I7
aVcCEN_USA
p2892
aVnNDC_Southeast
p2893
aa(lp2894
I7
aVcCEN_USA
p2895
aVnNDC_Southwest
p2896
aa(lp2897
I7
aVcCEN_South
p2898
aVnNDC_Southeast
p2899
aaa(lp2900
(lp2901
I7
aVcCEN_South
p2902
aVnNDC_Southwest
p2903
aa(lp2904
I7
aVnNDC_Southwest
p2905
aVcCEN_South
p2906
aaa(lp2907
(lp2908
I7
aVcCEN_Northeast
p2909
aa(lp2910
I7
aVcCEN_Midwest
p2911
aa(lp2912
I7
aVcCEN_South
p2913
aa(lp2914
I7
aVcCEN_West
p2915
aa(lp2916
I7
aVnNDC_Midwest
p2917
aa(lp2918
I7
aVnNDC_Northeast
p2919
aa(lp2920
I7
aVnNDC_Southeast
p2921
aa(lp2922
I7
aVnNDC_Southwest
p2923
aa(lp2924
I7
aVnNDC_West
p2925
aa(lp2926
I7
aVcCEN_USA
p2927
aa(lp2928
I7
aVnNDC_USA
p2929
aaa(lp2930
(lp2931
I7
aVcCEN_USA
p2932
aVcCEN_Northeast
p2933
aa(lp2934
I7
aVcCEN_USA
p2935
aVcCEN_Midwest
p2936
aa(lp2937
I7
aVcCEN_USA
p2938
aVcCEN_South
p2939
aa(lp2940
I7
aVcCEN_USA
p2941
aVcCEN_West
p2942
aa(lp2943
I7
aVnNDC_USA
p2944
aVnNDC_Midwest
p2945
aa(lp2946
I7
aVnNDC_USA
p2947
aVnNDC_Northeast
p2948
aa(lp2949
I7
aVnNDC_USA
p2950
aVnNDC_Southeast
p2951
aa(lp2952
I7
aVnNDC_USA
p2953
aVnNDC_Southwest
p2954
aa(lp2955
I7
aVnNDC_USA
p2956
aVnNDC_West
p2957
aaasba(ihelper
PossibleWorld
p2958
(dp2959
g3
I8
sg4
I0
sg5
(lp2960
(lp2961
(lp2962
I8
aVcCEN_USA
p2963
aVnNDC_USA
p2964
aa(lp2965
I8
aVcCEN_Midwest
p2966
aVnNDC_Midwest
p2967
aa(lp2968
I8
aVnNDC_Midwest
p2969
aVcCEN_Midwest
p2970
aa(lp2971
I8
aVnNDC_USA
p2972
aVcCEN_USA
p2973
aa(lp2974
I8
aVnNDC_USA
p2975
aVnNDC_USA
p2976
aa(lp2977
I8
aVcCEN_USA
p2978
aVcCEN_USA
p2979
aa(lp2980
I8
aVnNDC_West
p2981
aVnNDC_West
p2982
aa(lp2983
I8
aVnNDC_Southwest
p2984
aVnNDC_Southwest
p2985
aa(lp2986
I8
aVnNDC_Southeast
p2987
aVnNDC_Southeast
p2988
aa(lp2989
I8
aVnNDC_Northeast
p2990
aVnNDC_Northeast
p2991
aa(lp2992
I8
aVnNDC_Midwest
p2993
aVnNDC_Midwest
p2994
aa(lp2995
I8
aVcCEN_West
p2996
aVcCEN_West
p2997
aa(lp2998
I8
aVcCEN_South
p2999
aVcCEN_South
p3000
aa(lp3001
I8
aVcCEN_Midwest
p3002
aVcCEN_Midwest
p3003
aa(lp3004
I8
aVcCEN_Northeast
p3005
aVcCEN_Northeast
p3006
aaa(lp3007
(lp3008
I8
aVcCEN_West
p3009
aVnNDC_Northeast
p3010
aa(lp3011
I8
aVcCEN_Midwest
p3012
aVcCEN_Northeast
p3013
aa(lp3014
I8
aVcCEN_South
p3015
aVcCEN_Northeast
p3016
aa(lp3017
I8
aVcCEN_West
p3018
aVcCEN_Northeast
p3019
aa(lp3020
I8
aVcCEN_Northeast
p3021
aVcCEN_Midwest
p3022
aa(lp3023
I8
aVcCEN_South
p3024
aVcCEN_Midwest
p3025
aa(lp3026
I8
aVcCEN_West
p3027
aVcCEN_Midwest
p3028
aa(lp3029
I8
aVcCEN_Northeast
p3030
aVcCEN_South
p3031
aa(lp3032
I8
aVcCEN_Midwest
p3033
aVcCEN_South
p3034
aa(lp3035
I8
aVcCEN_West
p3036
aVcCEN_South
p3037
aa(lp3038
I8
aVcCEN_Northeast
p3039
aVcCEN_West
p3040
aa(lp3041
I8
aVcCEN_Midwest
p3042
aVcCEN_West
p3043
aa(lp3044
I8
aVcCEN_South
p3045
aVcCEN_West
p3046
aa(lp3047
I8
aVnNDC_Northeast
p3048
aVnNDC_Midwest
p3049
aa(lp3050
I8
aVnNDC_Southeast
p3051
aVnNDC_Midwest
p3052
aa(lp3053
I8
aVnNDC_Southwest
p3054
aVnNDC_Midwest
p3055
aa(lp3056
I8
aVnNDC_West
p3057
aVnNDC_Midwest
p3058
aa(lp3059
I8
aVnNDC_Midwest
p3060
aVnNDC_Northeast
p3061
aa(lp3062
I8
aVnNDC_Southeast
p3063
aVnNDC_Northeast
p3064
aa(lp3065
I8
aVnNDC_Southwest
p3066
aVnNDC_Northeast
p3067
aa(lp3068
I8
aVnNDC_West
p3069
aVnNDC_Northeast
p3070
aa(lp3071
I8
aVnNDC_Midwest
p3072
aVnNDC_Southeast
p3073
aa(lp3074
I8
aVnNDC_Northeast
p3075
aVnNDC_Southeast
p3076
aa(lp3077
I8
aVnNDC_Southwest
p3078
aVnNDC_Southeast
p3079
aa(lp3080
I8
aVnNDC_West
p3081
aVnNDC_Southeast
p3082
aa(lp3083
I8
aVnNDC_Midwest
p3084
aVnNDC_Southwest
p3085
aa(lp3086
I8
aVnNDC_Northeast
p3087
aVnNDC_Southwest
p3088
aa(lp3089
I8
aVnNDC_Southeast
p3090
aVnNDC_Southwest
p3091
aa(lp3092
I8
aVnNDC_West
p3093
aVnNDC_Southwest
p3094
aa(lp3095
I8
aVnNDC_Midwest
p3096
aVnNDC_West
p3097
aa(lp3098
I8
aVnNDC_Northeast
p3099
aVnNDC_West
p3100
aa(lp3101
I8
aVnNDC_Southeast
p3102
aVnNDC_West
p3103
aa(lp3104
I8
aVnNDC_Southwest
p3105
aVnNDC_West
p3106
aa(lp3107
I8
aVnNDC_Northeast
p3108
aVcCEN_West
p3109
aa(lp3110
I8
aVcCEN_Northeast
p3111
aVnNDC_West
p3112
aa(lp3113
I8
aVcCEN_Northeast
p3114
aVnNDC_Southwest
p3115
aa(lp3116
I8
aVcCEN_Northeast
p3117
aVnNDC_Southeast
p3118
aa(lp3119
I8
aVcCEN_Northeast
p3120
aVnNDC_Midwest
p3121
aa(lp3122
I8
aVcCEN_South
p3123
aVnNDC_Midwest
p3124
aa(lp3125
I8
aVcCEN_West
p3126
aVnNDC_Midwest
p3127
aa(lp3128
I8
aVcCEN_Midwest
p3129
aVnNDC_West
p3130
aa(lp3131
I8
aVcCEN_Midwest
p3132
aVnNDC_Southwest
p3133
aa(lp3134
I8
aVcCEN_Midwest
p3135
aVnNDC_Southeast
p3136
aa(lp3137
I8
aVcCEN_Midwest
p3138
aVnNDC_Northeast
p3139
aa(lp3140
I8
aVnNDC_Northeast
p3141
aVcCEN_Midwest
p3142
aa(lp3143
I8
aVnNDC_Southeast
p3144
aVcCEN_Midwest
p3145
aa(lp3146
I8
aVnNDC_Southwest
p3147
aVcCEN_Midwest
p3148
aa(lp3149
I8
aVnNDC_West
p3150
aVcCEN_Midwest
p3151
aa(lp3152
I8
aVnNDC_Midwest
p3153
aVcCEN_West
p3154
aa(lp3155
I8
aVnNDC_Midwest
p3156
aVcCEN_South
p3157
aa(lp3158
I8
aVnNDC_Midwest
p3159
aVcCEN_Northeast
p3160
aa(lp3161
I8
aVnNDC_Southeast
p3162
aVcCEN_Northeast
p3163
aa(lp3164
I8
aVnNDC_Southwest
p3165
aVcCEN_Northeast
p3166
aa(lp3167
I8
aVnNDC_West
p3168
aVcCEN_Northeast
p3169
aa(lp3170
I8
aVnNDC_West
p3171
aVcCEN_South
p3172
aa(lp3173
I8
aVcCEN_South
p3174
aVnNDC_West
p3175
aa(lp3176
I8
aVcCEN_West
p3177
aVnNDC_Southeast
p3178
aa(lp3179
I8
aVnNDC_Southeast
p3180
aVcCEN_West
p3181
aa(lp3182
I8
aVnNDC_Southwest
p3183
aVcCEN_West
p3184
aa(lp3185
I8
aVcCEN_West
p3186
aVnNDC_Southwest
p3187
aaa(lp3188
(lp3189
I8
aVcCEN_Northeast
p3190
aVnNDC_Northeast
p3191
aa(lp3192
I8
aVcCEN_Northeast
p3193
aVcCEN_USA
p3194
aa(lp3195
I8
aVcCEN_Midwest
p3196
aVcCEN_USA
p3197
aa(lp3198
I8
aVcCEN_South
p3199
aVcCEN_USA
p3200
aa(lp3201
I8
aVcCEN_West
p3202
aVcCEN_USA
p3203
aa(lp3204
I8
aVnNDC_Midwest
p3205
aVnNDC_USA
p3206
aa(lp3207
I8
aVnNDC_Northeast
p3208
aVnNDC_USA
p3209
aa(lp3210
I8
aVnNDC_Southeast
p3211
aVnNDC_USA
p3212
aa(lp3213
I8
aVnNDC_Southwest
p3214
aVnNDC_USA
p3215
aa(lp3216
I8
aVnNDC_West
p3217
aVnNDC_USA
p3218
aa(lp3219
I8
aVnNDC_West
p3220
aVcCEN_West
p3221
aa(lp3222
I8
aVcCEN_Northeast
p3223
aVnNDC_USA
p3224
aa(lp3225
I8
aVcCEN_Midwest
p3226
aVnNDC_USA
p3227
aa(lp3228
I8
aVcCEN_South
p3229
aVnNDC_USA
p3230
aa(lp3231
I8
aVcCEN_West
p3232
aVnNDC_USA
p3233
aa(lp3234
I8
aVnNDC_West
p3235
aVcCEN_USA
p3236
aa(lp3237
I8
aVnNDC_Southwest
p3238
aVcCEN_USA
p3239
aa(lp3240
I8
aVnNDC_Southeast
p3241
aVcCEN_USA
p3242
aa(lp3243
I8
aVnNDC_Northeast
p3244
aVcCEN_USA
p3245
aa(lp3246
I8
aVnNDC_Midwest
p3247
aVcCEN_USA
p3248
aa(lp3249
I8
aVnNDC_Southeast
p3250
aVcCEN_South
p3251
aaa(lp3252
(lp3253
I8
aVcCEN_West
p3254
aVnNDC_West
p3255
aa(lp3256
I8
aVnNDC_USA
p3257
aVnNDC_West
p3258
aa(lp3259
I8
aVnNDC_USA
p3260
aVnNDC_Southwest
p3261
aa(lp3262
I8
aVnNDC_USA
p3263
aVnNDC_Southeast
p3264
aa(lp3265
I8
aVnNDC_USA
p3266
aVnNDC_Northeast
p3267
aa(lp3268
I8
aVnNDC_USA
p3269
aVnNDC_Midwest
p3270
aa(lp3271
I8
aVcCEN_USA
p3272
aVcCEN_West
p3273
aa(lp3274
I8
aVcCEN_USA
p3275
aVcCEN_South
p3276
aa(lp3277
I8
aVcCEN_USA
p3278
aVcCEN_Midwest
p3279
aa(lp3280
I8
aVcCEN_USA
p3281
aVcCEN_Northeast
p3282
aa(lp3283
I8
aVnNDC_Northeast
p3284
aVcCEN_Northeast
p3285
aa(lp3286
I8
aVnNDC_USA
p3287
aVcCEN_West
p3288
aa(lp3289
I8
aVnNDC_USA
p3290
aVcCEN_South
p3291
aa(lp3292
I8
aVnNDC_USA
p3293
aVcCEN_Midwest
p3294
aa(lp3295
I8
aVnNDC_USA
p3296
aVcCEN_Northeast
p3297
aa(lp3298
I8
aVcCEN_USA
p3299
aVnNDC_West
p3300
aa(lp3301
I8
aVcCEN_USA
p3302
aVnNDC_Midwest
p3303
aa(lp3304
I8
aVcCEN_USA
p3305
aVnNDC_Northeast
p3306
aa(lp3307
I8
aVcCEN_USA
p3308
aVnNDC_Southeast
p3309
aa(lp3310
I8
aVcCEN_USA
p3311
aVnNDC_Southwest
p3312
aa(lp3313
I8
aVcCEN_South
p3314
aVnNDC_Southeast
p3315
aaa(lp3316
(lp3317
I8
aVcCEN_South
p3318
aVnNDC_Southwest
p3319
aa(lp3320
I8
aVnNDC_Southwest
p3321
aVcCEN_South
p3322
aa(lp3323
I8
aVnNDC_Northeast
p3324
aVcCEN_South
p3325
aa(lp3326
I8
aVcCEN_South
p3327
aVnNDC_Northeast
p3328
aaa(lp3329
(lp3330
I8
aVcCEN_Northeast
p3331
aa(lp3332
I8
aVcCEN_Midwest
p3333
aa(lp3334
I8
aVcCEN_South
p3335
aa(lp3336
I8
aVcCEN_West
p3337
aa(lp3338
I8
aVnNDC_Midwest
p3339
aa(lp3340
I8
aVnNDC_Northeast
p3341
aa(lp3342
I8
aVnNDC_Southeast
p3343
aa(lp3344
I8
aVnNDC_Southwest
p3345
aa(lp3346
I8
aVnNDC_West
p3347
aa(lp3348
I8
aVcCEN_USA
p3349
aa(lp3350
I8
aVnNDC_USA
p3351
aaa(lp3352
(lp3353
I8
aVcCEN_USA
p3354
aVcCEN_Northeast
p3355
aa(lp3356
I8
aVcCEN_USA
p3357
aVcCEN_Midwest
p3358
aa(lp3359
I8
aVcCEN_USA
p3360
aVcCEN_South
p3361
aa(lp3362
I8
aVcCEN_USA
p3363
aVcCEN_West
p3364
aa(lp3365
I8
aVnNDC_USA
p3366
aVnNDC_Midwest
p3367
aa(lp3368
I8
aVnNDC_USA
p3369
aVnNDC_Northeast
p3370
aa(lp3371
I8
aVnNDC_USA
p3372
aVnNDC_Southeast
p3373
aa(lp3374
I8
aVnNDC_USA
p3375
aVnNDC_Southwest
p3376
aa(lp3377
I8
aVnNDC_USA
p3378
aVnNDC_West
p3379
aaasba(ihelper
PossibleWorld
p3380
(dp3381
g3
I9
sg4
I0
sg5
(lp3382
(lp3383
(lp3384
I9
aVcCEN_USA
p3385
aVnNDC_USA
p3386
aa(lp3387
I9
aVcCEN_Midwest
p3388
aVnNDC_Midwest
p3389
aa(lp3390
I9
aVnNDC_Midwest
p3391
aVcCEN_Midwest
p3392
aa(lp3393
I9
aVnNDC_USA
p3394
aVcCEN_USA
p3395
aa(lp3396
I9
aVnNDC_USA
p3397
aVnNDC_USA
p3398
aa(lp3399
I9
aVcCEN_USA
p3400
aVcCEN_USA
p3401
aa(lp3402
I9
aVnNDC_West
p3403
aVnNDC_West
p3404
aa(lp3405
I9
aVnNDC_Southwest
p3406
aVnNDC_Southwest
p3407
aa(lp3408
I9
aVnNDC_Southeast
p3409
aVnNDC_Southeast
p3410
aa(lp3411
I9
aVnNDC_Northeast
p3412
aVnNDC_Northeast
p3413
aa(lp3414
I9
aVnNDC_Midwest
p3415
aVnNDC_Midwest
p3416
aa(lp3417
I9
aVcCEN_West
p3418
aVcCEN_West
p3419
aa(lp3420
I9
aVcCEN_South
p3421
aVcCEN_South
p3422
aa(lp3423
I9
aVcCEN_Midwest
p3424
aVcCEN_Midwest
p3425
aa(lp3426
I9
aVcCEN_Northeast
p3427
aVcCEN_Northeast
p3428
aaa(lp3429
(lp3430
I9
aVcCEN_West
p3431
aVnNDC_Northeast
p3432
aa(lp3433
I9
aVcCEN_Midwest
p3434
aVcCEN_Northeast
p3435
aa(lp3436
I9
aVcCEN_South
p3437
aVcCEN_Northeast
p3438
aa(lp3439
I9
aVcCEN_West
p3440
aVcCEN_Northeast
p3441
aa(lp3442
I9
aVcCEN_Northeast
p3443
aVcCEN_Midwest
p3444
aa(lp3445
I9
aVcCEN_South
p3446
aVcCEN_Midwest
p3447
aa(lp3448
I9
aVcCEN_West
p3449
aVcCEN_Midwest
p3450
aa(lp3451
I9
aVcCEN_Northeast
p3452
aVcCEN_South
p3453
aa(lp3454
I9
aVcCEN_Midwest
p3455
aVcCEN_South
p3456
aa(lp3457
I9
aVcCEN_West
p3458
aVcCEN_South
p3459
aa(lp3460
I9
aVcCEN_Northeast
p3461
aVcCEN_West
p3462
aa(lp3463
I9
aVcCEN_Midwest
p3464
aVcCEN_West
p3465
aa(lp3466
I9
aVcCEN_South
p3467
aVcCEN_West
p3468
aa(lp3469
I9
aVnNDC_Northeast
p3470
aVnNDC_Midwest
p3471
aa(lp3472
I9
aVnNDC_Southeast
p3473
aVnNDC_Midwest
p3474
aa(lp3475
I9
aVnNDC_Southwest
p3476
aVnNDC_Midwest
p3477
aa(lp3478
I9
aVnNDC_West
p3479
aVnNDC_Midwest
p3480
aa(lp3481
I9
aVnNDC_Midwest
p3482
aVnNDC_Northeast
p3483
aa(lp3484
I9
aVnNDC_Southeast
p3485
aVnNDC_Northeast
p3486
aa(lp3487
I9
aVnNDC_Southwest
p3488
aVnNDC_Northeast
p3489
aa(lp3490
I9
aVnNDC_West
p3491
aVnNDC_Northeast
p3492
aa(lp3493
I9
aVnNDC_Midwest
p3494
aVnNDC_Southeast
p3495
aa(lp3496
I9
aVnNDC_Northeast
p3497
aVnNDC_Southeast
p3498
aa(lp3499
I9
aVnNDC_Southwest
p3500
aVnNDC_Southeast
p3501
aa(lp3502
I9
aVnNDC_West
p3503
aVnNDC_Southeast
p3504
aa(lp3505
I9
aVnNDC_Midwest
p3506
aVnNDC_Southwest
p3507
aa(lp3508
I9
aVnNDC_Northeast
p3509
aVnNDC_Southwest
p3510
aa(lp3511
I9
aVnNDC_Southeast
p3512
aVnNDC_Southwest
p3513
aa(lp3514
I9
aVnNDC_West
p3515
aVnNDC_Southwest
p3516
aa(lp3517
I9
aVnNDC_Midwest
p3518
aVnNDC_West
p3519
aa(lp3520
I9
aVnNDC_Northeast
p3521
aVnNDC_West
p3522
aa(lp3523
I9
aVnNDC_Southeast
p3524
aVnNDC_West
p3525
aa(lp3526
I9
aVnNDC_Southwest
p3527
aVnNDC_West
p3528
aa(lp3529
I9
aVnNDC_Northeast
p3530
aVcCEN_West
p3531
aa(lp3532
I9
aVcCEN_Northeast
p3533
aVnNDC_West
p3534
aa(lp3535
I9
aVcCEN_Northeast
p3536
aVnNDC_Southwest
p3537
aa(lp3538
I9
aVcCEN_Northeast
p3539
aVnNDC_Southeast
p3540
aa(lp3541
I9
aVcCEN_Northeast
p3542
aVnNDC_Midwest
p3543
aa(lp3544
I9
aVcCEN_South
p3545
aVnNDC_Midwest
p3546
aa(lp3547
I9
aVcCEN_West
p3548
aVnNDC_Midwest
p3549
aa(lp3550
I9
aVcCEN_Midwest
p3551
aVnNDC_West
p3552
aa(lp3553
I9
aVcCEN_Midwest
p3554
aVnNDC_Southwest
p3555
aa(lp3556
I9
aVcCEN_Midwest
p3557
aVnNDC_Southeast
p3558
aa(lp3559
I9
aVcCEN_Midwest
p3560
aVnNDC_Northeast
p3561
aa(lp3562
I9
aVnNDC_Northeast
p3563
aVcCEN_Midwest
p3564
aa(lp3565
I9
aVnNDC_Southeast
p3566
aVcCEN_Midwest
p3567
aa(lp3568
I9
aVnNDC_Southwest
p3569
aVcCEN_Midwest
p3570
aa(lp3571
I9
aVnNDC_West
p3572
aVcCEN_Midwest
p3573
aa(lp3574
I9
aVnNDC_Midwest
p3575
aVcCEN_West
p3576
aa(lp3577
I9
aVnNDC_Midwest
p3578
aVcCEN_South
p3579
aa(lp3580
I9
aVnNDC_Midwest
p3581
aVcCEN_Northeast
p3582
aa(lp3583
I9
aVnNDC_Southeast
p3584
aVcCEN_Northeast
p3585
aa(lp3586
I9
aVnNDC_Southwest
p3587
aVcCEN_Northeast
p3588
aa(lp3589
I9
aVnNDC_West
p3590
aVcCEN_Northeast
p3591
aa(lp3592
I9
aVnNDC_West
p3593
aVcCEN_South
p3594
aa(lp3595
I9
aVcCEN_South
p3596
aVnNDC_West
p3597
aa(lp3598
I9
aVcCEN_South
p3599
aVnNDC_Southeast
p3600
aa(lp3601
I9
aVnNDC_Southeast
p3602
aVcCEN_South
p3603
aa(lp3604
I9
aVcCEN_South
p3605
aVnNDC_Northeast
p3606
aa(lp3607
I9
aVnNDC_Northeast
p3608
aVcCEN_South
p3609
aaa(lp3610
(lp3611
I9
aVcCEN_Northeast
p3612
aVnNDC_Northeast
p3613
aa(lp3614
I9
aVcCEN_Northeast
p3615
aVcCEN_USA
p3616
aa(lp3617
I9
aVcCEN_Midwest
p3618
aVcCEN_USA
p3619
aa(lp3620
I9
aVcCEN_South
p3621
aVcCEN_USA
p3622
aa(lp3623
I9
aVcCEN_West
p3624
aVcCEN_USA
p3625
aa(lp3626
I9
aVnNDC_Midwest
p3627
aVnNDC_USA
p3628
aa(lp3629
I9
aVnNDC_Northeast
p3630
aVnNDC_USA
p3631
aa(lp3632
I9
aVnNDC_Southeast
p3633
aVnNDC_USA
p3634
aa(lp3635
I9
aVnNDC_Southwest
p3636
aVnNDC_USA
p3637
aa(lp3638
I9
aVnNDC_West
p3639
aVnNDC_USA
p3640
aa(lp3641
I9
aVnNDC_West
p3642
aVcCEN_West
p3643
aa(lp3644
I9
aVcCEN_Northeast
p3645
aVnNDC_USA
p3646
aa(lp3647
I9
aVcCEN_Midwest
p3648
aVnNDC_USA
p3649
aa(lp3650
I9
aVcCEN_South
p3651
aVnNDC_USA
p3652
aa(lp3653
I9
aVcCEN_West
p3654
aVnNDC_USA
p3655
aa(lp3656
I9
aVnNDC_West
p3657
aVcCEN_USA
p3658
aa(lp3659
I9
aVnNDC_Southwest
p3660
aVcCEN_USA
p3661
aa(lp3662
I9
aVnNDC_Southeast
p3663
aVcCEN_USA
p3664
aa(lp3665
I9
aVnNDC_Northeast
p3666
aVcCEN_USA
p3667
aa(lp3668
I9
aVnNDC_Midwest
p3669
aVcCEN_USA
p3670
aa(lp3671
I9
aVnNDC_Southeast
p3672
aVcCEN_West
p3673
aaa(lp3674
(lp3675
I9
aVcCEN_West
p3676
aVnNDC_West
p3677
aa(lp3678
I9
aVnNDC_USA
p3679
aVnNDC_West
p3680
aa(lp3681
I9
aVnNDC_USA
p3682
aVnNDC_Southwest
p3683
aa(lp3684
I9
aVnNDC_USA
p3685
aVnNDC_Southeast
p3686
aa(lp3687
I9
aVnNDC_USA
p3688
aVnNDC_Northeast
p3689
aa(lp3690
I9
aVnNDC_USA
p3691
aVnNDC_Midwest
p3692
aa(lp3693
I9
aVcCEN_USA
p3694
aVcCEN_West
p3695
aa(lp3696
I9
aVcCEN_USA
p3697
aVcCEN_South
p3698
aa(lp3699
I9
aVcCEN_USA
p3700
aVcCEN_Midwest
p3701
aa(lp3702
I9
aVcCEN_USA
p3703
aVcCEN_Northeast
p3704
aa(lp3705
I9
aVnNDC_Northeast
p3706
aVcCEN_Northeast
p3707
aa(lp3708
I9
aVnNDC_USA
p3709
aVcCEN_West
p3710
aa(lp3711
I9
aVnNDC_USA
p3712
aVcCEN_South
p3713
aa(lp3714
I9
aVnNDC_USA
p3715
aVcCEN_Midwest
p3716
aa(lp3717
I9
aVnNDC_USA
p3718
aVcCEN_Northeast
p3719
aa(lp3720
I9
aVcCEN_USA
p3721
aVnNDC_West
p3722
aa(lp3723
I9
aVcCEN_USA
p3724
aVnNDC_Midwest
p3725
aa(lp3726
I9
aVcCEN_USA
p3727
aVnNDC_Northeast
p3728
aa(lp3729
I9
aVcCEN_USA
p3730
aVnNDC_Southeast
p3731
aa(lp3732
I9
aVcCEN_USA
p3733
aVnNDC_Southwest
p3734
aa(lp3735
I9
aVcCEN_West
p3736
aVnNDC_Southeast
p3737
aaa(lp3738
(lp3739
I9
aVcCEN_South
p3740
aVnNDC_Southwest
p3741
aa(lp3742
I9
aVnNDC_Southwest
p3743
aVcCEN_South
p3744
aa(lp3745
I9
aVcCEN_West
p3746
aVnNDC_Southwest
p3747
aa(lp3748
I9
aVnNDC_Southwest
p3749
aVcCEN_West
p3750
aaa(lp3751
(lp3752
I9
aVcCEN_Northeast
p3753
aa(lp3754
I9
aVcCEN_Midwest
p3755
aa(lp3756
I9
aVcCEN_South
p3757
aa(lp3758
I9
aVcCEN_West
p3759
aa(lp3760
I9
aVnNDC_Midwest
p3761
aa(lp3762
I9
aVnNDC_Northeast
p3763
aa(lp3764
I9
aVnNDC_Southeast
p3765
aa(lp3766
I9
aVnNDC_Southwest
p3767
aa(lp3768
I9
aVnNDC_West
p3769
aa(lp3770
I9
aVcCEN_USA
p3771
aa(lp3772
I9
aVnNDC_USA
p3773
aaa(lp3774
(lp3775
I9
aVcCEN_USA
p3776
aVcCEN_Northeast
p3777
aa(lp3778
I9
aVcCEN_USA
p3779
aVcCEN_Midwest
p3780
aa(lp3781
I9
aVcCEN_USA
p3782
aVcCEN_South
p3783
aa(lp3784
I9
aVcCEN_USA
p3785
aVcCEN_West
p3786
aa(lp3787
I9
aVnNDC_USA
p3788
aVnNDC_Midwest
p3789
aa(lp3790
I9
aVnNDC_USA
p3791
aVnNDC_Northeast
p3792
aa(lp3793
I9
aVnNDC_USA
p3794
aVnNDC_Southeast
p3795
aa(lp3796
I9
aVnNDC_USA
p3797
aVnNDC_Southwest
p3798
aa(lp3799
I9
aVnNDC_USA
p3800
aVnNDC_West
p3801
aaasba(ihelper
PossibleWorld
p3802
(dp3803
g3
I10
sg4
I0
sg5
(lp3804
(lp3805
(lp3806
I10
aVcCEN_USA
p3807
aVnNDC_USA
p3808
aa(lp3809
I10
aVcCEN_Midwest
p3810
aVnNDC_Midwest
p3811
aa(lp3812
I10
aVnNDC_Midwest
p3813
aVcCEN_Midwest
p3814
aa(lp3815
I10
aVnNDC_USA
p3816
aVcCEN_USA
p3817
aa(lp3818
I10
aVnNDC_USA
p3819
aVnNDC_USA
p3820
aa(lp3821
I10
aVcCEN_USA
p3822
aVcCEN_USA
p3823
aa(lp3824
I10
aVnNDC_West
p3825
aVnNDC_West
p3826
aa(lp3827
I10
aVnNDC_Southwest
p3828
aVnNDC_Southwest
p3829
aa(lp3830
I10
aVnNDC_Southeast
p3831
aVnNDC_Southeast
p3832
aa(lp3833
I10
aVnNDC_Northeast
p3834
aVnNDC_Northeast
p3835
aa(lp3836
I10
aVnNDC_Midwest
p3837
aVnNDC_Midwest
p3838
aa(lp3839
I10
aVcCEN_West
p3840
aVcCEN_West
p3841
aa(lp3842
I10
aVcCEN_South
p3843
aVcCEN_South
p3844
aa(lp3845
I10
aVcCEN_Midwest
p3846
aVcCEN_Midwest
p3847
aa(lp3848
I10
aVcCEN_Northeast
p3849
aVcCEN_Northeast
p3850
aaa(lp3851
(lp3852
I10
aVcCEN_West
p3853
aVnNDC_Northeast
p3854
aa(lp3855
I10
aVcCEN_Midwest
p3856
aVcCEN_Northeast
p3857
aa(lp3858
I10
aVcCEN_South
p3859
aVcCEN_Northeast
p3860
aa(lp3861
I10
aVcCEN_West
p3862
aVcCEN_Northeast
p3863
aa(lp3864
I10
aVcCEN_Northeast
p3865
aVcCEN_Midwest
p3866
aa(lp3867
I10
aVcCEN_South
p3868
aVcCEN_Midwest
p3869
aa(lp3870
I10
aVcCEN_West
p3871
aVcCEN_Midwest
p3872
aa(lp3873
I10
aVcCEN_Northeast
p3874
aVcCEN_South
p3875
aa(lp3876
I10
aVcCEN_Midwest
p3877
aVcCEN_South
p3878
aa(lp3879
I10
aVcCEN_West
p3880
aVcCEN_South
p3881
aa(lp3882
I10
aVcCEN_Northeast
p3883
aVcCEN_West
p3884
aa(lp3885
I10
aVcCEN_Midwest
p3886
aVcCEN_West
p3887
aa(lp3888
I10
aVcCEN_South
p3889
aVcCEN_West
p3890
aa(lp3891
I10
aVnNDC_Northeast
p3892
aVnNDC_Midwest
p3893
aa(lp3894
I10
aVnNDC_Southeast
p3895
aVnNDC_Midwest
p3896
aa(lp3897
I10
aVnNDC_Southwest
p3898
aVnNDC_Midwest
p3899
aa(lp3900
I10
aVnNDC_West
p3901
aVnNDC_Midwest
p3902
aa(lp3903
I10
aVnNDC_Midwest
p3904
aVnNDC_Northeast
p3905
aa(lp3906
I10
aVnNDC_Southeast
p3907
aVnNDC_Northeast
p3908
aa(lp3909
I10
aVnNDC_Southwest
p3910
aVnNDC_Northeast
p3911
aa(lp3912
I10
aVnNDC_West
p3913
aVnNDC_Northeast
p3914
aa(lp3915
I10
aVnNDC_Midwest
p3916
aVnNDC_Southeast
p3917
aa(lp3918
I10
aVnNDC_Northeast
p3919
aVnNDC_Southeast
p3920
aa(lp3921
I10
aVnNDC_Southwest
p3922
aVnNDC_Southeast
p3923
aa(lp3924
I10
aVnNDC_West
p3925
aVnNDC_Southeast
p3926
aa(lp3927
I10
aVnNDC_Midwest
p3928
aVnNDC_Southwest
p3929
aa(lp3930
I10
aVnNDC_Northeast
p3931
aVnNDC_Southwest
p3932
aa(lp3933
I10
aVnNDC_Southeast
p3934
aVnNDC_Southwest
p3935
aa(lp3936
I10
aVnNDC_West
p3937
aVnNDC_Southwest
p3938
aa(lp3939
I10
aVnNDC_Midwest
p3940
aVnNDC_West
p3941
aa(lp3942
I10
aVnNDC_Northeast
p3943
aVnNDC_West
p3944
aa(lp3945
I10
aVnNDC_Southeast
p3946
aVnNDC_West
p3947
aa(lp3948
I10
aVnNDC_Southwest
p3949
aVnNDC_West
p3950
aa(lp3951
I10
aVnNDC_Northeast
p3952
aVcCEN_West
p3953
aa(lp3954
I10
aVcCEN_Northeast
p3955
aVnNDC_West
p3956
aa(lp3957
I10
aVcCEN_Northeast
p3958
aVnNDC_Southwest
p3959
aa(lp3960
I10
aVcCEN_Northeast
p3961
aVnNDC_Southeast
p3962
aa(lp3963
I10
aVcCEN_Northeast
p3964
aVnNDC_Midwest
p3965
aa(lp3966
I10
aVcCEN_South
p3967
aVnNDC_Midwest
p3968
aa(lp3969
I10
aVcCEN_West
p3970
aVnNDC_Midwest
p3971
aa(lp3972
I10
aVcCEN_Midwest
p3973
aVnNDC_West
p3974
aa(lp3975
I10
aVcCEN_Midwest
p3976
aVnNDC_Southwest
p3977
aa(lp3978
I10
aVcCEN_Midwest
p3979
aVnNDC_Southeast
p3980
aa(lp3981
I10
aVcCEN_Midwest
p3982
aVnNDC_Northeast
p3983
aa(lp3984
I10
aVnNDC_Northeast
p3985
aVcCEN_Midwest
p3986
aa(lp3987
I10
aVnNDC_Southeast
p3988
aVcCEN_Midwest
p3989
aa(lp3990
I10
aVnNDC_Southwest
p3991
aVcCEN_Midwest
p3992
aa(lp3993
I10
aVnNDC_West
p3994
aVcCEN_Midwest
p3995
aa(lp3996
I10
aVnNDC_Midwest
p3997
aVcCEN_West
p3998
aa(lp3999
I10
aVnNDC_Midwest
p4000
aVcCEN_South
p4001
aa(lp4002
I10
aVnNDC_Midwest
p4003
aVcCEN_Northeast
p4004
aa(lp4005
I10
aVnNDC_Southeast
p4006
aVcCEN_Northeast
p4007
aa(lp4008
I10
aVnNDC_Southwest
p4009
aVcCEN_Northeast
p4010
aa(lp4011
I10
aVnNDC_West
p4012
aVcCEN_Northeast
p4013
aa(lp4014
I10
aVnNDC_West
p4015
aVcCEN_South
p4016
aa(lp4017
I10
aVcCEN_South
p4018
aVnNDC_West
p4019
aa(lp4020
I10
aVcCEN_South
p4021
aVnNDC_Southeast
p4022
aa(lp4023
I10
aVnNDC_Southeast
p4024
aVcCEN_South
p4025
aaa(lp4026
(lp4027
I10
aVcCEN_Northeast
p4028
aVnNDC_Northeast
p4029
aa(lp4030
I10
aVcCEN_Northeast
p4031
aVcCEN_USA
p4032
aa(lp4033
I10
aVcCEN_Midwest
p4034
aVcCEN_USA
p4035
aa(lp4036
I10
aVcCEN_South
p4037
aVcCEN_USA
p4038
aa(lp4039
I10
aVcCEN_West
p4040
aVcCEN_USA
p4041
aa(lp4042
I10
aVnNDC_Midwest
p4043
aVnNDC_USA
p4044
aa(lp4045
I10
aVnNDC_Northeast
p4046
aVnNDC_USA
p4047
aa(lp4048
I10
aVnNDC_Southeast
p4049
aVnNDC_USA
p4050
aa(lp4051
I10
aVnNDC_Southwest
p4052
aVnNDC_USA
p4053
aa(lp4054
I10
aVnNDC_West
p4055
aVnNDC_USA
p4056
aa(lp4057
I10
aVnNDC_West
p4058
aVcCEN_West
p4059
aa(lp4060
I10
aVcCEN_Northeast
p4061
aVnNDC_USA
p4062
aa(lp4063
I10
aVcCEN_Midwest
p4064
aVnNDC_USA
p4065
aa(lp4066
I10
aVcCEN_South
p4067
aVnNDC_USA
p4068
aa(lp4069
I10
aVcCEN_West
p4070
aVnNDC_USA
p4071
aa(lp4072
I10
aVnNDC_West
p4073
aVcCEN_USA
p4074
aa(lp4075
I10
aVnNDC_Southwest
p4076
aVcCEN_USA
p4077
aa(lp4078
I10
aVnNDC_Southeast
p4079
aVcCEN_USA
p4080
aa(lp4081
I10
aVnNDC_Northeast
p4082
aVcCEN_USA
p4083
aa(lp4084
I10
aVnNDC_Midwest
p4085
aVcCEN_USA
p4086
aa(lp4087
I10
aVnNDC_Southeast
p4088
aVcCEN_West
p4089
aaa(lp4090
(lp4091
I10
aVcCEN_West
p4092
aVnNDC_West
p4093
aa(lp4094
I10
aVnNDC_USA
p4095
aVnNDC_West
p4096
aa(lp4097
I10
aVnNDC_USA
p4098
aVnNDC_Southwest
p4099
aa(lp4100
I10
aVnNDC_USA
p4101
aVnNDC_Southeast
p4102
aa(lp4103
I10
aVnNDC_USA
p4104
aVnNDC_Northeast
p4105
aa(lp4106
I10
aVnNDC_USA
p4107
aVnNDC_Midwest
p4108
aa(lp4109
I10
aVcCEN_USA
p4110
aVcCEN_West
p4111
aa(lp4112
I10
aVcCEN_USA
p4113
aVcCEN_South
p4114
aa(lp4115
I10
aVcCEN_USA
p4116
aVcCEN_Midwest
p4117
aa(lp4118
I10
aVcCEN_USA
p4119
aVcCEN_Northeast
p4120
aa(lp4121
I10
aVnNDC_Northeast
p4122
aVcCEN_Northeast
p4123
aa(lp4124
I10
aVnNDC_USA
p4125
aVcCEN_West
p4126
aa(lp4127
I10
aVnNDC_USA
p4128
aVcCEN_South
p4129
aa(lp4130
I10
aVnNDC_USA
p4131
aVcCEN_Midwest
p4132
aa(lp4133
I10
aVnNDC_USA
p4134
aVcCEN_Northeast
p4135
aa(lp4136
I10
aVcCEN_USA
p4137
aVnNDC_West
p4138
aa(lp4139
I10
aVcCEN_USA
p4140
aVnNDC_Midwest
p4141
aa(lp4142
I10
aVcCEN_USA
p4143
aVnNDC_Northeast
p4144
aa(lp4145
I10
aVcCEN_USA
p4146
aVnNDC_Southeast
p4147
aa(lp4148
I10
aVcCEN_USA
p4149
aVnNDC_Southwest
p4150
aa(lp4151
I10
aVcCEN_West
p4152
aVnNDC_Southeast
p4153
aaa(lp4154
(lp4155
I10
aVcCEN_South
p4156
aVnNDC_Southwest
p4157
aa(lp4158
I10
aVnNDC_Southwest
p4159
aVcCEN_South
p4160
aa(lp4161
I10
aVcCEN_West
p4162
aVnNDC_Southwest
p4163
aa(lp4164
I10
aVnNDC_Southwest
p4165
aVcCEN_West
p4166
aa(lp4167
I10
aVnNDC_Northeast
p4168
aVcCEN_South
p4169
aa(lp4170
I10
aVcCEN_South
p4171
aVnNDC_Northeast
p4172
aaa(lp4173
(lp4174
I10
aVcCEN_Northeast
p4175
aa(lp4176
I10
aVcCEN_Midwest
p4177
aa(lp4178
I10
aVcCEN_South
p4179
aa(lp4180
I10
aVcCEN_West
p4181
aa(lp4182
I10
aVnNDC_Midwest
p4183
aa(lp4184
I10
aVnNDC_Northeast
p4185
aa(lp4186
I10
aVnNDC_Southeast
p4187
aa(lp4188
I10
aVnNDC_Southwest
p4189
aa(lp4190
I10
aVnNDC_West
p4191
aa(lp4192
I10
aVcCEN_USA
p4193
aa(lp4194
I10
aVnNDC_USA
p4195
aaa(lp4196
(lp4197
I10
aVcCEN_USA
p4198
aVcCEN_Northeast
p4199
aa(lp4200
I10
aVcCEN_USA
p4201
aVcCEN_Midwest
p4202
aa(lp4203
I10
aVcCEN_USA
p4204
aVcCEN_South
p4205
aa(lp4206
I10
aVcCEN_USA
p4207
aVcCEN_West
p4208
aa(lp4209
I10
aVnNDC_USA
p4210
aVnNDC_Midwest
p4211
aa(lp4212
I10
aVnNDC_USA
p4213
aVnNDC_Northeast
p4214
aa(lp4215
I10
aVnNDC_USA
p4216
aVnNDC_Southeast
p4217
aa(lp4218
I10
aVnNDC_USA
p4219
aVnNDC_Southwest
p4220
aa(lp4221
I10
aVnNDC_USA
p4222
aVnNDC_West
p4223
aaasba(ihelper
PossibleWorld
p4224
(dp4225
g3
I11
sg4
I0
sg5
(lp4226
(lp4227
(lp4228
I11
aVcCEN_USA
p4229
aVnNDC_USA
p4230
aa(lp4231
I11
aVcCEN_Midwest
p4232
aVnNDC_Midwest
p4233
aa(lp4234
I11
aVnNDC_Midwest
p4235
aVcCEN_Midwest
p4236
aa(lp4237
I11
aVnNDC_USA
p4238
aVcCEN_USA
p4239
aa(lp4240
I11
aVnNDC_USA
p4241
aVnNDC_USA
p4242
aa(lp4243
I11
aVcCEN_USA
p4244
aVcCEN_USA
p4245
aa(lp4246
I11
aVnNDC_West
p4247
aVnNDC_West
p4248
aa(lp4249
I11
aVnNDC_Southwest
p4250
aVnNDC_Southwest
p4251
aa(lp4252
I11
aVnNDC_Southeast
p4253
aVnNDC_Southeast
p4254
aa(lp4255
I11
aVnNDC_Northeast
p4256
aVnNDC_Northeast
p4257
aa(lp4258
I11
aVnNDC_Midwest
p4259
aVnNDC_Midwest
p4260
aa(lp4261
I11
aVcCEN_West
p4262
aVcCEN_West
p4263
aa(lp4264
I11
aVcCEN_South
p4265
aVcCEN_South
p4266
aa(lp4267
I11
aVcCEN_Midwest
p4268
aVcCEN_Midwest
p4269
aa(lp4270
I11
aVcCEN_Northeast
p4271
aVcCEN_Northeast
p4272
aaa(lp4273
(lp4274
I11
aVcCEN_West
p4275
aVnNDC_Northeast
p4276
aa(lp4277
I11
aVcCEN_Midwest
p4278
aVcCEN_Northeast
p4279
aa(lp4280
I11
aVcCEN_South
p4281
aVcCEN_Northeast
p4282
aa(lp4283
I11
aVcCEN_West
p4284
aVcCEN_Northeast
p4285
aa(lp4286
I11
aVcCEN_Northeast
p4287
aVcCEN_Midwest
p4288
aa(lp4289
I11
aVcCEN_South
p4290
aVcCEN_Midwest
p4291
aa(lp4292
I11
aVcCEN_West
p4293
aVcCEN_Midwest
p4294
aa(lp4295
I11
aVcCEN_Northeast
p4296
aVcCEN_South
p4297
aa(lp4298
I11
aVcCEN_Midwest
p4299
aVcCEN_South
p4300
aa(lp4301
I11
aVcCEN_West
p4302
aVcCEN_South
p4303
aa(lp4304
I11
aVcCEN_Northeast
p4305
aVcCEN_West
p4306
aa(lp4307
I11
aVcCEN_Midwest
p4308
aVcCEN_West
p4309
aa(lp4310
I11
aVcCEN_South
p4311
aVcCEN_West
p4312
aa(lp4313
I11
aVnNDC_Northeast
p4314
aVnNDC_Midwest
p4315
aa(lp4316
I11
aVnNDC_Southeast
p4317
aVnNDC_Midwest
p4318
aa(lp4319
I11
aVnNDC_Southwest
p4320
aVnNDC_Midwest
p4321
aa(lp4322
I11
aVnNDC_West
p4323
aVnNDC_Midwest
p4324
aa(lp4325
I11
aVnNDC_Midwest
p4326
aVnNDC_Northeast
p4327
aa(lp4328
I11
aVnNDC_Southeast
p4329
aVnNDC_Northeast
p4330
aa(lp4331
I11
aVnNDC_Southwest
p4332
aVnNDC_Northeast
p4333
aa(lp4334
I11
aVnNDC_West
p4335
aVnNDC_Northeast
p4336
aa(lp4337
I11
aVnNDC_Midwest
p4338
aVnNDC_Southeast
p4339
aa(lp4340
I11
aVnNDC_Northeast
p4341
aVnNDC_Southeast
p4342
aa(lp4343
I11
aVnNDC_Southwest
p4344
aVnNDC_Southeast
p4345
aa(lp4346
I11
aVnNDC_West
p4347
aVnNDC_Southeast
p4348
aa(lp4349
I11
aVnNDC_Midwest
p4350
aVnNDC_Southwest
p4351
aa(lp4352
I11
aVnNDC_Northeast
p4353
aVnNDC_Southwest
p4354
aa(lp4355
I11
aVnNDC_Southeast
p4356
aVnNDC_Southwest
p4357
aa(lp4358
I11
aVnNDC_West
p4359
aVnNDC_Southwest
p4360
aa(lp4361
I11
aVnNDC_Midwest
p4362
aVnNDC_West
p4363
aa(lp4364
I11
aVnNDC_Northeast
p4365
aVnNDC_West
p4366
aa(lp4367
I11
aVnNDC_Southeast
p4368
aVnNDC_West
p4369
aa(lp4370
I11
aVnNDC_Southwest
p4371
aVnNDC_West
p4372
aa(lp4373
I11
aVnNDC_Northeast
p4374
aVcCEN_West
p4375
aa(lp4376
I11
aVcCEN_Northeast
p4377
aVnNDC_West
p4378
aa(lp4379
I11
aVcCEN_Northeast
p4380
aVnNDC_Southwest
p4381
aa(lp4382
I11
aVcCEN_Northeast
p4383
aVnNDC_Southeast
p4384
aa(lp4385
I11
aVcCEN_Northeast
p4386
aVnNDC_Midwest
p4387
aa(lp4388
I11
aVcCEN_South
p4389
aVnNDC_Midwest
p4390
aa(lp4391
I11
aVcCEN_West
p4392
aVnNDC_Midwest
p4393
aa(lp4394
I11
aVcCEN_Midwest
p4395
aVnNDC_West
p4396
aa(lp4397
I11
aVcCEN_Midwest
p4398
aVnNDC_Southwest
p4399
aa(lp4400
I11
aVcCEN_Midwest
p4401
aVnNDC_Southeast
p4402
aa(lp4403
I11
aVcCEN_Midwest
p4404
aVnNDC_Northeast
p4405
aa(lp4406
I11
aVnNDC_Northeast
p4407
aVcCEN_Midwest
p4408
aa(lp4409
I11
aVnNDC_Southeast
p4410
aVcCEN_Midwest
p4411
aa(lp4412
I11
aVnNDC_Southwest
p4413
aVcCEN_Midwest
p4414
aa(lp4415
I11
aVnNDC_West
p4416
aVcCEN_Midwest
p4417
aa(lp4418
I11
aVnNDC_Midwest
p4419
aVcCEN_West
p4420
aa(lp4421
I11
aVnNDC_Midwest
p4422
aVcCEN_South
p4423
aa(lp4424
I11
aVnNDC_Midwest
p4425
aVcCEN_Northeast
p4426
aa(lp4427
I11
aVnNDC_Southeast
p4428
aVcCEN_Northeast
p4429
aa(lp4430
I11
aVnNDC_Southwest
p4431
aVcCEN_Northeast
p4432
aa(lp4433
I11
aVnNDC_West
p4434
aVcCEN_Northeast
p4435
aa(lp4436
I11
aVnNDC_West
p4437
aVcCEN_South
p4438
aa(lp4439
I11
aVcCEN_South
p4440
aVnNDC_West
p4441
aa(lp4442
I11
aVcCEN_West
p4443
aVnNDC_Southeast
p4444
aa(lp4445
I11
aVnNDC_Southeast
p4446
aVcCEN_West
p4447
aa(lp4448
I11
aVcCEN_South
p4449
aVnNDC_Southeast
p4450
aa(lp4451
I11
aVnNDC_Southeast
p4452
aVcCEN_South
p4453
aa(lp4454
I11
aVcCEN_South
p4455
aVnNDC_Northeast
p4456
aa(lp4457
I11
aVnNDC_Northeast
p4458
aVcCEN_South
p4459
aaa(lp4460
(lp4461
I11
aVcCEN_Northeast
p4462
aVnNDC_Northeast
p4463
aa(lp4464
I11
aVcCEN_Northeast
p4465
aVcCEN_USA
p4466
aa(lp4467
I11
aVcCEN_Midwest
p4468
aVcCEN_USA
p4469
aa(lp4470
I11
aVcCEN_South
p4471
aVcCEN_USA
p4472
aa(lp4473
I11
aVcCEN_West
p4474
aVcCEN_USA
p4475
aa(lp4476
I11
aVnNDC_Midwest
p4477
aVnNDC_USA
p4478
aa(lp4479
I11
aVnNDC_Northeast
p4480
aVnNDC_USA
p4481
aa(lp4482
I11
aVnNDC_Southeast
p4483
aVnNDC_USA
p4484
aa(lp4485
I11
aVnNDC_Southwest
p4486
aVnNDC_USA
p4487
aa(lp4488
I11
aVnNDC_West
p4489
aVnNDC_USA
p4490
aa(lp4491
I11
aVnNDC_West
p4492
aVcCEN_West
p4493
aa(lp4494
I11
aVcCEN_Northeast
p4495
aVnNDC_USA
p4496
aa(lp4497
I11
aVcCEN_Midwest
p4498
aVnNDC_USA
p4499
aa(lp4500
I11
aVcCEN_South
p4501
aVnNDC_USA
p4502
aa(lp4503
I11
aVcCEN_West
p4504
aVnNDC_USA
p4505
aa(lp4506
I11
aVnNDC_West
p4507
aVcCEN_USA
p4508
aa(lp4509
I11
aVnNDC_Southwest
p4510
aVcCEN_USA
p4511
aa(lp4512
I11
aVnNDC_Southeast
p4513
aVcCEN_USA
p4514
aa(lp4515
I11
aVnNDC_Northeast
p4516
aVcCEN_USA
p4517
aa(lp4518
I11
aVnNDC_Midwest
p4519
aVcCEN_USA
p4520
aaa(lp4521
(lp4522
I11
aVcCEN_West
p4523
aVnNDC_West
p4524
aa(lp4525
I11
aVnNDC_USA
p4526
aVnNDC_West
p4527
aa(lp4528
I11
aVnNDC_USA
p4529
aVnNDC_Southwest
p4530
aa(lp4531
I11
aVnNDC_USA
p4532
aVnNDC_Southeast
p4533
aa(lp4534
I11
aVnNDC_USA
p4535
aVnNDC_Northeast
p4536
aa(lp4537
I11
aVnNDC_USA
p4538
aVnNDC_Midwest
p4539
aa(lp4540
I11
aVcCEN_USA
p4541
aVcCEN_West
p4542
aa(lp4543
I11
aVcCEN_USA
p4544
aVcCEN_South
p4545
aa(lp4546
I11
aVcCEN_USA
p4547
aVcCEN_Midwest
p4548
aa(lp4549
I11
aVcCEN_USA
p4550
aVcCEN_Northeast
p4551
aa(lp4552
I11
aVnNDC_Northeast
p4553
aVcCEN_Northeast
p4554
aa(lp4555
I11
aVnNDC_USA
p4556
aVcCEN_West
p4557
aa(lp4558
I11
aVnNDC_USA
p4559
aVcCEN_South
p4560
aa(lp4561
I11
aVnNDC_USA
p4562
aVcCEN_Midwest
p4563
aa(lp4564
I11
aVnNDC_USA
p4565
aVcCEN_Northeast
p4566
aa(lp4567
I11
aVcCEN_USA
p4568
aVnNDC_West
p4569
aa(lp4570
I11
aVcCEN_USA
p4571
aVnNDC_Midwest
p4572
aa(lp4573
I11
aVcCEN_USA
p4574
aVnNDC_Northeast
p4575
aa(lp4576
I11
aVcCEN_USA
p4577
aVnNDC_Southeast
p4578
aa(lp4579
I11
aVcCEN_USA
p4580
aVnNDC_Southwest
p4581
aaa(lp4582
(lp4583
I11
aVcCEN_South
p4584
aVnNDC_Southwest
p4585
aa(lp4586
I11
aVnNDC_Southwest
p4587
aVcCEN_South
p4588
aa(lp4589
I11
aVcCEN_West
p4590
aVnNDC_Southwest
p4591
aa(lp4592
I11
aVnNDC_Southwest
p4593
aVcCEN_West
p4594
aaa(lp4595
(lp4596
I11
aVcCEN_Northeast
p4597
aa(lp4598
I11
aVcCEN_Midwest
p4599
aa(lp4600
I11
aVcCEN_South
p4601
aa(lp4602
I11
aVcCEN_West
p4603
aa(lp4604
I11
aVnNDC_Midwest
p4605
aa(lp4606
I11
aVnNDC_Northeast
p4607
aa(lp4608
I11
aVnNDC_Southeast
p4609
aa(lp4610
I11
aVnNDC_Southwest
p4611
aa(lp4612
I11
aVnNDC_West
p4613
aa(lp4614
I11
aVcCEN_USA
p4615
aa(lp4616
I11
aVnNDC_USA
p4617
aaa(lp4618
(lp4619
I11
aVcCEN_USA
p4620
aVcCEN_Northeast
p4621
aa(lp4622
I11
aVcCEN_USA
p4623
aVcCEN_Midwest
p4624
aa(lp4625
I11
aVcCEN_USA
p4626
aVcCEN_South
p4627
aa(lp4628
I11
aVcCEN_USA
p4629
aVcCEN_West
p4630
aa(lp4631
I11
aVnNDC_USA
p4632
aVnNDC_Midwest
p4633
aa(lp4634
I11
aVnNDC_USA
p4635
aVnNDC_Northeast
p4636
aa(lp4637
I11
aVnNDC_USA
p4638
aVnNDC_Southeast
p4639
aa(lp4640
I11
aVnNDC_USA
p4641
aVnNDC_Southwest
p4642
aa(lp4643
I11
aVnNDC_USA
p4644
aVnNDC_West
p4645
aaasba(ihelper
PossibleWorld
p4646
(dp4647
g3
I12
sg4
I0
sg5
(lp4648
(lp4649
(lp4650
I12
aVcCEN_USA
p4651
aVnNDC_USA
p4652
aa(lp4653
I12
aVcCEN_Midwest
p4654
aVnNDC_Midwest
p4655
aa(lp4656
I12
aVnNDC_Midwest
p4657
aVcCEN_Midwest
p4658
aa(lp4659
I12
aVnNDC_USA
p4660
aVcCEN_USA
p4661
aa(lp4662
I12
aVnNDC_USA
p4663
aVnNDC_USA
p4664
aa(lp4665
I12
aVcCEN_USA
p4666
aVcCEN_USA
p4667
aa(lp4668
I12
aVnNDC_West
p4669
aVnNDC_West
p4670
aa(lp4671
I12
aVnNDC_Southwest
p4672
aVnNDC_Southwest
p4673
aa(lp4674
I12
aVnNDC_Southeast
p4675
aVnNDC_Southeast
p4676
aa(lp4677
I12
aVnNDC_Northeast
p4678
aVnNDC_Northeast
p4679
aa(lp4680
I12
aVnNDC_Midwest
p4681
aVnNDC_Midwest
p4682
aa(lp4683
I12
aVcCEN_West
p4684
aVcCEN_West
p4685
aa(lp4686
I12
aVcCEN_South
p4687
aVcCEN_South
p4688
aa(lp4689
I12
aVcCEN_Midwest
p4690
aVcCEN_Midwest
p4691
aa(lp4692
I12
aVcCEN_Northeast
p4693
aVcCEN_Northeast
p4694
aaa(lp4695
(lp4696
I12
aVcCEN_West
p4697
aVnNDC_Northeast
p4698
aa(lp4699
I12
aVcCEN_Midwest
p4700
aVcCEN_Northeast
p4701
aa(lp4702
I12
aVcCEN_South
p4703
aVcCEN_Northeast
p4704
aa(lp4705
I12
aVcCEN_West
p4706
aVcCEN_Northeast
p4707
aa(lp4708
I12
aVcCEN_Northeast
p4709
aVcCEN_Midwest
p4710
aa(lp4711
I12
aVcCEN_South
p4712
aVcCEN_Midwest
p4713
aa(lp4714
I12
aVcCEN_West
p4715
aVcCEN_Midwest
p4716
aa(lp4717
I12
aVcCEN_Northeast
p4718
aVcCEN_South
p4719
aa(lp4720
I12
aVcCEN_Midwest
p4721
aVcCEN_South
p4722
aa(lp4723
I12
aVcCEN_West
p4724
aVcCEN_South
p4725
aa(lp4726
I12
aVcCEN_Northeast
p4727
aVcCEN_West
p4728
aa(lp4729
I12
aVcCEN_Midwest
p4730
aVcCEN_West
p4731
aa(lp4732
I12
aVcCEN_South
p4733
aVcCEN_West
p4734
aa(lp4735
I12
aVnNDC_Northeast
p4736
aVnNDC_Midwest
p4737
aa(lp4738
I12
aVnNDC_Southeast
p4739
aVnNDC_Midwest
p4740
aa(lp4741
I12
aVnNDC_Southwest
p4742
aVnNDC_Midwest
p4743
aa(lp4744
I12
aVnNDC_West
p4745
aVnNDC_Midwest
p4746
aa(lp4747
I12
aVnNDC_Midwest
p4748
aVnNDC_Northeast
p4749
aa(lp4750
I12
aVnNDC_Southeast
p4751
aVnNDC_Northeast
p4752
aa(lp4753
I12
aVnNDC_Southwest
p4754
aVnNDC_Northeast
p4755
aa(lp4756
I12
aVnNDC_West
p4757
aVnNDC_Northeast
p4758
aa(lp4759
I12
aVnNDC_Midwest
p4760
aVnNDC_Southeast
p4761
aa(lp4762
I12
aVnNDC_Northeast
p4763
aVnNDC_Southeast
p4764
aa(lp4765
I12
aVnNDC_Southwest
p4766
aVnNDC_Southeast
p4767
aa(lp4768
I12
aVnNDC_West
p4769
aVnNDC_Southeast
p4770
aa(lp4771
I12
aVnNDC_Midwest
p4772
aVnNDC_Southwest
p4773
aa(lp4774
I12
aVnNDC_Northeast
p4775
aVnNDC_Southwest
p4776
aa(lp4777
I12
aVnNDC_Southeast
p4778
aVnNDC_Southwest
p4779
aa(lp4780
I12
aVnNDC_West
p4781
aVnNDC_Southwest
p4782
aa(lp4783
I12
aVnNDC_Midwest
p4784
aVnNDC_West
p4785
aa(lp4786
I12
aVnNDC_Northeast
p4787
aVnNDC_West
p4788
aa(lp4789
I12
aVnNDC_Southeast
p4790
aVnNDC_West
p4791
aa(lp4792
I12
aVnNDC_Southwest
p4793
aVnNDC_West
p4794
aa(lp4795
I12
aVnNDC_Northeast
p4796
aVcCEN_West
p4797
aa(lp4798
I12
aVcCEN_Northeast
p4799
aVnNDC_West
p4800
aa(lp4801
I12
aVcCEN_Northeast
p4802
aVnNDC_Southwest
p4803
aa(lp4804
I12
aVcCEN_Northeast
p4805
aVnNDC_Southeast
p4806
aa(lp4807
I12
aVcCEN_Northeast
p4808
aVnNDC_Midwest
p4809
aa(lp4810
I12
aVcCEN_South
p4811
aVnNDC_Midwest
p4812
aa(lp4813
I12
aVcCEN_West
p4814
aVnNDC_Midwest
p4815
aa(lp4816
I12
aVcCEN_Midwest
p4817
aVnNDC_West
p4818
aa(lp4819
I12
aVcCEN_Midwest
p4820
aVnNDC_Southwest
p4821
aa(lp4822
I12
aVcCEN_Midwest
p4823
aVnNDC_Southeast
p4824
aa(lp4825
I12
aVcCEN_Midwest
p4826
aVnNDC_Northeast
p4827
aa(lp4828
I12
aVnNDC_Northeast
p4829
aVcCEN_Midwest
p4830
aa(lp4831
I12
aVnNDC_Southeast
p4832
aVcCEN_Midwest
p4833
aa(lp4834
I12
aVnNDC_Southwest
p4835
aVcCEN_Midwest
p4836
aa(lp4837
I12
aVnNDC_West
p4838
aVcCEN_Midwest
p4839
aa(lp4840
I12
aVnNDC_Midwest
p4841
aVcCEN_West
p4842
aa(lp4843
I12
aVnNDC_Midwest
p4844
aVcCEN_South
p4845
aa(lp4846
I12
aVnNDC_Midwest
p4847
aVcCEN_Northeast
p4848
aa(lp4849
I12
aVnNDC_Southeast
p4850
aVcCEN_Northeast
p4851
aa(lp4852
I12
aVnNDC_Southwest
p4853
aVcCEN_Northeast
p4854
aa(lp4855
I12
aVnNDC_West
p4856
aVcCEN_Northeast
p4857
aa(lp4858
I12
aVnNDC_West
p4859
aVcCEN_South
p4860
aa(lp4861
I12
aVcCEN_South
p4862
aVnNDC_West
p4863
aa(lp4864
I12
aVcCEN_West
p4865
aVnNDC_Southeast
p4866
aa(lp4867
I12
aVnNDC_Southeast
p4868
aVcCEN_West
p4869
aa(lp4870
I12
aVcCEN_South
p4871
aVnNDC_Southeast
p4872
aa(lp4873
I12
aVnNDC_Southeast
p4874
aVcCEN_South
p4875
aaa(lp4876
(lp4877
I12
aVcCEN_Northeast
p4878
aVnNDC_Northeast
p4879
aa(lp4880
I12
aVcCEN_Northeast
p4881
aVcCEN_USA
p4882
aa(lp4883
I12
aVcCEN_Midwest
p4884
aVcCEN_USA
p4885
aa(lp4886
I12
aVcCEN_South
p4887
aVcCEN_USA
p4888
aa(lp4889
I12
aVcCEN_West
p4890
aVcCEN_USA
p4891
aa(lp4892
I12
aVnNDC_Midwest
p4893
aVnNDC_USA
p4894
aa(lp4895
I12
aVnNDC_Northeast
p4896
aVnNDC_USA
p4897
aa(lp4898
I12
aVnNDC_Southeast
p4899
aVnNDC_USA
p4900
aa(lp4901
I12
aVnNDC_Southwest
p4902
aVnNDC_USA
p4903
aa(lp4904
I12
aVnNDC_West
p4905
aVnNDC_USA
p4906
aa(lp4907
I12
aVnNDC_West
p4908
aVcCEN_West
p4909
aa(lp4910
I12
aVcCEN_Northeast
p4911
aVnNDC_USA
p4912
aa(lp4913
I12
aVcCEN_Midwest
p4914
aVnNDC_USA
p4915
aa(lp4916
I12
aVcCEN_South
p4917
aVnNDC_USA
p4918
aa(lp4919
I12
aVcCEN_West
p4920
aVnNDC_USA
p4921
aa(lp4922
I12
aVnNDC_West
p4923
aVcCEN_USA
p4924
aa(lp4925
I12
aVnNDC_Southwest
p4926
aVcCEN_USA
p4927
aa(lp4928
I12
aVnNDC_Southeast
p4929
aVcCEN_USA
p4930
aa(lp4931
I12
aVnNDC_Northeast
p4932
aVcCEN_USA
p4933
aa(lp4934
I12
aVnNDC_Midwest
p4935
aVcCEN_USA
p4936
aaa(lp4937
(lp4938
I12
aVcCEN_West
p4939
aVnNDC_West
p4940
aa(lp4941
I12
aVnNDC_USA
p4942
aVnNDC_West
p4943
aa(lp4944
I12
aVnNDC_USA
p4945
aVnNDC_Southwest
p4946
aa(lp4947
I12
aVnNDC_USA
p4948
aVnNDC_Southeast
p4949
aa(lp4950
I12
aVnNDC_USA
p4951
aVnNDC_Northeast
p4952
aa(lp4953
I12
aVnNDC_USA
p4954
aVnNDC_Midwest
p4955
aa(lp4956
I12
aVcCEN_USA
p4957
aVcCEN_West
p4958
aa(lp4959
I12
aVcCEN_USA
p4960
aVcCEN_South
p4961
aa(lp4962
I12
aVcCEN_USA
p4963
aVcCEN_Midwest
p4964
aa(lp4965
I12
aVcCEN_USA
p4966
aVcCEN_Northeast
p4967
aa(lp4968
I12
aVnNDC_Northeast
p4969
aVcCEN_Northeast
p4970
aa(lp4971
I12
aVnNDC_USA
p4972
aVcCEN_West
p4973
aa(lp4974
I12
aVnNDC_USA
p4975
aVcCEN_South
p4976
aa(lp4977
I12
aVnNDC_USA
p4978
aVcCEN_Midwest
p4979
aa(lp4980
I12
aVnNDC_USA
p4981
aVcCEN_Northeast
p4982
aa(lp4983
I12
aVcCEN_USA
p4984
aVnNDC_West
p4985
aa(lp4986
I12
aVcCEN_USA
p4987
aVnNDC_Midwest
p4988
aa(lp4989
I12
aVcCEN_USA
p4990
aVnNDC_Northeast
p4991
aa(lp4992
I12
aVcCEN_USA
p4993
aVnNDC_Southeast
p4994
aa(lp4995
I12
aVcCEN_USA
p4996
aVnNDC_Southwest
p4997
aaa(lp4998
(lp4999
I12
aVcCEN_South
p5000
aVnNDC_Southwest
p5001
aa(lp5002
I12
aVnNDC_Southwest
p5003
aVcCEN_South
p5004
aa(lp5005
I12
aVcCEN_West
p5006
aVnNDC_Southwest
p5007
aa(lp5008
I12
aVnNDC_Southwest
p5009
aVcCEN_West
p5010
aa(lp5011
I12
aVnNDC_Northeast
p5012
aVcCEN_South
p5013
aa(lp5014
I12
aVcCEN_South
p5015
aVnNDC_Northeast
p5016
aaa(lp5017
(lp5018
I12
aVcCEN_Northeast
p5019
aa(lp5020
I12
aVcCEN_Midwest
p5021
aa(lp5022
I12
aVcCEN_South
p5023
aa(lp5024
I12
aVcCEN_West
p5025
aa(lp5026
I12
aVnNDC_Midwest
p5027
aa(lp5028
I12
aVnNDC_Northeast
p5029
aa(lp5030
I12
aVnNDC_Southeast
p5031
aa(lp5032
I12
aVnNDC_Southwest
p5033
aa(lp5034
I12
aVnNDC_West
p5035
aa(lp5036
I12
aVcCEN_USA
p5037
aa(lp5038
I12
aVnNDC_USA
p5039
aaa(lp5040
(lp5041
I12
aVcCEN_USA
p5042
aVcCEN_Northeast
p5043
aa(lp5044
I12
aVcCEN_USA
p5045
aVcCEN_Midwest
p5046
aa(lp5047
I12
aVcCEN_USA
p5048
aVcCEN_South
p5049
aa(lp5050
I12
aVcCEN_USA
p5051
aVcCEN_West
p5052
aa(lp5053
I12
aVnNDC_USA
p5054
aVnNDC_Midwest
p5055
aa(lp5056
I12
aVnNDC_USA
p5057
aVnNDC_Northeast
p5058
aa(lp5059
I12
aVnNDC_USA
p5060
aVnNDC_Southeast
p5061
aa(lp5062
I12
aVnNDC_USA
p5063
aVnNDC_Southwest
p5064
aa(lp5065
I12
aVnNDC_USA
p5066
aVnNDC_West
p5067
aaasba(ihelper
PossibleWorld
p5068
(dp5069
g3
I13
sg4
I0
sg5
(lp5070
(lp5071
(lp5072
I13
aVcCEN_USA
p5073
aVnNDC_USA
p5074
aa(lp5075
I13
aVcCEN_Midwest
p5076
aVnNDC_Midwest
p5077
aa(lp5078
I13
aVnNDC_Midwest
p5079
aVcCEN_Midwest
p5080
aa(lp5081
I13
aVnNDC_USA
p5082
aVcCEN_USA
p5083
aa(lp5084
I13
aVnNDC_USA
p5085
aVnNDC_USA
p5086
aa(lp5087
I13
aVcCEN_USA
p5088
aVcCEN_USA
p5089
aa(lp5090
I13
aVnNDC_West
p5091
aVnNDC_West
p5092
aa(lp5093
I13
aVnNDC_Southwest
p5094
aVnNDC_Southwest
p5095
aa(lp5096
I13
aVnNDC_Southeast
p5097
aVnNDC_Southeast
p5098
aa(lp5099
I13
aVnNDC_Northeast
p5100
aVnNDC_Northeast
p5101
aa(lp5102
I13
aVnNDC_Midwest
p5103
aVnNDC_Midwest
p5104
aa(lp5105
I13
aVcCEN_West
p5106
aVcCEN_West
p5107
aa(lp5108
I13
aVcCEN_South
p5109
aVcCEN_South
p5110
aa(lp5111
I13
aVcCEN_Midwest
p5112
aVcCEN_Midwest
p5113
aa(lp5114
I13
aVcCEN_Northeast
p5115
aVcCEN_Northeast
p5116
aaa(lp5117
(lp5118
I13
aVcCEN_West
p5119
aVnNDC_Northeast
p5120
aa(lp5121
I13
aVcCEN_Midwest
p5122
aVcCEN_Northeast
p5123
aa(lp5124
I13
aVcCEN_South
p5125
aVcCEN_Northeast
p5126
aa(lp5127
I13
aVcCEN_West
p5128
aVcCEN_Northeast
p5129
aa(lp5130
I13
aVcCEN_Northeast
p5131
aVcCEN_Midwest
p5132
aa(lp5133
I13
aVcCEN_South
p5134
aVcCEN_Midwest
p5135
aa(lp5136
I13
aVcCEN_West
p5137
aVcCEN_Midwest
p5138
aa(lp5139
I13
aVcCEN_Northeast
p5140
aVcCEN_South
p5141
aa(lp5142
I13
aVcCEN_Midwest
p5143
aVcCEN_South
p5144
aa(lp5145
I13
aVcCEN_West
p5146
aVcCEN_South
p5147
aa(lp5148
I13
aVcCEN_Northeast
p5149
aVcCEN_West
p5150
aa(lp5151
I13
aVcCEN_Midwest
p5152
aVcCEN_West
p5153
aa(lp5154
I13
aVcCEN_South
p5155
aVcCEN_West
p5156
aa(lp5157
I13
aVnNDC_Northeast
p5158
aVnNDC_Midwest
p5159
aa(lp5160
I13
aVnNDC_Southeast
p5161
aVnNDC_Midwest
p5162
aa(lp5163
I13
aVnNDC_Southwest
p5164
aVnNDC_Midwest
p5165
aa(lp5166
I13
aVnNDC_West
p5167
aVnNDC_Midwest
p5168
aa(lp5169
I13
aVnNDC_Midwest
p5170
aVnNDC_Northeast
p5171
aa(lp5172
I13
aVnNDC_Southeast
p5173
aVnNDC_Northeast
p5174
aa(lp5175
I13
aVnNDC_Southwest
p5176
aVnNDC_Northeast
p5177
aa(lp5178
I13
aVnNDC_West
p5179
aVnNDC_Northeast
p5180
aa(lp5181
I13
aVnNDC_Midwest
p5182
aVnNDC_Southeast
p5183
aa(lp5184
I13
aVnNDC_Northeast
p5185
aVnNDC_Southeast
p5186
aa(lp5187
I13
aVnNDC_Southwest
p5188
aVnNDC_Southeast
p5189
aa(lp5190
I13
aVnNDC_West
p5191
aVnNDC_Southeast
p5192
aa(lp5193
I13
aVnNDC_Midwest
p5194
aVnNDC_Southwest
p5195
aa(lp5196
I13
aVnNDC_Northeast
p5197
aVnNDC_Southwest
p5198
aa(lp5199
I13
aVnNDC_Southeast
p5200
aVnNDC_Southwest
p5201
aa(lp5202
I13
aVnNDC_West
p5203
aVnNDC_Southwest
p5204
aa(lp5205
I13
aVnNDC_Midwest
p5206
aVnNDC_West
p5207
aa(lp5208
I13
aVnNDC_Northeast
p5209
aVnNDC_West
p5210
aa(lp5211
I13
aVnNDC_Southeast
p5212
aVnNDC_West
p5213
aa(lp5214
I13
aVnNDC_Southwest
p5215
aVnNDC_West
p5216
aa(lp5217
I13
aVnNDC_Northeast
p5218
aVcCEN_West
p5219
aa(lp5220
I13
aVcCEN_Northeast
p5221
aVnNDC_West
p5222
aa(lp5223
I13
aVcCEN_Northeast
p5224
aVnNDC_Southwest
p5225
aa(lp5226
I13
aVcCEN_Northeast
p5227
aVnNDC_Southeast
p5228
aa(lp5229
I13
aVcCEN_Northeast
p5230
aVnNDC_Midwest
p5231
aa(lp5232
I13
aVcCEN_South
p5233
aVnNDC_Midwest
p5234
aa(lp5235
I13
aVcCEN_West
p5236
aVnNDC_Midwest
p5237
aa(lp5238
I13
aVcCEN_Midwest
p5239
aVnNDC_West
p5240
aa(lp5241
I13
aVcCEN_Midwest
p5242
aVnNDC_Southwest
p5243
aa(lp5244
I13
aVcCEN_Midwest
p5245
aVnNDC_Southeast
p5246
aa(lp5247
I13
aVcCEN_Midwest
p5248
aVnNDC_Northeast
p5249
aa(lp5250
I13
aVnNDC_Northeast
p5251
aVcCEN_Midwest
p5252
aa(lp5253
I13
aVnNDC_Southeast
p5254
aVcCEN_Midwest
p5255
aa(lp5256
I13
aVnNDC_Southwest
p5257
aVcCEN_Midwest
p5258
aa(lp5259
I13
aVnNDC_West
p5260
aVcCEN_Midwest
p5261
aa(lp5262
I13
aVnNDC_Midwest
p5263
aVcCEN_West
p5264
aa(lp5265
I13
aVnNDC_Midwest
p5266
aVcCEN_South
p5267
aa(lp5268
I13
aVnNDC_Midwest
p5269
aVcCEN_Northeast
p5270
aa(lp5271
I13
aVnNDC_Southeast
p5272
aVcCEN_Northeast
p5273
aa(lp5274
I13
aVnNDC_Southwest
p5275
aVcCEN_Northeast
p5276
aa(lp5277
I13
aVnNDC_West
p5278
aVcCEN_Northeast
p5279
aa(lp5280
I13
aVnNDC_West
p5281
aVcCEN_South
p5282
aa(lp5283
I13
aVcCEN_South
p5284
aVnNDC_West
p5285
aa(lp5286
I13
aVcCEN_West
p5287
aVnNDC_Southeast
p5288
aa(lp5289
I13
aVnNDC_Southeast
p5290
aVcCEN_West
p5291
aa(lp5292
I13
aVcCEN_South
p5293
aVnNDC_Northeast
p5294
aa(lp5295
I13
aVnNDC_Northeast
p5296
aVcCEN_South
p5297
aaa(lp5298
(lp5299
I13
aVcCEN_Northeast
p5300
aVnNDC_Northeast
p5301
aa(lp5302
I13
aVcCEN_Northeast
p5303
aVcCEN_USA
p5304
aa(lp5305
I13
aVcCEN_Midwest
p5306
aVcCEN_USA
p5307
aa(lp5308
I13
aVcCEN_South
p5309
aVcCEN_USA
p5310
aa(lp5311
I13
aVcCEN_West
p5312
aVcCEN_USA
p5313
aa(lp5314
I13
aVnNDC_Midwest
p5315
aVnNDC_USA
p5316
aa(lp5317
I13
aVnNDC_Northeast
p5318
aVnNDC_USA
p5319
aa(lp5320
I13
aVnNDC_Southeast
p5321
aVnNDC_USA
p5322
aa(lp5323
I13
aVnNDC_Southwest
p5324
aVnNDC_USA
p5325
aa(lp5326
I13
aVnNDC_West
p5327
aVnNDC_USA
p5328
aa(lp5329
I13
aVnNDC_West
p5330
aVcCEN_West
p5331
aa(lp5332
I13
aVcCEN_Northeast
p5333
aVnNDC_USA
p5334
aa(lp5335
I13
aVcCEN_Midwest
p5336
aVnNDC_USA
p5337
aa(lp5338
I13
aVcCEN_South
p5339
aVnNDC_USA
p5340
aa(lp5341
I13
aVcCEN_West
p5342
aVnNDC_USA
p5343
aa(lp5344
I13
aVnNDC_West
p5345
aVcCEN_USA
p5346
aa(lp5347
I13
aVnNDC_Southwest
p5348
aVcCEN_USA
p5349
aa(lp5350
I13
aVnNDC_Southeast
p5351
aVcCEN_USA
p5352
aa(lp5353
I13
aVnNDC_Northeast
p5354
aVcCEN_USA
p5355
aa(lp5356
I13
aVnNDC_Midwest
p5357
aVcCEN_USA
p5358
aaa(lp5359
(lp5360
I13
aVcCEN_West
p5361
aVnNDC_West
p5362
aa(lp5363
I13
aVnNDC_USA
p5364
aVnNDC_West
p5365
aa(lp5366
I13
aVnNDC_USA
p5367
aVnNDC_Southwest
p5368
aa(lp5369
I13
aVnNDC_USA
p5370
aVnNDC_Southeast
p5371
aa(lp5372
I13
aVnNDC_USA
p5373
aVnNDC_Northeast
p5374
aa(lp5375
I13
aVnNDC_USA
p5376
aVnNDC_Midwest
p5377
aa(lp5378
I13
aVcCEN_USA
p5379
aVcCEN_West
p5380
aa(lp5381
I13
aVcCEN_USA
p5382
aVcCEN_South
p5383
aa(lp5384
I13
aVcCEN_USA
p5385
aVcCEN_Midwest
p5386
aa(lp5387
I13
aVcCEN_USA
p5388
aVcCEN_Northeast
p5389
aa(lp5390
I13
aVnNDC_Northeast
p5391
aVcCEN_Northeast
p5392
aa(lp5393
I13
aVnNDC_USA
p5394
aVcCEN_West
p5395
aa(lp5396
I13
aVnNDC_USA
p5397
aVcCEN_South
p5398
aa(lp5399
I13
aVnNDC_USA
p5400
aVcCEN_Midwest
p5401
aa(lp5402
I13
aVnNDC_USA
p5403
aVcCEN_Northeast
p5404
aa(lp5405
I13
aVcCEN_USA
p5406
aVnNDC_West
p5407
aa(lp5408
I13
aVcCEN_USA
p5409
aVnNDC_Midwest
p5410
aa(lp5411
I13
aVcCEN_USA
p5412
aVnNDC_Northeast
p5413
aa(lp5414
I13
aVcCEN_USA
p5415
aVnNDC_Southeast
p5416
aa(lp5417
I13
aVcCEN_USA
p5418
aVnNDC_Southwest
p5419
aaa(lp5420
(lp5421
I13
aVcCEN_South
p5422
aVnNDC_Southwest
p5423
aa(lp5424
I13
aVnNDC_Southwest
p5425
aVcCEN_South
p5426
aa(lp5427
I13
aVcCEN_South
p5428
aVnNDC_Southeast
p5429
aa(lp5430
I13
aVcCEN_West
p5431
aVnNDC_Southwest
p5432
aa(lp5433
I13
aVnNDC_Southwest
p5434
aVcCEN_West
p5435
aa(lp5436
I13
aVnNDC_Southeast
p5437
aVcCEN_South
p5438
aaa(lp5439
(lp5440
I13
aVcCEN_Northeast
p5441
aa(lp5442
I13
aVcCEN_Midwest
p5443
aa(lp5444
I13
aVcCEN_South
p5445
aa(lp5446
I13
aVcCEN_West
p5447
aa(lp5448
I13
aVnNDC_Midwest
p5449
aa(lp5450
I13
aVnNDC_Northeast
p5451
aa(lp5452
I13
aVnNDC_Southeast
p5453
aa(lp5454
I13
aVnNDC_Southwest
p5455
aa(lp5456
I13
aVnNDC_West
p5457
aa(lp5458
I13
aVcCEN_USA
p5459
aa(lp5460
I13
aVnNDC_USA
p5461
aaa(lp5462
(lp5463
I13
aVcCEN_USA
p5464
aVcCEN_Northeast
p5465
aa(lp5466
I13
aVcCEN_USA
p5467
aVcCEN_Midwest
p5468
aa(lp5469
I13
aVcCEN_USA
p5470
aVcCEN_South
p5471
aa(lp5472
I13
aVcCEN_USA
p5473
aVcCEN_West
p5474
aa(lp5475
I13
aVnNDC_USA
p5476
aVnNDC_Midwest
p5477
aa(lp5478
I13
aVnNDC_USA
p5479
aVnNDC_Northeast
p5480
aa(lp5481
I13
aVnNDC_USA
p5482
aVnNDC_Southeast
p5483
aa(lp5484
I13
aVnNDC_USA
p5485
aVnNDC_Southwest
p5486
aa(lp5487
I13
aVnNDC_USA
p5488
aVnNDC_West
p5489
aaasba(ihelper
PossibleWorld
p5490
(dp5491
g3
I14
sg4
I0
sg5
(lp5492
(lp5493
(lp5494
I14
aVcCEN_USA
p5495
aVnNDC_USA
p5496
aa(lp5497
I14
aVcCEN_Midwest
p5498
aVnNDC_Midwest
p5499
aa(lp5500
I14
aVnNDC_Midwest
p5501
aVcCEN_Midwest
p5502
aa(lp5503
I14
aVnNDC_USA
p5504
aVcCEN_USA
p5505
aa(lp5506
I14
aVnNDC_USA
p5507
aVnNDC_USA
p5508
aa(lp5509
I14
aVcCEN_USA
p5510
aVcCEN_USA
p5511
aa(lp5512
I14
aVnNDC_West
p5513
aVnNDC_West
p5514
aa(lp5515
I14
aVnNDC_Southwest
p5516
aVnNDC_Southwest
p5517
aa(lp5518
I14
aVnNDC_Southeast
p5519
aVnNDC_Southeast
p5520
aa(lp5521
I14
aVnNDC_Northeast
p5522
aVnNDC_Northeast
p5523
aa(lp5524
I14
aVnNDC_Midwest
p5525
aVnNDC_Midwest
p5526
aa(lp5527
I14
aVcCEN_West
p5528
aVcCEN_West
p5529
aa(lp5530
I14
aVcCEN_South
p5531
aVcCEN_South
p5532
aa(lp5533
I14
aVcCEN_Midwest
p5534
aVcCEN_Midwest
p5535
aa(lp5536
I14
aVcCEN_Northeast
p5537
aVcCEN_Northeast
p5538
aaa(lp5539
(lp5540
I14
aVcCEN_West
p5541
aVnNDC_Northeast
p5542
aa(lp5543
I14
aVcCEN_Midwest
p5544
aVcCEN_Northeast
p5545
aa(lp5546
I14
aVcCEN_South
p5547
aVcCEN_Northeast
p5548
aa(lp5549
I14
aVcCEN_West
p5550
aVcCEN_Northeast
p5551
aa(lp5552
I14
aVcCEN_Northeast
p5553
aVcCEN_Midwest
p5554
aa(lp5555
I14
aVcCEN_South
p5556
aVcCEN_Midwest
p5557
aa(lp5558
I14
aVcCEN_West
p5559
aVcCEN_Midwest
p5560
aa(lp5561
I14
aVcCEN_Northeast
p5562
aVcCEN_South
p5563
aa(lp5564
I14
aVcCEN_Midwest
p5565
aVcCEN_South
p5566
aa(lp5567
I14
aVcCEN_West
p5568
aVcCEN_South
p5569
aa(lp5570
I14
aVcCEN_Northeast
p5571
aVcCEN_West
p5572
aa(lp5573
I14
aVcCEN_Midwest
p5574
aVcCEN_West
p5575
aa(lp5576
I14
aVcCEN_South
p5577
aVcCEN_West
p5578
aa(lp5579
I14
aVnNDC_Northeast
p5580
aVnNDC_Midwest
p5581
aa(lp5582
I14
aVnNDC_Southeast
p5583
aVnNDC_Midwest
p5584
aa(lp5585
I14
aVnNDC_Southwest
p5586
aVnNDC_Midwest
p5587
aa(lp5588
I14
aVnNDC_West
p5589
aVnNDC_Midwest
p5590
aa(lp5591
I14
aVnNDC_Midwest
p5592
aVnNDC_Northeast
p5593
aa(lp5594
I14
aVnNDC_Southeast
p5595
aVnNDC_Northeast
p5596
aa(lp5597
I14
aVnNDC_Southwest
p5598
aVnNDC_Northeast
p5599
aa(lp5600
I14
aVnNDC_West
p5601
aVnNDC_Northeast
p5602
aa(lp5603
I14
aVnNDC_Midwest
p5604
aVnNDC_Southeast
p5605
aa(lp5606
I14
aVnNDC_Northeast
p5607
aVnNDC_Southeast
p5608
aa(lp5609
I14
aVnNDC_Southwest
p5610
aVnNDC_Southeast
p5611
aa(lp5612
I14
aVnNDC_West
p5613
aVnNDC_Southeast
p5614
aa(lp5615
I14
aVnNDC_Midwest
p5616
aVnNDC_Southwest
p5617
aa(lp5618
I14
aVnNDC_Northeast
p5619
aVnNDC_Southwest
p5620
aa(lp5621
I14
aVnNDC_Southeast
p5622
aVnNDC_Southwest
p5623
aa(lp5624
I14
aVnNDC_West
p5625
aVnNDC_Southwest
p5626
aa(lp5627
I14
aVnNDC_Midwest
p5628
aVnNDC_West
p5629
aa(lp5630
I14
aVnNDC_Northeast
p5631
aVnNDC_West
p5632
aa(lp5633
I14
aVnNDC_Southeast
p5634
aVnNDC_West
p5635
aa(lp5636
I14
aVnNDC_Southwest
p5637
aVnNDC_West
p5638
aa(lp5639
I14
aVnNDC_Northeast
p5640
aVcCEN_West
p5641
aa(lp5642
I14
aVcCEN_Northeast
p5643
aVnNDC_West
p5644
aa(lp5645
I14
aVcCEN_Northeast
p5646
aVnNDC_Southwest
p5647
aa(lp5648
I14
aVcCEN_Northeast
p5649
aVnNDC_Southeast
p5650
aa(lp5651
I14
aVcCEN_Northeast
p5652
aVnNDC_Midwest
p5653
aa(lp5654
I14
aVcCEN_South
p5655
aVnNDC_Midwest
p5656
aa(lp5657
I14
aVcCEN_West
p5658
aVnNDC_Midwest
p5659
aa(lp5660
I14
aVcCEN_Midwest
p5661
aVnNDC_West
p5662
aa(lp5663
I14
aVcCEN_Midwest
p5664
aVnNDC_Southwest
p5665
aa(lp5666
I14
aVcCEN_Midwest
p5667
aVnNDC_Southeast
p5668
aa(lp5669
I14
aVcCEN_Midwest
p5670
aVnNDC_Northeast
p5671
aa(lp5672
I14
aVnNDC_Northeast
p5673
aVcCEN_Midwest
p5674
aa(lp5675
I14
aVnNDC_Southeast
p5676
aVcCEN_Midwest
p5677
aa(lp5678
I14
aVnNDC_Southwest
p5679
aVcCEN_Midwest
p5680
aa(lp5681
I14
aVnNDC_West
p5682
aVcCEN_Midwest
p5683
aa(lp5684
I14
aVnNDC_Midwest
p5685
aVcCEN_West
p5686
aa(lp5687
I14
aVnNDC_Midwest
p5688
aVcCEN_South
p5689
aa(lp5690
I14
aVnNDC_Midwest
p5691
aVcCEN_Northeast
p5692
aa(lp5693
I14
aVnNDC_Southeast
p5694
aVcCEN_Northeast
p5695
aa(lp5696
I14
aVnNDC_Southwest
p5697
aVcCEN_Northeast
p5698
aa(lp5699
I14
aVnNDC_West
p5700
aVcCEN_Northeast
p5701
aa(lp5702
I14
aVnNDC_West
p5703
aVcCEN_South
p5704
aa(lp5705
I14
aVcCEN_South
p5706
aVnNDC_West
p5707
aa(lp5708
I14
aVcCEN_West
p5709
aVnNDC_Southeast
p5710
aa(lp5711
I14
aVnNDC_Southeast
p5712
aVcCEN_West
p5713
aaa(lp5714
(lp5715
I14
aVcCEN_Northeast
p5716
aVnNDC_Northeast
p5717
aa(lp5718
I14
aVcCEN_Northeast
p5719
aVcCEN_USA
p5720
aa(lp5721
I14
aVcCEN_Midwest
p5722
aVcCEN_USA
p5723
aa(lp5724
I14
aVcCEN_South
p5725
aVcCEN_USA
p5726
aa(lp5727
I14
aVcCEN_West
p5728
aVcCEN_USA
p5729
aa(lp5730
I14
aVnNDC_Midwest
p5731
aVnNDC_USA
p5732
aa(lp5733
I14
aVnNDC_Northeast
p5734
aVnNDC_USA
p5735
aa(lp5736
I14
aVnNDC_Southeast
p5737
aVnNDC_USA
p5738
aa(lp5739
I14
aVnNDC_Southwest
p5740
aVnNDC_USA
p5741
aa(lp5742
I14
aVnNDC_West
p5743
aVnNDC_USA
p5744
aa(lp5745
I14
aVnNDC_West
p5746
aVcCEN_West
p5747
aa(lp5748
I14
aVcCEN_Northeast
p5749
aVnNDC_USA
p5750
aa(lp5751
I14
aVcCEN_Midwest
p5752
aVnNDC_USA
p5753
aa(lp5754
I14
aVcCEN_South
p5755
aVnNDC_USA
p5756
aa(lp5757
I14
aVcCEN_West
p5758
aVnNDC_USA
p5759
aa(lp5760
I14
aVnNDC_West
p5761
aVcCEN_USA
p5762
aa(lp5763
I14
aVnNDC_Southwest
p5764
aVcCEN_USA
p5765
aa(lp5766
I14
aVnNDC_Southeast
p5767
aVcCEN_USA
p5768
aa(lp5769
I14
aVnNDC_Northeast
p5770
aVcCEN_USA
p5771
aa(lp5772
I14
aVnNDC_Midwest
p5773
aVcCEN_USA
p5774
aaa(lp5775
(lp5776
I14
aVcCEN_West
p5777
aVnNDC_West
p5778
aa(lp5779
I14
aVnNDC_USA
p5780
aVnNDC_West
p5781
aa(lp5782
I14
aVnNDC_USA
p5783
aVnNDC_Southwest
p5784
aa(lp5785
I14
aVnNDC_USA
p5786
aVnNDC_Southeast
p5787
aa(lp5788
I14
aVnNDC_USA
p5789
aVnNDC_Northeast
p5790
aa(lp5791
I14
aVnNDC_USA
p5792
aVnNDC_Midwest
p5793
aa(lp5794
I14
aVcCEN_USA
p5795
aVcCEN_West
p5796
aa(lp5797
I14
aVcCEN_USA
p5798
aVcCEN_South
p5799
aa(lp5800
I14
aVcCEN_USA
p5801
aVcCEN_Midwest
p5802
aa(lp5803
I14
aVcCEN_USA
p5804
aVcCEN_Northeast
p5805
aa(lp5806
I14
aVnNDC_Northeast
p5807
aVcCEN_Northeast
p5808
aa(lp5809
I14
aVnNDC_USA
p5810
aVcCEN_West
p5811
aa(lp5812
I14
aVnNDC_USA
p5813
aVcCEN_South
p5814
aa(lp5815
I14
aVnNDC_USA
p5816
aVcCEN_Midwest
p5817
aa(lp5818
I14
aVnNDC_USA
p5819
aVcCEN_Northeast
p5820
aa(lp5821
I14
aVcCEN_USA
p5822
aVnNDC_West
p5823
aa(lp5824
I14
aVcCEN_USA
p5825
aVnNDC_Midwest
p5826
aa(lp5827
I14
aVcCEN_USA
p5828
aVnNDC_Northeast
p5829
aa(lp5830
I14
aVcCEN_USA
p5831
aVnNDC_Southeast
p5832
aa(lp5833
I14
aVcCEN_USA
p5834
aVnNDC_Southwest
p5835
aaa(lp5836
(lp5837
I14
aVcCEN_South
p5838
aVnNDC_Southwest
p5839
aa(lp5840
I14
aVnNDC_Southwest
p5841
aVcCEN_South
p5842
aa(lp5843
I14
aVcCEN_South
p5844
aVnNDC_Southeast
p5845
aa(lp5846
I14
aVcCEN_West
p5847
aVnNDC_Southwest
p5848
aa(lp5849
I14
aVnNDC_Southwest
p5850
aVcCEN_West
p5851
aa(lp5852
I14
aVnNDC_Northeast
p5853
aVcCEN_South
p5854
aa(lp5855
I14
aVnNDC_Southeast
p5856
aVcCEN_South
p5857
aa(lp5858
I14
aVcCEN_South
p5859
aVnNDC_Northeast
p5860
aaa(lp5861
(lp5862
I14
aVcCEN_Northeast
p5863
aa(lp5864
I14
aVcCEN_Midwest
p5865
aa(lp5866
I14
aVcCEN_South
p5867
aa(lp5868
I14
aVcCEN_West
p5869
aa(lp5870
I14
aVnNDC_Midwest
p5871
aa(lp5872
I14
aVnNDC_Northeast
p5873
aa(lp5874
I14
aVnNDC_Southeast
p5875
aa(lp5876
I14
aVnNDC_Southwest
p5877
aa(lp5878
I14
aVnNDC_West
p5879
aa(lp5880
I14
aVcCEN_USA
p5881
aa(lp5882
I14
aVnNDC_USA
p5883
aaa(lp5884
(lp5885
I14
aVcCEN_USA
p5886
aVcCEN_Northeast
p5887
aa(lp5888
I14
aVcCEN_USA
p5889
aVcCEN_Midwest
p5890
aa(lp5891
I14
aVcCEN_USA
p5892
aVcCEN_South
p5893
aa(lp5894
I14
aVcCEN_USA
p5895
aVcCEN_West
p5896
aa(lp5897
I14
aVnNDC_USA
p5898
aVnNDC_Midwest
p5899
aa(lp5900
I14
aVnNDC_USA
p5901
aVnNDC_Northeast
p5902
aa(lp5903
I14
aVnNDC_USA
p5904
aVnNDC_Southeast
p5905
aa(lp5906
I14
aVnNDC_USA
p5907
aVnNDC_Southwest
p5908
aa(lp5909
I14
aVnNDC_USA
p5910
aVnNDC_West
p5911
aaasba(ihelper
PossibleWorld
p5912
(dp5913
g3
I15
sg4
I0
sg5
(lp5914
(lp5915
(lp5916
I15
aVcCEN_USA
p5917
aVnNDC_USA
p5918
aa(lp5919
I15
aVcCEN_Midwest
p5920
aVnNDC_Midwest
p5921
aa(lp5922
I15
aVnNDC_Midwest
p5923
aVcCEN_Midwest
p5924
aa(lp5925
I15
aVnNDC_USA
p5926
aVcCEN_USA
p5927
aa(lp5928
I15
aVnNDC_USA
p5929
aVnNDC_USA
p5930
aa(lp5931
I15
aVcCEN_USA
p5932
aVcCEN_USA
p5933
aa(lp5934
I15
aVnNDC_West
p5935
aVnNDC_West
p5936
aa(lp5937
I15
aVnNDC_Southwest
p5938
aVnNDC_Southwest
p5939
aa(lp5940
I15
aVnNDC_Southeast
p5941
aVnNDC_Southeast
p5942
aa(lp5943
I15
aVnNDC_Northeast
p5944
aVnNDC_Northeast
p5945
aa(lp5946
I15
aVnNDC_Midwest
p5947
aVnNDC_Midwest
p5948
aa(lp5949
I15
aVcCEN_West
p5950
aVcCEN_West
p5951
aa(lp5952
I15
aVcCEN_South
p5953
aVcCEN_South
p5954
aa(lp5955
I15
aVcCEN_Midwest
p5956
aVcCEN_Midwest
p5957
aa(lp5958
I15
aVcCEN_Northeast
p5959
aVcCEN_Northeast
p5960
aaa(lp5961
(lp5962
I15
aVcCEN_West
p5963
aVnNDC_Northeast
p5964
aa(lp5965
I15
aVcCEN_Midwest
p5966
aVcCEN_Northeast
p5967
aa(lp5968
I15
aVcCEN_South
p5969
aVcCEN_Northeast
p5970
aa(lp5971
I15
aVcCEN_West
p5972
aVcCEN_Northeast
p5973
aa(lp5974
I15
aVcCEN_Northeast
p5975
aVcCEN_Midwest
p5976
aa(lp5977
I15
aVcCEN_South
p5978
aVcCEN_Midwest
p5979
aa(lp5980
I15
aVcCEN_West
p5981
aVcCEN_Midwest
p5982
aa(lp5983
I15
aVcCEN_Northeast
p5984
aVcCEN_South
p5985
aa(lp5986
I15
aVcCEN_Midwest
p5987
aVcCEN_South
p5988
aa(lp5989
I15
aVcCEN_West
p5990
aVcCEN_South
p5991
aa(lp5992
I15
aVcCEN_Northeast
p5993
aVcCEN_West
p5994
aa(lp5995
I15
aVcCEN_Midwest
p5996
aVcCEN_West
p5997
aa(lp5998
I15
aVcCEN_South
p5999
aVcCEN_West
p6000
aa(lp6001
I15
aVnNDC_Northeast
p6002
aVnNDC_Midwest
p6003
aa(lp6004
I15
aVnNDC_Southeast
p6005
aVnNDC_Midwest
p6006
aa(lp6007
I15
aVnNDC_Southwest
p6008
aVnNDC_Midwest
p6009
aa(lp6010
I15
aVnNDC_West
p6011
aVnNDC_Midwest
p6012
aa(lp6013
I15
aVnNDC_Midwest
p6014
aVnNDC_Northeast
p6015
aa(lp6016
I15
aVnNDC_Southeast
p6017
aVnNDC_Northeast
p6018
aa(lp6019
I15
aVnNDC_Southwest
p6020
aVnNDC_Northeast
p6021
aa(lp6022
I15
aVnNDC_West
p6023
aVnNDC_Northeast
p6024
aa(lp6025
I15
aVnNDC_Midwest
p6026
aVnNDC_Southeast
p6027
aa(lp6028
I15
aVnNDC_Northeast
p6029
aVnNDC_Southeast
p6030
aa(lp6031
I15
aVnNDC_Southwest
p6032
aVnNDC_Southeast
p6033
aa(lp6034
I15
aVnNDC_West
p6035
aVnNDC_Southeast
p6036
aa(lp6037
I15
aVnNDC_Midwest
p6038
aVnNDC_Southwest
p6039
aa(lp6040
I15
aVnNDC_Northeast
p6041
aVnNDC_Southwest
p6042
aa(lp6043
I15
aVnNDC_Southeast
p6044
aVnNDC_Southwest
p6045
aa(lp6046
I15
aVnNDC_West
p6047
aVnNDC_Southwest
p6048
aa(lp6049
I15
aVnNDC_Midwest
p6050
aVnNDC_West
p6051
aa(lp6052
I15
aVnNDC_Northeast
p6053
aVnNDC_West
p6054
aa(lp6055
I15
aVnNDC_Southeast
p6056
aVnNDC_West
p6057
aa(lp6058
I15
aVnNDC_Southwest
p6059
aVnNDC_West
p6060
aa(lp6061
I15
aVnNDC_Northeast
p6062
aVcCEN_West
p6063
aa(lp6064
I15
aVcCEN_Northeast
p6065
aVnNDC_West
p6066
aa(lp6067
I15
aVcCEN_Northeast
p6068
aVnNDC_Southwest
p6069
aa(lp6070
I15
aVcCEN_Northeast
p6071
aVnNDC_Southeast
p6072
aa(lp6073
I15
aVcCEN_Northeast
p6074
aVnNDC_Midwest
p6075
aa(lp6076
I15
aVcCEN_South
p6077
aVnNDC_Midwest
p6078
aa(lp6079
I15
aVcCEN_West
p6080
aVnNDC_Midwest
p6081
aa(lp6082
I15
aVcCEN_Midwest
p6083
aVnNDC_West
p6084
aa(lp6085
I15
aVcCEN_Midwest
p6086
aVnNDC_Southwest
p6087
aa(lp6088
I15
aVcCEN_Midwest
p6089
aVnNDC_Southeast
p6090
aa(lp6091
I15
aVcCEN_Midwest
p6092
aVnNDC_Northeast
p6093
aa(lp6094
I15
aVnNDC_Northeast
p6095
aVcCEN_Midwest
p6096
aa(lp6097
I15
aVnNDC_Southeast
p6098
aVcCEN_Midwest
p6099
aa(lp6100
I15
aVnNDC_Southwest
p6101
aVcCEN_Midwest
p6102
aa(lp6103
I15
aVnNDC_West
p6104
aVcCEN_Midwest
p6105
aa(lp6106
I15
aVnNDC_Midwest
p6107
aVcCEN_West
p6108
aa(lp6109
I15
aVnNDC_Midwest
p6110
aVcCEN_South
p6111
aa(lp6112
I15
aVnNDC_Midwest
p6113
aVcCEN_Northeast
p6114
aa(lp6115
I15
aVnNDC_Southeast
p6116
aVcCEN_Northeast
p6117
aa(lp6118
I15
aVnNDC_Southwest
p6119
aVcCEN_Northeast
p6120
aa(lp6121
I15
aVnNDC_West
p6122
aVcCEN_Northeast
p6123
aa(lp6124
I15
aVnNDC_West
p6125
aVcCEN_South
p6126
aa(lp6127
I15
aVcCEN_South
p6128
aVnNDC_West
p6129
aa(lp6130
I15
aVcCEN_West
p6131
aVnNDC_Southeast
p6132
aa(lp6133
I15
aVnNDC_Southeast
p6134
aVcCEN_West
p6135
aa(lp6136
I15
aVcCEN_South
p6137
aVnNDC_Northeast
p6138
aa(lp6139
I15
aVnNDC_Northeast
p6140
aVcCEN_South
p6141
aaa(lp6142
(lp6143
I15
aVcCEN_Northeast
p6144
aVnNDC_Northeast
p6145
aa(lp6146
I15
aVcCEN_Northeast
p6147
aVcCEN_USA
p6148
aa(lp6149
I15
aVcCEN_Midwest
p6150
aVcCEN_USA
p6151
aa(lp6152
I15
aVcCEN_South
p6153
aVcCEN_USA
p6154
aa(lp6155
I15
aVcCEN_West
p6156
aVcCEN_USA
p6157
aa(lp6158
I15
aVnNDC_Midwest
p6159
aVnNDC_USA
p6160
aa(lp6161
I15
aVnNDC_Northeast
p6162
aVnNDC_USA
p6163
aa(lp6164
I15
aVnNDC_Southeast
p6165
aVnNDC_USA
p6166
aa(lp6167
I15
aVnNDC_Southwest
p6168
aVnNDC_USA
p6169
aa(lp6170
I15
aVnNDC_West
p6171
aVnNDC_USA
p6172
aa(lp6173
I15
aVnNDC_West
p6174
aVcCEN_West
p6175
aa(lp6176
I15
aVcCEN_Northeast
p6177
aVnNDC_USA
p6178
aa(lp6179
I15
aVcCEN_Midwest
p6180
aVnNDC_USA
p6181
aa(lp6182
I15
aVcCEN_South
p6183
aVnNDC_USA
p6184
aa(lp6185
I15
aVcCEN_West
p6186
aVnNDC_USA
p6187
aa(lp6188
I15
aVnNDC_West
p6189
aVcCEN_USA
p6190
aa(lp6191
I15
aVnNDC_Southwest
p6192
aVcCEN_USA
p6193
aa(lp6194
I15
aVnNDC_Southeast
p6195
aVcCEN_USA
p6196
aa(lp6197
I15
aVnNDC_Northeast
p6198
aVcCEN_USA
p6199
aa(lp6200
I15
aVnNDC_Midwest
p6201
aVcCEN_USA
p6202
aa(lp6203
I15
aVnNDC_Southeast
p6204
aVcCEN_South
p6205
aaa(lp6206
(lp6207
I15
aVcCEN_West
p6208
aVnNDC_West
p6209
aa(lp6210
I15
aVnNDC_USA
p6211
aVnNDC_West
p6212
aa(lp6213
I15
aVnNDC_USA
p6214
aVnNDC_Southwest
p6215
aa(lp6216
I15
aVnNDC_USA
p6217
aVnNDC_Southeast
p6218
aa(lp6219
I15
aVnNDC_USA
p6220
aVnNDC_Northeast
p6221
aa(lp6222
I15
aVnNDC_USA
p6223
aVnNDC_Midwest
p6224
aa(lp6225
I15
aVcCEN_USA
p6226
aVcCEN_West
p6227
aa(lp6228
I15
aVcCEN_USA
p6229
aVcCEN_South
p6230
aa(lp6231
I15
aVcCEN_USA
p6232
aVcCEN_Midwest
p6233
aa(lp6234
I15
aVcCEN_USA
p6235
aVcCEN_Northeast
p6236
aa(lp6237
I15
aVnNDC_Northeast
p6238
aVcCEN_Northeast
p6239
aa(lp6240
I15
aVnNDC_USA
p6241
aVcCEN_West
p6242
aa(lp6243
I15
aVnNDC_USA
p6244
aVcCEN_South
p6245
aa(lp6246
I15
aVnNDC_USA
p6247
aVcCEN_Midwest
p6248
aa(lp6249
I15
aVnNDC_USA
p6250
aVcCEN_Northeast
p6251
aa(lp6252
I15
aVcCEN_USA
p6253
aVnNDC_West
p6254
aa(lp6255
I15
aVcCEN_USA
p6256
aVnNDC_Midwest
p6257
aa(lp6258
I15
aVcCEN_USA
p6259
aVnNDC_Northeast
p6260
aa(lp6261
I15
aVcCEN_USA
p6262
aVnNDC_Southeast
p6263
aa(lp6264
I15
aVcCEN_USA
p6265
aVnNDC_Southwest
p6266
aa(lp6267
I15
aVcCEN_South
p6268
aVnNDC_Southeast
p6269
aaa(lp6270
(lp6271
I15
aVcCEN_South
p6272
aVnNDC_Southwest
p6273
aa(lp6274
I15
aVnNDC_Southwest
p6275
aVcCEN_South
p6276
aa(lp6277
I15
aVcCEN_West
p6278
aVnNDC_Southwest
p6279
aa(lp6280
I15
aVnNDC_Southwest
p6281
aVcCEN_West
p6282
aaa(lp6283
(lp6284
I15
aVcCEN_Northeast
p6285
aa(lp6286
I15
aVcCEN_Midwest
p6287
aa(lp6288
I15
aVcCEN_South
p6289
aa(lp6290
I15
aVcCEN_West
p6291
aa(lp6292
I15
aVnNDC_Midwest
p6293
aa(lp6294
I15
aVnNDC_Northeast
p6295
aa(lp6296
I15
aVnNDC_Southeast
p6297
aa(lp6298
I15
aVnNDC_Southwest
p6299
aa(lp6300
I15
aVnNDC_West
p6301
aa(lp6302
I15
aVcCEN_USA
p6303
aa(lp6304
I15
aVnNDC_USA
p6305
aaa(lp6306
(lp6307
I15
aVcCEN_USA
p6308
aVcCEN_Northeast
p6309
aa(lp6310
I15
aVcCEN_USA
p6311
aVcCEN_Midwest
p6312
aa(lp6313
I15
aVcCEN_USA
p6314
aVcCEN_South
p6315
aa(lp6316
I15
aVcCEN_USA
p6317
aVcCEN_West
p6318
aa(lp6319
I15
aVnNDC_USA
p6320
aVnNDC_Midwest
p6321
aa(lp6322
I15
aVnNDC_USA
p6323
aVnNDC_Northeast
p6324
aa(lp6325
I15
aVnNDC_USA
p6326
aVnNDC_Southeast
p6327
aa(lp6328
I15
aVnNDC_USA
p6329
aVnNDC_Southwest
p6330
aa(lp6331
I15
aVnNDC_USA
p6332
aVnNDC_West
p6333
aaasba(ihelper
PossibleWorld
p6334
(dp6335
g3
I16
sg4
I0
sg5
(lp6336
(lp6337
(lp6338
I16
aVcCEN_USA
p6339
aVnNDC_USA
p6340
aa(lp6341
I16
aVcCEN_Midwest
p6342
aVnNDC_Midwest
p6343
aa(lp6344
I16
aVnNDC_Midwest
p6345
aVcCEN_Midwest
p6346
aa(lp6347
I16
aVnNDC_USA
p6348
aVcCEN_USA
p6349
aa(lp6350
I16
aVnNDC_USA
p6351
aVnNDC_USA
p6352
aa(lp6353
I16
aVcCEN_USA
p6354
aVcCEN_USA
p6355
aa(lp6356
I16
aVnNDC_West
p6357
aVnNDC_West
p6358
aa(lp6359
I16
aVnNDC_Southwest
p6360
aVnNDC_Southwest
p6361
aa(lp6362
I16
aVnNDC_Southeast
p6363
aVnNDC_Southeast
p6364
aa(lp6365
I16
aVnNDC_Northeast
p6366
aVnNDC_Northeast
p6367
aa(lp6368
I16
aVnNDC_Midwest
p6369
aVnNDC_Midwest
p6370
aa(lp6371
I16
aVcCEN_West
p6372
aVcCEN_West
p6373
aa(lp6374
I16
aVcCEN_South
p6375
aVcCEN_South
p6376
aa(lp6377
I16
aVcCEN_Midwest
p6378
aVcCEN_Midwest
p6379
aa(lp6380
I16
aVcCEN_Northeast
p6381
aVcCEN_Northeast
p6382
aaa(lp6383
(lp6384
I16
aVcCEN_West
p6385
aVnNDC_Northeast
p6386
aa(lp6387
I16
aVcCEN_Midwest
p6388
aVcCEN_Northeast
p6389
aa(lp6390
I16
aVcCEN_South
p6391
aVcCEN_Northeast
p6392
aa(lp6393
I16
aVcCEN_West
p6394
aVcCEN_Northeast
p6395
aa(lp6396
I16
aVcCEN_Northeast
p6397
aVcCEN_Midwest
p6398
aa(lp6399
I16
aVcCEN_South
p6400
aVcCEN_Midwest
p6401
aa(lp6402
I16
aVcCEN_West
p6403
aVcCEN_Midwest
p6404
aa(lp6405
I16
aVcCEN_Northeast
p6406
aVcCEN_South
p6407
aa(lp6408
I16
aVcCEN_Midwest
p6409
aVcCEN_South
p6410
aa(lp6411
I16
aVcCEN_West
p6412
aVcCEN_South
p6413
aa(lp6414
I16
aVcCEN_Northeast
p6415
aVcCEN_West
p6416
aa(lp6417
I16
aVcCEN_Midwest
p6418
aVcCEN_West
p6419
aa(lp6420
I16
aVcCEN_South
p6421
aVcCEN_West
p6422
aa(lp6423
I16
aVnNDC_Northeast
p6424
aVnNDC_Midwest
p6425
aa(lp6426
I16
aVnNDC_Southeast
p6427
aVnNDC_Midwest
p6428
aa(lp6429
I16
aVnNDC_Southwest
p6430
aVnNDC_Midwest
p6431
aa(lp6432
I16
aVnNDC_West
p6433
aVnNDC_Midwest
p6434
aa(lp6435
I16
aVnNDC_Midwest
p6436
aVnNDC_Northeast
p6437
aa(lp6438
I16
aVnNDC_Southeast
p6439
aVnNDC_Northeast
p6440
aa(lp6441
I16
aVnNDC_Southwest
p6442
aVnNDC_Northeast
p6443
aa(lp6444
I16
aVnNDC_West
p6445
aVnNDC_Northeast
p6446
aa(lp6447
I16
aVnNDC_Midwest
p6448
aVnNDC_Southeast
p6449
aa(lp6450
I16
aVnNDC_Northeast
p6451
aVnNDC_Southeast
p6452
aa(lp6453
I16
aVnNDC_Southwest
p6454
aVnNDC_Southeast
p6455
aa(lp6456
I16
aVnNDC_West
p6457
aVnNDC_Southeast
p6458
aa(lp6459
I16
aVnNDC_Midwest
p6460
aVnNDC_Southwest
p6461
aa(lp6462
I16
aVnNDC_Northeast
p6463
aVnNDC_Southwest
p6464
aa(lp6465
I16
aVnNDC_Southeast
p6466
aVnNDC_Southwest
p6467
aa(lp6468
I16
aVnNDC_West
p6469
aVnNDC_Southwest
p6470
aa(lp6471
I16
aVnNDC_Midwest
p6472
aVnNDC_West
p6473
aa(lp6474
I16
aVnNDC_Northeast
p6475
aVnNDC_West
p6476
aa(lp6477
I16
aVnNDC_Southeast
p6478
aVnNDC_West
p6479
aa(lp6480
I16
aVnNDC_Southwest
p6481
aVnNDC_West
p6482
aa(lp6483
I16
aVnNDC_Northeast
p6484
aVcCEN_West
p6485
aa(lp6486
I16
aVcCEN_Northeast
p6487
aVnNDC_West
p6488
aa(lp6489
I16
aVcCEN_Northeast
p6490
aVnNDC_Southwest
p6491
aa(lp6492
I16
aVcCEN_Northeast
p6493
aVnNDC_Southeast
p6494
aa(lp6495
I16
aVcCEN_Northeast
p6496
aVnNDC_Midwest
p6497
aa(lp6498
I16
aVcCEN_South
p6499
aVnNDC_Midwest
p6500
aa(lp6501
I16
aVcCEN_West
p6502
aVnNDC_Midwest
p6503
aa(lp6504
I16
aVcCEN_Midwest
p6505
aVnNDC_West
p6506
aa(lp6507
I16
aVcCEN_Midwest
p6508
aVnNDC_Southwest
p6509
aa(lp6510
I16
aVcCEN_Midwest
p6511
aVnNDC_Southeast
p6512
aa(lp6513
I16
aVcCEN_Midwest
p6514
aVnNDC_Northeast
p6515
aa(lp6516
I16
aVnNDC_Northeast
p6517
aVcCEN_Midwest
p6518
aa(lp6519
I16
aVnNDC_Southeast
p6520
aVcCEN_Midwest
p6521
aa(lp6522
I16
aVnNDC_Southwest
p6523
aVcCEN_Midwest
p6524
aa(lp6525
I16
aVnNDC_West
p6526
aVcCEN_Midwest
p6527
aa(lp6528
I16
aVnNDC_Midwest
p6529
aVcCEN_West
p6530
aa(lp6531
I16
aVnNDC_Midwest
p6532
aVcCEN_South
p6533
aa(lp6534
I16
aVnNDC_Midwest
p6535
aVcCEN_Northeast
p6536
aa(lp6537
I16
aVnNDC_Southeast
p6538
aVcCEN_Northeast
p6539
aa(lp6540
I16
aVnNDC_Southwest
p6541
aVcCEN_Northeast
p6542
aa(lp6543
I16
aVnNDC_West
p6544
aVcCEN_Northeast
p6545
aa(lp6546
I16
aVnNDC_West
p6547
aVcCEN_South
p6548
aa(lp6549
I16
aVcCEN_South
p6550
aVnNDC_West
p6551
aa(lp6552
I16
aVcCEN_West
p6553
aVnNDC_Southeast
p6554
aa(lp6555
I16
aVnNDC_Southeast
p6556
aVcCEN_West
p6557
aaa(lp6558
(lp6559
I16
aVcCEN_Northeast
p6560
aVnNDC_Northeast
p6561
aa(lp6562
I16
aVcCEN_Northeast
p6563
aVcCEN_USA
p6564
aa(lp6565
I16
aVcCEN_Midwest
p6566
aVcCEN_USA
p6567
aa(lp6568
I16
aVcCEN_South
p6569
aVcCEN_USA
p6570
aa(lp6571
I16
aVcCEN_West
p6572
aVcCEN_USA
p6573
aa(lp6574
I16
aVnNDC_Midwest
p6575
aVnNDC_USA
p6576
aa(lp6577
I16
aVnNDC_Northeast
p6578
aVnNDC_USA
p6579
aa(lp6580
I16
aVnNDC_Southeast
p6581
aVnNDC_USA
p6582
aa(lp6583
I16
aVnNDC_Southwest
p6584
aVnNDC_USA
p6585
aa(lp6586
I16
aVnNDC_West
p6587
aVnNDC_USA
p6588
aa(lp6589
I16
aVnNDC_West
p6590
aVcCEN_West
p6591
aa(lp6592
I16
aVcCEN_Northeast
p6593
aVnNDC_USA
p6594
aa(lp6595
I16
aVcCEN_Midwest
p6596
aVnNDC_USA
p6597
aa(lp6598
I16
aVcCEN_South
p6599
aVnNDC_USA
p6600
aa(lp6601
I16
aVcCEN_West
p6602
aVnNDC_USA
p6603
aa(lp6604
I16
aVnNDC_West
p6605
aVcCEN_USA
p6606
aa(lp6607
I16
aVnNDC_Southwest
p6608
aVcCEN_USA
p6609
aa(lp6610
I16
aVnNDC_Southeast
p6611
aVcCEN_USA
p6612
aa(lp6613
I16
aVnNDC_Northeast
p6614
aVcCEN_USA
p6615
aa(lp6616
I16
aVnNDC_Midwest
p6617
aVcCEN_USA
p6618
aa(lp6619
I16
aVnNDC_Southeast
p6620
aVcCEN_South
p6621
aaa(lp6622
(lp6623
I16
aVcCEN_West
p6624
aVnNDC_West
p6625
aa(lp6626
I16
aVnNDC_USA
p6627
aVnNDC_West
p6628
aa(lp6629
I16
aVnNDC_USA
p6630
aVnNDC_Southwest
p6631
aa(lp6632
I16
aVnNDC_USA
p6633
aVnNDC_Southeast
p6634
aa(lp6635
I16
aVnNDC_USA
p6636
aVnNDC_Northeast
p6637
aa(lp6638
I16
aVnNDC_USA
p6639
aVnNDC_Midwest
p6640
aa(lp6641
I16
aVcCEN_USA
p6642
aVcCEN_West
p6643
aa(lp6644
I16
aVcCEN_USA
p6645
aVcCEN_South
p6646
aa(lp6647
I16
aVcCEN_USA
p6648
aVcCEN_Midwest
p6649
aa(lp6650
I16
aVcCEN_USA
p6651
aVcCEN_Northeast
p6652
aa(lp6653
I16
aVnNDC_Northeast
p6654
aVcCEN_Northeast
p6655
aa(lp6656
I16
aVnNDC_USA
p6657
aVcCEN_West
p6658
aa(lp6659
I16
aVnNDC_USA
p6660
aVcCEN_South
p6661
aa(lp6662
I16
aVnNDC_USA
p6663
aVcCEN_Midwest
p6664
aa(lp6665
I16
aVnNDC_USA
p6666
aVcCEN_Northeast
p6667
aa(lp6668
I16
aVcCEN_USA
p6669
aVnNDC_West
p6670
aa(lp6671
I16
aVcCEN_USA
p6672
aVnNDC_Midwest
p6673
aa(lp6674
I16
aVcCEN_USA
p6675
aVnNDC_Northeast
p6676
aa(lp6677
I16
aVcCEN_USA
p6678
aVnNDC_Southeast
p6679
aa(lp6680
I16
aVcCEN_USA
p6681
aVnNDC_Southwest
p6682
aa(lp6683
I16
aVcCEN_South
p6684
aVnNDC_Southeast
p6685
aaa(lp6686
(lp6687
I16
aVcCEN_South
p6688
aVnNDC_Southwest
p6689
aa(lp6690
I16
aVnNDC_Southwest
p6691
aVcCEN_South
p6692
aa(lp6693
I16
aVcCEN_West
p6694
aVnNDC_Southwest
p6695
aa(lp6696
I16
aVnNDC_Southwest
p6697
aVcCEN_West
p6698
aa(lp6699
I16
aVnNDC_Northeast
p6700
aVcCEN_South
p6701
aa(lp6702
I16
aVcCEN_South
p6703
aVnNDC_Northeast
p6704
aaa(lp6705
(lp6706
I16
aVcCEN_Northeast
p6707
aa(lp6708
I16
aVcCEN_Midwest
p6709
aa(lp6710
I16
aVcCEN_South
p6711
aa(lp6712
I16
aVcCEN_West
p6713
aa(lp6714
I16
aVnNDC_Midwest
p6715
aa(lp6716
I16
aVnNDC_Northeast
p6717
aa(lp6718
I16
aVnNDC_Southeast
p6719
aa(lp6720
I16
aVnNDC_Southwest
p6721
aa(lp6722
I16
aVnNDC_West
p6723
aa(lp6724
I16
aVcCEN_USA
p6725
aa(lp6726
I16
aVnNDC_USA
p6727
aaa(lp6728
(lp6729
I16
aVcCEN_USA
p6730
aVcCEN_Northeast
p6731
aa(lp6732
I16
aVcCEN_USA
p6733
aVcCEN_Midwest
p6734
aa(lp6735
I16
aVcCEN_USA
p6736
aVcCEN_South
p6737
aa(lp6738
I16
aVcCEN_USA
p6739
aVcCEN_West
p6740
aa(lp6741
I16
aVnNDC_USA
p6742
aVnNDC_Midwest
p6743
aa(lp6744
I16
aVnNDC_USA
p6745
aVnNDC_Northeast
p6746
aa(lp6747
I16
aVnNDC_USA
p6748
aVnNDC_Southeast
p6749
aa(lp6750
I16
aVnNDC_USA
p6751
aVnNDC_Southwest
p6752
aa(lp6753
I16
aVnNDC_USA
p6754
aVnNDC_West
p6755
aaasba(ihelper
PossibleWorld
p6756
(dp6757
g3
I17
sg4
I0
sg5
(lp6758
(lp6759
(lp6760
I17
aVcCEN_USA
p6761
aVnNDC_USA
p6762
aa(lp6763
I17
aVcCEN_Midwest
p6764
aVnNDC_Midwest
p6765
aa(lp6766
I17
aVnNDC_Midwest
p6767
aVcCEN_Midwest
p6768
aa(lp6769
I17
aVnNDC_USA
p6770
aVcCEN_USA
p6771
aa(lp6772
I17
aVnNDC_USA
p6773
aVnNDC_USA
p6774
aa(lp6775
I17
aVcCEN_USA
p6776
aVcCEN_USA
p6777
aa(lp6778
I17
aVnNDC_West
p6779
aVnNDC_West
p6780
aa(lp6781
I17
aVnNDC_Southwest
p6782
aVnNDC_Southwest
p6783
aa(lp6784
I17
aVnNDC_Southeast
p6785
aVnNDC_Southeast
p6786
aa(lp6787
I17
aVnNDC_Northeast
p6788
aVnNDC_Northeast
p6789
aa(lp6790
I17
aVnNDC_Midwest
p6791
aVnNDC_Midwest
p6792
aa(lp6793
I17
aVcCEN_West
p6794
aVcCEN_West
p6795
aa(lp6796
I17
aVcCEN_South
p6797
aVcCEN_South
p6798
aa(lp6799
I17
aVcCEN_Midwest
p6800
aVcCEN_Midwest
p6801
aa(lp6802
I17
aVcCEN_Northeast
p6803
aVcCEN_Northeast
p6804
aaa(lp6805
(lp6806
I17
aVcCEN_West
p6807
aVnNDC_Northeast
p6808
aa(lp6809
I17
aVcCEN_Midwest
p6810
aVcCEN_Northeast
p6811
aa(lp6812
I17
aVcCEN_South
p6813
aVcCEN_Northeast
p6814
aa(lp6815
I17
aVcCEN_West
p6816
aVcCEN_Northeast
p6817
aa(lp6818
I17
aVcCEN_Northeast
p6819
aVcCEN_Midwest
p6820
aa(lp6821
I17
aVcCEN_South
p6822
aVcCEN_Midwest
p6823
aa(lp6824
I17
aVcCEN_West
p6825
aVcCEN_Midwest
p6826
aa(lp6827
I17
aVcCEN_Northeast
p6828
aVcCEN_South
p6829
aa(lp6830
I17
aVcCEN_Midwest
p6831
aVcCEN_South
p6832
aa(lp6833
I17
aVcCEN_West
p6834
aVcCEN_South
p6835
aa(lp6836
I17
aVcCEN_Northeast
p6837
aVcCEN_West
p6838
aa(lp6839
I17
aVcCEN_Midwest
p6840
aVcCEN_West
p6841
aa(lp6842
I17
aVcCEN_South
p6843
aVcCEN_West
p6844
aa(lp6845
I17
aVnNDC_Northeast
p6846
aVnNDC_Midwest
p6847
aa(lp6848
I17
aVnNDC_Southeast
p6849
aVnNDC_Midwest
p6850
aa(lp6851
I17
aVnNDC_Southwest
p6852
aVnNDC_Midwest
p6853
aa(lp6854
I17
aVnNDC_West
p6855
aVnNDC_Midwest
p6856
aa(lp6857
I17
aVnNDC_Midwest
p6858
aVnNDC_Northeast
p6859
aa(lp6860
I17
aVnNDC_Southeast
p6861
aVnNDC_Northeast
p6862
aa(lp6863
I17
aVnNDC_Southwest
p6864
aVnNDC_Northeast
p6865
aa(lp6866
I17
aVnNDC_West
p6867
aVnNDC_Northeast
p6868
aa(lp6869
I17
aVnNDC_Midwest
p6870
aVnNDC_Southeast
p6871
aa(lp6872
I17
aVnNDC_Northeast
p6873
aVnNDC_Southeast
p6874
aa(lp6875
I17
aVnNDC_Southwest
p6876
aVnNDC_Southeast
p6877
aa(lp6878
I17
aVnNDC_West
p6879
aVnNDC_Southeast
p6880
aa(lp6881
I17
aVnNDC_Midwest
p6882
aVnNDC_Southwest
p6883
aa(lp6884
I17
aVnNDC_Northeast
p6885
aVnNDC_Southwest
p6886
aa(lp6887
I17
aVnNDC_Southeast
p6888
aVnNDC_Southwest
p6889
aa(lp6890
I17
aVnNDC_West
p6891
aVnNDC_Southwest
p6892
aa(lp6893
I17
aVnNDC_Midwest
p6894
aVnNDC_West
p6895
aa(lp6896
I17
aVnNDC_Northeast
p6897
aVnNDC_West
p6898
aa(lp6899
I17
aVnNDC_Southeast
p6900
aVnNDC_West
p6901
aa(lp6902
I17
aVnNDC_Southwest
p6903
aVnNDC_West
p6904
aa(lp6905
I17
aVnNDC_Northeast
p6906
aVcCEN_West
p6907
aa(lp6908
I17
aVcCEN_Northeast
p6909
aVnNDC_West
p6910
aa(lp6911
I17
aVcCEN_Northeast
p6912
aVnNDC_Southwest
p6913
aa(lp6914
I17
aVcCEN_Northeast
p6915
aVnNDC_Southeast
p6916
aa(lp6917
I17
aVcCEN_Northeast
p6918
aVnNDC_Midwest
p6919
aa(lp6920
I17
aVcCEN_South
p6921
aVnNDC_Midwest
p6922
aa(lp6923
I17
aVcCEN_West
p6924
aVnNDC_Midwest
p6925
aa(lp6926
I17
aVcCEN_Midwest
p6927
aVnNDC_West
p6928
aa(lp6929
I17
aVcCEN_Midwest
p6930
aVnNDC_Southwest
p6931
aa(lp6932
I17
aVcCEN_Midwest
p6933
aVnNDC_Southeast
p6934
aa(lp6935
I17
aVcCEN_Midwest
p6936
aVnNDC_Northeast
p6937
aa(lp6938
I17
aVnNDC_Northeast
p6939
aVcCEN_Midwest
p6940
aa(lp6941
I17
aVnNDC_Southeast
p6942
aVcCEN_Midwest
p6943
aa(lp6944
I17
aVnNDC_Southwest
p6945
aVcCEN_Midwest
p6946
aa(lp6947
I17
aVnNDC_West
p6948
aVcCEN_Midwest
p6949
aa(lp6950
I17
aVnNDC_Midwest
p6951
aVcCEN_West
p6952
aa(lp6953
I17
aVnNDC_Midwest
p6954
aVcCEN_South
p6955
aa(lp6956
I17
aVnNDC_Midwest
p6957
aVcCEN_Northeast
p6958
aa(lp6959
I17
aVnNDC_Southeast
p6960
aVcCEN_Northeast
p6961
aa(lp6962
I17
aVnNDC_Southwest
p6963
aVcCEN_Northeast
p6964
aa(lp6965
I17
aVnNDC_West
p6966
aVcCEN_Northeast
p6967
aa(lp6968
I17
aVnNDC_West
p6969
aVcCEN_South
p6970
aa(lp6971
I17
aVcCEN_South
p6972
aVnNDC_West
p6973
aa(lp6974
I17
aVcCEN_South
p6975
aVnNDC_Southeast
p6976
aa(lp6977
I17
aVnNDC_Southeast
p6978
aVcCEN_South
p6979
aa(lp6980
I17
aVcCEN_South
p6981
aVnNDC_Northeast
p6982
aa(lp6983
I17
aVnNDC_Northeast
p6984
aVcCEN_South
p6985
aa(lp6986
I17
aVnNDC_Southwest
p6987
aVcCEN_West
p6988
aa(lp6989
I17
aVcCEN_West
p6990
aVnNDC_Southwest
p6991
aaa(lp6992
(lp6993
I17
aVcCEN_Northeast
p6994
aVnNDC_Northeast
p6995
aa(lp6996
I17
aVcCEN_Northeast
p6997
aVcCEN_USA
p6998
aa(lp6999
I17
aVcCEN_Midwest
p7000
aVcCEN_USA
p7001
aa(lp7002
I17
aVcCEN_South
p7003
aVcCEN_USA
p7004
aa(lp7005
I17
aVcCEN_West
p7006
aVcCEN_USA
p7007
aa(lp7008
I17
aVnNDC_Midwest
p7009
aVnNDC_USA
p7010
aa(lp7011
I17
aVnNDC_Northeast
p7012
aVnNDC_USA
p7013
aa(lp7014
I17
aVnNDC_Southeast
p7015
aVnNDC_USA
p7016
aa(lp7017
I17
aVnNDC_Southwest
p7018
aVnNDC_USA
p7019
aa(lp7020
I17
aVnNDC_West
p7021
aVnNDC_USA
p7022
aa(lp7023
I17
aVnNDC_West
p7024
aVcCEN_West
p7025
aa(lp7026
I17
aVcCEN_Northeast
p7027
aVnNDC_USA
p7028
aa(lp7029
I17
aVcCEN_Midwest
p7030
aVnNDC_USA
p7031
aa(lp7032
I17
aVcCEN_South
p7033
aVnNDC_USA
p7034
aa(lp7035
I17
aVcCEN_West
p7036
aVnNDC_USA
p7037
aa(lp7038
I17
aVnNDC_West
p7039
aVcCEN_USA
p7040
aa(lp7041
I17
aVnNDC_Southwest
p7042
aVcCEN_USA
p7043
aa(lp7044
I17
aVnNDC_Southeast
p7045
aVcCEN_USA
p7046
aa(lp7047
I17
aVnNDC_Northeast
p7048
aVcCEN_USA
p7049
aa(lp7050
I17
aVnNDC_Midwest
p7051
aVcCEN_USA
p7052
aaa(lp7053
(lp7054
I17
aVcCEN_West
p7055
aVnNDC_West
p7056
aa(lp7057
I17
aVnNDC_USA
p7058
aVnNDC_West
p7059
aa(lp7060
I17
aVnNDC_USA
p7061
aVnNDC_Southwest
p7062
aa(lp7063
I17
aVnNDC_USA
p7064
aVnNDC_Southeast
p7065
aa(lp7066
I17
aVnNDC_USA
p7067
aVnNDC_Northeast
p7068
aa(lp7069
I17
aVnNDC_USA
p7070
aVnNDC_Midwest
p7071
aa(lp7072
I17
aVcCEN_USA
p7073
aVcCEN_West
p7074
aa(lp7075
I17
aVcCEN_USA
p7076
aVcCEN_South
p7077
aa(lp7078
I17
aVcCEN_USA
p7079
aVcCEN_Midwest
p7080
aa(lp7081
I17
aVcCEN_USA
p7082
aVcCEN_Northeast
p7083
aa(lp7084
I17
aVnNDC_Northeast
p7085
aVcCEN_Northeast
p7086
aa(lp7087
I17
aVnNDC_USA
p7088
aVcCEN_West
p7089
aa(lp7090
I17
aVnNDC_USA
p7091
aVcCEN_South
p7092
aa(lp7093
I17
aVnNDC_USA
p7094
aVcCEN_Midwest
p7095
aa(lp7096
I17
aVnNDC_USA
p7097
aVcCEN_Northeast
p7098
aa(lp7099
I17
aVcCEN_USA
p7100
aVnNDC_West
p7101
aa(lp7102
I17
aVcCEN_USA
p7103
aVnNDC_Midwest
p7104
aa(lp7105
I17
aVcCEN_USA
p7106
aVnNDC_Northeast
p7107
aa(lp7108
I17
aVcCEN_USA
p7109
aVnNDC_Southeast
p7110
aa(lp7111
I17
aVcCEN_USA
p7112
aVnNDC_Southwest
p7113
aaa(lp7114
(lp7115
I17
aVcCEN_South
p7116
aVnNDC_Southwest
p7117
aa(lp7118
I17
aVnNDC_Southwest
p7119
aVcCEN_South
p7120
aa(lp7121
I17
aVcCEN_West
p7122
aVnNDC_Southeast
p7123
aa(lp7124
I17
aVnNDC_Southeast
p7125
aVcCEN_West
p7126
aaa(lp7127
(lp7128
I17
aVcCEN_Northeast
p7129
aa(lp7130
I17
aVcCEN_Midwest
p7131
aa(lp7132
I17
aVcCEN_South
p7133
aa(lp7134
I17
aVcCEN_West
p7135
aa(lp7136
I17
aVnNDC_Midwest
p7137
aa(lp7138
I17
aVnNDC_Northeast
p7139
aa(lp7140
I17
aVnNDC_Southeast
p7141
aa(lp7142
I17
aVnNDC_Southwest
p7143
aa(lp7144
I17
aVnNDC_West
p7145
aa(lp7146
I17
aVcCEN_USA
p7147
aa(lp7148
I17
aVnNDC_USA
p7149
aaa(lp7150
(lp7151
I17
aVcCEN_USA
p7152
aVcCEN_Northeast
p7153
aa(lp7154
I17
aVcCEN_USA
p7155
aVcCEN_Midwest
p7156
aa(lp7157
I17
aVcCEN_USA
p7158
aVcCEN_South
p7159
aa(lp7160
I17
aVcCEN_USA
p7161
aVcCEN_West
p7162
aa(lp7163
I17
aVnNDC_USA
p7164
aVnNDC_Midwest
p7165
aa(lp7166
I17
aVnNDC_USA
p7167
aVnNDC_Northeast
p7168
aa(lp7169
I17
aVnNDC_USA
p7170
aVnNDC_Southeast
p7171
aa(lp7172
I17
aVnNDC_USA
p7173
aVnNDC_Southwest
p7174
aa(lp7175
I17
aVnNDC_USA
p7176
aVnNDC_West
p7177
aaasba(ihelper
PossibleWorld
p7178
(dp7179
g3
I18
sg4
I0
sg5
(lp7180
(lp7181
(lp7182
I18
aVcCEN_USA
p7183
aVnNDC_USA
p7184
aa(lp7185
I18
aVcCEN_Midwest
p7186
aVnNDC_Midwest
p7187
aa(lp7188
I18
aVnNDC_Midwest
p7189
aVcCEN_Midwest
p7190
aa(lp7191
I18
aVnNDC_USA
p7192
aVcCEN_USA
p7193
aa(lp7194
I18
aVnNDC_USA
p7195
aVnNDC_USA
p7196
aa(lp7197
I18
aVcCEN_USA
p7198
aVcCEN_USA
p7199
aa(lp7200
I18
aVnNDC_West
p7201
aVnNDC_West
p7202
aa(lp7203
I18
aVnNDC_Southwest
p7204
aVnNDC_Southwest
p7205
aa(lp7206
I18
aVnNDC_Southeast
p7207
aVnNDC_Southeast
p7208
aa(lp7209
I18
aVnNDC_Northeast
p7210
aVnNDC_Northeast
p7211
aa(lp7212
I18
aVnNDC_Midwest
p7213
aVnNDC_Midwest
p7214
aa(lp7215
I18
aVcCEN_West
p7216
aVcCEN_West
p7217
aa(lp7218
I18
aVcCEN_South
p7219
aVcCEN_South
p7220
aa(lp7221
I18
aVcCEN_Midwest
p7222
aVcCEN_Midwest
p7223
aa(lp7224
I18
aVcCEN_Northeast
p7225
aVcCEN_Northeast
p7226
aaa(lp7227
(lp7228
I18
aVcCEN_West
p7229
aVnNDC_Northeast
p7230
aa(lp7231
I18
aVcCEN_Midwest
p7232
aVcCEN_Northeast
p7233
aa(lp7234
I18
aVcCEN_South
p7235
aVcCEN_Northeast
p7236
aa(lp7237
I18
aVcCEN_West
p7238
aVcCEN_Northeast
p7239
aa(lp7240
I18
aVcCEN_Northeast
p7241
aVcCEN_Midwest
p7242
aa(lp7243
I18
aVcCEN_South
p7244
aVcCEN_Midwest
p7245
aa(lp7246
I18
aVcCEN_West
p7247
aVcCEN_Midwest
p7248
aa(lp7249
I18
aVcCEN_Northeast
p7250
aVcCEN_South
p7251
aa(lp7252
I18
aVcCEN_Midwest
p7253
aVcCEN_South
p7254
aa(lp7255
I18
aVcCEN_West
p7256
aVcCEN_South
p7257
aa(lp7258
I18
aVcCEN_Northeast
p7259
aVcCEN_West
p7260
aa(lp7261
I18
aVcCEN_Midwest
p7262
aVcCEN_West
p7263
aa(lp7264
I18
aVcCEN_South
p7265
aVcCEN_West
p7266
aa(lp7267
I18
aVnNDC_Northeast
p7268
aVnNDC_Midwest
p7269
aa(lp7270
I18
aVnNDC_Southeast
p7271
aVnNDC_Midwest
p7272
aa(lp7273
I18
aVnNDC_Southwest
p7274
aVnNDC_Midwest
p7275
aa(lp7276
I18
aVnNDC_West
p7277
aVnNDC_Midwest
p7278
aa(lp7279
I18
aVnNDC_Midwest
p7280
aVnNDC_Northeast
p7281
aa(lp7282
I18
aVnNDC_Southeast
p7283
aVnNDC_Northeast
p7284
aa(lp7285
I18
aVnNDC_Southwest
p7286
aVnNDC_Northeast
p7287
aa(lp7288
I18
aVnNDC_West
p7289
aVnNDC_Northeast
p7290
aa(lp7291
I18
aVnNDC_Midwest
p7292
aVnNDC_Southeast
p7293
aa(lp7294
I18
aVnNDC_Northeast
p7295
aVnNDC_Southeast
p7296
aa(lp7297
I18
aVnNDC_Southwest
p7298
aVnNDC_Southeast
p7299
aa(lp7300
I18
aVnNDC_West
p7301
aVnNDC_Southeast
p7302
aa(lp7303
I18
aVnNDC_Midwest
p7304
aVnNDC_Southwest
p7305
aa(lp7306
I18
aVnNDC_Northeast
p7307
aVnNDC_Southwest
p7308
aa(lp7309
I18
aVnNDC_Southeast
p7310
aVnNDC_Southwest
p7311
aa(lp7312
I18
aVnNDC_West
p7313
aVnNDC_Southwest
p7314
aa(lp7315
I18
aVnNDC_Midwest
p7316
aVnNDC_West
p7317
aa(lp7318
I18
aVnNDC_Northeast
p7319
aVnNDC_West
p7320
aa(lp7321
I18
aVnNDC_Southeast
p7322
aVnNDC_West
p7323
aa(lp7324
I18
aVnNDC_Southwest
p7325
aVnNDC_West
p7326
aa(lp7327
I18
aVnNDC_Northeast
p7328
aVcCEN_West
p7329
aa(lp7330
I18
aVcCEN_Northeast
p7331
aVnNDC_West
p7332
aa(lp7333
I18
aVcCEN_Northeast
p7334
aVnNDC_Southwest
p7335
aa(lp7336
I18
aVcCEN_Northeast
p7337
aVnNDC_Southeast
p7338
aa(lp7339
I18
aVcCEN_Northeast
p7340
aVnNDC_Midwest
p7341
aa(lp7342
I18
aVcCEN_South
p7343
aVnNDC_Midwest
p7344
aa(lp7345
I18
aVcCEN_West
p7346
aVnNDC_Midwest
p7347
aa(lp7348
I18
aVcCEN_Midwest
p7349
aVnNDC_West
p7350
aa(lp7351
I18
aVcCEN_Midwest
p7352
aVnNDC_Southwest
p7353
aa(lp7354
I18
aVcCEN_Midwest
p7355
aVnNDC_Southeast
p7356
aa(lp7357
I18
aVcCEN_Midwest
p7358
aVnNDC_Northeast
p7359
aa(lp7360
I18
aVnNDC_Northeast
p7361
aVcCEN_Midwest
p7362
aa(lp7363
I18
aVnNDC_Southeast
p7364
aVcCEN_Midwest
p7365
aa(lp7366
I18
aVnNDC_Southwest
p7367
aVcCEN_Midwest
p7368
aa(lp7369
I18
aVnNDC_West
p7370
aVcCEN_Midwest
p7371
aa(lp7372
I18
aVnNDC_Midwest
p7373
aVcCEN_West
p7374
aa(lp7375
I18
aVnNDC_Midwest
p7376
aVcCEN_South
p7377
aa(lp7378
I18
aVnNDC_Midwest
p7379
aVcCEN_Northeast
p7380
aa(lp7381
I18
aVnNDC_Southeast
p7382
aVcCEN_Northeast
p7383
aa(lp7384
I18
aVnNDC_Southwest
p7385
aVcCEN_Northeast
p7386
aa(lp7387
I18
aVnNDC_West
p7388
aVcCEN_Northeast
p7389
aa(lp7390
I18
aVnNDC_West
p7391
aVcCEN_South
p7392
aa(lp7393
I18
aVcCEN_South
p7394
aVnNDC_West
p7395
aa(lp7396
I18
aVcCEN_South
p7397
aVnNDC_Southeast
p7398
aa(lp7399
I18
aVnNDC_Southeast
p7400
aVcCEN_South
p7401
aa(lp7402
I18
aVnNDC_Southwest
p7403
aVcCEN_West
p7404
aa(lp7405
I18
aVcCEN_West
p7406
aVnNDC_Southwest
p7407
aaa(lp7408
(lp7409
I18
aVcCEN_Northeast
p7410
aVnNDC_Northeast
p7411
aa(lp7412
I18
aVcCEN_Northeast
p7413
aVcCEN_USA
p7414
aa(lp7415
I18
aVcCEN_Midwest
p7416
aVcCEN_USA
p7417
aa(lp7418
I18
aVcCEN_South
p7419
aVcCEN_USA
p7420
aa(lp7421
I18
aVcCEN_West
p7422
aVcCEN_USA
p7423
aa(lp7424
I18
aVnNDC_Midwest
p7425
aVnNDC_USA
p7426
aa(lp7427
I18
aVnNDC_Northeast
p7428
aVnNDC_USA
p7429
aa(lp7430
I18
aVnNDC_Southeast
p7431
aVnNDC_USA
p7432
aa(lp7433
I18
aVnNDC_Southwest
p7434
aVnNDC_USA
p7435
aa(lp7436
I18
aVnNDC_West
p7437
aVnNDC_USA
p7438
aa(lp7439
I18
aVnNDC_West
p7440
aVcCEN_West
p7441
aa(lp7442
I18
aVcCEN_Northeast
p7443
aVnNDC_USA
p7444
aa(lp7445
I18
aVcCEN_Midwest
p7446
aVnNDC_USA
p7447
aa(lp7448
I18
aVcCEN_South
p7449
aVnNDC_USA
p7450
aa(lp7451
I18
aVcCEN_West
p7452
aVnNDC_USA
p7453
aa(lp7454
I18
aVnNDC_West
p7455
aVcCEN_USA
p7456
aa(lp7457
I18
aVnNDC_Southwest
p7458
aVcCEN_USA
p7459
aa(lp7460
I18
aVnNDC_Southeast
p7461
aVcCEN_USA
p7462
aa(lp7463
I18
aVnNDC_Northeast
p7464
aVcCEN_USA
p7465
aa(lp7466
I18
aVnNDC_Midwest
p7467
aVcCEN_USA
p7468
aaa(lp7469
(lp7470
I18
aVcCEN_West
p7471
aVnNDC_West
p7472
aa(lp7473
I18
aVnNDC_USA
p7474
aVnNDC_West
p7475
aa(lp7476
I18
aVnNDC_USA
p7477
aVnNDC_Southwest
p7478
aa(lp7479
I18
aVnNDC_USA
p7480
aVnNDC_Southeast
p7481
aa(lp7482
I18
aVnNDC_USA
p7483
aVnNDC_Northeast
p7484
aa(lp7485
I18
aVnNDC_USA
p7486
aVnNDC_Midwest
p7487
aa(lp7488
I18
aVcCEN_USA
p7489
aVcCEN_West
p7490
aa(lp7491
I18
aVcCEN_USA
p7492
aVcCEN_South
p7493
aa(lp7494
I18
aVcCEN_USA
p7495
aVcCEN_Midwest
p7496
aa(lp7497
I18
aVcCEN_USA
p7498
aVcCEN_Northeast
p7499
aa(lp7500
I18
aVnNDC_Northeast
p7501
aVcCEN_Northeast
p7502
aa(lp7503
I18
aVnNDC_USA
p7504
aVcCEN_West
p7505
aa(lp7506
I18
aVnNDC_USA
p7507
aVcCEN_South
p7508
aa(lp7509
I18
aVnNDC_USA
p7510
aVcCEN_Midwest
p7511
aa(lp7512
I18
aVnNDC_USA
p7513
aVcCEN_Northeast
p7514
aa(lp7515
I18
aVcCEN_USA
p7516
aVnNDC_West
p7517
aa(lp7518
I18
aVcCEN_USA
p7519
aVnNDC_Midwest
p7520
aa(lp7521
I18
aVcCEN_USA
p7522
aVnNDC_Northeast
p7523
aa(lp7524
I18
aVcCEN_USA
p7525
aVnNDC_Southeast
p7526
aa(lp7527
I18
aVcCEN_USA
p7528
aVnNDC_Southwest
p7529
aaa(lp7530
(lp7531
I18
aVcCEN_South
p7532
aVnNDC_Southwest
p7533
aa(lp7534
I18
aVnNDC_Southwest
p7535
aVcCEN_South
p7536
aa(lp7537
I18
aVcCEN_West
p7538
aVnNDC_Southeast
p7539
aa(lp7540
I18
aVnNDC_Southeast
p7541
aVcCEN_West
p7542
aa(lp7543
I18
aVnNDC_Northeast
p7544
aVcCEN_South
p7545
aa(lp7546
I18
aVcCEN_South
p7547
aVnNDC_Northeast
p7548
aaa(lp7549
(lp7550
I18
aVcCEN_Northeast
p7551
aa(lp7552
I18
aVcCEN_Midwest
p7553
aa(lp7554
I18
aVcCEN_South
p7555
aa(lp7556
I18
aVcCEN_West
p7557
aa(lp7558
I18
aVnNDC_Midwest
p7559
aa(lp7560
I18
aVnNDC_Northeast
p7561
aa(lp7562
I18
aVnNDC_Southeast
p7563
aa(lp7564
I18
aVnNDC_Southwest
p7565
aa(lp7566
I18
aVnNDC_West
p7567
aa(lp7568
I18
aVcCEN_USA
p7569
aa(lp7570
I18
aVnNDC_USA
p7571
aaa(lp7572
(lp7573
I18
aVcCEN_USA
p7574
aVcCEN_Northeast
p7575
aa(lp7576
I18
aVcCEN_USA
p7577
aVcCEN_Midwest
p7578
aa(lp7579
I18
aVcCEN_USA
p7580
aVcCEN_South
p7581
aa(lp7582
I18
aVcCEN_USA
p7583
aVcCEN_West
p7584
aa(lp7585
I18
aVnNDC_USA
p7586
aVnNDC_Midwest
p7587
aa(lp7588
I18
aVnNDC_USA
p7589
aVnNDC_Northeast
p7590
aa(lp7591
I18
aVnNDC_USA
p7592
aVnNDC_Southeast
p7593
aa(lp7594
I18
aVnNDC_USA
p7595
aVnNDC_Southwest
p7596
aa(lp7597
I18
aVnNDC_USA
p7598
aVnNDC_West
p7599
aaasba(ihelper
PossibleWorld
p7600
(dp7601
g3
I19
sg4
I0
sg5
(lp7602
(lp7603
(lp7604
I19
aVcCEN_USA
p7605
aVnNDC_USA
p7606
aa(lp7607
I19
aVcCEN_Midwest
p7608
aVnNDC_Midwest
p7609
aa(lp7610
I19
aVnNDC_Midwest
p7611
aVcCEN_Midwest
p7612
aa(lp7613
I19
aVnNDC_USA
p7614
aVcCEN_USA
p7615
aa(lp7616
I19
aVnNDC_USA
p7617
aVnNDC_USA
p7618
aa(lp7619
I19
aVcCEN_USA
p7620
aVcCEN_USA
p7621
aa(lp7622
I19
aVnNDC_West
p7623
aVnNDC_West
p7624
aa(lp7625
I19
aVnNDC_Southwest
p7626
aVnNDC_Southwest
p7627
aa(lp7628
I19
aVnNDC_Southeast
p7629
aVnNDC_Southeast
p7630
aa(lp7631
I19
aVnNDC_Northeast
p7632
aVnNDC_Northeast
p7633
aa(lp7634
I19
aVnNDC_Midwest
p7635
aVnNDC_Midwest
p7636
aa(lp7637
I19
aVcCEN_West
p7638
aVcCEN_West
p7639
aa(lp7640
I19
aVcCEN_South
p7641
aVcCEN_South
p7642
aa(lp7643
I19
aVcCEN_Midwest
p7644
aVcCEN_Midwest
p7645
aa(lp7646
I19
aVcCEN_Northeast
p7647
aVcCEN_Northeast
p7648
aaa(lp7649
(lp7650
I19
aVcCEN_West
p7651
aVnNDC_Northeast
p7652
aa(lp7653
I19
aVcCEN_Midwest
p7654
aVcCEN_Northeast
p7655
aa(lp7656
I19
aVcCEN_South
p7657
aVcCEN_Northeast
p7658
aa(lp7659
I19
aVcCEN_West
p7660
aVcCEN_Northeast
p7661
aa(lp7662
I19
aVcCEN_Northeast
p7663
aVcCEN_Midwest
p7664
aa(lp7665
I19
aVcCEN_South
p7666
aVcCEN_Midwest
p7667
aa(lp7668
I19
aVcCEN_West
p7669
aVcCEN_Midwest
p7670
aa(lp7671
I19
aVcCEN_Northeast
p7672
aVcCEN_South
p7673
aa(lp7674
I19
aVcCEN_Midwest
p7675
aVcCEN_South
p7676
aa(lp7677
I19
aVcCEN_West
p7678
aVcCEN_South
p7679
aa(lp7680
I19
aVcCEN_Northeast
p7681
aVcCEN_West
p7682
aa(lp7683
I19
aVcCEN_Midwest
p7684
aVcCEN_West
p7685
aa(lp7686
I19
aVcCEN_South
p7687
aVcCEN_West
p7688
aa(lp7689
I19
aVnNDC_Northeast
p7690
aVnNDC_Midwest
p7691
aa(lp7692
I19
aVnNDC_Southeast
p7693
aVnNDC_Midwest
p7694
aa(lp7695
I19
aVnNDC_Southwest
p7696
aVnNDC_Midwest
p7697
aa(lp7698
I19
aVnNDC_West
p7699
aVnNDC_Midwest
p7700
aa(lp7701
I19
aVnNDC_Midwest
p7702
aVnNDC_Northeast
p7703
aa(lp7704
I19
aVnNDC_Southeast
p7705
aVnNDC_Northeast
p7706
aa(lp7707
I19
aVnNDC_Southwest
p7708
aVnNDC_Northeast
p7709
aa(lp7710
I19
aVnNDC_West
p7711
aVnNDC_Northeast
p7712
aa(lp7713
I19
aVnNDC_Midwest
p7714
aVnNDC_Southeast
p7715
aa(lp7716
I19
aVnNDC_Northeast
p7717
aVnNDC_Southeast
p7718
aa(lp7719
I19
aVnNDC_Southwest
p7720
aVnNDC_Southeast
p7721
aa(lp7722
I19
aVnNDC_West
p7723
aVnNDC_Southeast
p7724
aa(lp7725
I19
aVnNDC_Midwest
p7726
aVnNDC_Southwest
p7727
aa(lp7728
I19
aVnNDC_Northeast
p7729
aVnNDC_Southwest
p7730
aa(lp7731
I19
aVnNDC_Southeast
p7732
aVnNDC_Southwest
p7733
aa(lp7734
I19
aVnNDC_West
p7735
aVnNDC_Southwest
p7736
aa(lp7737
I19
aVnNDC_Midwest
p7738
aVnNDC_West
p7739
aa(lp7740
I19
aVnNDC_Northeast
p7741
aVnNDC_West
p7742
aa(lp7743
I19
aVnNDC_Southeast
p7744
aVnNDC_West
p7745
aa(lp7746
I19
aVnNDC_Southwest
p7747
aVnNDC_West
p7748
aa(lp7749
I19
aVnNDC_Northeast
p7750
aVcCEN_West
p7751
aa(lp7752
I19
aVcCEN_Northeast
p7753
aVnNDC_West
p7754
aa(lp7755
I19
aVcCEN_Northeast
p7756
aVnNDC_Southwest
p7757
aa(lp7758
I19
aVcCEN_Northeast
p7759
aVnNDC_Southeast
p7760
aa(lp7761
I19
aVcCEN_Northeast
p7762
aVnNDC_Midwest
p7763
aa(lp7764
I19
aVcCEN_South
p7765
aVnNDC_Midwest
p7766
aa(lp7767
I19
aVcCEN_West
p7768
aVnNDC_Midwest
p7769
aa(lp7770
I19
aVcCEN_Midwest
p7771
aVnNDC_West
p7772
aa(lp7773
I19
aVcCEN_Midwest
p7774
aVnNDC_Southwest
p7775
aa(lp7776
I19
aVcCEN_Midwest
p7777
aVnNDC_Southeast
p7778
aa(lp7779
I19
aVcCEN_Midwest
p7780
aVnNDC_Northeast
p7781
aa(lp7782
I19
aVnNDC_Northeast
p7783
aVcCEN_Midwest
p7784
aa(lp7785
I19
aVnNDC_Southeast
p7786
aVcCEN_Midwest
p7787
aa(lp7788
I19
aVnNDC_Southwest
p7789
aVcCEN_Midwest
p7790
aa(lp7791
I19
aVnNDC_West
p7792
aVcCEN_Midwest
p7793
aa(lp7794
I19
aVnNDC_Midwest
p7795
aVcCEN_West
p7796
aa(lp7797
I19
aVnNDC_Midwest
p7798
aVcCEN_South
p7799
aa(lp7800
I19
aVnNDC_Midwest
p7801
aVcCEN_Northeast
p7802
aa(lp7803
I19
aVnNDC_Southeast
p7804
aVcCEN_Northeast
p7805
aa(lp7806
I19
aVnNDC_Southwest
p7807
aVcCEN_Northeast
p7808
aa(lp7809
I19
aVnNDC_West
p7810
aVcCEN_Northeast
p7811
aa(lp7812
I19
aVnNDC_West
p7813
aVcCEN_South
p7814
aa(lp7815
I19
aVcCEN_South
p7816
aVnNDC_West
p7817
aa(lp7818
I19
aVcCEN_South
p7819
aVnNDC_Northeast
p7820
aa(lp7821
I19
aVnNDC_Northeast
p7822
aVcCEN_South
p7823
aa(lp7824
I19
aVnNDC_Southwest
p7825
aVcCEN_West
p7826
aa(lp7827
I19
aVcCEN_West
p7828
aVnNDC_Southwest
p7829
aaa(lp7830
(lp7831
I19
aVcCEN_Northeast
p7832
aVnNDC_Northeast
p7833
aa(lp7834
I19
aVcCEN_Northeast
p7835
aVcCEN_USA
p7836
aa(lp7837
I19
aVcCEN_Midwest
p7838
aVcCEN_USA
p7839
aa(lp7840
I19
aVcCEN_South
p7841
aVcCEN_USA
p7842
aa(lp7843
I19
aVcCEN_West
p7844
aVcCEN_USA
p7845
aa(lp7846
I19
aVnNDC_Midwest
p7847
aVnNDC_USA
p7848
aa(lp7849
I19
aVnNDC_Northeast
p7850
aVnNDC_USA
p7851
aa(lp7852
I19
aVnNDC_Southeast
p7853
aVnNDC_USA
p7854
aa(lp7855
I19
aVnNDC_Southwest
p7856
aVnNDC_USA
p7857
aa(lp7858
I19
aVnNDC_West
p7859
aVnNDC_USA
p7860
aa(lp7861
I19
aVnNDC_West
p7862
aVcCEN_West
p7863
aa(lp7864
I19
aVcCEN_Northeast
p7865
aVnNDC_USA
p7866
aa(lp7867
I19
aVcCEN_Midwest
p7868
aVnNDC_USA
p7869
aa(lp7870
I19
aVcCEN_South
p7871
aVnNDC_USA
p7872
aa(lp7873
I19
aVcCEN_West
p7874
aVnNDC_USA
p7875
aa(lp7876
I19
aVnNDC_West
p7877
aVcCEN_USA
p7878
aa(lp7879
I19
aVnNDC_Southwest
p7880
aVcCEN_USA
p7881
aa(lp7882
I19
aVnNDC_Southeast
p7883
aVcCEN_USA
p7884
aa(lp7885
I19
aVnNDC_Northeast
p7886
aVcCEN_USA
p7887
aa(lp7888
I19
aVnNDC_Midwest
p7889
aVcCEN_USA
p7890
aaa(lp7891
(lp7892
I19
aVcCEN_West
p7893
aVnNDC_West
p7894
aa(lp7895
I19
aVnNDC_USA
p7896
aVnNDC_West
p7897
aa(lp7898
I19
aVnNDC_USA
p7899
aVnNDC_Southwest
p7900
aa(lp7901
I19
aVnNDC_USA
p7902
aVnNDC_Southeast
p7903
aa(lp7904
I19
aVnNDC_USA
p7905
aVnNDC_Northeast
p7906
aa(lp7907
I19
aVnNDC_USA
p7908
aVnNDC_Midwest
p7909
aa(lp7910
I19
aVcCEN_USA
p7911
aVcCEN_West
p7912
aa(lp7913
I19
aVcCEN_USA
p7914
aVcCEN_South
p7915
aa(lp7916
I19
aVcCEN_USA
p7917
aVcCEN_Midwest
p7918
aa(lp7919
I19
aVcCEN_USA
p7920
aVcCEN_Northeast
p7921
aa(lp7922
I19
aVnNDC_Northeast
p7923
aVcCEN_Northeast
p7924
aa(lp7925
I19
aVnNDC_USA
p7926
aVcCEN_West
p7927
aa(lp7928
I19
aVnNDC_USA
p7929
aVcCEN_South
p7930
aa(lp7931
I19
aVnNDC_USA
p7932
aVcCEN_Midwest
p7933
aa(lp7934
I19
aVnNDC_USA
p7935
aVcCEN_Northeast
p7936
aa(lp7937
I19
aVcCEN_USA
p7938
aVnNDC_West
p7939
aa(lp7940
I19
aVcCEN_USA
p7941
aVnNDC_Midwest
p7942
aa(lp7943
I19
aVcCEN_USA
p7944
aVnNDC_Northeast
p7945
aa(lp7946
I19
aVcCEN_USA
p7947
aVnNDC_Southeast
p7948
aa(lp7949
I19
aVcCEN_USA
p7950
aVnNDC_Southwest
p7951
aaa(lp7952
(lp7953
I19
aVcCEN_South
p7954
aVnNDC_Southwest
p7955
aa(lp7956
I19
aVnNDC_Southwest
p7957
aVcCEN_South
p7958
aa(lp7959
I19
aVcCEN_South
p7960
aVnNDC_Southeast
p7961
aa(lp7962
I19
aVcCEN_West
p7963
aVnNDC_Southeast
p7964
aa(lp7965
I19
aVnNDC_Southeast
p7966
aVcCEN_West
p7967
aa(lp7968
I19
aVnNDC_Southeast
p7969
aVcCEN_South
p7970
aaa(lp7971
(lp7972
I19
aVcCEN_Northeast
p7973
aa(lp7974
I19
aVcCEN_Midwest
p7975
aa(lp7976
I19
aVcCEN_South
p7977
aa(lp7978
I19
aVcCEN_West
p7979
aa(lp7980
I19
aVnNDC_Midwest
p7981
aa(lp7982
I19
aVnNDC_Northeast
p7983
aa(lp7984
I19
aVnNDC_Southeast
p7985
aa(lp7986
I19
aVnNDC_Southwest
p7987
aa(lp7988
I19
aVnNDC_West
p7989
aa(lp7990
I19
aVcCEN_USA
p7991
aa(lp7992
I19
aVnNDC_USA
p7993
aaa(lp7994
(lp7995
I19
aVcCEN_USA
p7996
aVcCEN_Northeast
p7997
aa(lp7998
I19
aVcCEN_USA
p7999
aVcCEN_Midwest
p8000
aa(lp8001
I19
aVcCEN_USA
p8002
aVcCEN_South
p8003
aa(lp8004
I19
aVcCEN_USA
p8005
aVcCEN_West
p8006
aa(lp8007
I19
aVnNDC_USA
p8008
aVnNDC_Midwest
p8009
aa(lp8010
I19
aVnNDC_USA
p8011
aVnNDC_Northeast
p8012
aa(lp8013
I19
aVnNDC_USA
p8014
aVnNDC_Southeast
p8015
aa(lp8016
I19
aVnNDC_USA
p8017
aVnNDC_Southwest
p8018
aa(lp8019
I19
aVnNDC_USA
p8020
aVnNDC_West
p8021
aaasba(ihelper
PossibleWorld
p8022
(dp8023
g3
I20
sg4
I0
sg5
(lp8024
(lp8025
(lp8026
I20
aVcCEN_USA
p8027
aVnNDC_USA
p8028
aa(lp8029
I20
aVcCEN_Midwest
p8030
aVnNDC_Midwest
p8031
aa(lp8032
I20
aVnNDC_Midwest
p8033
aVcCEN_Midwest
p8034
aa(lp8035
I20
aVnNDC_USA
p8036
aVcCEN_USA
p8037
aa(lp8038
I20
aVnNDC_USA
p8039
aVnNDC_USA
p8040
aa(lp8041
I20
aVcCEN_USA
p8042
aVcCEN_USA
p8043
aa(lp8044
I20
aVnNDC_West
p8045
aVnNDC_West
p8046
aa(lp8047
I20
aVnNDC_Southwest
p8048
aVnNDC_Southwest
p8049
aa(lp8050
I20
aVnNDC_Southeast
p8051
aVnNDC_Southeast
p8052
aa(lp8053
I20
aVnNDC_Northeast
p8054
aVnNDC_Northeast
p8055
aa(lp8056
I20
aVnNDC_Midwest
p8057
aVnNDC_Midwest
p8058
aa(lp8059
I20
aVcCEN_West
p8060
aVcCEN_West
p8061
aa(lp8062
I20
aVcCEN_South
p8063
aVcCEN_South
p8064
aa(lp8065
I20
aVcCEN_Midwest
p8066
aVcCEN_Midwest
p8067
aa(lp8068
I20
aVcCEN_Northeast
p8069
aVcCEN_Northeast
p8070
aaa(lp8071
(lp8072
I20
aVcCEN_West
p8073
aVnNDC_Northeast
p8074
aa(lp8075
I20
aVcCEN_Midwest
p8076
aVcCEN_Northeast
p8077
aa(lp8078
I20
aVcCEN_South
p8079
aVcCEN_Northeast
p8080
aa(lp8081
I20
aVcCEN_West
p8082
aVcCEN_Northeast
p8083
aa(lp8084
I20
aVcCEN_Northeast
p8085
aVcCEN_Midwest
p8086
aa(lp8087
I20
aVcCEN_South
p8088
aVcCEN_Midwest
p8089
aa(lp8090
I20
aVcCEN_West
p8091
aVcCEN_Midwest
p8092
aa(lp8093
I20
aVcCEN_Northeast
p8094
aVcCEN_South
p8095
aa(lp8096
I20
aVcCEN_Midwest
p8097
aVcCEN_South
p8098
aa(lp8099
I20
aVcCEN_West
p8100
aVcCEN_South
p8101
aa(lp8102
I20
aVcCEN_Northeast
p8103
aVcCEN_West
p8104
aa(lp8105
I20
aVcCEN_Midwest
p8106
aVcCEN_West
p8107
aa(lp8108
I20
aVcCEN_South
p8109
aVcCEN_West
p8110
aa(lp8111
I20
aVnNDC_Northeast
p8112
aVnNDC_Midwest
p8113
aa(lp8114
I20
aVnNDC_Southeast
p8115
aVnNDC_Midwest
p8116
aa(lp8117
I20
aVnNDC_Southwest
p8118
aVnNDC_Midwest
p8119
aa(lp8120
I20
aVnNDC_West
p8121
aVnNDC_Midwest
p8122
aa(lp8123
I20
aVnNDC_Midwest
p8124
aVnNDC_Northeast
p8125
aa(lp8126
I20
aVnNDC_Southeast
p8127
aVnNDC_Northeast
p8128
aa(lp8129
I20
aVnNDC_Southwest
p8130
aVnNDC_Northeast
p8131
aa(lp8132
I20
aVnNDC_West
p8133
aVnNDC_Northeast
p8134
aa(lp8135
I20
aVnNDC_Midwest
p8136
aVnNDC_Southeast
p8137
aa(lp8138
I20
aVnNDC_Northeast
p8139
aVnNDC_Southeast
p8140
aa(lp8141
I20
aVnNDC_Southwest
p8142
aVnNDC_Southeast
p8143
aa(lp8144
I20
aVnNDC_West
p8145
aVnNDC_Southeast
p8146
aa(lp8147
I20
aVnNDC_Midwest
p8148
aVnNDC_Southwest
p8149
aa(lp8150
I20
aVnNDC_Northeast
p8151
aVnNDC_Southwest
p8152
aa(lp8153
I20
aVnNDC_Southeast
p8154
aVnNDC_Southwest
p8155
aa(lp8156
I20
aVnNDC_West
p8157
aVnNDC_Southwest
p8158
aa(lp8159
I20
aVnNDC_Midwest
p8160
aVnNDC_West
p8161
aa(lp8162
I20
aVnNDC_Northeast
p8163
aVnNDC_West
p8164
aa(lp8165
I20
aVnNDC_Southeast
p8166
aVnNDC_West
p8167
aa(lp8168
I20
aVnNDC_Southwest
p8169
aVnNDC_West
p8170
aa(lp8171
I20
aVnNDC_Northeast
p8172
aVcCEN_West
p8173
aa(lp8174
I20
aVcCEN_Northeast
p8175
aVnNDC_West
p8176
aa(lp8177
I20
aVcCEN_Northeast
p8178
aVnNDC_Southwest
p8179
aa(lp8180
I20
aVcCEN_Northeast
p8181
aVnNDC_Southeast
p8182
aa(lp8183
I20
aVcCEN_Northeast
p8184
aVnNDC_Midwest
p8185
aa(lp8186
I20
aVcCEN_South
p8187
aVnNDC_Midwest
p8188
aa(lp8189
I20
aVcCEN_West
p8190
aVnNDC_Midwest
p8191
aa(lp8192
I20
aVcCEN_Midwest
p8193
aVnNDC_West
p8194
aa(lp8195
I20
aVcCEN_Midwest
p8196
aVnNDC_Southwest
p8197
aa(lp8198
I20
aVcCEN_Midwest
p8199
aVnNDC_Southeast
p8200
aa(lp8201
I20
aVcCEN_Midwest
p8202
aVnNDC_Northeast
p8203
aa(lp8204
I20
aVnNDC_Northeast
p8205
aVcCEN_Midwest
p8206
aa(lp8207
I20
aVnNDC_Southeast
p8208
aVcCEN_Midwest
p8209
aa(lp8210
I20
aVnNDC_Southwest
p8211
aVcCEN_Midwest
p8212
aa(lp8213
I20
aVnNDC_West
p8214
aVcCEN_Midwest
p8215
aa(lp8216
I20
aVnNDC_Midwest
p8217
aVcCEN_West
p8218
aa(lp8219
I20
aVnNDC_Midwest
p8220
aVcCEN_South
p8221
aa(lp8222
I20
aVnNDC_Midwest
p8223
aVcCEN_Northeast
p8224
aa(lp8225
I20
aVnNDC_Southeast
p8226
aVcCEN_Northeast
p8227
aa(lp8228
I20
aVnNDC_Southwest
p8229
aVcCEN_Northeast
p8230
aa(lp8231
I20
aVnNDC_West
p8232
aVcCEN_Northeast
p8233
aa(lp8234
I20
aVnNDC_West
p8235
aVcCEN_South
p8236
aa(lp8237
I20
aVcCEN_South
p8238
aVnNDC_West
p8239
aa(lp8240
I20
aVnNDC_Southwest
p8241
aVcCEN_West
p8242
aa(lp8243
I20
aVcCEN_West
p8244
aVnNDC_Southwest
p8245
aaa(lp8246
(lp8247
I20
aVcCEN_Northeast
p8248
aVnNDC_Northeast
p8249
aa(lp8250
I20
aVcCEN_Northeast
p8251
aVcCEN_USA
p8252
aa(lp8253
I20
aVcCEN_Midwest
p8254
aVcCEN_USA
p8255
aa(lp8256
I20
aVcCEN_South
p8257
aVcCEN_USA
p8258
aa(lp8259
I20
aVcCEN_West
p8260
aVcCEN_USA
p8261
aa(lp8262
I20
aVnNDC_Midwest
p8263
aVnNDC_USA
p8264
aa(lp8265
I20
aVnNDC_Northeast
p8266
aVnNDC_USA
p8267
aa(lp8268
I20
aVnNDC_Southeast
p8269
aVnNDC_USA
p8270
aa(lp8271
I20
aVnNDC_Southwest
p8272
aVnNDC_USA
p8273
aa(lp8274
I20
aVnNDC_West
p8275
aVnNDC_USA
p8276
aa(lp8277
I20
aVnNDC_West
p8278
aVcCEN_West
p8279
aa(lp8280
I20
aVcCEN_Northeast
p8281
aVnNDC_USA
p8282
aa(lp8283
I20
aVcCEN_Midwest
p8284
aVnNDC_USA
p8285
aa(lp8286
I20
aVcCEN_South
p8287
aVnNDC_USA
p8288
aa(lp8289
I20
aVcCEN_West
p8290
aVnNDC_USA
p8291
aa(lp8292
I20
aVnNDC_West
p8293
aVcCEN_USA
p8294
aa(lp8295
I20
aVnNDC_Southwest
p8296
aVcCEN_USA
p8297
aa(lp8298
I20
aVnNDC_Southeast
p8299
aVcCEN_USA
p8300
aa(lp8301
I20
aVnNDC_Northeast
p8302
aVcCEN_USA
p8303
aa(lp8304
I20
aVnNDC_Midwest
p8305
aVcCEN_USA
p8306
aaa(lp8307
(lp8308
I20
aVcCEN_West
p8309
aVnNDC_West
p8310
aa(lp8311
I20
aVnNDC_USA
p8312
aVnNDC_West
p8313
aa(lp8314
I20
aVnNDC_USA
p8315
aVnNDC_Southwest
p8316
aa(lp8317
I20
aVnNDC_USA
p8318
aVnNDC_Southeast
p8319
aa(lp8320
I20
aVnNDC_USA
p8321
aVnNDC_Northeast
p8322
aa(lp8323
I20
aVnNDC_USA
p8324
aVnNDC_Midwest
p8325
aa(lp8326
I20
aVcCEN_USA
p8327
aVcCEN_West
p8328
aa(lp8329
I20
aVcCEN_USA
p8330
aVcCEN_South
p8331
aa(lp8332
I20
aVcCEN_USA
p8333
aVcCEN_Midwest
p8334
aa(lp8335
I20
aVcCEN_USA
p8336
aVcCEN_Northeast
p8337
aa(lp8338
I20
aVnNDC_Northeast
p8339
aVcCEN_Northeast
p8340
aa(lp8341
I20
aVnNDC_USA
p8342
aVcCEN_West
p8343
aa(lp8344
I20
aVnNDC_USA
p8345
aVcCEN_South
p8346
aa(lp8347
I20
aVnNDC_USA
p8348
aVcCEN_Midwest
p8349
aa(lp8350
I20
aVnNDC_USA
p8351
aVcCEN_Northeast
p8352
aa(lp8353
I20
aVcCEN_USA
p8354
aVnNDC_West
p8355
aa(lp8356
I20
aVcCEN_USA
p8357
aVnNDC_Midwest
p8358
aa(lp8359
I20
aVcCEN_USA
p8360
aVnNDC_Northeast
p8361
aa(lp8362
I20
aVcCEN_USA
p8363
aVnNDC_Southeast
p8364
aa(lp8365
I20
aVcCEN_USA
p8366
aVnNDC_Southwest
p8367
aaa(lp8368
(lp8369
I20
aVcCEN_South
p8370
aVnNDC_Southwest
p8371
aa(lp8372
I20
aVnNDC_Southwest
p8373
aVcCEN_South
p8374
aa(lp8375
I20
aVcCEN_South
p8376
aVnNDC_Southeast
p8377
aa(lp8378
I20
aVcCEN_West
p8379
aVnNDC_Southeast
p8380
aa(lp8381
I20
aVnNDC_Southeast
p8382
aVcCEN_West
p8383
aa(lp8384
I20
aVnNDC_Northeast
p8385
aVcCEN_South
p8386
aa(lp8387
I20
aVnNDC_Southeast
p8388
aVcCEN_South
p8389
aa(lp8390
I20
aVcCEN_South
p8391
aVnNDC_Northeast
p8392
aaa(lp8393
(lp8394
I20
aVcCEN_Northeast
p8395
aa(lp8396
I20
aVcCEN_Midwest
p8397
aa(lp8398
I20
aVcCEN_South
p8399
aa(lp8400
I20
aVcCEN_West
p8401
aa(lp8402
I20
aVnNDC_Midwest
p8403
aa(lp8404
I20
aVnNDC_Northeast
p8405
aa(lp8406
I20
aVnNDC_Southeast
p8407
aa(lp8408
I20
aVnNDC_Southwest
p8409
aa(lp8410
I20
aVnNDC_West
p8411
aa(lp8412
I20
aVcCEN_USA
p8413
aa(lp8414
I20
aVnNDC_USA
p8415
aaa(lp8416
(lp8417
I20
aVcCEN_USA
p8418
aVcCEN_Northeast
p8419
aa(lp8420
I20
aVcCEN_USA
p8421
aVcCEN_Midwest
p8422
aa(lp8423
I20
aVcCEN_USA
p8424
aVcCEN_South
p8425
aa(lp8426
I20
aVcCEN_USA
p8427
aVcCEN_West
p8428
aa(lp8429
I20
aVnNDC_USA
p8430
aVnNDC_Midwest
p8431
aa(lp8432
I20
aVnNDC_USA
p8433
aVnNDC_Northeast
p8434
aa(lp8435
I20
aVnNDC_USA
p8436
aVnNDC_Southeast
p8437
aa(lp8438
I20
aVnNDC_USA
p8439
aVnNDC_Southwest
p8440
aa(lp8441
I20
aVnNDC_USA
p8442
aVnNDC_West
p8443
aaasba(ihelper
PossibleWorld
p8444
(dp8445
g3
I21
sg4
I0
sg5
(lp8446
(lp8447
(lp8448
I21
aVcCEN_USA
p8449
aVnNDC_USA
p8450
aa(lp8451
I21
aVcCEN_Midwest
p8452
aVnNDC_Midwest
p8453
aa(lp8454
I21
aVnNDC_Midwest
p8455
aVcCEN_Midwest
p8456
aa(lp8457
I21
aVnNDC_USA
p8458
aVcCEN_USA
p8459
aa(lp8460
I21
aVnNDC_USA
p8461
aVnNDC_USA
p8462
aa(lp8463
I21
aVcCEN_USA
p8464
aVcCEN_USA
p8465
aa(lp8466
I21
aVnNDC_West
p8467
aVnNDC_West
p8468
aa(lp8469
I21
aVnNDC_Southwest
p8470
aVnNDC_Southwest
p8471
aa(lp8472
I21
aVnNDC_Southeast
p8473
aVnNDC_Southeast
p8474
aa(lp8475
I21
aVnNDC_Northeast
p8476
aVnNDC_Northeast
p8477
aa(lp8478
I21
aVnNDC_Midwest
p8479
aVnNDC_Midwest
p8480
aa(lp8481
I21
aVcCEN_West
p8482
aVcCEN_West
p8483
aa(lp8484
I21
aVcCEN_South
p8485
aVcCEN_South
p8486
aa(lp8487
I21
aVcCEN_Midwest
p8488
aVcCEN_Midwest
p8489
aa(lp8490
I21
aVcCEN_Northeast
p8491
aVcCEN_Northeast
p8492
aaa(lp8493
(lp8494
I21
aVcCEN_West
p8495
aVnNDC_Northeast
p8496
aa(lp8497
I21
aVcCEN_Midwest
p8498
aVcCEN_Northeast
p8499
aa(lp8500
I21
aVcCEN_South
p8501
aVcCEN_Northeast
p8502
aa(lp8503
I21
aVcCEN_West
p8504
aVcCEN_Northeast
p8505
aa(lp8506
I21
aVcCEN_Northeast
p8507
aVcCEN_Midwest
p8508
aa(lp8509
I21
aVcCEN_South
p8510
aVcCEN_Midwest
p8511
aa(lp8512
I21
aVcCEN_West
p8513
aVcCEN_Midwest
p8514
aa(lp8515
I21
aVcCEN_Northeast
p8516
aVcCEN_South
p8517
aa(lp8518
I21
aVcCEN_Midwest
p8519
aVcCEN_South
p8520
aa(lp8521
I21
aVcCEN_West
p8522
aVcCEN_South
p8523
aa(lp8524
I21
aVcCEN_Northeast
p8525
aVcCEN_West
p8526
aa(lp8527
I21
aVcCEN_Midwest
p8528
aVcCEN_West
p8529
aa(lp8530
I21
aVcCEN_South
p8531
aVcCEN_West
p8532
aa(lp8533
I21
aVnNDC_Northeast
p8534
aVnNDC_Midwest
p8535
aa(lp8536
I21
aVnNDC_Southeast
p8537
aVnNDC_Midwest
p8538
aa(lp8539
I21
aVnNDC_Southwest
p8540
aVnNDC_Midwest
p8541
aa(lp8542
I21
aVnNDC_West
p8543
aVnNDC_Midwest
p8544
aa(lp8545
I21
aVnNDC_Midwest
p8546
aVnNDC_Northeast
p8547
aa(lp8548
I21
aVnNDC_Southeast
p8549
aVnNDC_Northeast
p8550
aa(lp8551
I21
aVnNDC_Southwest
p8552
aVnNDC_Northeast
p8553
aa(lp8554
I21
aVnNDC_West
p8555
aVnNDC_Northeast
p8556
aa(lp8557
I21
aVnNDC_Midwest
p8558
aVnNDC_Southeast
p8559
aa(lp8560
I21
aVnNDC_Northeast
p8561
aVnNDC_Southeast
p8562
aa(lp8563
I21
aVnNDC_Southwest
p8564
aVnNDC_Southeast
p8565
aa(lp8566
I21
aVnNDC_West
p8567
aVnNDC_Southeast
p8568
aa(lp8569
I21
aVnNDC_Midwest
p8570
aVnNDC_Southwest
p8571
aa(lp8572
I21
aVnNDC_Northeast
p8573
aVnNDC_Southwest
p8574
aa(lp8575
I21
aVnNDC_Southeast
p8576
aVnNDC_Southwest
p8577
aa(lp8578
I21
aVnNDC_West
p8579
aVnNDC_Southwest
p8580
aa(lp8581
I21
aVnNDC_Midwest
p8582
aVnNDC_West
p8583
aa(lp8584
I21
aVnNDC_Northeast
p8585
aVnNDC_West
p8586
aa(lp8587
I21
aVnNDC_Southeast
p8588
aVnNDC_West
p8589
aa(lp8590
I21
aVnNDC_Southwest
p8591
aVnNDC_West
p8592
aa(lp8593
I21
aVnNDC_Northeast
p8594
aVcCEN_West
p8595
aa(lp8596
I21
aVcCEN_Northeast
p8597
aVnNDC_West
p8598
aa(lp8599
I21
aVcCEN_Northeast
p8600
aVnNDC_Southwest
p8601
aa(lp8602
I21
aVcCEN_Northeast
p8603
aVnNDC_Southeast
p8604
aa(lp8605
I21
aVcCEN_Northeast
p8606
aVnNDC_Midwest
p8607
aa(lp8608
I21
aVcCEN_South
p8609
aVnNDC_Midwest
p8610
aa(lp8611
I21
aVcCEN_West
p8612
aVnNDC_Midwest
p8613
aa(lp8614
I21
aVcCEN_Midwest
p8615
aVnNDC_West
p8616
aa(lp8617
I21
aVcCEN_Midwest
p8618
aVnNDC_Southwest
p8619
aa(lp8620
I21
aVcCEN_Midwest
p8621
aVnNDC_Southeast
p8622
aa(lp8623
I21
aVcCEN_Midwest
p8624
aVnNDC_Northeast
p8625
aa(lp8626
I21
aVnNDC_Northeast
p8627
aVcCEN_Midwest
p8628
aa(lp8629
I21
aVnNDC_Southeast
p8630
aVcCEN_Midwest
p8631
aa(lp8632
I21
aVnNDC_Southwest
p8633
aVcCEN_Midwest
p8634
aa(lp8635
I21
aVnNDC_West
p8636
aVcCEN_Midwest
p8637
aa(lp8638
I21
aVnNDC_Midwest
p8639
aVcCEN_West
p8640
aa(lp8641
I21
aVnNDC_Midwest
p8642
aVcCEN_South
p8643
aa(lp8644
I21
aVnNDC_Midwest
p8645
aVcCEN_Northeast
p8646
aa(lp8647
I21
aVnNDC_Southeast
p8648
aVcCEN_Northeast
p8649
aa(lp8650
I21
aVnNDC_Southwest
p8651
aVcCEN_Northeast
p8652
aa(lp8653
I21
aVnNDC_West
p8654
aVcCEN_Northeast
p8655
aa(lp8656
I21
aVnNDC_West
p8657
aVcCEN_South
p8658
aa(lp8659
I21
aVcCEN_South
p8660
aVnNDC_West
p8661
aa(lp8662
I21
aVcCEN_South
p8663
aVnNDC_Southeast
p8664
aa(lp8665
I21
aVnNDC_Southeast
p8666
aVcCEN_South
p8667
aa(lp8668
I21
aVcCEN_South
p8669
aVnNDC_Northeast
p8670
aa(lp8671
I21
aVnNDC_Northeast
p8672
aVcCEN_South
p8673
aaa(lp8674
(lp8675
I21
aVcCEN_Northeast
p8676
aVnNDC_Northeast
p8677
aa(lp8678
I21
aVcCEN_Northeast
p8679
aVcCEN_USA
p8680
aa(lp8681
I21
aVcCEN_Midwest
p8682
aVcCEN_USA
p8683
aa(lp8684
I21
aVcCEN_South
p8685
aVcCEN_USA
p8686
aa(lp8687
I21
aVcCEN_West
p8688
aVcCEN_USA
p8689
aa(lp8690
I21
aVnNDC_Midwest
p8691
aVnNDC_USA
p8692
aa(lp8693
I21
aVnNDC_Northeast
p8694
aVnNDC_USA
p8695
aa(lp8696
I21
aVnNDC_Southeast
p8697
aVnNDC_USA
p8698
aa(lp8699
I21
aVnNDC_Southwest
p8700
aVnNDC_USA
p8701
aa(lp8702
I21
aVnNDC_West
p8703
aVnNDC_USA
p8704
aa(lp8705
I21
aVnNDC_West
p8706
aVcCEN_West
p8707
aa(lp8708
I21
aVcCEN_Northeast
p8709
aVnNDC_USA
p8710
aa(lp8711
I21
aVcCEN_Midwest
p8712
aVnNDC_USA
p8713
aa(lp8714
I21
aVcCEN_South
p8715
aVnNDC_USA
p8716
aa(lp8717
I21
aVcCEN_West
p8718
aVnNDC_USA
p8719
aa(lp8720
I21
aVnNDC_West
p8721
aVcCEN_USA
p8722
aa(lp8723
I21
aVnNDC_Southwest
p8724
aVcCEN_USA
p8725
aa(lp8726
I21
aVnNDC_Southeast
p8727
aVcCEN_USA
p8728
aa(lp8729
I21
aVnNDC_Northeast
p8730
aVcCEN_USA
p8731
aa(lp8732
I21
aVnNDC_Midwest
p8733
aVcCEN_USA
p8734
aaa(lp8735
(lp8736
I21
aVcCEN_West
p8737
aVnNDC_West
p8738
aa(lp8739
I21
aVnNDC_USA
p8740
aVnNDC_West
p8741
aa(lp8742
I21
aVnNDC_USA
p8743
aVnNDC_Southwest
p8744
aa(lp8745
I21
aVnNDC_USA
p8746
aVnNDC_Southeast
p8747
aa(lp8748
I21
aVnNDC_USA
p8749
aVnNDC_Northeast
p8750
aa(lp8751
I21
aVnNDC_USA
p8752
aVnNDC_Midwest
p8753
aa(lp8754
I21
aVcCEN_USA
p8755
aVcCEN_West
p8756
aa(lp8757
I21
aVcCEN_USA
p8758
aVcCEN_South
p8759
aa(lp8760
I21
aVcCEN_USA
p8761
aVcCEN_Midwest
p8762
aa(lp8763
I21
aVcCEN_USA
p8764
aVcCEN_Northeast
p8765
aa(lp8766
I21
aVnNDC_Northeast
p8767
aVcCEN_Northeast
p8768
aa(lp8769
I21
aVnNDC_USA
p8770
aVcCEN_West
p8771
aa(lp8772
I21
aVnNDC_USA
p8773
aVcCEN_South
p8774
aa(lp8775
I21
aVnNDC_USA
p8776
aVcCEN_Midwest
p8777
aa(lp8778
I21
aVnNDC_USA
p8779
aVcCEN_Northeast
p8780
aa(lp8781
I21
aVcCEN_USA
p8782
aVnNDC_West
p8783
aa(lp8784
I21
aVcCEN_USA
p8785
aVnNDC_Midwest
p8786
aa(lp8787
I21
aVcCEN_USA
p8788
aVnNDC_Northeast
p8789
aa(lp8790
I21
aVcCEN_USA
p8791
aVnNDC_Southeast
p8792
aa(lp8793
I21
aVcCEN_USA
p8794
aVnNDC_Southwest
p8795
aaa(lp8796
(lp8797
I21
aVcCEN_South
p8798
aVnNDC_Southwest
p8799
aa(lp8800
I21
aVnNDC_Southwest
p8801
aVcCEN_South
p8802
aa(lp8803
I21
aVcCEN_West
p8804
aVnNDC_Southeast
p8805
aa(lp8806
I21
aVcCEN_West
p8807
aVnNDC_Southwest
p8808
aa(lp8809
I21
aVnNDC_Southwest
p8810
aVcCEN_West
p8811
aa(lp8812
I21
aVnNDC_Southeast
p8813
aVcCEN_West
p8814
aaa(lp8815
(lp8816
I21
aVcCEN_Northeast
p8817
aa(lp8818
I21
aVcCEN_Midwest
p8819
aa(lp8820
I21
aVcCEN_South
p8821
aa(lp8822
I21
aVcCEN_West
p8823
aa(lp8824
I21
aVnNDC_Midwest
p8825
aa(lp8826
I21
aVnNDC_Northeast
p8827
aa(lp8828
I21
aVnNDC_Southeast
p8829
aa(lp8830
I21
aVnNDC_Southwest
p8831
aa(lp8832
I21
aVnNDC_West
p8833
aa(lp8834
I21
aVcCEN_USA
p8835
aa(lp8836
I21
aVnNDC_USA
p8837
aaa(lp8838
(lp8839
I21
aVcCEN_USA
p8840
aVcCEN_Northeast
p8841
aa(lp8842
I21
aVcCEN_USA
p8843
aVcCEN_Midwest
p8844
aa(lp8845
I21
aVcCEN_USA
p8846
aVcCEN_South
p8847
aa(lp8848
I21
aVcCEN_USA
p8849
aVcCEN_West
p8850
aa(lp8851
I21
aVnNDC_USA
p8852
aVnNDC_Midwest
p8853
aa(lp8854
I21
aVnNDC_USA
p8855
aVnNDC_Northeast
p8856
aa(lp8857
I21
aVnNDC_USA
p8858
aVnNDC_Southeast
p8859
aa(lp8860
I21
aVnNDC_USA
p8861
aVnNDC_Southwest
p8862
aa(lp8863
I21
aVnNDC_USA
p8864
aVnNDC_West
p8865
aaasba(ihelper
PossibleWorld
p8866
(dp8867
g3
I22
sg4
I0
sg5
(lp8868
(lp8869
(lp8870
I22
aVcCEN_USA
p8871
aVnNDC_USA
p8872
aa(lp8873
I22
aVcCEN_Midwest
p8874
aVnNDC_Midwest
p8875
aa(lp8876
I22
aVnNDC_Midwest
p8877
aVcCEN_Midwest
p8878
aa(lp8879
I22
aVnNDC_USA
p8880
aVcCEN_USA
p8881
aa(lp8882
I22
aVnNDC_USA
p8883
aVnNDC_USA
p8884
aa(lp8885
I22
aVcCEN_USA
p8886
aVcCEN_USA
p8887
aa(lp8888
I22
aVnNDC_West
p8889
aVnNDC_West
p8890
aa(lp8891
I22
aVnNDC_Southwest
p8892
aVnNDC_Southwest
p8893
aa(lp8894
I22
aVnNDC_Southeast
p8895
aVnNDC_Southeast
p8896
aa(lp8897
I22
aVnNDC_Northeast
p8898
aVnNDC_Northeast
p8899
aa(lp8900
I22
aVnNDC_Midwest
p8901
aVnNDC_Midwest
p8902
aa(lp8903
I22
aVcCEN_West
p8904
aVcCEN_West
p8905
aa(lp8906
I22
aVcCEN_South
p8907
aVcCEN_South
p8908
aa(lp8909
I22
aVcCEN_Midwest
p8910
aVcCEN_Midwest
p8911
aa(lp8912
I22
aVcCEN_Northeast
p8913
aVcCEN_Northeast
p8914
aaa(lp8915
(lp8916
I22
aVcCEN_West
p8917
aVnNDC_Northeast
p8918
aa(lp8919
I22
aVcCEN_Midwest
p8920
aVcCEN_Northeast
p8921
aa(lp8922
I22
aVcCEN_South
p8923
aVcCEN_Northeast
p8924
aa(lp8925
I22
aVcCEN_West
p8926
aVcCEN_Northeast
p8927
aa(lp8928
I22
aVcCEN_Northeast
p8929
aVcCEN_Midwest
p8930
aa(lp8931
I22
aVcCEN_South
p8932
aVcCEN_Midwest
p8933
aa(lp8934
I22
aVcCEN_West
p8935
aVcCEN_Midwest
p8936
aa(lp8937
I22
aVcCEN_Northeast
p8938
aVcCEN_South
p8939
aa(lp8940
I22
aVcCEN_Midwest
p8941
aVcCEN_South
p8942
aa(lp8943
I22
aVcCEN_West
p8944
aVcCEN_South
p8945
aa(lp8946
I22
aVcCEN_Northeast
p8947
aVcCEN_West
p8948
aa(lp8949
I22
aVcCEN_Midwest
p8950
aVcCEN_West
p8951
aa(lp8952
I22
aVcCEN_South
p8953
aVcCEN_West
p8954
aa(lp8955
I22
aVnNDC_Northeast
p8956
aVnNDC_Midwest
p8957
aa(lp8958
I22
aVnNDC_Southeast
p8959
aVnNDC_Midwest
p8960
aa(lp8961
I22
aVnNDC_Southwest
p8962
aVnNDC_Midwest
p8963
aa(lp8964
I22
aVnNDC_West
p8965
aVnNDC_Midwest
p8966
aa(lp8967
I22
aVnNDC_Midwest
p8968
aVnNDC_Northeast
p8969
aa(lp8970
I22
aVnNDC_Southeast
p8971
aVnNDC_Northeast
p8972
aa(lp8973
I22
aVnNDC_Southwest
p8974
aVnNDC_Northeast
p8975
aa(lp8976
I22
aVnNDC_West
p8977
aVnNDC_Northeast
p8978
aa(lp8979
I22
aVnNDC_Midwest
p8980
aVnNDC_Southeast
p8981
aa(lp8982
I22
aVnNDC_Northeast
p8983
aVnNDC_Southeast
p8984
aa(lp8985
I22
aVnNDC_Southwest
p8986
aVnNDC_Southeast
p8987
aa(lp8988
I22
aVnNDC_West
p8989
aVnNDC_Southeast
p8990
aa(lp8991
I22
aVnNDC_Midwest
p8992
aVnNDC_Southwest
p8993
aa(lp8994
I22
aVnNDC_Northeast
p8995
aVnNDC_Southwest
p8996
aa(lp8997
I22
aVnNDC_Southeast
p8998
aVnNDC_Southwest
p8999
aa(lp9000
I22
aVnNDC_West
p9001
aVnNDC_Southwest
p9002
aa(lp9003
I22
aVnNDC_Midwest
p9004
aVnNDC_West
p9005
aa(lp9006
I22
aVnNDC_Northeast
p9007
aVnNDC_West
p9008
aa(lp9009
I22
aVnNDC_Southeast
p9010
aVnNDC_West
p9011
aa(lp9012
I22
aVnNDC_Southwest
p9013
aVnNDC_West
p9014
aa(lp9015
I22
aVnNDC_Northeast
p9016
aVcCEN_West
p9017
aa(lp9018
I22
aVcCEN_Northeast
p9019
aVnNDC_West
p9020
aa(lp9021
I22
aVcCEN_Northeast
p9022
aVnNDC_Southwest
p9023
aa(lp9024
I22
aVcCEN_Northeast
p9025
aVnNDC_Southeast
p9026
aa(lp9027
I22
aVcCEN_Northeast
p9028
aVnNDC_Midwest
p9029
aa(lp9030
I22
aVcCEN_South
p9031
aVnNDC_Midwest
p9032
aa(lp9033
I22
aVcCEN_West
p9034
aVnNDC_Midwest
p9035
aa(lp9036
I22
aVcCEN_Midwest
p9037
aVnNDC_West
p9038
aa(lp9039
I22
aVcCEN_Midwest
p9040
aVnNDC_Southwest
p9041
aa(lp9042
I22
aVcCEN_Midwest
p9043
aVnNDC_Southeast
p9044
aa(lp9045
I22
aVcCEN_Midwest
p9046
aVnNDC_Northeast
p9047
aa(lp9048
I22
aVnNDC_Northeast
p9049
aVcCEN_Midwest
p9050
aa(lp9051
I22
aVnNDC_Southeast
p9052
aVcCEN_Midwest
p9053
aa(lp9054
I22
aVnNDC_Southwest
p9055
aVcCEN_Midwest
p9056
aa(lp9057
I22
aVnNDC_West
p9058
aVcCEN_Midwest
p9059
aa(lp9060
I22
aVnNDC_Midwest
p9061
aVcCEN_West
p9062
aa(lp9063
I22
aVnNDC_Midwest
p9064
aVcCEN_South
p9065
aa(lp9066
I22
aVnNDC_Midwest
p9067
aVcCEN_Northeast
p9068
aa(lp9069
I22
aVnNDC_Southeast
p9070
aVcCEN_Northeast
p9071
aa(lp9072
I22
aVnNDC_Southwest
p9073
aVcCEN_Northeast
p9074
aa(lp9075
I22
aVnNDC_West
p9076
aVcCEN_Northeast
p9077
aa(lp9078
I22
aVnNDC_West
p9079
aVcCEN_South
p9080
aa(lp9081
I22
aVcCEN_South
p9082
aVnNDC_West
p9083
aa(lp9084
I22
aVcCEN_South
p9085
aVnNDC_Southeast
p9086
aa(lp9087
I22
aVnNDC_Southeast
p9088
aVcCEN_South
p9089
aaa(lp9090
(lp9091
I22
aVcCEN_Northeast
p9092
aVnNDC_Northeast
p9093
aa(lp9094
I22
aVcCEN_Northeast
p9095
aVcCEN_USA
p9096
aa(lp9097
I22
aVcCEN_Midwest
p9098
aVcCEN_USA
p9099
aa(lp9100
I22
aVcCEN_South
p9101
aVcCEN_USA
p9102
aa(lp9103
I22
aVcCEN_West
p9104
aVcCEN_USA
p9105
aa(lp9106
I22
aVnNDC_Midwest
p9107
aVnNDC_USA
p9108
aa(lp9109
I22
aVnNDC_Northeast
p9110
aVnNDC_USA
p9111
aa(lp9112
I22
aVnNDC_Southeast
p9113
aVnNDC_USA
p9114
aa(lp9115
I22
aVnNDC_Southwest
p9116
aVnNDC_USA
p9117
aa(lp9118
I22
aVnNDC_West
p9119
aVnNDC_USA
p9120
aa(lp9121
I22
aVnNDC_West
p9122
aVcCEN_West
p9123
aa(lp9124
I22
aVcCEN_Northeast
p9125
aVnNDC_USA
p9126
aa(lp9127
I22
aVcCEN_Midwest
p9128
aVnNDC_USA
p9129
aa(lp9130
I22
aVcCEN_South
p9131
aVnNDC_USA
p9132
aa(lp9133
I22
aVcCEN_West
p9134
aVnNDC_USA
p9135
aa(lp9136
I22
aVnNDC_West
p9137
aVcCEN_USA
p9138
aa(lp9139
I22
aVnNDC_Southwest
p9140
aVcCEN_USA
p9141
aa(lp9142
I22
aVnNDC_Southeast
p9143
aVcCEN_USA
p9144
aa(lp9145
I22
aVnNDC_Northeast
p9146
aVcCEN_USA
p9147
aa(lp9148
I22
aVnNDC_Midwest
p9149
aVcCEN_USA
p9150
aaa(lp9151
(lp9152
I22
aVcCEN_West
p9153
aVnNDC_West
p9154
aa(lp9155
I22
aVnNDC_USA
p9156
aVnNDC_West
p9157
aa(lp9158
I22
aVnNDC_USA
p9159
aVnNDC_Southwest
p9160
aa(lp9161
I22
aVnNDC_USA
p9162
aVnNDC_Southeast
p9163
aa(lp9164
I22
aVnNDC_USA
p9165
aVnNDC_Northeast
p9166
aa(lp9167
I22
aVnNDC_USA
p9168
aVnNDC_Midwest
p9169
aa(lp9170
I22
aVcCEN_USA
p9171
aVcCEN_West
p9172
aa(lp9173
I22
aVcCEN_USA
p9174
aVcCEN_South
p9175
aa(lp9176
I22
aVcCEN_USA
p9177
aVcCEN_Midwest
p9178
aa(lp9179
I22
aVcCEN_USA
p9180
aVcCEN_Northeast
p9181
aa(lp9182
I22
aVnNDC_Northeast
p9183
aVcCEN_Northeast
p9184
aa(lp9185
I22
aVnNDC_USA
p9186
aVcCEN_West
p9187
aa(lp9188
I22
aVnNDC_USA
p9189
aVcCEN_South
p9190
aa(lp9191
I22
aVnNDC_USA
p9192
aVcCEN_Midwest
p9193
aa(lp9194
I22
aVnNDC_USA
p9195
aVcCEN_Northeast
p9196
aa(lp9197
I22
aVcCEN_USA
p9198
aVnNDC_West
p9199
aa(lp9200
I22
aVcCEN_USA
p9201
aVnNDC_Midwest
p9202
aa(lp9203
I22
aVcCEN_USA
p9204
aVnNDC_Northeast
p9205
aa(lp9206
I22
aVcCEN_USA
p9207
aVnNDC_Southeast
p9208
aa(lp9209
I22
aVcCEN_USA
p9210
aVnNDC_Southwest
p9211
aaa(lp9212
(lp9213
I22
aVcCEN_South
p9214
aVnNDC_Southwest
p9215
aa(lp9216
I22
aVnNDC_Southwest
p9217
aVcCEN_South
p9218
aa(lp9219
I22
aVcCEN_West
p9220
aVnNDC_Southeast
p9221
aa(lp9222
I22
aVcCEN_West
p9223
aVnNDC_Southwest
p9224
aa(lp9225
I22
aVnNDC_Southwest
p9226
aVcCEN_West
p9227
aa(lp9228
I22
aVnNDC_Southeast
p9229
aVcCEN_West
p9230
aa(lp9231
I22
aVnNDC_Northeast
p9232
aVcCEN_South
p9233
aa(lp9234
I22
aVcCEN_South
p9235
aVnNDC_Northeast
p9236
aaa(lp9237
(lp9238
I22
aVcCEN_Northeast
p9239
aa(lp9240
I22
aVcCEN_Midwest
p9241
aa(lp9242
I22
aVcCEN_South
p9243
aa(lp9244
I22
aVcCEN_West
p9245
aa(lp9246
I22
aVnNDC_Midwest
p9247
aa(lp9248
I22
aVnNDC_Northeast
p9249
aa(lp9250
I22
aVnNDC_Southeast
p9251
aa(lp9252
I22
aVnNDC_Southwest
p9253
aa(lp9254
I22
aVnNDC_West
p9255
aa(lp9256
I22
aVcCEN_USA
p9257
aa(lp9258
I22
aVnNDC_USA
p9259
aaa(lp9260
(lp9261
I22
aVcCEN_USA
p9262
aVcCEN_Northeast
p9263
aa(lp9264
I22
aVcCEN_USA
p9265
aVcCEN_Midwest
p9266
aa(lp9267
I22
aVcCEN_USA
p9268
aVcCEN_South
p9269
aa(lp9270
I22
aVcCEN_USA
p9271
aVcCEN_West
p9272
aa(lp9273
I22
aVnNDC_USA
p9274
aVnNDC_Midwest
p9275
aa(lp9276
I22
aVnNDC_USA
p9277
aVnNDC_Northeast
p9278
aa(lp9279
I22
aVnNDC_USA
p9280
aVnNDC_Southeast
p9281
aa(lp9282
I22
aVnNDC_USA
p9283
aVnNDC_Southwest
p9284
aa(lp9285
I22
aVnNDC_USA
p9286
aVnNDC_West
p9287
aaasba(ihelper
PossibleWorld
p9288
(dp9289
g3
I23
sg4
I0
sg5
(lp9290
(lp9291
(lp9292
I23
aVcCEN_USA
p9293
aVnNDC_USA
p9294
aa(lp9295
I23
aVcCEN_Midwest
p9296
aVnNDC_Midwest
p9297
aa(lp9298
I23
aVnNDC_Midwest
p9299
aVcCEN_Midwest
p9300
aa(lp9301
I23
aVnNDC_USA
p9302
aVcCEN_USA
p9303
aa(lp9304
I23
aVnNDC_USA
p9305
aVnNDC_USA
p9306
aa(lp9307
I23
aVcCEN_USA
p9308
aVcCEN_USA
p9309
aa(lp9310
I23
aVnNDC_West
p9311
aVnNDC_West
p9312
aa(lp9313
I23
aVnNDC_Southwest
p9314
aVnNDC_Southwest
p9315
aa(lp9316
I23
aVnNDC_Southeast
p9317
aVnNDC_Southeast
p9318
aa(lp9319
I23
aVnNDC_Northeast
p9320
aVnNDC_Northeast
p9321
aa(lp9322
I23
aVnNDC_Midwest
p9323
aVnNDC_Midwest
p9324
aa(lp9325
I23
aVcCEN_West
p9326
aVcCEN_West
p9327
aa(lp9328
I23
aVcCEN_South
p9329
aVcCEN_South
p9330
aa(lp9331
I23
aVcCEN_Midwest
p9332
aVcCEN_Midwest
p9333
aa(lp9334
I23
aVcCEN_Northeast
p9335
aVcCEN_Northeast
p9336
aaa(lp9337
(lp9338
I23
aVcCEN_West
p9339
aVnNDC_Northeast
p9340
aa(lp9341
I23
aVcCEN_Midwest
p9342
aVcCEN_Northeast
p9343
aa(lp9344
I23
aVcCEN_South
p9345
aVcCEN_Northeast
p9346
aa(lp9347
I23
aVcCEN_West
p9348
aVcCEN_Northeast
p9349
aa(lp9350
I23
aVcCEN_Northeast
p9351
aVcCEN_Midwest
p9352
aa(lp9353
I23
aVcCEN_South
p9354
aVcCEN_Midwest
p9355
aa(lp9356
I23
aVcCEN_West
p9357
aVcCEN_Midwest
p9358
aa(lp9359
I23
aVcCEN_Northeast
p9360
aVcCEN_South
p9361
aa(lp9362
I23
aVcCEN_Midwest
p9363
aVcCEN_South
p9364
aa(lp9365
I23
aVcCEN_West
p9366
aVcCEN_South
p9367
aa(lp9368
I23
aVcCEN_Northeast
p9369
aVcCEN_West
p9370
aa(lp9371
I23
aVcCEN_Midwest
p9372
aVcCEN_West
p9373
aa(lp9374
I23
aVcCEN_South
p9375
aVcCEN_West
p9376
aa(lp9377
I23
aVnNDC_Northeast
p9378
aVnNDC_Midwest
p9379
aa(lp9380
I23
aVnNDC_Southeast
p9381
aVnNDC_Midwest
p9382
aa(lp9383
I23
aVnNDC_Southwest
p9384
aVnNDC_Midwest
p9385
aa(lp9386
I23
aVnNDC_West
p9387
aVnNDC_Midwest
p9388
aa(lp9389
I23
aVnNDC_Midwest
p9390
aVnNDC_Northeast
p9391
aa(lp9392
I23
aVnNDC_Southeast
p9393
aVnNDC_Northeast
p9394
aa(lp9395
I23
aVnNDC_Southwest
p9396
aVnNDC_Northeast
p9397
aa(lp9398
I23
aVnNDC_West
p9399
aVnNDC_Northeast
p9400
aa(lp9401
I23
aVnNDC_Midwest
p9402
aVnNDC_Southeast
p9403
aa(lp9404
I23
aVnNDC_Northeast
p9405
aVnNDC_Southeast
p9406
aa(lp9407
I23
aVnNDC_Southwest
p9408
aVnNDC_Southeast
p9409
aa(lp9410
I23
aVnNDC_West
p9411
aVnNDC_Southeast
p9412
aa(lp9413
I23
aVnNDC_Midwest
p9414
aVnNDC_Southwest
p9415
aa(lp9416
I23
aVnNDC_Northeast
p9417
aVnNDC_Southwest
p9418
aa(lp9419
I23
aVnNDC_Southeast
p9420
aVnNDC_Southwest
p9421
aa(lp9422
I23
aVnNDC_West
p9423
aVnNDC_Southwest
p9424
aa(lp9425
I23
aVnNDC_Midwest
p9426
aVnNDC_West
p9427
aa(lp9428
I23
aVnNDC_Northeast
p9429
aVnNDC_West
p9430
aa(lp9431
I23
aVnNDC_Southeast
p9432
aVnNDC_West
p9433
aa(lp9434
I23
aVnNDC_Southwest
p9435
aVnNDC_West
p9436
aa(lp9437
I23
aVnNDC_Northeast
p9438
aVcCEN_West
p9439
aa(lp9440
I23
aVcCEN_Northeast
p9441
aVnNDC_West
p9442
aa(lp9443
I23
aVcCEN_Northeast
p9444
aVnNDC_Southwest
p9445
aa(lp9446
I23
aVcCEN_Northeast
p9447
aVnNDC_Southeast
p9448
aa(lp9449
I23
aVcCEN_Northeast
p9450
aVnNDC_Midwest
p9451
aa(lp9452
I23
aVcCEN_South
p9453
aVnNDC_Midwest
p9454
aa(lp9455
I23
aVcCEN_West
p9456
aVnNDC_Midwest
p9457
aa(lp9458
I23
aVcCEN_Midwest
p9459
aVnNDC_West
p9460
aa(lp9461
I23
aVcCEN_Midwest
p9462
aVnNDC_Southwest
p9463
aa(lp9464
I23
aVcCEN_Midwest
p9465
aVnNDC_Southeast
p9466
aa(lp9467
I23
aVcCEN_Midwest
p9468
aVnNDC_Northeast
p9469
aa(lp9470
I23
aVnNDC_Northeast
p9471
aVcCEN_Midwest
p9472
aa(lp9473
I23
aVnNDC_Southeast
p9474
aVcCEN_Midwest
p9475
aa(lp9476
I23
aVnNDC_Southwest
p9477
aVcCEN_Midwest
p9478
aa(lp9479
I23
aVnNDC_West
p9480
aVcCEN_Midwest
p9481
aa(lp9482
I23
aVnNDC_Midwest
p9483
aVcCEN_West
p9484
aa(lp9485
I23
aVnNDC_Midwest
p9486
aVcCEN_South
p9487
aa(lp9488
I23
aVnNDC_Midwest
p9489
aVcCEN_Northeast
p9490
aa(lp9491
I23
aVnNDC_Southeast
p9492
aVcCEN_Northeast
p9493
aa(lp9494
I23
aVnNDC_Southwest
p9495
aVcCEN_Northeast
p9496
aa(lp9497
I23
aVnNDC_West
p9498
aVcCEN_Northeast
p9499
aa(lp9500
I23
aVnNDC_West
p9501
aVcCEN_South
p9502
aa(lp9503
I23
aVcCEN_South
p9504
aVnNDC_West
p9505
aa(lp9506
I23
aVcCEN_South
p9507
aVnNDC_Northeast
p9508
aa(lp9509
I23
aVnNDC_Northeast
p9510
aVcCEN_South
p9511
aaa(lp9512
(lp9513
I23
aVcCEN_Northeast
p9514
aVnNDC_Northeast
p9515
aa(lp9516
I23
aVcCEN_Northeast
p9517
aVcCEN_USA
p9518
aa(lp9519
I23
aVcCEN_Midwest
p9520
aVcCEN_USA
p9521
aa(lp9522
I23
aVcCEN_South
p9523
aVcCEN_USA
p9524
aa(lp9525
I23
aVcCEN_West
p9526
aVcCEN_USA
p9527
aa(lp9528
I23
aVnNDC_Midwest
p9529
aVnNDC_USA
p9530
aa(lp9531
I23
aVnNDC_Northeast
p9532
aVnNDC_USA
p9533
aa(lp9534
I23
aVnNDC_Southeast
p9535
aVnNDC_USA
p9536
aa(lp9537
I23
aVnNDC_Southwest
p9538
aVnNDC_USA
p9539
aa(lp9540
I23
aVnNDC_West
p9541
aVnNDC_USA
p9542
aa(lp9543
I23
aVnNDC_West
p9544
aVcCEN_West
p9545
aa(lp9546
I23
aVcCEN_Northeast
p9547
aVnNDC_USA
p9548
aa(lp9549
I23
aVcCEN_Midwest
p9550
aVnNDC_USA
p9551
aa(lp9552
I23
aVcCEN_South
p9553
aVnNDC_USA
p9554
aa(lp9555
I23
aVcCEN_West
p9556
aVnNDC_USA
p9557
aa(lp9558
I23
aVnNDC_West
p9559
aVcCEN_USA
p9560
aa(lp9561
I23
aVnNDC_Southwest
p9562
aVcCEN_USA
p9563
aa(lp9564
I23
aVnNDC_Southeast
p9565
aVcCEN_USA
p9566
aa(lp9567
I23
aVnNDC_Northeast
p9568
aVcCEN_USA
p9569
aa(lp9570
I23
aVnNDC_Midwest
p9571
aVcCEN_USA
p9572
aaa(lp9573
(lp9574
I23
aVcCEN_West
p9575
aVnNDC_West
p9576
aa(lp9577
I23
aVnNDC_USA
p9578
aVnNDC_West
p9579
aa(lp9580
I23
aVnNDC_USA
p9581
aVnNDC_Southwest
p9582
aa(lp9583
I23
aVnNDC_USA
p9584
aVnNDC_Southeast
p9585
aa(lp9586
I23
aVnNDC_USA
p9587
aVnNDC_Northeast
p9588
aa(lp9589
I23
aVnNDC_USA
p9590
aVnNDC_Midwest
p9591
aa(lp9592
I23
aVcCEN_USA
p9593
aVcCEN_West
p9594
aa(lp9595
I23
aVcCEN_USA
p9596
aVcCEN_South
p9597
aa(lp9598
I23
aVcCEN_USA
p9599
aVcCEN_Midwest
p9600
aa(lp9601
I23
aVcCEN_USA
p9602
aVcCEN_Northeast
p9603
aa(lp9604
I23
aVnNDC_Northeast
p9605
aVcCEN_Northeast
p9606
aa(lp9607
I23
aVnNDC_USA
p9608
aVcCEN_West
p9609
aa(lp9610
I23
aVnNDC_USA
p9611
aVcCEN_South
p9612
aa(lp9613
I23
aVnNDC_USA
p9614
aVcCEN_Midwest
p9615
aa(lp9616
I23
aVnNDC_USA
p9617
aVcCEN_Northeast
p9618
aa(lp9619
I23
aVcCEN_USA
p9620
aVnNDC_West
p9621
aa(lp9622
I23
aVcCEN_USA
p9623
aVnNDC_Midwest
p9624
aa(lp9625
I23
aVcCEN_USA
p9626
aVnNDC_Northeast
p9627
aa(lp9628
I23
aVcCEN_USA
p9629
aVnNDC_Southeast
p9630
aa(lp9631
I23
aVcCEN_USA
p9632
aVnNDC_Southwest
p9633
aaa(lp9634
(lp9635
I23
aVcCEN_South
p9636
aVnNDC_Southwest
p9637
aa(lp9638
I23
aVnNDC_Southwest
p9639
aVcCEN_South
p9640
aa(lp9641
I23
aVcCEN_South
p9642
aVnNDC_Southeast
p9643
aa(lp9644
I23
aVcCEN_West
p9645
aVnNDC_Southeast
p9646
aa(lp9647
I23
aVcCEN_West
p9648
aVnNDC_Southwest
p9649
aa(lp9650
I23
aVnNDC_Southwest
p9651
aVcCEN_West
p9652
aa(lp9653
I23
aVnNDC_Southeast
p9654
aVcCEN_West
p9655
aa(lp9656
I23
aVnNDC_Southeast
p9657
aVcCEN_South
p9658
aaa(lp9659
(lp9660
I23
aVcCEN_Northeast
p9661
aa(lp9662
I23
aVcCEN_Midwest
p9663
aa(lp9664
I23
aVcCEN_South
p9665
aa(lp9666
I23
aVcCEN_West
p9667
aa(lp9668
I23
aVnNDC_Midwest
p9669
aa(lp9670
I23
aVnNDC_Northeast
p9671
aa(lp9672
I23
aVnNDC_Southeast
p9673
aa(lp9674
I23
aVnNDC_Southwest
p9675
aa(lp9676
I23
aVnNDC_West
p9677
aa(lp9678
I23
aVcCEN_USA
p9679
aa(lp9680
I23
aVnNDC_USA
p9681
aaa(lp9682
(lp9683
I23
aVcCEN_USA
p9684
aVcCEN_Northeast
p9685
aa(lp9686
I23
aVcCEN_USA
p9687
aVcCEN_Midwest
p9688
aa(lp9689
I23
aVcCEN_USA
p9690
aVcCEN_South
p9691
aa(lp9692
I23
aVcCEN_USA
p9693
aVcCEN_West
p9694
aa(lp9695
I23
aVnNDC_USA
p9696
aVnNDC_Midwest
p9697
aa(lp9698
I23
aVnNDC_USA
p9699
aVnNDC_Northeast
p9700
aa(lp9701
I23
aVnNDC_USA
p9702
aVnNDC_Southeast
p9703
aa(lp9704
I23
aVnNDC_USA
p9705
aVnNDC_Southwest
p9706
aa(lp9707
I23
aVnNDC_USA
p9708
aVnNDC_West
p9709
aaasba(ihelper
PossibleWorld
p9710
(dp9711
g3
I24
sg4
I0
sg5
(lp9712
(lp9713
(lp9714
I24
aVcCEN_USA
p9715
aVnNDC_USA
p9716
aa(lp9717
I24
aVcCEN_Midwest
p9718
aVnNDC_Midwest
p9719
aa(lp9720
I24
aVnNDC_Midwest
p9721
aVcCEN_Midwest
p9722
aa(lp9723
I24
aVnNDC_USA
p9724
aVcCEN_USA
p9725
aa(lp9726
I24
aVnNDC_USA
p9727
aVnNDC_USA
p9728
aa(lp9729
I24
aVcCEN_USA
p9730
aVcCEN_USA
p9731
aa(lp9732
I24
aVnNDC_West
p9733
aVnNDC_West
p9734
aa(lp9735
I24
aVnNDC_Southwest
p9736
aVnNDC_Southwest
p9737
aa(lp9738
I24
aVnNDC_Southeast
p9739
aVnNDC_Southeast
p9740
aa(lp9741
I24
aVnNDC_Northeast
p9742
aVnNDC_Northeast
p9743
aa(lp9744
I24
aVnNDC_Midwest
p9745
aVnNDC_Midwest
p9746
aa(lp9747
I24
aVcCEN_West
p9748
aVcCEN_West
p9749
aa(lp9750
I24
aVcCEN_South
p9751
aVcCEN_South
p9752
aa(lp9753
I24
aVcCEN_Midwest
p9754
aVcCEN_Midwest
p9755
aa(lp9756
I24
aVcCEN_Northeast
p9757
aVcCEN_Northeast
p9758
aaa(lp9759
(lp9760
I24
aVcCEN_West
p9761
aVnNDC_Northeast
p9762
aa(lp9763
I24
aVcCEN_Midwest
p9764
aVcCEN_Northeast
p9765
aa(lp9766
I24
aVcCEN_South
p9767
aVcCEN_Northeast
p9768
aa(lp9769
I24
aVcCEN_West
p9770
aVcCEN_Northeast
p9771
aa(lp9772
I24
aVcCEN_Northeast
p9773
aVcCEN_Midwest
p9774
aa(lp9775
I24
aVcCEN_South
p9776
aVcCEN_Midwest
p9777
aa(lp9778
I24
aVcCEN_West
p9779
aVcCEN_Midwest
p9780
aa(lp9781
I24
aVcCEN_Northeast
p9782
aVcCEN_South
p9783
aa(lp9784
I24
aVcCEN_Midwest
p9785
aVcCEN_South
p9786
aa(lp9787
I24
aVcCEN_West
p9788
aVcCEN_South
p9789
aa(lp9790
I24
aVcCEN_Northeast
p9791
aVcCEN_West
p9792
aa(lp9793
I24
aVcCEN_Midwest
p9794
aVcCEN_West
p9795
aa(lp9796
I24
aVcCEN_South
p9797
aVcCEN_West
p9798
aa(lp9799
I24
aVnNDC_Northeast
p9800
aVnNDC_Midwest
p9801
aa(lp9802
I24
aVnNDC_Southeast
p9803
aVnNDC_Midwest
p9804
aa(lp9805
I24
aVnNDC_Southwest
p9806
aVnNDC_Midwest
p9807
aa(lp9808
I24
aVnNDC_West
p9809
aVnNDC_Midwest
p9810
aa(lp9811
I24
aVnNDC_Midwest
p9812
aVnNDC_Northeast
p9813
aa(lp9814
I24
aVnNDC_Southeast
p9815
aVnNDC_Northeast
p9816
aa(lp9817
I24
aVnNDC_Southwest
p9818
aVnNDC_Northeast
p9819
aa(lp9820
I24
aVnNDC_West
p9821
aVnNDC_Northeast
p9822
aa(lp9823
I24
aVnNDC_Midwest
p9824
aVnNDC_Southeast
p9825
aa(lp9826
I24
aVnNDC_Northeast
p9827
aVnNDC_Southeast
p9828
aa(lp9829
I24
aVnNDC_Southwest
p9830
aVnNDC_Southeast
p9831
aa(lp9832
I24
aVnNDC_West
p9833
aVnNDC_Southeast
p9834
aa(lp9835
I24
aVnNDC_Midwest
p9836
aVnNDC_Southwest
p9837
aa(lp9838
I24
aVnNDC_Northeast
p9839
aVnNDC_Southwest
p9840
aa(lp9841
I24
aVnNDC_Southeast
p9842
aVnNDC_Southwest
p9843
aa(lp9844
I24
aVnNDC_West
p9845
aVnNDC_Southwest
p9846
aa(lp9847
I24
aVnNDC_Midwest
p9848
aVnNDC_West
p9849
aa(lp9850
I24
aVnNDC_Northeast
p9851
aVnNDC_West
p9852
aa(lp9853
I24
aVnNDC_Southeast
p9854
aVnNDC_West
p9855
aa(lp9856
I24
aVnNDC_Southwest
p9857
aVnNDC_West
p9858
aa(lp9859
I24
aVnNDC_Northeast
p9860
aVcCEN_West
p9861
aa(lp9862
I24
aVcCEN_Northeast
p9863
aVnNDC_West
p9864
aa(lp9865
I24
aVcCEN_Northeast
p9866
aVnNDC_Southwest
p9867
aa(lp9868
I24
aVcCEN_Northeast
p9869
aVnNDC_Southeast
p9870
aa(lp9871
I24
aVcCEN_Northeast
p9872
aVnNDC_Midwest
p9873
aa(lp9874
I24
aVcCEN_South
p9875
aVnNDC_Midwest
p9876
aa(lp9877
I24
aVcCEN_West
p9878
aVnNDC_Midwest
p9879
aa(lp9880
I24
aVcCEN_Midwest
p9881
aVnNDC_West
p9882
aa(lp9883
I24
aVcCEN_Midwest
p9884
aVnNDC_Southwest
p9885
aa(lp9886
I24
aVcCEN_Midwest
p9887
aVnNDC_Southeast
p9888
aa(lp9889
I24
aVcCEN_Midwest
p9890
aVnNDC_Northeast
p9891
aa(lp9892
I24
aVnNDC_Northeast
p9893
aVcCEN_Midwest
p9894
aa(lp9895
I24
aVnNDC_Southeast
p9896
aVcCEN_Midwest
p9897
aa(lp9898
I24
aVnNDC_Southwest
p9899
aVcCEN_Midwest
p9900
aa(lp9901
I24
aVnNDC_West
p9902
aVcCEN_Midwest
p9903
aa(lp9904
I24
aVnNDC_Midwest
p9905
aVcCEN_West
p9906
aa(lp9907
I24
aVnNDC_Midwest
p9908
aVcCEN_South
p9909
aa(lp9910
I24
aVnNDC_Midwest
p9911
aVcCEN_Northeast
p9912
aa(lp9913
I24
aVnNDC_Southeast
p9914
aVcCEN_Northeast
p9915
aa(lp9916
I24
aVnNDC_Southwest
p9917
aVcCEN_Northeast
p9918
aa(lp9919
I24
aVnNDC_West
p9920
aVcCEN_Northeast
p9921
aa(lp9922
I24
aVnNDC_West
p9923
aVcCEN_South
p9924
aa(lp9925
I24
aVcCEN_South
p9926
aVnNDC_West
p9927
aaa(lp9928
(lp9929
I24
aVcCEN_Northeast
p9930
aVnNDC_Northeast
p9931
aa(lp9932
I24
aVcCEN_Northeast
p9933
aVcCEN_USA
p9934
aa(lp9935
I24
aVcCEN_Midwest
p9936
aVcCEN_USA
p9937
aa(lp9938
I24
aVcCEN_South
p9939
aVcCEN_USA
p9940
aa(lp9941
I24
aVcCEN_West
p9942
aVcCEN_USA
p9943
aa(lp9944
I24
aVnNDC_Midwest
p9945
aVnNDC_USA
p9946
aa(lp9947
I24
aVnNDC_Northeast
p9948
aVnNDC_USA
p9949
aa(lp9950
I24
aVnNDC_Southeast
p9951
aVnNDC_USA
p9952
aa(lp9953
I24
aVnNDC_Southwest
p9954
aVnNDC_USA
p9955
aa(lp9956
I24
aVnNDC_West
p9957
aVnNDC_USA
p9958
aa(lp9959
I24
aVnNDC_West
p9960
aVcCEN_West
p9961
aa(lp9962
I24
aVcCEN_Northeast
p9963
aVnNDC_USA
p9964
aa(lp9965
I24
aVcCEN_Midwest
p9966
aVnNDC_USA
p9967
aa(lp9968
I24
aVcCEN_South
p9969
aVnNDC_USA
p9970
aa(lp9971
I24
aVcCEN_West
p9972
aVnNDC_USA
p9973
aa(lp9974
I24
aVnNDC_West
p9975
aVcCEN_USA
p9976
aa(lp9977
I24
aVnNDC_Southwest
p9978
aVcCEN_USA
p9979
aa(lp9980
I24
aVnNDC_Southeast
p9981
aVcCEN_USA
p9982
aa(lp9983
I24
aVnNDC_Northeast
p9984
aVcCEN_USA
p9985
aa(lp9986
I24
aVnNDC_Midwest
p9987
aVcCEN_USA
p9988
aaa(lp9989
(lp9990
I24
aVcCEN_West
p9991
aVnNDC_West
p9992
aa(lp9993
I24
aVnNDC_USA
p9994
aVnNDC_West
p9995
aa(lp9996
I24
aVnNDC_USA
p9997
aVnNDC_Southwest
p9998
aa(lp9999
I24
aVnNDC_USA
p10000
aVnNDC_Southeast
p10001
aa(lp10002
I24
aVnNDC_USA
p10003
aVnNDC_Northeast
p10004
aa(lp10005
I24
aVnNDC_USA
p10006
aVnNDC_Midwest
p10007
aa(lp10008
I24
aVcCEN_USA
p10009
aVcCEN_West
p10010
aa(lp10011
I24
aVcCEN_USA
p10012
aVcCEN_South
p10013
aa(lp10014
I24
aVcCEN_USA
p10015
aVcCEN_Midwest
p10016
aa(lp10017
I24
aVcCEN_USA
p10018
aVcCEN_Northeast
p10019
aa(lp10020
I24
aVnNDC_Northeast
p10021
aVcCEN_Northeast
p10022
aa(lp10023
I24
aVnNDC_USA
p10024
aVcCEN_West
p10025
aa(lp10026
I24
aVnNDC_USA
p10027
aVcCEN_South
p10028
aa(lp10029
I24
aVnNDC_USA
p10030
aVcCEN_Midwest
p10031
aa(lp10032
I24
aVnNDC_USA
p10033
aVcCEN_Northeast
p10034
aa(lp10035
I24
aVcCEN_USA
p10036
aVnNDC_West
p10037
aa(lp10038
I24
aVcCEN_USA
p10039
aVnNDC_Midwest
p10040
aa(lp10041
I24
aVcCEN_USA
p10042
aVnNDC_Northeast
p10043
aa(lp10044
I24
aVcCEN_USA
p10045
aVnNDC_Southeast
p10046
aa(lp10047
I24
aVcCEN_USA
p10048
aVnNDC_Southwest
p10049
aaa(lp10050
(lp10051
I24
aVcCEN_South
p10052
aVnNDC_Southwest
p10053
aa(lp10054
I24
aVnNDC_Southwest
p10055
aVcCEN_South
p10056
aa(lp10057
I24
aVcCEN_South
p10058
aVnNDC_Southeast
p10059
aa(lp10060
I24
aVcCEN_West
p10061
aVnNDC_Southeast
p10062
aa(lp10063
I24
aVcCEN_West
p10064
aVnNDC_Southwest
p10065
aa(lp10066
I24
aVnNDC_Southwest
p10067
aVcCEN_West
p10068
aa(lp10069
I24
aVnNDC_Southeast
p10070
aVcCEN_West
p10071
aa(lp10072
I24
aVnNDC_Northeast
p10073
aVcCEN_South
p10074
aa(lp10075
I24
aVnNDC_Southeast
p10076
aVcCEN_South
p10077
aa(lp10078
I24
aVcCEN_South
p10079
aVnNDC_Northeast
p10080
aaa(lp10081
(lp10082
I24
aVcCEN_Northeast
p10083
aa(lp10084
I24
aVcCEN_Midwest
p10085
aa(lp10086
I24
aVcCEN_South
p10087
aa(lp10088
I24
aVcCEN_West
p10089
aa(lp10090
I24
aVnNDC_Midwest
p10091
aa(lp10092
I24
aVnNDC_Northeast
p10093
aa(lp10094
I24
aVnNDC_Southeast
p10095
aa(lp10096
I24
aVnNDC_Southwest
p10097
aa(lp10098
I24
aVnNDC_West
p10099
aa(lp10100
I24
aVcCEN_USA
p10101
aa(lp10102
I24
aVnNDC_USA
p10103
aaa(lp10104
(lp10105
I24
aVcCEN_USA
p10106
aVcCEN_Northeast
p10107
aa(lp10108
I24
aVcCEN_USA
p10109
aVcCEN_Midwest
p10110
aa(lp10111
I24
aVcCEN_USA
p10112
aVcCEN_South
p10113
aa(lp10114
I24
aVcCEN_USA
p10115
aVcCEN_West
p10116
aa(lp10117
I24
aVnNDC_USA
p10118
aVnNDC_Midwest
p10119
aa(lp10120
I24
aVnNDC_USA
p10121
aVnNDC_Northeast
p10122
aa(lp10123
I24
aVnNDC_USA
p10124
aVnNDC_Southeast
p10125
aa(lp10126
I24
aVnNDC_USA
p10127
aVnNDC_Southwest
p10128
aa(lp10129
I24
aVnNDC_USA
p10130
aVnNDC_West
p10131
aaasba.