(lp0
(ihelper
PossibleWorld
p1
(dp2
S'pw_id'
p3
I1
sS'pw_soln'
p4
I0
sS'rls'
p5
(lp6
(lp7
(lp8
I1
aV"CEN_USA"
p9
aV"NDC_USA"
p10
aa(lp11
I1
aV"CEN_Midwest"
p12
aV"NDC_Midwest"
p13
aa(lp14
I1
aV"NDC_Midwest"
p15
aV"CEN_Midwest"
p16
aa(lp17
I1
aV"NDC_USA"
p18
aV"CEN_USA"
p19
aa(lp20
I1
aV"NDC_USA"
p21
aV"NDC_USA"
p22
aa(lp23
I1
aV"CEN_USA"
p24
aV"CEN_USA"
p25
aa(lp26
I1
aV"NDC_West"
p27
aV"NDC_West"
p28
aa(lp29
I1
aV"NDC_Southwest"
p30
aV"NDC_Southwest"
p31
aa(lp32
I1
aV"NDC_Southeast"
p33
aV"NDC_Southeast"
p34
aa(lp35
I1
aV"NDC_Northeast"
p36
aV"NDC_Northeast"
p37
aa(lp38
I1
aV"NDC_Midwest"
p39
aV"NDC_Midwest"
p40
aa(lp41
I1
aV"CEN_West"
p42
aV"CEN_West"
p43
aa(lp44
I1
aV"CEN_South"
p45
aV"CEN_South"
p46
aa(lp47
I1
aV"CEN_Midwest"
p48
aV"CEN_Midwest"
p49
aa(lp50
I1
aV"CEN_Northeast"
p51
aV"CEN_Northeast"
p52
aaa(lp53
(lp54
I1
aV"CEN_West"
p55
aV"NDC_Northeast"
p56
aa(lp57
I1
aV"CEN_Midwest"
p58
aV"CEN_Northeast"
p59
aa(lp60
I1
aV"CEN_South"
p61
aV"CEN_Northeast"
p62
aa(lp63
I1
aV"CEN_West"
p64
aV"CEN_Northeast"
p65
aa(lp66
I1
aV"CEN_Northeast"
p67
aV"CEN_Midwest"
p68
aa(lp69
I1
aV"CEN_South"
p70
aV"CEN_Midwest"
p71
aa(lp72
I1
aV"CEN_West"
p73
aV"CEN_Midwest"
p74
aa(lp75
I1
aV"CEN_Northeast"
p76
aV"CEN_South"
p77
aa(lp78
I1
aV"CEN_Midwest"
p79
aV"CEN_South"
p80
aa(lp81
I1
aV"CEN_West"
p82
aV"CEN_South"
p83
aa(lp84
I1
aV"CEN_Northeast"
p85
aV"CEN_West"
p86
aa(lp87
I1
aV"CEN_Midwest"
p88
aV"CEN_West"
p89
aa(lp90
I1
aV"CEN_South"
p91
aV"CEN_West"
p92
aa(lp93
I1
aV"NDC_Northeast"
p94
aV"NDC_Midwest"
p95
aa(lp96
I1
aV"NDC_Southeast"
p97
aV"NDC_Midwest"
p98
aa(lp99
I1
aV"NDC_Southwest"
p100
aV"NDC_Midwest"
p101
aa(lp102
I1
aV"NDC_West"
p103
aV"NDC_Midwest"
p104
aa(lp105
I1
aV"NDC_Midwest"
p106
aV"NDC_Northeast"
p107
aa(lp108
I1
aV"NDC_Southeast"
p109
aV"NDC_Northeast"
p110
aa(lp111
I1
aV"NDC_Southwest"
p112
aV"NDC_Northeast"
p113
aa(lp114
I1
aV"NDC_West"
p115
aV"NDC_Northeast"
p116
aa(lp117
I1
aV"NDC_Midwest"
p118
aV"NDC_Southeast"
p119
aa(lp120
I1
aV"NDC_Northeast"
p121
aV"NDC_Southeast"
p122
aa(lp123
I1
aV"NDC_Southwest"
p124
aV"NDC_Southeast"
p125
aa(lp126
I1
aV"NDC_West"
p127
aV"NDC_Southeast"
p128
aa(lp129
I1
aV"NDC_Midwest"
p130
aV"NDC_Southwest"
p131
aa(lp132
I1
aV"NDC_Northeast"
p133
aV"NDC_Southwest"
p134
aa(lp135
I1
aV"NDC_Southeast"
p136
aV"NDC_Southwest"
p137
aa(lp138
I1
aV"NDC_West"
p139
aV"NDC_Southwest"
p140
aa(lp141
I1
aV"NDC_Midwest"
p142
aV"NDC_West"
p143
aa(lp144
I1
aV"NDC_Northeast"
p145
aV"NDC_West"
p146
aa(lp147
I1
aV"NDC_Southeast"
p148
aV"NDC_West"
p149
aa(lp150
I1
aV"NDC_Southwest"
p151
aV"NDC_West"
p152
aa(lp153
I1
aV"NDC_Northeast"
p154
aV"CEN_West"
p155
aa(lp156
I1
aV"CEN_Northeast"
p157
aV"NDC_West"
p158
aa(lp159
I1
aV"CEN_Northeast"
p160
aV"NDC_Southwest"
p161
aa(lp162
I1
aV"CEN_Northeast"
p163
aV"NDC_Southeast"
p164
aa(lp165
I1
aV"CEN_Northeast"
p166
aV"NDC_Midwest"
p167
aa(lp168
I1
aV"CEN_South"
p169
aV"NDC_Midwest"
p170
aa(lp171
I1
aV"CEN_West"
p172
aV"NDC_Midwest"
p173
aa(lp174
I1
aV"CEN_Midwest"
p175
aV"NDC_West"
p176
aa(lp177
I1
aV"CEN_Midwest"
p178
aV"NDC_Southwest"
p179
aa(lp180
I1
aV"CEN_Midwest"
p181
aV"NDC_Southeast"
p182
aa(lp183
I1
aV"CEN_Midwest"
p184
aV"NDC_Northeast"
p185
aa(lp186
I1
aV"NDC_Northeast"
p187
aV"CEN_Midwest"
p188
aa(lp189
I1
aV"NDC_Southeast"
p190
aV"CEN_Midwest"
p191
aa(lp192
I1
aV"NDC_Southwest"
p193
aV"CEN_Midwest"
p194
aa(lp195
I1
aV"NDC_West"
p196
aV"CEN_Midwest"
p197
aa(lp198
I1
aV"NDC_Midwest"
p199
aV"CEN_West"
p200
aa(lp201
I1
aV"NDC_Midwest"
p202
aV"CEN_South"
p203
aa(lp204
I1
aV"NDC_Midwest"
p205
aV"CEN_Northeast"
p206
aa(lp207
I1
aV"NDC_Southeast"
p208
aV"CEN_Northeast"
p209
aa(lp210
I1
aV"NDC_Southwest"
p211
aV"CEN_Northeast"
p212
aa(lp213
I1
aV"NDC_West"
p214
aV"CEN_Northeast"
p215
aa(lp216
I1
aV"NDC_West"
p217
aV"CEN_South"
p218
aa(lp219
I1
aV"NDC_Southeast"
p220
aV"CEN_West"
p221
aa(lp222
I1
aV"CEN_South"
p223
aV"NDC_West"
p224
aa(lp225
I1
aV"CEN_West"
p226
aV"NDC_Southeast"
p227
aaa(lp228
(lp229
I1
aV"CEN_Northeast"
p230
aV"NDC_Northeast"
p231
aa(lp232
I1
aV"CEN_Northeast"
p233
aV"CEN_USA"
p234
aa(lp235
I1
aV"CEN_Midwest"
p236
aV"CEN_USA"
p237
aa(lp238
I1
aV"CEN_South"
p239
aV"CEN_USA"
p240
aa(lp241
I1
aV"CEN_West"
p242
aV"CEN_USA"
p243
aa(lp244
I1
aV"NDC_Midwest"
p245
aV"NDC_USA"
p246
aa(lp247
I1
aV"NDC_Northeast"
p248
aV"NDC_USA"
p249
aa(lp250
I1
aV"NDC_Southeast"
p251
aV"NDC_USA"
p252
aa(lp253
I1
aV"NDC_Southwest"
p254
aV"NDC_USA"
p255
aa(lp256
I1
aV"NDC_West"
p257
aV"NDC_USA"
p258
aa(lp259
I1
aV"NDC_Southeast"
p260
aV"CEN_South"
p261
aa(lp262
I1
aV"NDC_West"
p263
aV"CEN_West"
p264
aa(lp265
I1
aV"CEN_Northeast"
p266
aV"NDC_USA"
p267
aa(lp268
I1
aV"CEN_Midwest"
p269
aV"NDC_USA"
p270
aa(lp271
I1
aV"CEN_South"
p272
aV"NDC_USA"
p273
aa(lp274
I1
aV"CEN_West"
p275
aV"NDC_USA"
p276
aa(lp277
I1
aV"NDC_West"
p278
aV"CEN_USA"
p279
aa(lp280
I1
aV"NDC_Southeast"
p281
aV"CEN_USA"
p282
aa(lp283
I1
aV"NDC_Southwest"
p284
aV"CEN_USA"
p285
aa(lp286
I1
aV"NDC_Northeast"
p287
aV"CEN_USA"
p288
aa(lp289
I1
aV"NDC_Midwest"
p290
aV"CEN_USA"
p291
aaa(lp292
(lp293
I1
aV"CEN_West"
p294
aV"NDC_West"
p295
aa(lp296
I1
aV"CEN_South"
p297
aV"NDC_Southeast"
p298
aa(lp299
I1
aV"NDC_USA"
p300
aV"NDC_West"
p301
aa(lp302
I1
aV"NDC_USA"
p303
aV"NDC_Southwest"
p304
aa(lp305
I1
aV"NDC_USA"
p306
aV"NDC_Southeast"
p307
aa(lp308
I1
aV"NDC_USA"
p309
aV"NDC_Northeast"
p310
aa(lp311
I1
aV"NDC_USA"
p312
aV"NDC_Midwest"
p313
aa(lp314
I1
aV"CEN_USA"
p315
aV"CEN_West"
p316
aa(lp317
I1
aV"CEN_USA"
p318
aV"CEN_South"
p319
aa(lp320
I1
aV"CEN_USA"
p321
aV"CEN_Midwest"
p322
aa(lp323
I1
aV"CEN_USA"
p324
aV"CEN_Northeast"
p325
aa(lp326
I1
aV"NDC_Northeast"
p327
aV"CEN_Northeast"
p328
aa(lp329
I1
aV"NDC_USA"
p330
aV"CEN_West"
p331
aa(lp332
I1
aV"NDC_USA"
p333
aV"CEN_South"
p334
aa(lp335
I1
aV"NDC_USA"
p336
aV"CEN_Midwest"
p337
aa(lp338
I1
aV"NDC_USA"
p339
aV"CEN_Northeast"
p340
aa(lp341
I1
aV"CEN_USA"
p342
aV"NDC_Southeast"
p343
aa(lp344
I1
aV"CEN_USA"
p345
aV"NDC_West"
p346
aa(lp347
I1
aV"CEN_USA"
p348
aV"NDC_Midwest"
p349
aa(lp350
I1
aV"CEN_USA"
p351
aV"NDC_Northeast"
p352
aa(lp353
I1
aV"CEN_USA"
p354
aV"NDC_Southwest"
p355
aaa(lp356
(lp357
I1
aV"CEN_South"
p358
aV"NDC_Southwest"
p359
aa(lp360
I1
aV"NDC_Southwest"
p361
aV"CEN_South"
p362
aa(lp363
I1
aV"CEN_West"
p364
aV"NDC_Southwest"
p365
aa(lp366
I1
aV"NDC_Southwest"
p367
aV"CEN_West"
p368
aa(lp369
I1
aV"CEN_South"
p370
aV"NDC_Northeast"
p371
aa(lp372
I1
aV"NDC_Northeast"
p373
aV"CEN_South"
p374
aaa(lp375
(lp376
I1
aV"CEN_Northeast"
p377
aa(lp378
I1
aV"CEN_Midwest"
p379
aa(lp380
I1
aV"CEN_South"
p381
aa(lp382
I1
aV"CEN_West"
p383
aa(lp384
I1
aV"NDC_Midwest"
p385
aa(lp386
I1
aV"NDC_Northeast"
p387
aa(lp388
I1
aV"NDC_Southeast"
p389
aa(lp390
I1
aV"NDC_Southwest"
p391
aa(lp392
I1
aV"NDC_West"
p393
aa(lp394
I1
aV"CEN_USA"
p395
aa(lp396
I1
aV"NDC_USA"
p397
aaa(lp398
(lp399
I1
aV"CEN_USA"
p400
aV"CEN_Northeast"
p401
aa(lp402
I1
aV"CEN_USA"
p403
aV"CEN_Midwest"
p404
aa(lp405
I1
aV"CEN_USA"
p406
aV"CEN_South"
p407
aa(lp408
I1
aV"CEN_USA"
p409
aV"CEN_West"
p410
aa(lp411
I1
aV"NDC_USA"
p412
aV"NDC_Midwest"
p413
aa(lp414
I1
aV"NDC_USA"
p415
aV"NDC_Northeast"
p416
aa(lp417
I1
aV"NDC_USA"
p418
aV"NDC_Southeast"
p419
aa(lp420
I1
aV"NDC_USA"
p421
aV"NDC_Southwest"
p422
aa(lp423
I1
aV"NDC_USA"
p424
aV"NDC_West"
p425
aaasba(ihelper
PossibleWorld
p426
(dp427
g3
I2
sg4
I0
sg5
(lp428
(lp429
(lp430
I2
aV"CEN_USA"
p431
aV"NDC_USA"
p432
aa(lp433
I2
aV"CEN_Midwest"
p434
aV"NDC_Midwest"
p435
aa(lp436
I2
aV"NDC_Midwest"
p437
aV"CEN_Midwest"
p438
aa(lp439
I2
aV"NDC_USA"
p440
aV"CEN_USA"
p441
aa(lp442
I2
aV"NDC_USA"
p443
aV"NDC_USA"
p444
aa(lp445
I2
aV"CEN_USA"
p446
aV"CEN_USA"
p447
aa(lp448
I2
aV"NDC_West"
p449
aV"NDC_West"
p450
aa(lp451
I2
aV"NDC_Southwest"
p452
aV"NDC_Southwest"
p453
aa(lp454
I2
aV"NDC_Southeast"
p455
aV"NDC_Southeast"
p456
aa(lp457
I2
aV"NDC_Northeast"
p458
aV"NDC_Northeast"
p459
aa(lp460
I2
aV"NDC_Midwest"
p461
aV"NDC_Midwest"
p462
aa(lp463
I2
aV"CEN_West"
p464
aV"CEN_West"
p465
aa(lp466
I2
aV"CEN_South"
p467
aV"CEN_South"
p468
aa(lp469
I2
aV"CEN_Midwest"
p470
aV"CEN_Midwest"
p471
aa(lp472
I2
aV"CEN_Northeast"
p473
aV"CEN_Northeast"
p474
aaa(lp475
(lp476
I2
aV"CEN_West"
p477
aV"NDC_Northeast"
p478
aa(lp479
I2
aV"CEN_Midwest"
p480
aV"CEN_Northeast"
p481
aa(lp482
I2
aV"CEN_South"
p483
aV"CEN_Northeast"
p484
aa(lp485
I2
aV"CEN_West"
p486
aV"CEN_Northeast"
p487
aa(lp488
I2
aV"CEN_Northeast"
p489
aV"CEN_Midwest"
p490
aa(lp491
I2
aV"CEN_South"
p492
aV"CEN_Midwest"
p493
aa(lp494
I2
aV"CEN_West"
p495
aV"CEN_Midwest"
p496
aa(lp497
I2
aV"CEN_Northeast"
p498
aV"CEN_South"
p499
aa(lp500
I2
aV"CEN_Midwest"
p501
aV"CEN_South"
p502
aa(lp503
I2
aV"CEN_West"
p504
aV"CEN_South"
p505
aa(lp506
I2
aV"CEN_Northeast"
p507
aV"CEN_West"
p508
aa(lp509
I2
aV"CEN_Midwest"
p510
aV"CEN_West"
p511
aa(lp512
I2
aV"CEN_South"
p513
aV"CEN_West"
p514
aa(lp515
I2
aV"NDC_Northeast"
p516
aV"NDC_Midwest"
p517
aa(lp518
I2
aV"NDC_Southeast"
p519
aV"NDC_Midwest"
p520
aa(lp521
I2
aV"NDC_Southwest"
p522
aV"NDC_Midwest"
p523
aa(lp524
I2
aV"NDC_West"
p525
aV"NDC_Midwest"
p526
aa(lp527
I2
aV"NDC_Midwest"
p528
aV"NDC_Northeast"
p529
aa(lp530
I2
aV"NDC_Southeast"
p531
aV"NDC_Northeast"
p532
aa(lp533
I2
aV"NDC_Southwest"
p534
aV"NDC_Northeast"
p535
aa(lp536
I2
aV"NDC_West"
p537
aV"NDC_Northeast"
p538
aa(lp539
I2
aV"NDC_Midwest"
p540
aV"NDC_Southeast"
p541
aa(lp542
I2
aV"NDC_Northeast"
p543
aV"NDC_Southeast"
p544
aa(lp545
I2
aV"NDC_Southwest"
p546
aV"NDC_Southeast"
p547
aa(lp548
I2
aV"NDC_West"
p549
aV"NDC_Southeast"
p550
aa(lp551
I2
aV"NDC_Midwest"
p552
aV"NDC_Southwest"
p553
aa(lp554
I2
aV"NDC_Northeast"
p555
aV"NDC_Southwest"
p556
aa(lp557
I2
aV"NDC_Southeast"
p558
aV"NDC_Southwest"
p559
aa(lp560
I2
aV"NDC_West"
p561
aV"NDC_Southwest"
p562
aa(lp563
I2
aV"NDC_Midwest"
p564
aV"NDC_West"
p565
aa(lp566
I2
aV"NDC_Northeast"
p567
aV"NDC_West"
p568
aa(lp569
I2
aV"NDC_Southeast"
p570
aV"NDC_West"
p571
aa(lp572
I2
aV"NDC_Southwest"
p573
aV"NDC_West"
p574
aa(lp575
I2
aV"NDC_Northeast"
p576
aV"CEN_West"
p577
aa(lp578
I2
aV"CEN_Northeast"
p579
aV"NDC_West"
p580
aa(lp581
I2
aV"CEN_Northeast"
p582
aV"NDC_Southwest"
p583
aa(lp584
I2
aV"CEN_Northeast"
p585
aV"NDC_Southeast"
p586
aa(lp587
I2
aV"CEN_Northeast"
p588
aV"NDC_Midwest"
p589
aa(lp590
I2
aV"CEN_South"
p591
aV"NDC_Midwest"
p592
aa(lp593
I2
aV"CEN_West"
p594
aV"NDC_Midwest"
p595
aa(lp596
I2
aV"CEN_Midwest"
p597
aV"NDC_West"
p598
aa(lp599
I2
aV"CEN_Midwest"
p600
aV"NDC_Southwest"
p601
aa(lp602
I2
aV"CEN_Midwest"
p603
aV"NDC_Southeast"
p604
aa(lp605
I2
aV"CEN_Midwest"
p606
aV"NDC_Northeast"
p607
aa(lp608
I2
aV"NDC_Northeast"
p609
aV"CEN_Midwest"
p610
aa(lp611
I2
aV"NDC_Southeast"
p612
aV"CEN_Midwest"
p613
aa(lp614
I2
aV"NDC_Southwest"
p615
aV"CEN_Midwest"
p616
aa(lp617
I2
aV"NDC_West"
p618
aV"CEN_Midwest"
p619
aa(lp620
I2
aV"NDC_Midwest"
p621
aV"CEN_West"
p622
aa(lp623
I2
aV"NDC_Midwest"
p624
aV"CEN_South"
p625
aa(lp626
I2
aV"NDC_Midwest"
p627
aV"CEN_Northeast"
p628
aa(lp629
I2
aV"NDC_Southeast"
p630
aV"CEN_Northeast"
p631
aa(lp632
I2
aV"NDC_Southwest"
p633
aV"CEN_Northeast"
p634
aa(lp635
I2
aV"NDC_West"
p636
aV"CEN_Northeast"
p637
aa(lp638
I2
aV"NDC_West"
p639
aV"CEN_South"
p640
aa(lp641
I2
aV"NDC_Southeast"
p642
aV"CEN_West"
p643
aa(lp644
I2
aV"CEN_South"
p645
aV"NDC_West"
p646
aa(lp647
I2
aV"CEN_West"
p648
aV"NDC_Southeast"
p649
aa(lp650
I2
aV"CEN_South"
p651
aV"NDC_Northeast"
p652
aa(lp653
I2
aV"NDC_Northeast"
p654
aV"CEN_South"
p655
aaa(lp656
(lp657
I2
aV"CEN_Northeast"
p658
aV"NDC_Northeast"
p659
aa(lp660
I2
aV"CEN_Northeast"
p661
aV"CEN_USA"
p662
aa(lp663
I2
aV"CEN_Midwest"
p664
aV"CEN_USA"
p665
aa(lp666
I2
aV"CEN_South"
p667
aV"CEN_USA"
p668
aa(lp669
I2
aV"CEN_West"
p670
aV"CEN_USA"
p671
aa(lp672
I2
aV"NDC_Midwest"
p673
aV"NDC_USA"
p674
aa(lp675
I2
aV"NDC_Northeast"
p676
aV"NDC_USA"
p677
aa(lp678
I2
aV"NDC_Southeast"
p679
aV"NDC_USA"
p680
aa(lp681
I2
aV"NDC_Southwest"
p682
aV"NDC_USA"
p683
aa(lp684
I2
aV"NDC_West"
p685
aV"NDC_USA"
p686
aa(lp687
I2
aV"NDC_Southeast"
p688
aV"CEN_South"
p689
aa(lp690
I2
aV"NDC_West"
p691
aV"CEN_West"
p692
aa(lp693
I2
aV"CEN_Northeast"
p694
aV"NDC_USA"
p695
aa(lp696
I2
aV"CEN_Midwest"
p697
aV"NDC_USA"
p698
aa(lp699
I2
aV"CEN_South"
p700
aV"NDC_USA"
p701
aa(lp702
I2
aV"CEN_West"
p703
aV"NDC_USA"
p704
aa(lp705
I2
aV"NDC_West"
p706
aV"CEN_USA"
p707
aa(lp708
I2
aV"NDC_Southeast"
p709
aV"CEN_USA"
p710
aa(lp711
I2
aV"NDC_Southwest"
p712
aV"CEN_USA"
p713
aa(lp714
I2
aV"NDC_Northeast"
p715
aV"CEN_USA"
p716
aa(lp717
I2
aV"NDC_Midwest"
p718
aV"CEN_USA"
p719
aaa(lp720
(lp721
I2
aV"CEN_West"
p722
aV"NDC_West"
p723
aa(lp724
I2
aV"CEN_South"
p725
aV"NDC_Southeast"
p726
aa(lp727
I2
aV"NDC_USA"
p728
aV"NDC_West"
p729
aa(lp730
I2
aV"NDC_USA"
p731
aV"NDC_Southwest"
p732
aa(lp733
I2
aV"NDC_USA"
p734
aV"NDC_Southeast"
p735
aa(lp736
I2
aV"NDC_USA"
p737
aV"NDC_Northeast"
p738
aa(lp739
I2
aV"NDC_USA"
p740
aV"NDC_Midwest"
p741
aa(lp742
I2
aV"CEN_USA"
p743
aV"CEN_West"
p744
aa(lp745
I2
aV"CEN_USA"
p746
aV"CEN_South"
p747
aa(lp748
I2
aV"CEN_USA"
p749
aV"CEN_Midwest"
p750
aa(lp751
I2
aV"CEN_USA"
p752
aV"CEN_Northeast"
p753
aa(lp754
I2
aV"NDC_Northeast"
p755
aV"CEN_Northeast"
p756
aa(lp757
I2
aV"NDC_USA"
p758
aV"CEN_West"
p759
aa(lp760
I2
aV"NDC_USA"
p761
aV"CEN_South"
p762
aa(lp763
I2
aV"NDC_USA"
p764
aV"CEN_Midwest"
p765
aa(lp766
I2
aV"NDC_USA"
p767
aV"CEN_Northeast"
p768
aa(lp769
I2
aV"CEN_USA"
p770
aV"NDC_Southeast"
p771
aa(lp772
I2
aV"CEN_USA"
p773
aV"NDC_West"
p774
aa(lp775
I2
aV"CEN_USA"
p776
aV"NDC_Midwest"
p777
aa(lp778
I2
aV"CEN_USA"
p779
aV"NDC_Northeast"
p780
aa(lp781
I2
aV"CEN_USA"
p782
aV"NDC_Southwest"
p783
aaa(lp784
(lp785
I2
aV"CEN_South"
p786
aV"NDC_Southwest"
p787
aa(lp788
I2
aV"NDC_Southwest"
p789
aV"CEN_South"
p790
aa(lp791
I2
aV"CEN_West"
p792
aV"NDC_Southwest"
p793
aa(lp794
I2
aV"NDC_Southwest"
p795
aV"CEN_West"
p796
aaa(lp797
(lp798
I2
aV"CEN_Northeast"
p799
aa(lp800
I2
aV"CEN_Midwest"
p801
aa(lp802
I2
aV"CEN_South"
p803
aa(lp804
I2
aV"CEN_West"
p805
aa(lp806
I2
aV"NDC_Midwest"
p807
aa(lp808
I2
aV"NDC_Northeast"
p809
aa(lp810
I2
aV"NDC_Southeast"
p811
aa(lp812
I2
aV"NDC_Southwest"
p813
aa(lp814
I2
aV"NDC_West"
p815
aa(lp816
I2
aV"CEN_USA"
p817
aa(lp818
I2
aV"NDC_USA"
p819
aaa(lp820
(lp821
I2
aV"CEN_USA"
p822
aV"CEN_Northeast"
p823
aa(lp824
I2
aV"CEN_USA"
p825
aV"CEN_Midwest"
p826
aa(lp827
I2
aV"CEN_USA"
p828
aV"CEN_South"
p829
aa(lp830
I2
aV"CEN_USA"
p831
aV"CEN_West"
p832
aa(lp833
I2
aV"NDC_USA"
p834
aV"NDC_Midwest"
p835
aa(lp836
I2
aV"NDC_USA"
p837
aV"NDC_Northeast"
p838
aa(lp839
I2
aV"NDC_USA"
p840
aV"NDC_Southeast"
p841
aa(lp842
I2
aV"NDC_USA"
p843
aV"NDC_Southwest"
p844
aa(lp845
I2
aV"NDC_USA"
p846
aV"NDC_West"
p847
aaasba(ihelper
PossibleWorld
p848
(dp849
g3
I3
sg4
I0
sg5
(lp850
(lp851
(lp852
I3
aV"CEN_USA"
p853
aV"NDC_USA"
p854
aa(lp855
I3
aV"CEN_Midwest"
p856
aV"NDC_Midwest"
p857
aa(lp858
I3
aV"NDC_Midwest"
p859
aV"CEN_Midwest"
p860
aa(lp861
I3
aV"NDC_USA"
p862
aV"CEN_USA"
p863
aa(lp864
I3
aV"NDC_USA"
p865
aV"NDC_USA"
p866
aa(lp867
I3
aV"CEN_USA"
p868
aV"CEN_USA"
p869
aa(lp870
I3
aV"NDC_West"
p871
aV"NDC_West"
p872
aa(lp873
I3
aV"NDC_Southwest"
p874
aV"NDC_Southwest"
p875
aa(lp876
I3
aV"NDC_Southeast"
p877
aV"NDC_Southeast"
p878
aa(lp879
I3
aV"NDC_Northeast"
p880
aV"NDC_Northeast"
p881
aa(lp882
I3
aV"NDC_Midwest"
p883
aV"NDC_Midwest"
p884
aa(lp885
I3
aV"CEN_West"
p886
aV"CEN_West"
p887
aa(lp888
I3
aV"CEN_South"
p889
aV"CEN_South"
p890
aa(lp891
I3
aV"CEN_Midwest"
p892
aV"CEN_Midwest"
p893
aa(lp894
I3
aV"CEN_Northeast"
p895
aV"CEN_Northeast"
p896
aaa(lp897
(lp898
I3
aV"CEN_West"
p899
aV"NDC_Northeast"
p900
aa(lp901
I3
aV"CEN_Midwest"
p902
aV"CEN_Northeast"
p903
aa(lp904
I3
aV"CEN_South"
p905
aV"CEN_Northeast"
p906
aa(lp907
I3
aV"CEN_West"
p908
aV"CEN_Northeast"
p909
aa(lp910
I3
aV"CEN_Northeast"
p911
aV"CEN_Midwest"
p912
aa(lp913
I3
aV"CEN_South"
p914
aV"CEN_Midwest"
p915
aa(lp916
I3
aV"CEN_West"
p917
aV"CEN_Midwest"
p918
aa(lp919
I3
aV"CEN_Northeast"
p920
aV"CEN_South"
p921
aa(lp922
I3
aV"CEN_Midwest"
p923
aV"CEN_South"
p924
aa(lp925
I3
aV"CEN_West"
p926
aV"CEN_South"
p927
aa(lp928
I3
aV"CEN_Northeast"
p929
aV"CEN_West"
p930
aa(lp931
I3
aV"CEN_Midwest"
p932
aV"CEN_West"
p933
aa(lp934
I3
aV"CEN_South"
p935
aV"CEN_West"
p936
aa(lp937
I3
aV"NDC_Northeast"
p938
aV"NDC_Midwest"
p939
aa(lp940
I3
aV"NDC_Southeast"
p941
aV"NDC_Midwest"
p942
aa(lp943
I3
aV"NDC_Southwest"
p944
aV"NDC_Midwest"
p945
aa(lp946
I3
aV"NDC_West"
p947
aV"NDC_Midwest"
p948
aa(lp949
I3
aV"NDC_Midwest"
p950
aV"NDC_Northeast"
p951
aa(lp952
I3
aV"NDC_Southeast"
p953
aV"NDC_Northeast"
p954
aa(lp955
I3
aV"NDC_Southwest"
p956
aV"NDC_Northeast"
p957
aa(lp958
I3
aV"NDC_West"
p959
aV"NDC_Northeast"
p960
aa(lp961
I3
aV"NDC_Midwest"
p962
aV"NDC_Southeast"
p963
aa(lp964
I3
aV"NDC_Northeast"
p965
aV"NDC_Southeast"
p966
aa(lp967
I3
aV"NDC_Southwest"
p968
aV"NDC_Southeast"
p969
aa(lp970
I3
aV"NDC_West"
p971
aV"NDC_Southeast"
p972
aa(lp973
I3
aV"NDC_Midwest"
p974
aV"NDC_Southwest"
p975
aa(lp976
I3
aV"NDC_Northeast"
p977
aV"NDC_Southwest"
p978
aa(lp979
I3
aV"NDC_Southeast"
p980
aV"NDC_Southwest"
p981
aa(lp982
I3
aV"NDC_West"
p983
aV"NDC_Southwest"
p984
aa(lp985
I3
aV"NDC_Midwest"
p986
aV"NDC_West"
p987
aa(lp988
I3
aV"NDC_Northeast"
p989
aV"NDC_West"
p990
aa(lp991
I3
aV"NDC_Southeast"
p992
aV"NDC_West"
p993
aa(lp994
I3
aV"NDC_Southwest"
p995
aV"NDC_West"
p996
aa(lp997
I3
aV"NDC_Northeast"
p998
aV"CEN_West"
p999
aa(lp1000
I3
aV"CEN_Northeast"
p1001
aV"NDC_West"
p1002
aa(lp1003
I3
aV"CEN_Northeast"
p1004
aV"NDC_Southwest"
p1005
aa(lp1006
I3
aV"CEN_Northeast"
p1007
aV"NDC_Southeast"
p1008
aa(lp1009
I3
aV"CEN_Northeast"
p1010
aV"NDC_Midwest"
p1011
aa(lp1012
I3
aV"CEN_South"
p1013
aV"NDC_Midwest"
p1014
aa(lp1015
I3
aV"CEN_West"
p1016
aV"NDC_Midwest"
p1017
aa(lp1018
I3
aV"CEN_Midwest"
p1019
aV"NDC_West"
p1020
aa(lp1021
I3
aV"CEN_Midwest"
p1022
aV"NDC_Southwest"
p1023
aa(lp1024
I3
aV"CEN_Midwest"
p1025
aV"NDC_Southeast"
p1026
aa(lp1027
I3
aV"CEN_Midwest"
p1028
aV"NDC_Northeast"
p1029
aa(lp1030
I3
aV"NDC_Northeast"
p1031
aV"CEN_Midwest"
p1032
aa(lp1033
I3
aV"NDC_Southeast"
p1034
aV"CEN_Midwest"
p1035
aa(lp1036
I3
aV"NDC_Southwest"
p1037
aV"CEN_Midwest"
p1038
aa(lp1039
I3
aV"NDC_West"
p1040
aV"CEN_Midwest"
p1041
aa(lp1042
I3
aV"NDC_Midwest"
p1043
aV"CEN_West"
p1044
aa(lp1045
I3
aV"NDC_Midwest"
p1046
aV"CEN_South"
p1047
aa(lp1048
I3
aV"NDC_Midwest"
p1049
aV"CEN_Northeast"
p1050
aa(lp1051
I3
aV"NDC_Southeast"
p1052
aV"CEN_Northeast"
p1053
aa(lp1054
I3
aV"NDC_Southwest"
p1055
aV"CEN_Northeast"
p1056
aa(lp1057
I3
aV"NDC_West"
p1058
aV"CEN_Northeast"
p1059
aa(lp1060
I3
aV"NDC_West"
p1061
aV"CEN_South"
p1062
aa(lp1063
I3
aV"NDC_Southeast"
p1064
aV"CEN_West"
p1065
aa(lp1066
I3
aV"CEN_South"
p1067
aV"NDC_West"
p1068
aa(lp1069
I3
aV"CEN_West"
p1070
aV"NDC_Southeast"
p1071
aa(lp1072
I3
aV"NDC_Southwest"
p1073
aV"CEN_West"
p1074
aa(lp1075
I3
aV"CEN_West"
p1076
aV"NDC_Southwest"
p1077
aaa(lp1078
(lp1079
I3
aV"CEN_Northeast"
p1080
aV"NDC_Northeast"
p1081
aa(lp1082
I3
aV"CEN_Northeast"
p1083
aV"CEN_USA"
p1084
aa(lp1085
I3
aV"CEN_Midwest"
p1086
aV"CEN_USA"
p1087
aa(lp1088
I3
aV"CEN_South"
p1089
aV"CEN_USA"
p1090
aa(lp1091
I3
aV"CEN_West"
p1092
aV"CEN_USA"
p1093
aa(lp1094
I3
aV"NDC_Midwest"
p1095
aV"NDC_USA"
p1096
aa(lp1097
I3
aV"NDC_Northeast"
p1098
aV"NDC_USA"
p1099
aa(lp1100
I3
aV"NDC_Southeast"
p1101
aV"NDC_USA"
p1102
aa(lp1103
I3
aV"NDC_Southwest"
p1104
aV"NDC_USA"
p1105
aa(lp1106
I3
aV"NDC_West"
p1107
aV"NDC_USA"
p1108
aa(lp1109
I3
aV"NDC_Southeast"
p1110
aV"CEN_South"
p1111
aa(lp1112
I3
aV"NDC_West"
p1113
aV"CEN_West"
p1114
aa(lp1115
I3
aV"CEN_Northeast"
p1116
aV"NDC_USA"
p1117
aa(lp1118
I3
aV"CEN_Midwest"
p1119
aV"NDC_USA"
p1120
aa(lp1121
I3
aV"CEN_South"
p1122
aV"NDC_USA"
p1123
aa(lp1124
I3
aV"CEN_West"
p1125
aV"NDC_USA"
p1126
aa(lp1127
I3
aV"NDC_West"
p1128
aV"CEN_USA"
p1129
aa(lp1130
I3
aV"NDC_Southeast"
p1131
aV"CEN_USA"
p1132
aa(lp1133
I3
aV"NDC_Southwest"
p1134
aV"CEN_USA"
p1135
aa(lp1136
I3
aV"NDC_Northeast"
p1137
aV"CEN_USA"
p1138
aa(lp1139
I3
aV"NDC_Midwest"
p1140
aV"CEN_USA"
p1141
aaa(lp1142
(lp1143
I3
aV"CEN_West"
p1144
aV"NDC_West"
p1145
aa(lp1146
I3
aV"CEN_South"
p1147
aV"NDC_Southeast"
p1148
aa(lp1149
I3
aV"NDC_USA"
p1150
aV"NDC_West"
p1151
aa(lp1152
I3
aV"NDC_USA"
p1153
aV"NDC_Southwest"
p1154
aa(lp1155
I3
aV"NDC_USA"
p1156
aV"NDC_Southeast"
p1157
aa(lp1158
I3
aV"NDC_USA"
p1159
aV"NDC_Northeast"
p1160
aa(lp1161
I3
aV"NDC_USA"
p1162
aV"NDC_Midwest"
p1163
aa(lp1164
I3
aV"CEN_USA"
p1165
aV"CEN_West"
p1166
aa(lp1167
I3
aV"CEN_USA"
p1168
aV"CEN_South"
p1169
aa(lp1170
I3
aV"CEN_USA"
p1171
aV"CEN_Midwest"
p1172
aa(lp1173
I3
aV"CEN_USA"
p1174
aV"CEN_Northeast"
p1175
aa(lp1176
I3
aV"NDC_Northeast"
p1177
aV"CEN_Northeast"
p1178
aa(lp1179
I3
aV"NDC_USA"
p1180
aV"CEN_West"
p1181
aa(lp1182
I3
aV"NDC_USA"
p1183
aV"CEN_South"
p1184
aa(lp1185
I3
aV"NDC_USA"
p1186
aV"CEN_Midwest"
p1187
aa(lp1188
I3
aV"NDC_USA"
p1189
aV"CEN_Northeast"
p1190
aa(lp1191
I3
aV"CEN_USA"
p1192
aV"NDC_Southeast"
p1193
aa(lp1194
I3
aV"CEN_USA"
p1195
aV"NDC_West"
p1196
aa(lp1197
I3
aV"CEN_USA"
p1198
aV"NDC_Midwest"
p1199
aa(lp1200
I3
aV"CEN_USA"
p1201
aV"NDC_Northeast"
p1202
aa(lp1203
I3
aV"CEN_USA"
p1204
aV"NDC_Southwest"
p1205
aaa(lp1206
(lp1207
I3
aV"CEN_South"
p1208
aV"NDC_Southwest"
p1209
aa(lp1210
I3
aV"NDC_Southwest"
p1211
aV"CEN_South"
p1212
aa(lp1213
I3
aV"CEN_South"
p1214
aV"NDC_Northeast"
p1215
aa(lp1216
I3
aV"NDC_Northeast"
p1217
aV"CEN_South"
p1218
aaa(lp1219
(lp1220
I3
aV"CEN_Northeast"
p1221
aa(lp1222
I3
aV"CEN_Midwest"
p1223
aa(lp1224
I3
aV"CEN_South"
p1225
aa(lp1226
I3
aV"CEN_West"
p1227
aa(lp1228
I3
aV"NDC_Midwest"
p1229
aa(lp1230
I3
aV"NDC_Northeast"
p1231
aa(lp1232
I3
aV"NDC_Southeast"
p1233
aa(lp1234
I3
aV"NDC_Southwest"
p1235
aa(lp1236
I3
aV"NDC_West"
p1237
aa(lp1238
I3
aV"CEN_USA"
p1239
aa(lp1240
I3
aV"NDC_USA"
p1241
aaa(lp1242
(lp1243
I3
aV"CEN_USA"
p1244
aV"CEN_Northeast"
p1245
aa(lp1246
I3
aV"CEN_USA"
p1247
aV"CEN_Midwest"
p1248
aa(lp1249
I3
aV"CEN_USA"
p1250
aV"CEN_South"
p1251
aa(lp1252
I3
aV"CEN_USA"
p1253
aV"CEN_West"
p1254
aa(lp1255
I3
aV"NDC_USA"
p1256
aV"NDC_Midwest"
p1257
aa(lp1258
I3
aV"NDC_USA"
p1259
aV"NDC_Northeast"
p1260
aa(lp1261
I3
aV"NDC_USA"
p1262
aV"NDC_Southeast"
p1263
aa(lp1264
I3
aV"NDC_USA"
p1265
aV"NDC_Southwest"
p1266
aa(lp1267
I3
aV"NDC_USA"
p1268
aV"NDC_West"
p1269
aaasba(ihelper
PossibleWorld
p1270
(dp1271
g3
I4
sg4
I0
sg5
(lp1272
(lp1273
(lp1274
I4
aV"CEN_USA"
p1275
aV"NDC_USA"
p1276
aa(lp1277
I4
aV"CEN_Midwest"
p1278
aV"NDC_Midwest"
p1279
aa(lp1280
I4
aV"NDC_Midwest"
p1281
aV"CEN_Midwest"
p1282
aa(lp1283
I4
aV"NDC_USA"
p1284
aV"CEN_USA"
p1285
aa(lp1286
I4
aV"NDC_USA"
p1287
aV"NDC_USA"
p1288
aa(lp1289
I4
aV"CEN_USA"
p1290
aV"CEN_USA"
p1291
aa(lp1292
I4
aV"NDC_West"
p1293
aV"NDC_West"
p1294
aa(lp1295
I4
aV"NDC_Southwest"
p1296
aV"NDC_Southwest"
p1297
aa(lp1298
I4
aV"NDC_Southeast"
p1299
aV"NDC_Southeast"
p1300
aa(lp1301
I4
aV"NDC_Northeast"
p1302
aV"NDC_Northeast"
p1303
aa(lp1304
I4
aV"NDC_Midwest"
p1305
aV"NDC_Midwest"
p1306
aa(lp1307
I4
aV"CEN_West"
p1308
aV"CEN_West"
p1309
aa(lp1310
I4
aV"CEN_South"
p1311
aV"CEN_South"
p1312
aa(lp1313
I4
aV"CEN_Midwest"
p1314
aV"CEN_Midwest"
p1315
aa(lp1316
I4
aV"CEN_Northeast"
p1317
aV"CEN_Northeast"
p1318
aaa(lp1319
(lp1320
I4
aV"CEN_West"
p1321
aV"NDC_Northeast"
p1322
aa(lp1323
I4
aV"CEN_Midwest"
p1324
aV"CEN_Northeast"
p1325
aa(lp1326
I4
aV"CEN_South"
p1327
aV"CEN_Northeast"
p1328
aa(lp1329
I4
aV"CEN_West"
p1330
aV"CEN_Northeast"
p1331
aa(lp1332
I4
aV"CEN_Northeast"
p1333
aV"CEN_Midwest"
p1334
aa(lp1335
I4
aV"CEN_South"
p1336
aV"CEN_Midwest"
p1337
aa(lp1338
I4
aV"CEN_West"
p1339
aV"CEN_Midwest"
p1340
aa(lp1341
I4
aV"CEN_Northeast"
p1342
aV"CEN_South"
p1343
aa(lp1344
I4
aV"CEN_Midwest"
p1345
aV"CEN_South"
p1346
aa(lp1347
I4
aV"CEN_West"
p1348
aV"CEN_South"
p1349
aa(lp1350
I4
aV"CEN_Northeast"
p1351
aV"CEN_West"
p1352
aa(lp1353
I4
aV"CEN_Midwest"
p1354
aV"CEN_West"
p1355
aa(lp1356
I4
aV"CEN_South"
p1357
aV"CEN_West"
p1358
aa(lp1359
I4
aV"NDC_Northeast"
p1360
aV"NDC_Midwest"
p1361
aa(lp1362
I4
aV"NDC_Southeast"
p1363
aV"NDC_Midwest"
p1364
aa(lp1365
I4
aV"NDC_Southwest"
p1366
aV"NDC_Midwest"
p1367
aa(lp1368
I4
aV"NDC_West"
p1369
aV"NDC_Midwest"
p1370
aa(lp1371
I4
aV"NDC_Midwest"
p1372
aV"NDC_Northeast"
p1373
aa(lp1374
I4
aV"NDC_Southeast"
p1375
aV"NDC_Northeast"
p1376
aa(lp1377
I4
aV"NDC_Southwest"
p1378
aV"NDC_Northeast"
p1379
aa(lp1380
I4
aV"NDC_West"
p1381
aV"NDC_Northeast"
p1382
aa(lp1383
I4
aV"NDC_Midwest"
p1384
aV"NDC_Southeast"
p1385
aa(lp1386
I4
aV"NDC_Northeast"
p1387
aV"NDC_Southeast"
p1388
aa(lp1389
I4
aV"NDC_Southwest"
p1390
aV"NDC_Southeast"
p1391
aa(lp1392
I4
aV"NDC_West"
p1393
aV"NDC_Southeast"
p1394
aa(lp1395
I4
aV"NDC_Midwest"
p1396
aV"NDC_Southwest"
p1397
aa(lp1398
I4
aV"NDC_Northeast"
p1399
aV"NDC_Southwest"
p1400
aa(lp1401
I4
aV"NDC_Southeast"
p1402
aV"NDC_Southwest"
p1403
aa(lp1404
I4
aV"NDC_West"
p1405
aV"NDC_Southwest"
p1406
aa(lp1407
I4
aV"NDC_Midwest"
p1408
aV"NDC_West"
p1409
aa(lp1410
I4
aV"NDC_Northeast"
p1411
aV"NDC_West"
p1412
aa(lp1413
I4
aV"NDC_Southeast"
p1414
aV"NDC_West"
p1415
aa(lp1416
I4
aV"NDC_Southwest"
p1417
aV"NDC_West"
p1418
aa(lp1419
I4
aV"NDC_Northeast"
p1420
aV"CEN_West"
p1421
aa(lp1422
I4
aV"CEN_Northeast"
p1423
aV"NDC_West"
p1424
aa(lp1425
I4
aV"CEN_Northeast"
p1426
aV"NDC_Southwest"
p1427
aa(lp1428
I4
aV"CEN_Northeast"
p1429
aV"NDC_Southeast"
p1430
aa(lp1431
I4
aV"CEN_Northeast"
p1432
aV"NDC_Midwest"
p1433
aa(lp1434
I4
aV"CEN_South"
p1435
aV"NDC_Midwest"
p1436
aa(lp1437
I4
aV"CEN_West"
p1438
aV"NDC_Midwest"
p1439
aa(lp1440
I4
aV"CEN_Midwest"
p1441
aV"NDC_West"
p1442
aa(lp1443
I4
aV"CEN_Midwest"
p1444
aV"NDC_Southwest"
p1445
aa(lp1446
I4
aV"CEN_Midwest"
p1447
aV"NDC_Southeast"
p1448
aa(lp1449
I4
aV"CEN_Midwest"
p1450
aV"NDC_Northeast"
p1451
aa(lp1452
I4
aV"NDC_Northeast"
p1453
aV"CEN_Midwest"
p1454
aa(lp1455
I4
aV"NDC_Southeast"
p1456
aV"CEN_Midwest"
p1457
aa(lp1458
I4
aV"NDC_Southwest"
p1459
aV"CEN_Midwest"
p1460
aa(lp1461
I4
aV"NDC_West"
p1462
aV"CEN_Midwest"
p1463
aa(lp1464
I4
aV"NDC_Midwest"
p1465
aV"CEN_West"
p1466
aa(lp1467
I4
aV"NDC_Midwest"
p1468
aV"CEN_South"
p1469
aa(lp1470
I4
aV"NDC_Midwest"
p1471
aV"CEN_Northeast"
p1472
aa(lp1473
I4
aV"NDC_Southeast"
p1474
aV"CEN_Northeast"
p1475
aa(lp1476
I4
aV"NDC_Southwest"
p1477
aV"CEN_Northeast"
p1478
aa(lp1479
I4
aV"NDC_West"
p1480
aV"CEN_Northeast"
p1481
aa(lp1482
I4
aV"NDC_West"
p1483
aV"CEN_South"
p1484
aa(lp1485
I4
aV"NDC_Southeast"
p1486
aV"CEN_West"
p1487
aa(lp1488
I4
aV"CEN_South"
p1489
aV"NDC_West"
p1490
aa(lp1491
I4
aV"CEN_West"
p1492
aV"NDC_Southeast"
p1493
aa(lp1494
I4
aV"CEN_South"
p1495
aV"NDC_Northeast"
p1496
aa(lp1497
I4
aV"NDC_Northeast"
p1498
aV"CEN_South"
p1499
aa(lp1500
I4
aV"NDC_Southwest"
p1501
aV"CEN_West"
p1502
aa(lp1503
I4
aV"CEN_West"
p1504
aV"NDC_Southwest"
p1505
aaa(lp1506
(lp1507
I4
aV"CEN_Northeast"
p1508
aV"NDC_Northeast"
p1509
aa(lp1510
I4
aV"CEN_Northeast"
p1511
aV"CEN_USA"
p1512
aa(lp1513
I4
aV"CEN_Midwest"
p1514
aV"CEN_USA"
p1515
aa(lp1516
I4
aV"CEN_South"
p1517
aV"CEN_USA"
p1518
aa(lp1519
I4
aV"CEN_West"
p1520
aV"CEN_USA"
p1521
aa(lp1522
I4
aV"NDC_Midwest"
p1523
aV"NDC_USA"
p1524
aa(lp1525
I4
aV"NDC_Northeast"
p1526
aV"NDC_USA"
p1527
aa(lp1528
I4
aV"NDC_Southeast"
p1529
aV"NDC_USA"
p1530
aa(lp1531
I4
aV"NDC_Southwest"
p1532
aV"NDC_USA"
p1533
aa(lp1534
I4
aV"NDC_West"
p1535
aV"NDC_USA"
p1536
aa(lp1537
I4
aV"NDC_Southeast"
p1538
aV"CEN_South"
p1539
aa(lp1540
I4
aV"NDC_West"
p1541
aV"CEN_West"
p1542
aa(lp1543
I4
aV"CEN_Northeast"
p1544
aV"NDC_USA"
p1545
aa(lp1546
I4
aV"CEN_Midwest"
p1547
aV"NDC_USA"
p1548
aa(lp1549
I4
aV"CEN_South"
p1550
aV"NDC_USA"
p1551
aa(lp1552
I4
aV"CEN_West"
p1553
aV"NDC_USA"
p1554
aa(lp1555
I4
aV"NDC_West"
p1556
aV"CEN_USA"
p1557
aa(lp1558
I4
aV"NDC_Southeast"
p1559
aV"CEN_USA"
p1560
aa(lp1561
I4
aV"NDC_Southwest"
p1562
aV"CEN_USA"
p1563
aa(lp1564
I4
aV"NDC_Northeast"
p1565
aV"CEN_USA"
p1566
aa(lp1567
I4
aV"NDC_Midwest"
p1568
aV"CEN_USA"
p1569
aaa(lp1570
(lp1571
I4
aV"CEN_West"
p1572
aV"NDC_West"
p1573
aa(lp1574
I4
aV"CEN_South"
p1575
aV"NDC_Southeast"
p1576
aa(lp1577
I4
aV"NDC_USA"
p1578
aV"NDC_West"
p1579
aa(lp1580
I4
aV"NDC_USA"
p1581
aV"NDC_Southwest"
p1582
aa(lp1583
I4
aV"NDC_USA"
p1584
aV"NDC_Southeast"
p1585
aa(lp1586
I4
aV"NDC_USA"
p1587
aV"NDC_Northeast"
p1588
aa(lp1589
I4
aV"NDC_USA"
p1590
aV"NDC_Midwest"
p1591
aa(lp1592
I4
aV"CEN_USA"
p1593
aV"CEN_West"
p1594
aa(lp1595
I4
aV"CEN_USA"
p1596
aV"CEN_South"
p1597
aa(lp1598
I4
aV"CEN_USA"
p1599
aV"CEN_Midwest"
p1600
aa(lp1601
I4
aV"CEN_USA"
p1602
aV"CEN_Northeast"
p1603
aa(lp1604
I4
aV"NDC_Northeast"
p1605
aV"CEN_Northeast"
p1606
aa(lp1607
I4
aV"NDC_USA"
p1608
aV"CEN_West"
p1609
aa(lp1610
I4
aV"NDC_USA"
p1611
aV"CEN_South"
p1612
aa(lp1613
I4
aV"NDC_USA"
p1614
aV"CEN_Midwest"
p1615
aa(lp1616
I4
aV"NDC_USA"
p1617
aV"CEN_Northeast"
p1618
aa(lp1619
I4
aV"CEN_USA"
p1620
aV"NDC_Southeast"
p1621
aa(lp1622
I4
aV"CEN_USA"
p1623
aV"NDC_West"
p1624
aa(lp1625
I4
aV"CEN_USA"
p1626
aV"NDC_Midwest"
p1627
aa(lp1628
I4
aV"CEN_USA"
p1629
aV"NDC_Northeast"
p1630
aa(lp1631
I4
aV"CEN_USA"
p1632
aV"NDC_Southwest"
p1633
aaa(lp1634
(lp1635
I4
aV"CEN_South"
p1636
aV"NDC_Southwest"
p1637
aa(lp1638
I4
aV"NDC_Southwest"
p1639
aV"CEN_South"
p1640
aaa(lp1641
(lp1642
I4
aV"CEN_Northeast"
p1643
aa(lp1644
I4
aV"CEN_Midwest"
p1645
aa(lp1646
I4
aV"CEN_South"
p1647
aa(lp1648
I4
aV"CEN_West"
p1649
aa(lp1650
I4
aV"NDC_Midwest"
p1651
aa(lp1652
I4
aV"NDC_Northeast"
p1653
aa(lp1654
I4
aV"NDC_Southeast"
p1655
aa(lp1656
I4
aV"NDC_Southwest"
p1657
aa(lp1658
I4
aV"NDC_West"
p1659
aa(lp1660
I4
aV"CEN_USA"
p1661
aa(lp1662
I4
aV"NDC_USA"
p1663
aaa(lp1664
(lp1665
I4
aV"CEN_USA"
p1666
aV"CEN_Northeast"
p1667
aa(lp1668
I4
aV"CEN_USA"
p1669
aV"CEN_Midwest"
p1670
aa(lp1671
I4
aV"CEN_USA"
p1672
aV"CEN_South"
p1673
aa(lp1674
I4
aV"CEN_USA"
p1675
aV"CEN_West"
p1676
aa(lp1677
I4
aV"NDC_USA"
p1678
aV"NDC_Midwest"
p1679
aa(lp1680
I4
aV"NDC_USA"
p1681
aV"NDC_Northeast"
p1682
aa(lp1683
I4
aV"NDC_USA"
p1684
aV"NDC_Southeast"
p1685
aa(lp1686
I4
aV"NDC_USA"
p1687
aV"NDC_Southwest"
p1688
aa(lp1689
I4
aV"NDC_USA"
p1690
aV"NDC_West"
p1691
aaasba.