(lp0
(ihelper
PossibleWorld
p1
(dp2
S'pw_id'
p3
I1
sS'pw_soln'
p4
I0
sS'rls'
p5
(lp6
(lp7
(lp8
I1
aVcCEN_West
p9
aVcNDC_USA
p10
aV"<"
p11
aa(lp12
I1
aVcCEN_Northeast
p13
aVcNDC_USA
p14
aV"<"
p15
aa(lp16
I1
aVcCEN_Midwest
p17
aVcNDC_USA
p18
aV"<"
p19
aa(lp20
I1
aVcCEN_South
p21
aVcNDC_USA
p22
aV"<"
p23
aa(lp24
I1
aVcCEN_USA
p25
aVcNDC_USA
p26
aV"="
p27
aa(lp28
I1
aVcCEN_Midwest
p29
aVcNDC_Midwest
p30
aV"="
p31
aa(lp32
I1
aVcCEN_USA
p33
aVcNDC_Northeast
p34
aV">"
p35
aa(lp36
I1
aVcCEN_USA
p37
aVcNDC_West
p38
aV">"
p39
aa(lp40
I1
aVcCEN_USA
p41
aVcNDC_Southeast
p42
aV">"
p43
aa(lp44
I1
aVcCEN_USA
p45
aVcNDC_Midwest
p46
aV">"
p47
aa(lp48
I1
aVcCEN_USA
p49
aVcNDC_Southwest
p50
aV">"
p51
aa(lp52
I1
aVcCEN_West
p53
aVcNDC_West
p54
aV">"
p55
aa(lp56
I1
aVcCEN_South
p57
aVcNDC_Southeast
p58
aV">"
p59
aa(lp60
I1
aVcCEN_West
p61
aVcNDC_Southwest
p62
aV"><"
p63
aa(lp64
I1
aVcCEN_South
p65
aVcNDC_Southwest
p66
aV"><"
p67
aa(lp68
I1
aVcCEN_West
p69
aVcNDC_Southeast
p70
aV"!"
p71
aa(lp72
I1
aVcCEN_West
p73
aVcNDC_Midwest
p74
aV"!"
p75
aa(lp76
I1
aVcCEN_Northeast
p77
aVcNDC_West
p78
aV"!"
p79
aa(lp80
I1
aVcCEN_Northeast
p81
aVcNDC_Southeast
p82
aV"!"
p83
aa(lp84
I1
aVcCEN_Northeast
p85
aVcNDC_Midwest
p86
aV"!"
p87
aa(lp88
I1
aVcCEN_Northeast
p89
aVcNDC_Southwest
p90
aV"!"
p91
aa(lp92
I1
aVcCEN_Midwest
p93
aVcNDC_Northeast
p94
aV"!"
p95
aa(lp96
I1
aVcCEN_Midwest
p97
aVcNDC_West
p98
aV"!"
p99
aa(lp100
I1
aVcCEN_Midwest
p101
aVcNDC_Southeast
p102
aV"!"
p103
aa(lp104
I1
aVcCEN_Midwest
p105
aVcNDC_Southwest
p106
aV"!"
p107
aa(lp108
I1
aVcCEN_South
p109
aVcNDC_West
p110
aV"!"
p111
aa(lp112
I1
aVcCEN_South
p113
aVcNDC_Midwest
p114
aV"!"
p115
aa(lp116
I1
aVcCEN_Northeast
p117
aVcNDC_Northeast
p118
aV"<"
p119
aa(lp120
I1
aVcCEN_South
p121
aVcNDC_Northeast
p122
aV"><"
p123
aa(lp124
I1
aVcCEN_West
p125
aVcNDC_Northeast
p126
aV"!"
p127
aaasba(ihelper
PossibleWorld
p128
(dp129
g3
I2
sg4
I0
sg5
(lp130
(lp131
(lp132
I2
aVcCEN_West
p133
aVcNDC_USA
p134
aV"<"
p135
aa(lp136
I2
aVcCEN_Northeast
p137
aVcNDC_USA
p138
aV"<"
p139
aa(lp140
I2
aVcCEN_Midwest
p141
aVcNDC_USA
p142
aV"<"
p143
aa(lp144
I2
aVcCEN_South
p145
aVcNDC_USA
p146
aV"<"
p147
aa(lp148
I2
aVcCEN_USA
p149
aVcNDC_USA
p150
aV"="
p151
aa(lp152
I2
aVcCEN_Midwest
p153
aVcNDC_Midwest
p154
aV"="
p155
aa(lp156
I2
aVcCEN_USA
p157
aVcNDC_Northeast
p158
aV">"
p159
aa(lp160
I2
aVcCEN_USA
p161
aVcNDC_West
p162
aV">"
p163
aa(lp164
I2
aVcCEN_USA
p165
aVcNDC_Southeast
p166
aV">"
p167
aa(lp168
I2
aVcCEN_USA
p169
aVcNDC_Midwest
p170
aV">"
p171
aa(lp172
I2
aVcCEN_USA
p173
aVcNDC_Southwest
p174
aV">"
p175
aa(lp176
I2
aVcCEN_West
p177
aVcNDC_West
p178
aV">"
p179
aa(lp180
I2
aVcCEN_South
p181
aVcNDC_Southeast
p182
aV">"
p183
aa(lp184
I2
aVcCEN_West
p185
aVcNDC_Southwest
p186
aV"><"
p187
aa(lp188
I2
aVcCEN_South
p189
aVcNDC_Southwest
p190
aV"><"
p191
aa(lp192
I2
aVcCEN_West
p193
aVcNDC_Southeast
p194
aV"!"
p195
aa(lp196
I2
aVcCEN_West
p197
aVcNDC_Midwest
p198
aV"!"
p199
aa(lp200
I2
aVcCEN_Northeast
p201
aVcNDC_West
p202
aV"!"
p203
aa(lp204
I2
aVcCEN_Northeast
p205
aVcNDC_Southeast
p206
aV"!"
p207
aa(lp208
I2
aVcCEN_Northeast
p209
aVcNDC_Midwest
p210
aV"!"
p211
aa(lp212
I2
aVcCEN_Northeast
p213
aVcNDC_Southwest
p214
aV"!"
p215
aa(lp216
I2
aVcCEN_Midwest
p217
aVcNDC_Northeast
p218
aV"!"
p219
aa(lp220
I2
aVcCEN_Midwest
p221
aVcNDC_West
p222
aV"!"
p223
aa(lp224
I2
aVcCEN_Midwest
p225
aVcNDC_Southeast
p226
aV"!"
p227
aa(lp228
I2
aVcCEN_Midwest
p229
aVcNDC_Southwest
p230
aV"!"
p231
aa(lp232
I2
aVcCEN_South
p233
aVcNDC_West
p234
aV"!"
p235
aa(lp236
I2
aVcCEN_South
p237
aVcNDC_Midwest
p238
aV"!"
p239
aa(lp240
I2
aVcCEN_Northeast
p241
aVcNDC_Northeast
p242
aV"<"
p243
aa(lp244
I2
aVcCEN_West
p245
aVcNDC_Northeast
p246
aV"><"
p247
aa(lp248
I2
aVcCEN_South
p249
aVcNDC_Northeast
p250
aV"!"
p251
aaasba(ihelper
PossibleWorld
p252
(dp253
g3
I3
sg4
I0
sg5
(lp254
(lp255
(lp256
I3
aVcCEN_West
p257
aVcNDC_USA
p258
aV"<"
p259
aa(lp260
I3
aVcCEN_Northeast
p261
aVcNDC_USA
p262
aV"<"
p263
aa(lp264
I3
aVcCEN_Midwest
p265
aVcNDC_USA
p266
aV"<"
p267
aa(lp268
I3
aVcCEN_South
p269
aVcNDC_USA
p270
aV"<"
p271
aa(lp272
I3
aVcCEN_USA
p273
aVcNDC_USA
p274
aV"="
p275
aa(lp276
I3
aVcCEN_Midwest
p277
aVcNDC_Midwest
p278
aV"="
p279
aa(lp280
I3
aVcCEN_USA
p281
aVcNDC_Northeast
p282
aV">"
p283
aa(lp284
I3
aVcCEN_USA
p285
aVcNDC_West
p286
aV">"
p287
aa(lp288
I3
aVcCEN_USA
p289
aVcNDC_Southeast
p290
aV">"
p291
aa(lp292
I3
aVcCEN_USA
p293
aVcNDC_Midwest
p294
aV">"
p295
aa(lp296
I3
aVcCEN_USA
p297
aVcNDC_Southwest
p298
aV">"
p299
aa(lp300
I3
aVcCEN_West
p301
aVcNDC_West
p302
aV">"
p303
aa(lp304
I3
aVcCEN_South
p305
aVcNDC_Southeast
p306
aV">"
p307
aa(lp308
I3
aVcCEN_West
p309
aVcNDC_Southwest
p310
aV"><"
p311
aa(lp312
I3
aVcCEN_South
p313
aVcNDC_Southwest
p314
aV"><"
p315
aa(lp316
I3
aVcCEN_West
p317
aVcNDC_Southeast
p318
aV"!"
p319
aa(lp320
I3
aVcCEN_West
p321
aVcNDC_Midwest
p322
aV"!"
p323
aa(lp324
I3
aVcCEN_Northeast
p325
aVcNDC_West
p326
aV"!"
p327
aa(lp328
I3
aVcCEN_Northeast
p329
aVcNDC_Southeast
p330
aV"!"
p331
aa(lp332
I3
aVcCEN_Northeast
p333
aVcNDC_Midwest
p334
aV"!"
p335
aa(lp336
I3
aVcCEN_Northeast
p337
aVcNDC_Southwest
p338
aV"!"
p339
aa(lp340
I3
aVcCEN_Midwest
p341
aVcNDC_Northeast
p342
aV"!"
p343
aa(lp344
I3
aVcCEN_Midwest
p345
aVcNDC_West
p346
aV"!"
p347
aa(lp348
I3
aVcCEN_Midwest
p349
aVcNDC_Southeast
p350
aV"!"
p351
aa(lp352
I3
aVcCEN_Midwest
p353
aVcNDC_Southwest
p354
aV"!"
p355
aa(lp356
I3
aVcCEN_South
p357
aVcNDC_West
p358
aV"!"
p359
aa(lp360
I3
aVcCEN_South
p361
aVcNDC_Midwest
p362
aV"!"
p363
aa(lp364
I3
aVcCEN_Northeast
p365
aVcNDC_Northeast
p366
aV"<"
p367
aa(lp368
I3
aVcCEN_West
p369
aVcNDC_Northeast
p370
aV"><"
p371
aa(lp372
I3
aVcCEN_South
p373
aVcNDC_Northeast
p374
aV"><"
p375
aaasba.