(lp0
(ihelper
PossibleWorld
p1
(dp2
S'pw_id'
p3
I1
sS'pw_soln'
p4
I0
sS'rls'
p5
(lp6
(lp7
(lp8
I1
aVcCEN_West
p9
aVcNDC_USA
p10
aV"<"
p11
aa(lp12
I1
aVcCEN_Midwest
p13
aVcNDC_USA
p14
aV"<"
p15
aa(lp16
I1
aVcCEN_South
p17
aVcNDC_USA
p18
aV"<"
p19
aa(lp20
I1
aVcCEN_USA
p21
aVcNDC_USA
p22
aV"="
p23
aa(lp24
I1
aVcCEN_Midwest
p25
aVcNDC_Midwest
p26
aV"="
p27
aa(lp28
I1
aVcCEN_USA
p29
aVcNDC_West
p30
aV">"
p31
aa(lp32
I1
aVcCEN_USA
p33
aVcNDC_Southeast
p34
aV">"
p35
aa(lp36
I1
aVcCEN_USA
p37
aVcNDC_Midwest
p38
aV">"
p39
aa(lp40
I1
aVcCEN_USA
p41
aVcNDC_Southwest
p42
aV">"
p43
aa(lp44
I1
aVcCEN_West
p45
aVcNDC_West
p46
aV">"
p47
aa(lp48
I1
aVcCEN_South
p49
aVcNDC_Southeast
p50
aV">"
p51
aa(lp52
I1
aVcCEN_West
p53
aVcNDC_Southwest
p54
aV"><"
p55
aa(lp56
I1
aVcCEN_South
p57
aVcNDC_Southwest
p58
aV"><"
p59
aa(lp60
I1
aVcCEN_West
p61
aVcNDC_Southeast
p62
aV"!"
p63
aa(lp64
I1
aVcCEN_West
p65
aVcNDC_Midwest
p66
aV"!"
p67
aa(lp68
I1
aVcCEN_Midwest
p69
aVcNDC_West
p70
aV"!"
p71
aa(lp72
I1
aVcCEN_Midwest
p73
aVcNDC_Southeast
p74
aV"!"
p75
aa(lp76
I1
aVcCEN_Midwest
p77
aVcNDC_Southwest
p78
aV"!"
p79
aa(lp80
I1
aVcCEN_South
p81
aVcNDC_West
p82
aV"!"
p83
aa(lp84
I1
aVcCEN_South
p85
aVcNDC_Midwest
p86
aV"!"
p87
aa(lp88
I1
aVcCEN_Northeast
p89
aVcNDC_USA
p90
aV"<"
p91
aa(lp92
I1
aVcCEN_Northeast
p93
aVcNDC_Southwest
p94
aV"<"
p95
aa(lp96
I1
aVcCEN_USA
p97
aVcNDC_Northeast
p98
aV">"
p99
aa(lp100
I1
aVcCEN_South
p101
aVcNDC_Northeast
p102
aV">"
p103
aa(lp104
I1
aVcCEN_West
p105
aVcNDC_Northeast
p106
aV"!"
p107
aa(lp108
I1
aVcCEN_Northeast
p109
aVcNDC_Northeast
p110
aV"!"
p111
aa(lp112
I1
aVcCEN_Northeast
p113
aVcNDC_West
p114
aV"!"
p115
aa(lp116
I1
aVcCEN_Northeast
p117
aVcNDC_Southeast
p118
aV"!"
p119
aa(lp120
I1
aVcCEN_Northeast
p121
aVcNDC_Midwest
p122
aV"!"
p123
aa(lp124
I1
aVcCEN_Midwest
p125
aVcNDC_Northeast
p126
aV"!"
p127
aaasba(ihelper
PossibleWorld
p128
(dp129
g3
I2
sg4
I0
sg5
(lp130
(lp131
(lp132
I2
aVcCEN_West
p133
aVcNDC_USA
p134
aV"<"
p135
aa(lp136
I2
aVcCEN_Midwest
p137
aVcNDC_USA
p138
aV"<"
p139
aa(lp140
I2
aVcCEN_South
p141
aVcNDC_USA
p142
aV"<"
p143
aa(lp144
I2
aVcCEN_USA
p145
aVcNDC_USA
p146
aV"="
p147
aa(lp148
I2
aVcCEN_Midwest
p149
aVcNDC_Midwest
p150
aV"="
p151
aa(lp152
I2
aVcCEN_USA
p153
aVcNDC_West
p154
aV">"
p155
aa(lp156
I2
aVcCEN_USA
p157
aVcNDC_Southeast
p158
aV">"
p159
aa(lp160
I2
aVcCEN_USA
p161
aVcNDC_Midwest
p162
aV">"
p163
aa(lp164
I2
aVcCEN_USA
p165
aVcNDC_Southwest
p166
aV">"
p167
aa(lp168
I2
aVcCEN_West
p169
aVcNDC_West
p170
aV">"
p171
aa(lp172
I2
aVcCEN_South
p173
aVcNDC_Southeast
p174
aV">"
p175
aa(lp176
I2
aVcCEN_West
p177
aVcNDC_Southwest
p178
aV"><"
p179
aa(lp180
I2
aVcCEN_South
p181
aVcNDC_Southwest
p182
aV"><"
p183
aa(lp184
I2
aVcCEN_West
p185
aVcNDC_Southeast
p186
aV"!"
p187
aa(lp188
I2
aVcCEN_West
p189
aVcNDC_Midwest
p190
aV"!"
p191
aa(lp192
I2
aVcCEN_Midwest
p193
aVcNDC_West
p194
aV"!"
p195
aa(lp196
I2
aVcCEN_Midwest
p197
aVcNDC_Southeast
p198
aV"!"
p199
aa(lp200
I2
aVcCEN_Midwest
p201
aVcNDC_Southwest
p202
aV"!"
p203
aa(lp204
I2
aVcCEN_South
p205
aVcNDC_West
p206
aV"!"
p207
aa(lp208
I2
aVcCEN_South
p209
aVcNDC_Midwest
p210
aV"!"
p211
aa(lp212
I2
aVcCEN_Northeast
p213
aVcNDC_USA
p214
aV"<"
p215
aa(lp216
I2
aVcCEN_Northeast
p217
aVcNDC_Northeast
p218
aV"="
p219
aa(lp220
I2
aVcCEN_USA
p221
aVcNDC_Northeast
p222
aV">"
p223
aa(lp224
I2
aVcCEN_West
p225
aVcNDC_Northeast
p226
aV"!"
p227
aa(lp228
I2
aVcCEN_Northeast
p229
aVcNDC_West
p230
aV"!"
p231
aa(lp232
I2
aVcCEN_Northeast
p233
aVcNDC_Southeast
p234
aV"!"
p235
aa(lp236
I2
aVcCEN_Northeast
p237
aVcNDC_Midwest
p238
aV"!"
p239
aa(lp240
I2
aVcCEN_Northeast
p241
aVcNDC_Southwest
p242
aV"!"
p243
aa(lp244
I2
aVcCEN_Midwest
p245
aVcNDC_Northeast
p246
aV"!"
p247
aa(lp248
I2
aVcCEN_South
p249
aVcNDC_Northeast
p250
aV"!"
p251
aaasba(ihelper
PossibleWorld
p252
(dp253
g3
I3
sg4
I0
sg5
(lp254
(lp255
(lp256
I3
aVcCEN_West
p257
aVcNDC_USA
p258
aV"<"
p259
aa(lp260
I3
aVcCEN_Midwest
p261
aVcNDC_USA
p262
aV"<"
p263
aa(lp264
I3
aVcCEN_South
p265
aVcNDC_USA
p266
aV"<"
p267
aa(lp268
I3
aVcCEN_USA
p269
aVcNDC_USA
p270
aV"="
p271
aa(lp272
I3
aVcCEN_Midwest
p273
aVcNDC_Midwest
p274
aV"="
p275
aa(lp276
I3
aVcCEN_USA
p277
aVcNDC_West
p278
aV">"
p279
aa(lp280
I3
aVcCEN_USA
p281
aVcNDC_Southeast
p282
aV">"
p283
aa(lp284
I3
aVcCEN_USA
p285
aVcNDC_Midwest
p286
aV">"
p287
aa(lp288
I3
aVcCEN_USA
p289
aVcNDC_Southwest
p290
aV">"
p291
aa(lp292
I3
aVcCEN_West
p293
aVcNDC_West
p294
aV">"
p295
aa(lp296
I3
aVcCEN_South
p297
aVcNDC_Southeast
p298
aV">"
p299
aa(lp300
I3
aVcCEN_West
p301
aVcNDC_Southwest
p302
aV"><"
p303
aa(lp304
I3
aVcCEN_South
p305
aVcNDC_Southwest
p306
aV"><"
p307
aa(lp308
I3
aVcCEN_West
p309
aVcNDC_Southeast
p310
aV"!"
p311
aa(lp312
I3
aVcCEN_West
p313
aVcNDC_Midwest
p314
aV"!"
p315
aa(lp316
I3
aVcCEN_Midwest
p317
aVcNDC_West
p318
aV"!"
p319
aa(lp320
I3
aVcCEN_Midwest
p321
aVcNDC_Southeast
p322
aV"!"
p323
aa(lp324
I3
aVcCEN_Midwest
p325
aVcNDC_Southwest
p326
aV"!"
p327
aa(lp328
I3
aVcCEN_South
p329
aVcNDC_West
p330
aV"!"
p331
aa(lp332
I3
aVcCEN_South
p333
aVcNDC_Midwest
p334
aV"!"
p335
aa(lp336
I3
aVcCEN_Northeast
p337
aVcNDC_USA
p338
aV"<"
p339
aa(lp340
I3
aVcCEN_USA
p341
aVcNDC_Northeast
p342
aV">"
p343
aa(lp344
I3
aVcCEN_Northeast
p345
aVcNDC_Northeast
p346
aV">"
p347
aa(lp348
I3
aVcCEN_Northeast
p349
aVcNDC_Southwest
p350
aV"><"
p351
aa(lp352
I3
aVcCEN_West
p353
aVcNDC_Northeast
p354
aV"!"
p355
aa(lp356
I3
aVcCEN_Northeast
p357
aVcNDC_West
p358
aV"!"
p359
aa(lp360
I3
aVcCEN_Northeast
p361
aVcNDC_Southeast
p362
aV"!"
p363
aa(lp364
I3
aVcCEN_Northeast
p365
aVcNDC_Midwest
p366
aV"!"
p367
aa(lp368
I3
aVcCEN_Midwest
p369
aVcNDC_Northeast
p370
aV"!"
p371
aa(lp372
I3
aVcCEN_South
p373
aVcNDC_Northeast
p374
aV"!"
p375
aaasba(ihelper
PossibleWorld
p376
(dp377
g3
I4
sg4
I0
sg5
(lp378
(lp379
(lp380
I4
aVcCEN_West
p381
aVcNDC_USA
p382
aV"<"
p383
aa(lp384
I4
aVcCEN_Midwest
p385
aVcNDC_USA
p386
aV"<"
p387
aa(lp388
I4
aVcCEN_South
p389
aVcNDC_USA
p390
aV"<"
p391
aa(lp392
I4
aVcCEN_USA
p393
aVcNDC_USA
p394
aV"="
p395
aa(lp396
I4
aVcCEN_Midwest
p397
aVcNDC_Midwest
p398
aV"="
p399
aa(lp400
I4
aVcCEN_USA
p401
aVcNDC_West
p402
aV">"
p403
aa(lp404
I4
aVcCEN_USA
p405
aVcNDC_Southeast
p406
aV">"
p407
aa(lp408
I4
aVcCEN_USA
p409
aVcNDC_Midwest
p410
aV">"
p411
aa(lp412
I4
aVcCEN_USA
p413
aVcNDC_Southwest
p414
aV">"
p415
aa(lp416
I4
aVcCEN_West
p417
aVcNDC_West
p418
aV">"
p419
aa(lp420
I4
aVcCEN_South
p421
aVcNDC_Southeast
p422
aV">"
p423
aa(lp424
I4
aVcCEN_West
p425
aVcNDC_Southwest
p426
aV"><"
p427
aa(lp428
I4
aVcCEN_South
p429
aVcNDC_Southwest
p430
aV"><"
p431
aa(lp432
I4
aVcCEN_West
p433
aVcNDC_Southeast
p434
aV"!"
p435
aa(lp436
I4
aVcCEN_West
p437
aVcNDC_Midwest
p438
aV"!"
p439
aa(lp440
I4
aVcCEN_Midwest
p441
aVcNDC_West
p442
aV"!"
p443
aa(lp444
I4
aVcCEN_Midwest
p445
aVcNDC_Southeast
p446
aV"!"
p447
aa(lp448
I4
aVcCEN_Midwest
p449
aVcNDC_Southwest
p450
aV"!"
p451
aa(lp452
I4
aVcCEN_South
p453
aVcNDC_West
p454
aV"!"
p455
aa(lp456
I4
aVcCEN_South
p457
aVcNDC_Midwest
p458
aV"!"
p459
aa(lp460
I4
aVcCEN_Northeast
p461
aVcNDC_Northeast
p462
aV"<"
p463
aa(lp464
I4
aVcCEN_Northeast
p465
aVcNDC_USA
p466
aV"<"
p467
aa(lp468
I4
aVcCEN_USA
p469
aVcNDC_Northeast
p470
aV">"
p471
aa(lp472
I4
aVcCEN_South
p473
aVcNDC_Northeast
p474
aV"><"
p475
aa(lp476
I4
aVcCEN_West
p477
aVcNDC_Northeast
p478
aV"!"
p479
aa(lp480
I4
aVcCEN_Northeast
p481
aVcNDC_West
p482
aV"!"
p483
aa(lp484
I4
aVcCEN_Northeast
p485
aVcNDC_Southeast
p486
aV"!"
p487
aa(lp488
I4
aVcCEN_Northeast
p489
aVcNDC_Midwest
p490
aV"!"
p491
aa(lp492
I4
aVcCEN_Northeast
p493
aVcNDC_Southwest
p494
aV"!"
p495
aa(lp496
I4
aVcCEN_Midwest
p497
aVcNDC_Northeast
p498
aV"!"
p499
aaasba(ihelper
PossibleWorld
p500
(dp501
g3
I5
sg4
I0
sg5
(lp502
(lp503
(lp504
I5
aVcCEN_West
p505
aVcNDC_USA
p506
aV"<"
p507
aa(lp508
I5
aVcCEN_Midwest
p509
aVcNDC_USA
p510
aV"<"
p511
aa(lp512
I5
aVcCEN_South
p513
aVcNDC_USA
p514
aV"<"
p515
aa(lp516
I5
aVcCEN_USA
p517
aVcNDC_USA
p518
aV"="
p519
aa(lp520
I5
aVcCEN_Midwest
p521
aVcNDC_Midwest
p522
aV"="
p523
aa(lp524
I5
aVcCEN_USA
p525
aVcNDC_West
p526
aV">"
p527
aa(lp528
I5
aVcCEN_USA
p529
aVcNDC_Southeast
p530
aV">"
p531
aa(lp532
I5
aVcCEN_USA
p533
aVcNDC_Midwest
p534
aV">"
p535
aa(lp536
I5
aVcCEN_USA
p537
aVcNDC_Southwest
p538
aV">"
p539
aa(lp540
I5
aVcCEN_West
p541
aVcNDC_West
p542
aV">"
p543
aa(lp544
I5
aVcCEN_South
p545
aVcNDC_Southeast
p546
aV">"
p547
aa(lp548
I5
aVcCEN_West
p549
aVcNDC_Southwest
p550
aV"><"
p551
aa(lp552
I5
aVcCEN_South
p553
aVcNDC_Southwest
p554
aV"><"
p555
aa(lp556
I5
aVcCEN_West
p557
aVcNDC_Southeast
p558
aV"!"
p559
aa(lp560
I5
aVcCEN_West
p561
aVcNDC_Midwest
p562
aV"!"
p563
aa(lp564
I5
aVcCEN_Midwest
p565
aVcNDC_West
p566
aV"!"
p567
aa(lp568
I5
aVcCEN_Midwest
p569
aVcNDC_Southeast
p570
aV"!"
p571
aa(lp572
I5
aVcCEN_Midwest
p573
aVcNDC_Southwest
p574
aV"!"
p575
aa(lp576
I5
aVcCEN_South
p577
aVcNDC_West
p578
aV"!"
p579
aa(lp580
I5
aVcCEN_South
p581
aVcNDC_Midwest
p582
aV"!"
p583
aa(lp584
I5
aVcCEN_Northeast
p585
aVcNDC_USA
p586
aV"<"
p587
aa(lp588
I5
aVcCEN_USA
p589
aVcNDC_Northeast
p590
aV">"
p591
aa(lp592
I5
aVcCEN_Northeast
p593
aVcNDC_Northeast
p594
aV"><"
p595
aa(lp596
I5
aVcCEN_Northeast
p597
aVcNDC_Southwest
p598
aV"><"
p599
aa(lp600
I5
aVcCEN_South
p601
aVcNDC_Northeast
p602
aV"><"
p603
aa(lp604
I5
aVcCEN_West
p605
aVcNDC_Northeast
p606
aV"!"
p607
aa(lp608
I5
aVcCEN_Northeast
p609
aVcNDC_West
p610
aV"!"
p611
aa(lp612
I5
aVcCEN_Northeast
p613
aVcNDC_Southeast
p614
aV"!"
p615
aa(lp616
I5
aVcCEN_Northeast
p617
aVcNDC_Midwest
p618
aV"!"
p619
aa(lp620
I5
aVcCEN_Midwest
p621
aVcNDC_Northeast
p622
aV"!"
p623
aaasba.