(lp0
ccopy_reg
_reconstructor
p1
(cpandas.core.frame
DataFrame
p2
c__builtin__
object
p3
Ntp4
Rp5
(dp6
S'_metadata'
p7
(lp8
sS'_typ'
p9
S'dataframe'
p10
sS'_data'
p11
g1
(cpandas.core.internals
BlockManager
p12
g3
Ntp13
Rp14
((lp15
cpandas.core.indexes.base
_new_Index
p16
(cpandas.core.indexes.base
Index
p17
(dp18
S'data'
p19
cnumpy.core.multiarray
_reconstruct
p20
(cnumpy
ndarray
p21
(I0
tp22
S'b'
p23
tp24
Rp25
(I1
(I3
tp26
cnumpy
dtype
p27
(S'O8'
p28
I0
I1
tp29
Rp30
(I3
S'|'
p31
NNNI-1
I-1
I63
tp32
bI00
(lp33
S'pw'
p34
aS'x1'
p35
aS'x2'
p36
atp37
bsS'name'
p38
Nstp39
Rp40
ag16
(cpandas.core.indexes.range
RangeIndex
p41
(dp42
S'start'
p43
I0
sS'step'
p44
I1
sS'stop'
p45
I7
sg38
Nstp46
Rp47
a(lp48
g20
(g21
(I0
tp49
g23
tp50
Rp51
(I1
(I1
I7
tp52
g27
(S'i8'
p53
I0
I1
tp54
Rp55
(I3
S'<'
p56
NNNI-1
I-1
I0
tp57
bI00
S'\x01\x00\x00\x00\x00\x00\x00\x00\x01\x00\x00\x00\x00\x00\x00\x00\x01\x00\x00\x00\x00\x00\x00\x00\x01\x00\x00\x00\x00\x00\x00\x00\x01\x00\x00\x00\x00\x00\x00\x00\x01\x00\x00\x00\x00\x00\x00\x00\x01\x00\x00\x00\x00\x00\x00\x00'
p58
tp59
bag20
(g21
(I0
tp60
g23
tp61
Rp62
(I1
(I2
I7
tp63
g30
I00
(lp64
V1
p65
aV2
p66
aV3
p67
aV4
p68
aV5
p69
aV6
p70
aV7
p71
ag66
aV13
p72
aV15
p73
aV16
p74
aV18
p75
aV19
p76
aV21
p77
atp78
ba(lp79
g16
(g17
(dp80
g19
g20
(g21
(I0
tp81
g23
tp82
Rp83
(I1
(I1
tp84
g30
I00
(lp85
g34
atp86
bsg38
Nstp87
Rp88
ag16
(g17
(dp89
g19
g20
(g21
(I0
tp90
g23
tp91
Rp92
(I1
(I2
tp93
g30
I00
(lp94
g35
ag36
atp95
bsg38
Nstp96
Rp97
a(dp98
S'0.14.1'
p99
(dp100
S'axes'
p101
g15
sS'blocks'
p102
(lp103
(dp104
S'mgr_locs'
p105
c__builtin__
slice
p106
(I0
I1
I1
tp107
Rp108
sS'values'
p109
g51
sa(dp110
g105
g106
(I1
I3
I1
tp111
Rp112
sg109
g62
sasstp113
bsbag1
(g2
g3
Ntp114
Rp115
(dp116
g7
g8
sg9
g10
sg11
g1
(g12
g3
Ntp117
Rp118
((lp119
g16
(g17
(dp120
g19
g20
(g21
(I0
tp121
g23
tp122
Rp123
(I1
(I4
tp124
g30
I00
(lp125
g34
aS'x1'
p126
aS'x2'
p127
aS'x3'
p128
atp129
bsg38
Nstp130
Rp131
ag16
(g41
(dp132
g43
I0
sg44
I1
sg45
I7
sg38
Nstp133
Rp134
a(lp135
g20
(g21
(I0
tp136
g23
tp137
Rp138
(I1
(I1
I7
tp139
g55
I00
S'\x01\x00\x00\x00\x00\x00\x00\x00\x01\x00\x00\x00\x00\x00\x00\x00\x01\x00\x00\x00\x00\x00\x00\x00\x01\x00\x00\x00\x00\x00\x00\x00\x01\x00\x00\x00\x00\x00\x00\x00\x01\x00\x00\x00\x00\x00\x00\x00\x01\x00\x00\x00\x00\x00\x00\x00'
p140
tp141
bag20
(g21
(I0
tp142
g23
tp143
Rp144
(I1
(I3
I7
tp145
g30
I00
(lp146
g65
ag66
ag67
ag68
ag69
ag70
ag71
ag65
aV9
p147
aV10
p148
aV11
p149
aV12
p150
aV13
p151
aV14
p152
ag147
aV10
p153
aV11
p154
aV12
p155
aV13
p156
aV14
p157
aV15
p158
atp159
ba(lp160
g16
(g17
(dp161
g19
g20
(g21
(I0
tp162
g23
tp163
Rp164
(I1
(I1
tp165
g30
I00
(lp166
g34
atp167
bsg38
Nstp168
Rp169
ag16
(g17
(dp170
g19
g20
(g21
(I0
tp171
g23
tp172
Rp173
(I1
(I3
tp174
g30
I00
(lp175
g126
ag127
ag128
atp176
bsg38
Nstp177
Rp178
a(dp179
g99
(dp180
g101
g119
sg102
(lp181
(dp182
g105
g106
(I0
I1
I1
tp183
Rp184
sg109
g138
sa(dp185
g105
g106
(I1
I4
I1
tp186
Rp187
sg109
g144
sasstp188
bsbag1
(g2
g3
Ntp189
Rp190
(dp191
g7
g8
sg9
g10
sg11
g1
(g12
g3
Ntp192
Rp193
((lp194
g16
(g17
(dp195
g19
g20
(g21
(I0
tp196
g23
tp197
Rp198
(I1
(I2
tp199
g30
I00
(lp200
g34
aS'x1'
p201
atp202
bsg38
Nstp203
Rp204
ag16
(g41
(dp205
g43
I0
sg44
I1
sg45
I1
sg38
Nstp206
Rp207
a(lp208
g20
(g21
(I0
tp209
g23
tp210
Rp211
(I1
(I1
I1
tp212
g55
I00
S'\x01\x00\x00\x00\x00\x00\x00\x00'
p213
tp214
bag20
(g21
(I0
tp215
g23
tp216
Rp217
(I1
(I1
I1
tp218
g30
I00
(lp219
g71
atp220
ba(lp221
g16
(g17
(dp222
g19
g20
(g21
(I0
tp223
g23
tp224
Rp225
(I1
(I1
tp226
g30
I00
(lp227
g34
atp228
bsg38
Nstp229
Rp230
ag16
(g17
(dp231
g19
g20
(g21
(I0
tp232
g23
tp233
Rp234
(I1
(I1
tp235
g30
I00
(lp236
g201
atp237
bsg38
Nstp238
Rp239
a(dp240
g99
(dp241
g101
g194
sg102
(lp242
(dp243
g105
g106
(I0
I1
I1
tp244
Rp245
sg109
g211
sa(dp246
g105
g106
(I1
I2
I1
tp247
Rp248
sg109
g217
sasstp249
bsba.