(lp0
(ihelper
PossibleWorld
p1
(dp2
S'pw_id'
p3
I1
sS'pw_soln'
p4
F7.0
sS'rls'
p5
(lp6
(lp7
(lp8
I1
aV1
p9
aV2
p10
aa(lp11
I1
ag10
aV13
p12
aa(lp13
I1
aV3
p14
aV15
p15
aa(lp16
I1
aV4
p17
aV16
p18
aa(lp19
I1
aV5
p20
aV18
p21
aa(lp22
I1
aV6
p23
aV19
p24
aa(lp25
I1
aV7
p26
aV21
p27
aaa(lp28
(lp29
I1
ag9
ag9
aV9
p30
aa(lp31
I1
ag10
ag30
aV10
p32
aa(lp33
I1
ag14
aV10
p34
aV11
p35
aa(lp36
I1
ag17
aV11
p37
aV12
p38
aa(lp39
I1
ag20
aV12
p40
aV13
p41
aa(lp42
I1
ag23
aV13
p43
aV14
p44
aa(lp45
I1
ag26
aV14
p46
aV15
p47
aaa(lp48
(lp49
I1
ag26
aaasba.