(lp0
(ihelper
Relation
p1
(dp2
S'arrity'
p3
I2
sS'relation_name'
p4
S'selected_2'
p5
sS'r_id'
p6
I0
sba(ihelper
Relation
p7
(dp8
g3
I3
sg4
S'selected_nodes_3'
p9
sg6
I1
sba(ihelper
Relation
p10
(dp11
g3
I1
sg4
S'num_edges_1'
p12
sg6
I2
sba.