(lp0
(ihelper
PossibleWorld
p1
(dp2
S'pw_id'
p3
I1
sS'pw_soln'
p4
I0
sS'rls'
p5
(lp6
(lp7
(lp8
I1
aVa1950_Andropogon
p9
aVb1948_Andropogon
p10
aa(lp11
I1
aVa1950_A_capillipes
p12
aVb1948_A_capillipes
p13
aa(lp14
I1
aVa1950_A_virginicus_var_virginicus
p15
aVb1948_A_virginicus_var_virginicus
p16
aa(lp17
I1
aVa1950_A_virginicus_var_glaucopsis
p18
aVb1948_A_virginicus_var_glaucopsis
p19
aa(lp20
I1
aVb1948_A_virginicus_var_glaucopsis
p21
aVa1950_A_virginicus_var_glaucopsis
p22
aa(lp23
I1
aVb1948_A_virginicus_var_virginicus
p24
aVa1950_A_virginicus_var_virginicus
p25
aa(lp26
I1
aVb1948_A_capillipes
p27
aVa1950_A_capillipes
p28
aa(lp29
I1
aVb1948_Andropogon
p30
aVa1950_Andropogon
p31
aa(lp32
I1
aVb1948_Andropogon
p33
aVb1948_Andropogon
p34
aa(lp35
I1
aVa1950_Andropogon
p36
aVa1950_Andropogon
p37
aa(lp38
I1
aVb1948_A_virginicus_var_virginicus
p39
aVb1948_A_virginicus_var_virginicus
p40
aa(lp41
I1
aVb1948_A_virginicus_var_tenuispatheus
p42
aVb1948_A_virginicus_var_tenuispatheus
p43
aa(lp44
I1
aVb1948_A_virginicus_var_glaucopsis
p45
aVb1948_A_virginicus_var_glaucopsis
p46
aa(lp47
I1
aVb1948_A_virginicus
p48
aVb1948_A_virginicus
p49
aa(lp50
I1
aVb1948_A_glomeratus
p51
aVb1948_A_glomeratus
p52
aa(lp53
I1
aVb1948_A_capillipes
p54
aVb1948_A_capillipes
p55
aa(lp56
I1
aVa1950_A_virginicus_var_virginicus
p57
aVa1950_A_virginicus_var_virginicus
p58
aa(lp59
I1
aVa1950_A_virginicus_var_hirsutior
p60
aVa1950_A_virginicus_var_hirsutior
p61
aa(lp62
I1
aVa1950_A_virginicus_var_glaucopsis
p63
aVa1950_A_virginicus_var_glaucopsis
p64
aa(lp65
I1
aVa1950_A_virginicus
p66
aVa1950_A_virginicus
p67
aa(lp68
I1
aVa1950_A_glomeratus
p69
aVa1950_A_glomeratus
p70
aa(lp71
I1
aVa1950_A_capillipes
p72
aVa1950_A_capillipes
p73
aaa(lp74
(lp75
I1
aVa1950_A_glomeratus
p76
aVa1950_A_capillipes
p77
aa(lp78
I1
aVa1950_A_virginicus
p79
aVa1950_A_capillipes
p80
aa(lp81
I1
aVa1950_A_capillipes
p82
aVa1950_A_glomeratus
p83
aa(lp84
I1
aVa1950_A_virginicus
p85
aVa1950_A_glomeratus
p86
aa(lp87
I1
aVa1950_A_capillipes
p88
aVa1950_A_virginicus
p89
aa(lp90
I1
aVa1950_A_glomeratus
p91
aVa1950_A_virginicus
p92
aa(lp93
I1
aVa1950_A_virginicus_var_hirsutior
p94
aVa1950_A_virginicus_var_glaucopsis
p95
aa(lp96
I1
aVa1950_A_virginicus_var_virginicus
p97
aVa1950_A_virginicus_var_glaucopsis
p98
aa(lp99
I1
aVa1950_A_virginicus_var_glaucopsis
p100
aVa1950_A_virginicus_var_hirsutior
p101
aa(lp102
I1
aVa1950_A_virginicus_var_virginicus
p103
aVa1950_A_virginicus_var_hirsutior
p104
aa(lp105
I1
aVa1950_A_virginicus_var_glaucopsis
p106
aVa1950_A_virginicus_var_virginicus
p107
aa(lp108
I1
aVa1950_A_virginicus_var_hirsutior
p109
aVa1950_A_virginicus_var_virginicus
p110
aa(lp111
I1
aVb1948_A_glomeratus
p112
aVb1948_A_capillipes
p113
aa(lp114
I1
aVb1948_A_virginicus
p115
aVb1948_A_capillipes
p116
aa(lp117
I1
aVb1948_A_capillipes
p118
aVb1948_A_glomeratus
p119
aa(lp120
I1
aVb1948_A_virginicus
p121
aVb1948_A_glomeratus
p122
aa(lp123
I1
aVb1948_A_capillipes
p124
aVb1948_A_virginicus
p125
aa(lp126
I1
aVb1948_A_glomeratus
p127
aVb1948_A_virginicus
p128
aa(lp129
I1
aVb1948_A_virginicus_var_tenuispatheus
p130
aVb1948_A_virginicus_var_glaucopsis
p131
aa(lp132
I1
aVb1948_A_virginicus_var_virginicus
p133
aVb1948_A_virginicus_var_glaucopsis
p134
aa(lp135
I1
aVb1948_A_virginicus_var_glaucopsis
p136
aVb1948_A_virginicus_var_tenuispatheus
p137
aa(lp138
I1
aVb1948_A_virginicus_var_virginicus
p139
aVb1948_A_virginicus_var_tenuispatheus
p140
aa(lp141
I1
aVb1948_A_virginicus_var_glaucopsis
p142
aVb1948_A_virginicus_var_virginicus
p143
aa(lp144
I1
aVb1948_A_virginicus_var_tenuispatheus
p145
aVb1948_A_virginicus_var_virginicus
p146
aa(lp147
I1
aVb1948_A_virginicus_var_glaucopsis
p148
aVb1948_A_glomeratus
p149
aa(lp150
I1
aVb1948_A_virginicus_var_tenuispatheus
p151
aVb1948_A_glomeratus
p152
aa(lp153
I1
aVb1948_A_virginicus_var_virginicus
p154
aVb1948_A_glomeratus
p155
aa(lp156
I1
aVb1948_A_virginicus_var_glaucopsis
p157
aVb1948_A_capillipes
p158
aa(lp159
I1
aVb1948_A_virginicus_var_tenuispatheus
p160
aVb1948_A_capillipes
p161
aa(lp162
I1
aVb1948_A_virginicus_var_virginicus
p163
aVb1948_A_capillipes
p164
aa(lp165
I1
aVa1950_A_virginicus_var_glaucopsis
p166
aVa1950_A_glomeratus
p167
aa(lp168
I1
aVa1950_A_virginicus_var_hirsutior
p169
aVa1950_A_glomeratus
p170
aa(lp171
I1
aVa1950_A_virginicus_var_virginicus
p172
aVa1950_A_glomeratus
p173
aa(lp174
I1
aVa1950_A_virginicus_var_glaucopsis
p175
aVa1950_A_capillipes
p176
aa(lp177
I1
aVa1950_A_virginicus_var_hirsutior
p178
aVa1950_A_capillipes
p179
aa(lp180
I1
aVa1950_A_virginicus_var_virginicus
p181
aVa1950_A_capillipes
p182
aa(lp183
I1
aVa1950_A_virginicus_var_hirsutior
p184
aVb1948_A_virginicus_var_glaucopsis
p185
aa(lp186
I1
aVa1950_A_virginicus_var_virginicus
p187
aVb1948_A_virginicus_var_glaucopsis
p188
aa(lp189
I1
aVa1950_A_virginicus_var_glaucopsis
p190
aVb1948_A_virginicus_var_virginicus
p191
aa(lp192
I1
aVa1950_A_virginicus_var_hirsutior
p193
aVb1948_A_virginicus_var_virginicus
p194
aa(lp195
I1
aVa1950_A_glomeratus
p196
aVb1948_A_capillipes
p197
aa(lp198
I1
aVa1950_A_virginicus
p199
aVb1948_A_capillipes
p200
aa(lp201
I1
aVa1950_A_virginicus_var_virginicus
p202
aVb1948_A_virginicus_var_tenuispatheus
p203
aa(lp204
I1
aVa1950_A_virginicus_var_glaucopsis
p205
aVb1948_A_virginicus_var_tenuispatheus
p206
aa(lp207
I1
aVa1950_A_capillipes
p208
aVb1948_A_virginicus
p209
aa(lp210
I1
aVa1950_A_capillipes
p211
aVb1948_A_glomeratus
p212
aa(lp213
I1
aVb1948_A_glomeratus
p214
aVa1950_A_capillipes
p215
aa(lp216
I1
aVb1948_A_virginicus
p217
aVa1950_A_capillipes
p218
aa(lp219
I1
aVb1948_A_virginicus_var_tenuispatheus
p220
aVa1950_A_virginicus_var_glaucopsis
p221
aa(lp222
I1
aVb1948_A_virginicus_var_tenuispatheus
p223
aVa1950_A_virginicus_var_virginicus
p224
aa(lp225
I1
aVb1948_A_capillipes
p226
aVa1950_A_virginicus
p227
aa(lp228
I1
aVb1948_A_capillipes
p229
aVa1950_A_glomeratus
p230
aa(lp231
I1
aVb1948_A_virginicus_var_virginicus
p232
aVa1950_A_virginicus_var_hirsutior
p233
aa(lp234
I1
aVb1948_A_virginicus_var_virginicus
p235
aVa1950_A_virginicus_var_glaucopsis
p236
aa(lp237
I1
aVb1948_A_virginicus_var_glaucopsis
p238
aVa1950_A_virginicus_var_virginicus
p239
aa(lp240
I1
aVb1948_A_virginicus_var_glaucopsis
p241
aVa1950_A_virginicus_var_hirsutior
p242
aa(lp243
I1
aVa1950_A_capillipes
p244
aVa1950_A_virginicus_var_virginicus
p245
aa(lp246
I1
aVa1950_A_capillipes
p247
aVa1950_A_virginicus_var_hirsutior
p248
aa(lp249
I1
aVa1950_A_capillipes
p250
aVa1950_A_virginicus_var_glaucopsis
p251
aa(lp252
I1
aVa1950_A_glomeratus
p253
aVa1950_A_virginicus_var_virginicus
p254
aa(lp255
I1
aVa1950_A_glomeratus
p256
aVa1950_A_virginicus_var_hirsutior
p257
aa(lp258
I1
aVa1950_A_glomeratus
p259
aVa1950_A_virginicus_var_glaucopsis
p260
aa(lp261
I1
aVb1948_A_capillipes
p262
aVb1948_A_virginicus_var_virginicus
p263
aa(lp264
I1
aVb1948_A_capillipes
p265
aVb1948_A_virginicus_var_tenuispatheus
p266
aa(lp267
I1
aVb1948_A_capillipes
p268
aVb1948_A_virginicus_var_glaucopsis
p269
aa(lp270
I1
aVb1948_A_glomeratus
p271
aVb1948_A_virginicus_var_virginicus
p272
aa(lp273
I1
aVb1948_A_glomeratus
p274
aVb1948_A_virginicus_var_tenuispatheus
p275
aa(lp276
I1
aVb1948_A_glomeratus
p277
aVb1948_A_virginicus_var_glaucopsis
p278
aa(lp279
I1
aVa1950_A_virginicus_var_glaucopsis
p280
aVb1948_A_capillipes
p281
aa(lp282
I1
aVa1950_A_virginicus_var_hirsutior
p283
aVb1948_A_capillipes
p284
aa(lp285
I1
aVa1950_A_virginicus_var_virginicus
p286
aVb1948_A_capillipes
p287
aa(lp288
I1
aVb1948_A_virginicus_var_virginicus
p289
aVa1950_A_capillipes
p290
aa(lp291
I1
aVb1948_A_virginicus_var_glaucopsis
p292
aVa1950_A_capillipes
p293
aa(lp294
I1
aVb1948_A_virginicus_var_virginicus
p295
aVa1950_A_glomeratus
p296
aa(lp297
I1
aVb1948_A_virginicus_var_glaucopsis
p298
aVa1950_A_glomeratus
p299
aa(lp300
I1
aVa1950_A_virginicus_var_virginicus
p301
aVb1948_A_glomeratus
p302
aa(lp303
I1
aVa1950_A_virginicus_var_glaucopsis
p304
aVb1948_A_glomeratus
p305
aa(lp306
I1
aVb1948_A_virginicus_var_tenuispatheus
p307
aVa1950_A_capillipes
p308
aa(lp309
I1
aVb1948_A_virginicus_var_tenuispatheus
p310
aVa1950_A_virginicus
p311
aa(lp312
I1
aVa1950_A_glomeratus
p313
aVb1948_A_virginicus_var_glaucopsis
p314
aa(lp315
I1
aVa1950_A_glomeratus
p316
aVb1948_A_virginicus_var_virginicus
p317
aa(lp318
I1
aVa1950_A_virginicus
p319
aVb1948_A_virginicus_var_tenuispatheus
p320
aa(lp321
I1
aVa1950_A_capillipes
p322
aVb1948_A_virginicus_var_tenuispatheus
p323
aa(lp324
I1
aVb1948_A_glomeratus
p325
aVa1950_A_virginicus_var_glaucopsis
p326
aa(lp327
I1
aVb1948_A_capillipes
p328
aVa1950_A_virginicus_var_glaucopsis
p329
aa(lp330
I1
aVb1948_A_virginicus_var_tenuispatheus
p331
aVa1950_A_virginicus_var_hirsutior
p332
aa(lp333
I1
aVb1948_A_capillipes
p334
aVa1950_A_virginicus_var_hirsutior
p335
aa(lp336
I1
aVb1948_A_glomeratus
p337
aVa1950_A_virginicus_var_virginicus
p338
aa(lp339
I1
aVb1948_A_capillipes
p340
aVa1950_A_virginicus_var_virginicus
p341
aa(lp342
I1
aVa1950_A_capillipes
p343
aVb1948_A_virginicus_var_glaucopsis
p344
aa(lp345
I1
aVa1950_A_virginicus_var_hirsutior
p346
aVb1948_A_virginicus_var_tenuispatheus
p347
aa(lp348
I1
aVa1950_A_capillipes
p349
aVb1948_A_virginicus_var_virginicus
p350
aa(lp351
I1
aVa1950_A_virginicus_var_hirsutior
p352
aVb1948_A_glomeratus
p353
aa(lp354
I1
aVb1948_A_glomeratus
p355
aVa1950_A_virginicus_var_hirsutior
p356
aa(lp357
I1
aVb1948_A_glomeratus
p358
aVa1950_A_virginicus
p359
aa(lp360
I1
aVa1950_A_virginicus
p361
aVb1948_A_glomeratus
p362
aaa(lp363
(lp364
I1
aVa1950_A_capillipes
p365
aVa1950_Andropogon
p366
aa(lp367
I1
aVa1950_A_glomeratus
p368
aVa1950_Andropogon
p369
aa(lp370
I1
aVa1950_A_virginicus
p371
aVa1950_Andropogon
p372
aa(lp373
I1
aVa1950_A_virginicus_var_glaucopsis
p374
aVa1950_A_virginicus
p375
aa(lp376
I1
aVa1950_A_virginicus_var_hirsutior
p377
aVa1950_A_virginicus
p378
aa(lp379
I1
aVa1950_A_virginicus_var_virginicus
p380
aVa1950_A_virginicus
p381
aa(lp382
I1
aVb1948_A_capillipes
p383
aVb1948_Andropogon
p384
aa(lp385
I1
aVb1948_A_glomeratus
p386
aVb1948_Andropogon
p387
aa(lp388
I1
aVb1948_A_virginicus
p389
aVb1948_Andropogon
p390
aa(lp391
I1
aVb1948_A_virginicus_var_glaucopsis
p392
aVb1948_A_virginicus
p393
aa(lp394
I1
aVb1948_A_virginicus_var_tenuispatheus
p395
aVb1948_A_virginicus
p396
aa(lp397
I1
aVb1948_A_virginicus_var_virginicus
p398
aVb1948_A_virginicus
p399
aa(lp400
I1
aVb1948_A_virginicus_var_tenuispatheus
p401
aVa1950_A_glomeratus
p402
aa(lp403
I1
aVb1948_A_virginicus_var_glaucopsis
p404
aVb1948_Andropogon
p405
aa(lp406
I1
aVb1948_A_virginicus_var_tenuispatheus
p407
aVb1948_Andropogon
p408
aa(lp409
I1
aVb1948_A_virginicus_var_virginicus
p410
aVb1948_Andropogon
p411
aa(lp412
I1
aVa1950_A_virginicus_var_glaucopsis
p413
aVa1950_Andropogon
p414
aa(lp415
I1
aVa1950_A_virginicus_var_hirsutior
p416
aVa1950_Andropogon
p417
aa(lp418
I1
aVa1950_A_virginicus_var_virginicus
p419
aVa1950_Andropogon
p420
aa(lp421
I1
aVa1950_A_capillipes
p422
aVb1948_Andropogon
p423
aa(lp424
I1
aVa1950_A_glomeratus
p425
aVb1948_Andropogon
p426
aa(lp427
I1
aVa1950_A_virginicus
p428
aVb1948_Andropogon
p429
aa(lp430
I1
aVa1950_A_virginicus_var_virginicus
p431
aVb1948_A_virginicus
p432
aa(lp433
I1
aVa1950_A_virginicus_var_glaucopsis
p434
aVb1948_A_virginicus
p435
aa(lp436
I1
aVa1950_A_virginicus_var_glaucopsis
p437
aVb1948_Andropogon
p438
aa(lp439
I1
aVa1950_A_virginicus_var_hirsutior
p440
aVb1948_Andropogon
p441
aa(lp442
I1
aVa1950_A_virginicus_var_virginicus
p443
aVb1948_Andropogon
p444
aa(lp445
I1
aVb1948_A_virginicus_var_tenuispatheus
p446
aVa1950_Andropogon
p447
aa(lp448
I1
aVb1948_A_virginicus_var_virginicus
p449
aVa1950_Andropogon
p450
aa(lp451
I1
aVb1948_A_virginicus_var_glaucopsis
p452
aVa1950_Andropogon
p453
aa(lp454
I1
aVb1948_A_virginicus_var_virginicus
p455
aVa1950_A_virginicus
p456
aa(lp457
I1
aVb1948_A_virginicus_var_glaucopsis
p458
aVa1950_A_virginicus
p459
aa(lp460
I1
aVb1948_A_virginicus
p461
aVa1950_Andropogon
p462
aa(lp463
I1
aVb1948_A_glomeratus
p464
aVa1950_Andropogon
p465
aa(lp466
I1
aVb1948_A_capillipes
p467
aVa1950_Andropogon
p468
aa(lp469
I1
aVa1950_A_virginicus_var_hirsutior
p470
aVb1948_A_virginicus
p471
aa(lp472
I1
aVa1950_A_virginicus
p473
aVb1948_A_virginicus
p474
aaa(lp475
(lp476
I1
aVa1950_A_glomeratus
p477
aVb1948_A_virginicus_var_tenuispatheus
p478
aa(lp479
I1
aVb1948_A_virginicus
p480
aVb1948_A_virginicus_var_virginicus
p481
aa(lp482
I1
aVb1948_A_virginicus
p483
aVb1948_A_virginicus_var_tenuispatheus
p484
aa(lp485
I1
aVb1948_A_virginicus
p486
aVb1948_A_virginicus_var_glaucopsis
p487
aa(lp488
I1
aVb1948_Andropogon
p489
aVb1948_A_virginicus
p490
aa(lp491
I1
aVb1948_Andropogon
p492
aVb1948_A_glomeratus
p493
aa(lp494
I1
aVb1948_Andropogon
p495
aVb1948_A_capillipes
p496
aa(lp497
I1
aVa1950_A_virginicus
p498
aVa1950_A_virginicus_var_virginicus
p499
aa(lp500
I1
aVa1950_A_virginicus
p501
aVa1950_A_virginicus_var_hirsutior
p502
aa(lp503
I1
aVa1950_A_virginicus
p504
aVa1950_A_virginicus_var_glaucopsis
p505
aa(lp506
I1
aVa1950_Andropogon
p507
aVa1950_A_virginicus
p508
aa(lp509
I1
aVa1950_Andropogon
p510
aVa1950_A_glomeratus
p511
aa(lp512
I1
aVa1950_Andropogon
p513
aVa1950_A_capillipes
p514
aa(lp515
I1
aVb1948_A_virginicus
p516
aVa1950_A_virginicus_var_glaucopsis
p517
aa(lp518
I1
aVb1948_A_virginicus
p519
aVa1950_A_virginicus_var_virginicus
p520
aa(lp521
I1
aVb1948_Andropogon
p522
aVa1950_A_virginicus
p523
aa(lp524
I1
aVb1948_Andropogon
p525
aVa1950_A_glomeratus
p526
aa(lp527
I1
aVb1948_Andropogon
p528
aVa1950_A_capillipes
p529
aa(lp530
I1
aVa1950_Andropogon
p531
aVa1950_A_virginicus_var_virginicus
p532
aa(lp533
I1
aVa1950_Andropogon
p534
aVa1950_A_virginicus_var_hirsutior
p535
aa(lp536
I1
aVa1950_Andropogon
p537
aVa1950_A_virginicus_var_glaucopsis
p538
aa(lp539
I1
aVb1948_Andropogon
p540
aVb1948_A_virginicus_var_virginicus
p541
aa(lp542
I1
aVb1948_Andropogon
p543
aVb1948_A_virginicus_var_tenuispatheus
p544
aa(lp545
I1
aVb1948_Andropogon
p546
aVb1948_A_virginicus_var_glaucopsis
p547
aa(lp548
I1
aVa1950_Andropogon
p549
aVb1948_A_virginicus_var_tenuispatheus
p550
aa(lp551
I1
aVa1950_Andropogon
p552
aVb1948_A_capillipes
p553
aa(lp554
I1
aVa1950_A_virginicus
p555
aVb1948_A_virginicus_var_glaucopsis
p556
aa(lp557
I1
aVa1950_A_virginicus
p558
aVb1948_A_virginicus_var_virginicus
p559
aa(lp560
I1
aVa1950_Andropogon
p561
aVb1948_A_glomeratus
p562
aa(lp563
I1
aVa1950_Andropogon
p564
aVb1948_A_virginicus
p565
aa(lp566
I1
aVb1948_Andropogon
p567
aVa1950_A_virginicus_var_glaucopsis
p568
aa(lp569
I1
aVb1948_Andropogon
p570
aVa1950_A_virginicus_var_hirsutior
p571
aa(lp572
I1
aVb1948_Andropogon
p573
aVa1950_A_virginicus_var_virginicus
p574
aa(lp575
I1
aVa1950_Andropogon
p576
aVb1948_A_virginicus_var_glaucopsis
p577
aa(lp578
I1
aVa1950_Andropogon
p579
aVb1948_A_virginicus_var_virginicus
p580
aa(lp581
I1
aVb1948_A_virginicus
p582
aVa1950_A_virginicus
p583
aa(lp584
I1
aVb1948_A_virginicus
p585
aVa1950_A_virginicus_var_hirsutior
p586
aaa(lp587
(lp588
I1
aVa1950_A_glomeratus
p589
aVb1948_A_glomeratus
p590
aa(lp591
I1
aVb1948_A_glomeratus
p592
aVa1950_A_glomeratus
p593
aa(lp594
I1
aVa1950_A_glomeratus
p595
aVb1948_A_virginicus
p596
aa(lp597
I1
aVb1948_A_virginicus
p598
aVa1950_A_glomeratus
p599
aaa(lp600
(lp601
I1
aVa1950_A_capillipes
p602
aa(lp603
I1
aVa1950_A_glomeratus
p604
aa(lp605
I1
aVa1950_A_virginicus
p606
aa(lp607
I1
aVa1950_A_virginicus_var_glaucopsis
p608
aa(lp609
I1
aVa1950_A_virginicus_var_hirsutior
p610
aa(lp611
I1
aVa1950_A_virginicus_var_virginicus
p612
aa(lp613
I1
aVb1948_A_capillipes
p614
aa(lp615
I1
aVb1948_A_glomeratus
p616
aa(lp617
I1
aVb1948_A_virginicus
p618
aa(lp619
I1
aVb1948_A_virginicus_var_glaucopsis
p620
aa(lp621
I1
aVb1948_A_virginicus_var_tenuispatheus
p622
aa(lp623
I1
aVb1948_A_virginicus_var_virginicus
p624
aa(lp625
I1
aVa1950_Andropogon
p626
aa(lp627
I1
aVb1948_Andropogon
p628
aaa(lp629
(lp630
I1
aVa1950_Andropogon
p631
aVa1950_A_capillipes
p632
aa(lp633
I1
aVa1950_Andropogon
p634
aVa1950_A_glomeratus
p635
aa(lp636
I1
aVa1950_Andropogon
p637
aVa1950_A_virginicus
p638
aa(lp639
I1
aVa1950_A_virginicus
p640
aVa1950_A_virginicus_var_glaucopsis
p641
aa(lp642
I1
aVa1950_A_virginicus
p643
aVa1950_A_virginicus_var_hirsutior
p644
aa(lp645
I1
aVa1950_A_virginicus
p646
aVa1950_A_virginicus_var_virginicus
p647
aa(lp648
I1
aVb1948_Andropogon
p649
aVb1948_A_capillipes
p650
aa(lp651
I1
aVb1948_Andropogon
p652
aVb1948_A_glomeratus
p653
aa(lp654
I1
aVb1948_Andropogon
p655
aVb1948_A_virginicus
p656
aa(lp657
I1
aVb1948_A_virginicus
p658
aVb1948_A_virginicus_var_glaucopsis
p659
aa(lp660
I1
aVb1948_A_virginicus
p661
aVb1948_A_virginicus_var_tenuispatheus
p662
aa(lp663
I1
aVb1948_A_virginicus
p664
aVb1948_A_virginicus_var_virginicus
p665
aaasba(ihelper
PossibleWorld
p666
(dp667
g3
I2
sg4
I0
sg5
(lp668
(lp669
(lp670
I2
aVa1950_Andropogon
p671
aVb1948_Andropogon
p672
aa(lp673
I2
aVa1950_A_capillipes
p674
aVb1948_A_capillipes
p675
aa(lp676
I2
aVa1950_A_virginicus_var_virginicus
p677
aVb1948_A_virginicus_var_virginicus
p678
aa(lp679
I2
aVa1950_A_virginicus_var_glaucopsis
p680
aVb1948_A_virginicus_var_glaucopsis
p681
aa(lp682
I2
aVb1948_A_virginicus_var_glaucopsis
p683
aVa1950_A_virginicus_var_glaucopsis
p684
aa(lp685
I2
aVb1948_A_virginicus_var_virginicus
p686
aVa1950_A_virginicus_var_virginicus
p687
aa(lp688
I2
aVb1948_A_capillipes
p689
aVa1950_A_capillipes
p690
aa(lp691
I2
aVb1948_Andropogon
p692
aVa1950_Andropogon
p693
aa(lp694
I2
aVb1948_Andropogon
p695
aVb1948_Andropogon
p696
aa(lp697
I2
aVa1950_Andropogon
p698
aVa1950_Andropogon
p699
aa(lp700
I2
aVb1948_A_virginicus_var_virginicus
p701
aVb1948_A_virginicus_var_virginicus
p702
aa(lp703
I2
aVb1948_A_virginicus_var_tenuispatheus
p704
aVb1948_A_virginicus_var_tenuispatheus
p705
aa(lp706
I2
aVb1948_A_virginicus_var_glaucopsis
p707
aVb1948_A_virginicus_var_glaucopsis
p708
aa(lp709
I2
aVb1948_A_virginicus
p710
aVb1948_A_virginicus
p711
aa(lp712
I2
aVb1948_A_glomeratus
p713
aVb1948_A_glomeratus
p714
aa(lp715
I2
aVb1948_A_capillipes
p716
aVb1948_A_capillipes
p717
aa(lp718
I2
aVa1950_A_virginicus_var_virginicus
p719
aVa1950_A_virginicus_var_virginicus
p720
aa(lp721
I2
aVa1950_A_virginicus_var_hirsutior
p722
aVa1950_A_virginicus_var_hirsutior
p723
aa(lp724
I2
aVa1950_A_virginicus_var_glaucopsis
p725
aVa1950_A_virginicus_var_glaucopsis
p726
aa(lp727
I2
aVa1950_A_virginicus
p728
aVa1950_A_virginicus
p729
aa(lp730
I2
aVa1950_A_glomeratus
p731
aVa1950_A_glomeratus
p732
aa(lp733
I2
aVa1950_A_capillipes
p734
aVa1950_A_capillipes
p735
aaa(lp736
(lp737
I2
aVa1950_A_glomeratus
p738
aVa1950_A_capillipes
p739
aa(lp740
I2
aVa1950_A_virginicus
p741
aVa1950_A_capillipes
p742
aa(lp743
I2
aVa1950_A_capillipes
p744
aVa1950_A_glomeratus
p745
aa(lp746
I2
aVa1950_A_virginicus
p747
aVa1950_A_glomeratus
p748
aa(lp749
I2
aVa1950_A_capillipes
p750
aVa1950_A_virginicus
p751
aa(lp752
I2
aVa1950_A_glomeratus
p753
aVa1950_A_virginicus
p754
aa(lp755
I2
aVa1950_A_virginicus_var_hirsutior
p756
aVa1950_A_virginicus_var_glaucopsis
p757
aa(lp758
I2
aVa1950_A_virginicus_var_virginicus
p759
aVa1950_A_virginicus_var_glaucopsis
p760
aa(lp761
I2
aVa1950_A_virginicus_var_glaucopsis
p762
aVa1950_A_virginicus_var_hirsutior
p763
aa(lp764
I2
aVa1950_A_virginicus_var_virginicus
p765
aVa1950_A_virginicus_var_hirsutior
p766
aa(lp767
I2
aVa1950_A_virginicus_var_glaucopsis
p768
aVa1950_A_virginicus_var_virginicus
p769
aa(lp770
I2
aVa1950_A_virginicus_var_hirsutior
p771
aVa1950_A_virginicus_var_virginicus
p772
aa(lp773
I2
aVb1948_A_glomeratus
p774
aVb1948_A_capillipes
p775
aa(lp776
I2
aVb1948_A_virginicus
p777
aVb1948_A_capillipes
p778
aa(lp779
I2
aVb1948_A_capillipes
p780
aVb1948_A_glomeratus
p781
aa(lp782
I2
aVb1948_A_virginicus
p783
aVb1948_A_glomeratus
p784
aa(lp785
I2
aVb1948_A_capillipes
p786
aVb1948_A_virginicus
p787
aa(lp788
I2
aVb1948_A_glomeratus
p789
aVb1948_A_virginicus
p790
aa(lp791
I2
aVb1948_A_virginicus_var_tenuispatheus
p792
aVb1948_A_virginicus_var_glaucopsis
p793
aa(lp794
I2
aVb1948_A_virginicus_var_virginicus
p795
aVb1948_A_virginicus_var_glaucopsis
p796
aa(lp797
I2
aVb1948_A_virginicus_var_glaucopsis
p798
aVb1948_A_virginicus_var_tenuispatheus
p799
aa(lp800
I2
aVb1948_A_virginicus_var_virginicus
p801
aVb1948_A_virginicus_var_tenuispatheus
p802
aa(lp803
I2
aVb1948_A_virginicus_var_glaucopsis
p804
aVb1948_A_virginicus_var_virginicus
p805
aa(lp806
I2
aVb1948_A_virginicus_var_tenuispatheus
p807
aVb1948_A_virginicus_var_virginicus
p808
aa(lp809
I2
aVb1948_A_virginicus_var_glaucopsis
p810
aVb1948_A_glomeratus
p811
aa(lp812
I2
aVb1948_A_virginicus_var_tenuispatheus
p813
aVb1948_A_glomeratus
p814
aa(lp815
I2
aVb1948_A_virginicus_var_virginicus
p816
aVb1948_A_glomeratus
p817
aa(lp818
I2
aVb1948_A_virginicus_var_glaucopsis
p819
aVb1948_A_capillipes
p820
aa(lp821
I2
aVb1948_A_virginicus_var_tenuispatheus
p822
aVb1948_A_capillipes
p823
aa(lp824
I2
aVb1948_A_virginicus_var_virginicus
p825
aVb1948_A_capillipes
p826
aa(lp827
I2
aVa1950_A_virginicus_var_glaucopsis
p828
aVa1950_A_glomeratus
p829
aa(lp830
I2
aVa1950_A_virginicus_var_hirsutior
p831
aVa1950_A_glomeratus
p832
aa(lp833
I2
aVa1950_A_virginicus_var_virginicus
p834
aVa1950_A_glomeratus
p835
aa(lp836
I2
aVa1950_A_virginicus_var_glaucopsis
p837
aVa1950_A_capillipes
p838
aa(lp839
I2
aVa1950_A_virginicus_var_hirsutior
p840
aVa1950_A_capillipes
p841
aa(lp842
I2
aVa1950_A_virginicus_var_virginicus
p843
aVa1950_A_capillipes
p844
aa(lp845
I2
aVa1950_A_virginicus_var_hirsutior
p846
aVb1948_A_virginicus_var_glaucopsis
p847
aa(lp848
I2
aVa1950_A_virginicus_var_virginicus
p849
aVb1948_A_virginicus_var_glaucopsis
p850
aa(lp851
I2
aVa1950_A_virginicus_var_glaucopsis
p852
aVb1948_A_virginicus_var_virginicus
p853
aa(lp854
I2
aVa1950_A_virginicus_var_hirsutior
p855
aVb1948_A_virginicus_var_virginicus
p856
aa(lp857
I2
aVa1950_A_glomeratus
p858
aVb1948_A_capillipes
p859
aa(lp860
I2
aVa1950_A_virginicus
p861
aVb1948_A_capillipes
p862
aa(lp863
I2
aVa1950_A_virginicus_var_virginicus
p864
aVb1948_A_virginicus_var_tenuispatheus
p865
aa(lp866
I2
aVa1950_A_virginicus_var_glaucopsis
p867
aVb1948_A_virginicus_var_tenuispatheus
p868
aa(lp869
I2
aVa1950_A_capillipes
p870
aVb1948_A_virginicus
p871
aa(lp872
I2
aVa1950_A_capillipes
p873
aVb1948_A_glomeratus
p874
aa(lp875
I2
aVb1948_A_glomeratus
p876
aVa1950_A_capillipes
p877
aa(lp878
I2
aVb1948_A_virginicus
p879
aVa1950_A_capillipes
p880
aa(lp881
I2
aVb1948_A_virginicus_var_tenuispatheus
p882
aVa1950_A_virginicus_var_glaucopsis
p883
aa(lp884
I2
aVb1948_A_virginicus_var_tenuispatheus
p885
aVa1950_A_virginicus_var_virginicus
p886
aa(lp887
I2
aVb1948_A_capillipes
p888
aVa1950_A_virginicus
p889
aa(lp890
I2
aVb1948_A_capillipes
p891
aVa1950_A_glomeratus
p892
aa(lp893
I2
aVb1948_A_virginicus_var_virginicus
p894
aVa1950_A_virginicus_var_hirsutior
p895
aa(lp896
I2
aVb1948_A_virginicus_var_virginicus
p897
aVa1950_A_virginicus_var_glaucopsis
p898
aa(lp899
I2
aVb1948_A_virginicus_var_glaucopsis
p900
aVa1950_A_virginicus_var_virginicus
p901
aa(lp902
I2
aVb1948_A_virginicus_var_glaucopsis
p903
aVa1950_A_virginicus_var_hirsutior
p904
aa(lp905
I2
aVa1950_A_capillipes
p906
aVa1950_A_virginicus_var_virginicus
p907
aa(lp908
I2
aVa1950_A_capillipes
p909
aVa1950_A_virginicus_var_hirsutior
p910
aa(lp911
I2
aVa1950_A_capillipes
p912
aVa1950_A_virginicus_var_glaucopsis
p913
aa(lp914
I2
aVa1950_A_glomeratus
p915
aVa1950_A_virginicus_var_virginicus
p916
aa(lp917
I2
aVa1950_A_glomeratus
p918
aVa1950_A_virginicus_var_hirsutior
p919
aa(lp920
I2
aVa1950_A_glomeratus
p921
aVa1950_A_virginicus_var_glaucopsis
p922
aa(lp923
I2
aVb1948_A_capillipes
p924
aVb1948_A_virginicus_var_virginicus
p925
aa(lp926
I2
aVb1948_A_capillipes
p927
aVb1948_A_virginicus_var_tenuispatheus
p928
aa(lp929
I2
aVb1948_A_capillipes
p930
aVb1948_A_virginicus_var_glaucopsis
p931
aa(lp932
I2
aVb1948_A_glomeratus
p933
aVb1948_A_virginicus_var_virginicus
p934
aa(lp935
I2
aVb1948_A_glomeratus
p936
aVb1948_A_virginicus_var_tenuispatheus
p937
aa(lp938
I2
aVb1948_A_glomeratus
p939
aVb1948_A_virginicus_var_glaucopsis
p940
aa(lp941
I2
aVa1950_A_virginicus_var_glaucopsis
p942
aVb1948_A_capillipes
p943
aa(lp944
I2
aVa1950_A_virginicus_var_hirsutior
p945
aVb1948_A_capillipes
p946
aa(lp947
I2
aVa1950_A_virginicus_var_virginicus
p948
aVb1948_A_capillipes
p949
aa(lp950
I2
aVb1948_A_virginicus_var_virginicus
p951
aVa1950_A_capillipes
p952
aa(lp953
I2
aVb1948_A_virginicus_var_glaucopsis
p954
aVa1950_A_capillipes
p955
aa(lp956
I2
aVb1948_A_virginicus_var_virginicus
p957
aVa1950_A_glomeratus
p958
aa(lp959
I2
aVb1948_A_virginicus_var_glaucopsis
p960
aVa1950_A_glomeratus
p961
aa(lp962
I2
aVa1950_A_virginicus_var_virginicus
p963
aVb1948_A_glomeratus
p964
aa(lp965
I2
aVa1950_A_virginicus_var_glaucopsis
p966
aVb1948_A_glomeratus
p967
aa(lp968
I2
aVb1948_A_virginicus_var_tenuispatheus
p969
aVa1950_A_capillipes
p970
aa(lp971
I2
aVb1948_A_virginicus_var_tenuispatheus
p972
aVa1950_A_virginicus
p973
aa(lp974
I2
aVa1950_A_glomeratus
p975
aVb1948_A_virginicus_var_glaucopsis
p976
aa(lp977
I2
aVa1950_A_glomeratus
p978
aVb1948_A_virginicus_var_virginicus
p979
aa(lp980
I2
aVa1950_A_virginicus
p981
aVb1948_A_virginicus_var_tenuispatheus
p982
aa(lp983
I2
aVa1950_A_capillipes
p984
aVb1948_A_virginicus_var_tenuispatheus
p985
aa(lp986
I2
aVb1948_A_glomeratus
p987
aVa1950_A_virginicus_var_glaucopsis
p988
aa(lp989
I2
aVb1948_A_capillipes
p990
aVa1950_A_virginicus_var_glaucopsis
p991
aa(lp992
I2
aVb1948_A_virginicus_var_tenuispatheus
p993
aVa1950_A_virginicus_var_hirsutior
p994
aa(lp995
I2
aVb1948_A_capillipes
p996
aVa1950_A_virginicus_var_hirsutior
p997
aa(lp998
I2
aVb1948_A_glomeratus
p999
aVa1950_A_virginicus_var_virginicus
p1000
aa(lp1001
I2
aVb1948_A_capillipes
p1002
aVa1950_A_virginicus_var_virginicus
p1003
aa(lp1004
I2
aVa1950_A_capillipes
p1005
aVb1948_A_virginicus_var_glaucopsis
p1006
aa(lp1007
I2
aVa1950_A_virginicus_var_hirsutior
p1008
aVb1948_A_virginicus_var_tenuispatheus
p1009
aa(lp1010
I2
aVa1950_A_capillipes
p1011
aVb1948_A_virginicus_var_virginicus
p1012
aa(lp1013
I2
aVa1950_A_virginicus_var_hirsutior
p1014
aVb1948_A_glomeratus
p1015
aa(lp1016
I2
aVb1948_A_glomeratus
p1017
aVa1950_A_virginicus_var_hirsutior
p1018
aa(lp1019
I2
aVb1948_A_glomeratus
p1020
aVa1950_A_virginicus
p1021
aa(lp1022
I2
aVa1950_A_virginicus
p1023
aVb1948_A_glomeratus
p1024
aaa(lp1025
(lp1026
I2
aVa1950_A_capillipes
p1027
aVa1950_Andropogon
p1028
aa(lp1029
I2
aVa1950_A_glomeratus
p1030
aVa1950_Andropogon
p1031
aa(lp1032
I2
aVa1950_A_virginicus
p1033
aVa1950_Andropogon
p1034
aa(lp1035
I2
aVa1950_A_virginicus_var_glaucopsis
p1036
aVa1950_A_virginicus
p1037
aa(lp1038
I2
aVa1950_A_virginicus_var_hirsutior
p1039
aVa1950_A_virginicus
p1040
aa(lp1041
I2
aVa1950_A_virginicus_var_virginicus
p1042
aVa1950_A_virginicus
p1043
aa(lp1044
I2
aVb1948_A_capillipes
p1045
aVb1948_Andropogon
p1046
aa(lp1047
I2
aVb1948_A_glomeratus
p1048
aVb1948_Andropogon
p1049
aa(lp1050
I2
aVb1948_A_virginicus
p1051
aVb1948_Andropogon
p1052
aa(lp1053
I2
aVb1948_A_virginicus_var_glaucopsis
p1054
aVb1948_A_virginicus
p1055
aa(lp1056
I2
aVb1948_A_virginicus_var_tenuispatheus
p1057
aVb1948_A_virginicus
p1058
aa(lp1059
I2
aVb1948_A_virginicus_var_virginicus
p1060
aVb1948_A_virginicus
p1061
aa(lp1062
I2
aVb1948_A_virginicus_var_tenuispatheus
p1063
aVa1950_A_glomeratus
p1064
aa(lp1065
I2
aVb1948_A_virginicus_var_glaucopsis
p1066
aVb1948_Andropogon
p1067
aa(lp1068
I2
aVb1948_A_virginicus_var_tenuispatheus
p1069
aVb1948_Andropogon
p1070
aa(lp1071
I2
aVb1948_A_virginicus_var_virginicus
p1072
aVb1948_Andropogon
p1073
aa(lp1074
I2
aVa1950_A_virginicus_var_glaucopsis
p1075
aVa1950_Andropogon
p1076
aa(lp1077
I2
aVa1950_A_virginicus_var_hirsutior
p1078
aVa1950_Andropogon
p1079
aa(lp1080
I2
aVa1950_A_virginicus_var_virginicus
p1081
aVa1950_Andropogon
p1082
aa(lp1083
I2
aVa1950_A_capillipes
p1084
aVb1948_Andropogon
p1085
aa(lp1086
I2
aVa1950_A_glomeratus
p1087
aVb1948_Andropogon
p1088
aa(lp1089
I2
aVa1950_A_virginicus
p1090
aVb1948_Andropogon
p1091
aa(lp1092
I2
aVa1950_A_virginicus_var_virginicus
p1093
aVb1948_A_virginicus
p1094
aa(lp1095
I2
aVa1950_A_virginicus_var_glaucopsis
p1096
aVb1948_A_virginicus
p1097
aa(lp1098
I2
aVa1950_A_virginicus_var_glaucopsis
p1099
aVb1948_Andropogon
p1100
aa(lp1101
I2
aVa1950_A_virginicus_var_hirsutior
p1102
aVb1948_Andropogon
p1103
aa(lp1104
I2
aVa1950_A_virginicus_var_virginicus
p1105
aVb1948_Andropogon
p1106
aa(lp1107
I2
aVb1948_A_virginicus_var_tenuispatheus
p1108
aVa1950_Andropogon
p1109
aa(lp1110
I2
aVb1948_A_virginicus_var_virginicus
p1111
aVa1950_Andropogon
p1112
aa(lp1113
I2
aVb1948_A_virginicus_var_glaucopsis
p1114
aVa1950_Andropogon
p1115
aa(lp1116
I2
aVb1948_A_virginicus_var_virginicus
p1117
aVa1950_A_virginicus
p1118
aa(lp1119
I2
aVb1948_A_virginicus_var_glaucopsis
p1120
aVa1950_A_virginicus
p1121
aa(lp1122
I2
aVb1948_A_virginicus
p1123
aVa1950_Andropogon
p1124
aa(lp1125
I2
aVb1948_A_glomeratus
p1126
aVa1950_Andropogon
p1127
aa(lp1128
I2
aVb1948_A_capillipes
p1129
aVa1950_Andropogon
p1130
aa(lp1131
I2
aVa1950_A_virginicus_var_hirsutior
p1132
aVb1948_A_virginicus
p1133
aaa(lp1134
(lp1135
I2
aVa1950_A_glomeratus
p1136
aVb1948_A_virginicus_var_tenuispatheus
p1137
aa(lp1138
I2
aVb1948_A_virginicus
p1139
aVb1948_A_virginicus_var_virginicus
p1140
aa(lp1141
I2
aVb1948_A_virginicus
p1142
aVb1948_A_virginicus_var_tenuispatheus
p1143
aa(lp1144
I2
aVb1948_A_virginicus
p1145
aVb1948_A_virginicus_var_glaucopsis
p1146
aa(lp1147
I2
aVb1948_Andropogon
p1148
aVb1948_A_virginicus
p1149
aa(lp1150
I2
aVb1948_Andropogon
p1151
aVb1948_A_glomeratus
p1152
aa(lp1153
I2
aVb1948_Andropogon
p1154
aVb1948_A_capillipes
p1155
aa(lp1156
I2
aVa1950_A_virginicus
p1157
aVa1950_A_virginicus_var_virginicus
p1158
aa(lp1159
I2
aVa1950_A_virginicus
p1160
aVa1950_A_virginicus_var_hirsutior
p1161
aa(lp1162
I2
aVa1950_A_virginicus
p1163
aVa1950_A_virginicus_var_glaucopsis
p1164
aa(lp1165
I2
aVa1950_Andropogon
p1166
aVa1950_A_virginicus
p1167
aa(lp1168
I2
aVa1950_Andropogon
p1169
aVa1950_A_glomeratus
p1170
aa(lp1171
I2
aVa1950_Andropogon
p1172
aVa1950_A_capillipes
p1173
aa(lp1174
I2
aVb1948_A_virginicus
p1175
aVa1950_A_virginicus_var_glaucopsis
p1176
aa(lp1177
I2
aVb1948_A_virginicus
p1178
aVa1950_A_virginicus_var_virginicus
p1179
aa(lp1180
I2
aVb1948_Andropogon
p1181
aVa1950_A_virginicus
p1182
aa(lp1183
I2
aVb1948_Andropogon
p1184
aVa1950_A_glomeratus
p1185
aa(lp1186
I2
aVb1948_Andropogon
p1187
aVa1950_A_capillipes
p1188
aa(lp1189
I2
aVa1950_Andropogon
p1190
aVa1950_A_virginicus_var_virginicus
p1191
aa(lp1192
I2
aVa1950_Andropogon
p1193
aVa1950_A_virginicus_var_hirsutior
p1194
aa(lp1195
I2
aVa1950_Andropogon
p1196
aVa1950_A_virginicus_var_glaucopsis
p1197
aa(lp1198
I2
aVb1948_Andropogon
p1199
aVb1948_A_virginicus_var_virginicus
p1200
aa(lp1201
I2
aVb1948_Andropogon
p1202
aVb1948_A_virginicus_var_tenuispatheus
p1203
aa(lp1204
I2
aVb1948_Andropogon
p1205
aVb1948_A_virginicus_var_glaucopsis
p1206
aa(lp1207
I2
aVa1950_Andropogon
p1208
aVb1948_A_virginicus_var_tenuispatheus
p1209
aa(lp1210
I2
aVa1950_Andropogon
p1211
aVb1948_A_capillipes
p1212
aa(lp1213
I2
aVa1950_A_virginicus
p1214
aVb1948_A_virginicus_var_glaucopsis
p1215
aa(lp1216
I2
aVa1950_A_virginicus
p1217
aVb1948_A_virginicus_var_virginicus
p1218
aa(lp1219
I2
aVa1950_Andropogon
p1220
aVb1948_A_glomeratus
p1221
aa(lp1222
I2
aVa1950_Andropogon
p1223
aVb1948_A_virginicus
p1224
aa(lp1225
I2
aVb1948_Andropogon
p1226
aVa1950_A_virginicus_var_glaucopsis
p1227
aa(lp1228
I2
aVb1948_Andropogon
p1229
aVa1950_A_virginicus_var_hirsutior
p1230
aa(lp1231
I2
aVb1948_Andropogon
p1232
aVa1950_A_virginicus_var_virginicus
p1233
aa(lp1234
I2
aVa1950_Andropogon
p1235
aVb1948_A_virginicus_var_glaucopsis
p1236
aa(lp1237
I2
aVa1950_Andropogon
p1238
aVb1948_A_virginicus_var_virginicus
p1239
aa(lp1240
I2
aVb1948_A_virginicus
p1241
aVa1950_A_virginicus_var_hirsutior
p1242
aaa(lp1243
(lp1244
I2
aVa1950_A_glomeratus
p1245
aVb1948_A_glomeratus
p1246
aa(lp1247
I2
aVb1948_A_glomeratus
p1248
aVa1950_A_glomeratus
p1249
aa(lp1250
I2
aVa1950_A_glomeratus
p1251
aVb1948_A_virginicus
p1252
aa(lp1253
I2
aVa1950_A_virginicus
p1254
aVb1948_A_virginicus
p1255
aa(lp1256
I2
aVb1948_A_virginicus
p1257
aVa1950_A_glomeratus
p1258
aa(lp1259
I2
aVb1948_A_virginicus
p1260
aVa1950_A_virginicus
p1261
aaa(lp1262
(lp1263
I2
aVa1950_A_capillipes
p1264
aa(lp1265
I2
aVa1950_A_glomeratus
p1266
aa(lp1267
I2
aVa1950_A_virginicus
p1268
aa(lp1269
I2
aVa1950_A_virginicus_var_glaucopsis
p1270
aa(lp1271
I2
aVa1950_A_virginicus_var_hirsutior
p1272
aa(lp1273
I2
aVa1950_A_virginicus_var_virginicus
p1274
aa(lp1275
I2
aVb1948_A_capillipes
p1276
aa(lp1277
I2
aVb1948_A_glomeratus
p1278
aa(lp1279
I2
aVb1948_A_virginicus
p1280
aa(lp1281
I2
aVb1948_A_virginicus_var_glaucopsis
p1282
aa(lp1283
I2
aVb1948_A_virginicus_var_tenuispatheus
p1284
aa(lp1285
I2
aVb1948_A_virginicus_var_virginicus
p1286
aa(lp1287
I2
aVa1950_Andropogon
p1288
aa(lp1289
I2
aVb1948_Andropogon
p1290
aaa(lp1291
(lp1292
I2
aVa1950_Andropogon
p1293
aVa1950_A_capillipes
p1294
aa(lp1295
I2
aVa1950_Andropogon
p1296
aVa1950_A_glomeratus
p1297
aa(lp1298
I2
aVa1950_Andropogon
p1299
aVa1950_A_virginicus
p1300
aa(lp1301
I2
aVa1950_A_virginicus
p1302
aVa1950_A_virginicus_var_glaucopsis
p1303
aa(lp1304
I2
aVa1950_A_virginicus
p1305
aVa1950_A_virginicus_var_hirsutior
p1306
aa(lp1307
I2
aVa1950_A_virginicus
p1308
aVa1950_A_virginicus_var_virginicus
p1309
aa(lp1310
I2
aVb1948_Andropogon
p1311
aVb1948_A_capillipes
p1312
aa(lp1313
I2
aVb1948_Andropogon
p1314
aVb1948_A_glomeratus
p1315
aa(lp1316
I2
aVb1948_Andropogon
p1317
aVb1948_A_virginicus
p1318
aa(lp1319
I2
aVb1948_A_virginicus
p1320
aVb1948_A_virginicus_var_glaucopsis
p1321
aa(lp1322
I2
aVb1948_A_virginicus
p1323
aVb1948_A_virginicus_var_tenuispatheus
p1324
aa(lp1325
I2
aVb1948_A_virginicus
p1326
aVb1948_A_virginicus_var_virginicus
p1327
aaasba(ihelper
PossibleWorld
p1328
(dp1329
g3
I3
sg4
I0
sg5
(lp1330
(lp1331
(lp1332
I3
aVa1950_Andropogon
p1333
aVb1948_Andropogon
p1334
aa(lp1335
I3
aVa1950_A_capillipes
p1336
aVb1948_A_capillipes
p1337
aa(lp1338
I3
aVa1950_A_virginicus_var_virginicus
p1339
aVb1948_A_virginicus_var_virginicus
p1340
aa(lp1341
I3
aVa1950_A_virginicus_var_glaucopsis
p1342
aVb1948_A_virginicus_var_glaucopsis
p1343
aa(lp1344
I3
aVb1948_A_virginicus_var_glaucopsis
p1345
aVa1950_A_virginicus_var_glaucopsis
p1346
aa(lp1347
I3
aVb1948_A_virginicus_var_virginicus
p1348
aVa1950_A_virginicus_var_virginicus
p1349
aa(lp1350
I3
aVb1948_A_capillipes
p1351
aVa1950_A_capillipes
p1352
aa(lp1353
I3
aVb1948_Andropogon
p1354
aVa1950_Andropogon
p1355
aa(lp1356
I3
aVb1948_Andropogon
p1357
aVb1948_Andropogon
p1358
aa(lp1359
I3
aVa1950_Andropogon
p1360
aVa1950_Andropogon
p1361
aa(lp1362
I3
aVb1948_A_virginicus_var_virginicus
p1363
aVb1948_A_virginicus_var_virginicus
p1364
aa(lp1365
I3
aVb1948_A_virginicus_var_tenuispatheus
p1366
aVb1948_A_virginicus_var_tenuispatheus
p1367
aa(lp1368
I3
aVb1948_A_virginicus_var_glaucopsis
p1369
aVb1948_A_virginicus_var_glaucopsis
p1370
aa(lp1371
I3
aVb1948_A_virginicus
p1372
aVb1948_A_virginicus
p1373
aa(lp1374
I3
aVb1948_A_glomeratus
p1375
aVb1948_A_glomeratus
p1376
aa(lp1377
I3
aVb1948_A_capillipes
p1378
aVb1948_A_capillipes
p1379
aa(lp1380
I3
aVa1950_A_virginicus_var_virginicus
p1381
aVa1950_A_virginicus_var_virginicus
p1382
aa(lp1383
I3
aVa1950_A_virginicus_var_hirsutior
p1384
aVa1950_A_virginicus_var_hirsutior
p1385
aa(lp1386
I3
aVa1950_A_virginicus_var_glaucopsis
p1387
aVa1950_A_virginicus_var_glaucopsis
p1388
aa(lp1389
I3
aVa1950_A_virginicus
p1390
aVa1950_A_virginicus
p1391
aa(lp1392
I3
aVa1950_A_glomeratus
p1393
aVa1950_A_glomeratus
p1394
aa(lp1395
I3
aVa1950_A_capillipes
p1396
aVa1950_A_capillipes
p1397
aaa(lp1398
(lp1399
I3
aVa1950_A_glomeratus
p1400
aVa1950_A_capillipes
p1401
aa(lp1402
I3
aVa1950_A_virginicus
p1403
aVa1950_A_capillipes
p1404
aa(lp1405
I3
aVa1950_A_capillipes
p1406
aVa1950_A_glomeratus
p1407
aa(lp1408
I3
aVa1950_A_virginicus
p1409
aVa1950_A_glomeratus
p1410
aa(lp1411
I3
aVa1950_A_capillipes
p1412
aVa1950_A_virginicus
p1413
aa(lp1414
I3
aVa1950_A_glomeratus
p1415
aVa1950_A_virginicus
p1416
aa(lp1417
I3
aVa1950_A_virginicus_var_hirsutior
p1418
aVa1950_A_virginicus_var_glaucopsis
p1419
aa(lp1420
I3
aVa1950_A_virginicus_var_virginicus
p1421
aVa1950_A_virginicus_var_glaucopsis
p1422
aa(lp1423
I3
aVa1950_A_virginicus_var_glaucopsis
p1424
aVa1950_A_virginicus_var_hirsutior
p1425
aa(lp1426
I3
aVa1950_A_virginicus_var_virginicus
p1427
aVa1950_A_virginicus_var_hirsutior
p1428
aa(lp1429
I3
aVa1950_A_virginicus_var_glaucopsis
p1430
aVa1950_A_virginicus_var_virginicus
p1431
aa(lp1432
I3
aVa1950_A_virginicus_var_hirsutior
p1433
aVa1950_A_virginicus_var_virginicus
p1434
aa(lp1435
I3
aVb1948_A_glomeratus
p1436
aVb1948_A_capillipes
p1437
aa(lp1438
I3
aVb1948_A_virginicus
p1439
aVb1948_A_capillipes
p1440
aa(lp1441
I3
aVb1948_A_capillipes
p1442
aVb1948_A_glomeratus
p1443
aa(lp1444
I3
aVb1948_A_virginicus
p1445
aVb1948_A_glomeratus
p1446
aa(lp1447
I3
aVb1948_A_capillipes
p1448
aVb1948_A_virginicus
p1449
aa(lp1450
I3
aVb1948_A_glomeratus
p1451
aVb1948_A_virginicus
p1452
aa(lp1453
I3
aVb1948_A_virginicus_var_tenuispatheus
p1454
aVb1948_A_virginicus_var_glaucopsis
p1455
aa(lp1456
I3
aVb1948_A_virginicus_var_virginicus
p1457
aVb1948_A_virginicus_var_glaucopsis
p1458
aa(lp1459
I3
aVb1948_A_virginicus_var_glaucopsis
p1460
aVb1948_A_virginicus_var_tenuispatheus
p1461
aa(lp1462
I3
aVb1948_A_virginicus_var_virginicus
p1463
aVb1948_A_virginicus_var_tenuispatheus
p1464
aa(lp1465
I3
aVb1948_A_virginicus_var_glaucopsis
p1466
aVb1948_A_virginicus_var_virginicus
p1467
aa(lp1468
I3
aVb1948_A_virginicus_var_tenuispatheus
p1469
aVb1948_A_virginicus_var_virginicus
p1470
aa(lp1471
I3
aVb1948_A_virginicus_var_glaucopsis
p1472
aVb1948_A_glomeratus
p1473
aa(lp1474
I3
aVb1948_A_virginicus_var_tenuispatheus
p1475
aVb1948_A_glomeratus
p1476
aa(lp1477
I3
aVb1948_A_virginicus_var_virginicus
p1478
aVb1948_A_glomeratus
p1479
aa(lp1480
I3
aVb1948_A_virginicus_var_glaucopsis
p1481
aVb1948_A_capillipes
p1482
aa(lp1483
I3
aVb1948_A_virginicus_var_tenuispatheus
p1484
aVb1948_A_capillipes
p1485
aa(lp1486
I3
aVb1948_A_virginicus_var_virginicus
p1487
aVb1948_A_capillipes
p1488
aa(lp1489
I3
aVa1950_A_virginicus_var_glaucopsis
p1490
aVa1950_A_glomeratus
p1491
aa(lp1492
I3
aVa1950_A_virginicus_var_hirsutior
p1493
aVa1950_A_glomeratus
p1494
aa(lp1495
I3
aVa1950_A_virginicus_var_virginicus
p1496
aVa1950_A_glomeratus
p1497
aa(lp1498
I3
aVa1950_A_virginicus_var_glaucopsis
p1499
aVa1950_A_capillipes
p1500
aa(lp1501
I3
aVa1950_A_virginicus_var_hirsutior
p1502
aVa1950_A_capillipes
p1503
aa(lp1504
I3
aVa1950_A_virginicus_var_virginicus
p1505
aVa1950_A_capillipes
p1506
aa(lp1507
I3
aVa1950_A_virginicus_var_hirsutior
p1508
aVb1948_A_virginicus_var_glaucopsis
p1509
aa(lp1510
I3
aVa1950_A_virginicus_var_virginicus
p1511
aVb1948_A_virginicus_var_glaucopsis
p1512
aa(lp1513
I3
aVa1950_A_virginicus_var_glaucopsis
p1514
aVb1948_A_virginicus_var_virginicus
p1515
aa(lp1516
I3
aVa1950_A_virginicus_var_hirsutior
p1517
aVb1948_A_virginicus_var_virginicus
p1518
aa(lp1519
I3
aVa1950_A_glomeratus
p1520
aVb1948_A_capillipes
p1521
aa(lp1522
I3
aVa1950_A_virginicus
p1523
aVb1948_A_capillipes
p1524
aa(lp1525
I3
aVa1950_A_virginicus_var_virginicus
p1526
aVb1948_A_virginicus_var_tenuispatheus
p1527
aa(lp1528
I3
aVa1950_A_virginicus_var_glaucopsis
p1529
aVb1948_A_virginicus_var_tenuispatheus
p1530
aa(lp1531
I3
aVa1950_A_capillipes
p1532
aVb1948_A_virginicus
p1533
aa(lp1534
I3
aVa1950_A_capillipes
p1535
aVb1948_A_glomeratus
p1536
aa(lp1537
I3
aVb1948_A_glomeratus
p1538
aVa1950_A_capillipes
p1539
aa(lp1540
I3
aVb1948_A_virginicus
p1541
aVa1950_A_capillipes
p1542
aa(lp1543
I3
aVb1948_A_virginicus_var_tenuispatheus
p1544
aVa1950_A_virginicus_var_glaucopsis
p1545
aa(lp1546
I3
aVb1948_A_virginicus_var_tenuispatheus
p1547
aVa1950_A_virginicus_var_virginicus
p1548
aa(lp1549
I3
aVb1948_A_capillipes
p1550
aVa1950_A_virginicus
p1551
aa(lp1552
I3
aVb1948_A_capillipes
p1553
aVa1950_A_glomeratus
p1554
aa(lp1555
I3
aVb1948_A_virginicus_var_virginicus
p1556
aVa1950_A_virginicus_var_hirsutior
p1557
aa(lp1558
I3
aVb1948_A_virginicus_var_virginicus
p1559
aVa1950_A_virginicus_var_glaucopsis
p1560
aa(lp1561
I3
aVb1948_A_virginicus_var_glaucopsis
p1562
aVa1950_A_virginicus_var_virginicus
p1563
aa(lp1564
I3
aVb1948_A_virginicus_var_glaucopsis
p1565
aVa1950_A_virginicus_var_hirsutior
p1566
aa(lp1567
I3
aVa1950_A_capillipes
p1568
aVa1950_A_virginicus_var_virginicus
p1569
aa(lp1570
I3
aVa1950_A_capillipes
p1571
aVa1950_A_virginicus_var_hirsutior
p1572
aa(lp1573
I3
aVa1950_A_capillipes
p1574
aVa1950_A_virginicus_var_glaucopsis
p1575
aa(lp1576
I3
aVa1950_A_glomeratus
p1577
aVa1950_A_virginicus_var_virginicus
p1578
aa(lp1579
I3
aVa1950_A_glomeratus
p1580
aVa1950_A_virginicus_var_hirsutior
p1581
aa(lp1582
I3
aVa1950_A_glomeratus
p1583
aVa1950_A_virginicus_var_glaucopsis
p1584
aa(lp1585
I3
aVb1948_A_capillipes
p1586
aVb1948_A_virginicus_var_virginicus
p1587
aa(lp1588
I3
aVb1948_A_capillipes
p1589
aVb1948_A_virginicus_var_tenuispatheus
p1590
aa(lp1591
I3
aVb1948_A_capillipes
p1592
aVb1948_A_virginicus_var_glaucopsis
p1593
aa(lp1594
I3
aVb1948_A_glomeratus
p1595
aVb1948_A_virginicus_var_virginicus
p1596
aa(lp1597
I3
aVb1948_A_glomeratus
p1598
aVb1948_A_virginicus_var_tenuispatheus
p1599
aa(lp1600
I3
aVb1948_A_glomeratus
p1601
aVb1948_A_virginicus_var_glaucopsis
p1602
aa(lp1603
I3
aVa1950_A_virginicus_var_glaucopsis
p1604
aVb1948_A_capillipes
p1605
aa(lp1606
I3
aVa1950_A_virginicus_var_hirsutior
p1607
aVb1948_A_capillipes
p1608
aa(lp1609
I3
aVa1950_A_virginicus_var_virginicus
p1610
aVb1948_A_capillipes
p1611
aa(lp1612
I3
aVb1948_A_virginicus_var_virginicus
p1613
aVa1950_A_capillipes
p1614
aa(lp1615
I3
aVb1948_A_virginicus_var_glaucopsis
p1616
aVa1950_A_capillipes
p1617
aa(lp1618
I3
aVb1948_A_virginicus_var_virginicus
p1619
aVa1950_A_glomeratus
p1620
aa(lp1621
I3
aVb1948_A_virginicus_var_glaucopsis
p1622
aVa1950_A_glomeratus
p1623
aa(lp1624
I3
aVa1950_A_virginicus_var_virginicus
p1625
aVb1948_A_glomeratus
p1626
aa(lp1627
I3
aVa1950_A_virginicus_var_glaucopsis
p1628
aVb1948_A_glomeratus
p1629
aa(lp1630
I3
aVb1948_A_virginicus_var_tenuispatheus
p1631
aVa1950_A_capillipes
p1632
aa(lp1633
I3
aVb1948_A_virginicus_var_tenuispatheus
p1634
aVa1950_A_virginicus
p1635
aa(lp1636
I3
aVa1950_A_glomeratus
p1637
aVb1948_A_virginicus_var_glaucopsis
p1638
aa(lp1639
I3
aVa1950_A_glomeratus
p1640
aVb1948_A_virginicus_var_virginicus
p1641
aa(lp1642
I3
aVa1950_A_virginicus
p1643
aVb1948_A_virginicus_var_tenuispatheus
p1644
aa(lp1645
I3
aVa1950_A_capillipes
p1646
aVb1948_A_virginicus_var_tenuispatheus
p1647
aa(lp1648
I3
aVb1948_A_glomeratus
p1649
aVa1950_A_virginicus_var_glaucopsis
p1650
aa(lp1651
I3
aVb1948_A_capillipes
p1652
aVa1950_A_virginicus_var_glaucopsis
p1653
aa(lp1654
I3
aVb1948_A_virginicus_var_tenuispatheus
p1655
aVa1950_A_virginicus_var_hirsutior
p1656
aa(lp1657
I3
aVb1948_A_capillipes
p1658
aVa1950_A_virginicus_var_hirsutior
p1659
aa(lp1660
I3
aVb1948_A_glomeratus
p1661
aVa1950_A_virginicus_var_virginicus
p1662
aa(lp1663
I3
aVb1948_A_capillipes
p1664
aVa1950_A_virginicus_var_virginicus
p1665
aa(lp1666
I3
aVa1950_A_capillipes
p1667
aVb1948_A_virginicus_var_glaucopsis
p1668
aa(lp1669
I3
aVa1950_A_virginicus_var_hirsutior
p1670
aVb1948_A_virginicus_var_tenuispatheus
p1671
aa(lp1672
I3
aVa1950_A_capillipes
p1673
aVb1948_A_virginicus_var_virginicus
p1674
aa(lp1675
I3
aVa1950_A_virginicus_var_hirsutior
p1676
aVb1948_A_glomeratus
p1677
aa(lp1678
I3
aVb1948_A_glomeratus
p1679
aVa1950_A_virginicus_var_hirsutior
p1680
aa(lp1681
I3
aVb1948_A_glomeratus
p1682
aVa1950_A_virginicus
p1683
aa(lp1684
I3
aVa1950_A_virginicus
p1685
aVb1948_A_glomeratus
p1686
aaa(lp1687
(lp1688
I3
aVa1950_A_capillipes
p1689
aVa1950_Andropogon
p1690
aa(lp1691
I3
aVa1950_A_glomeratus
p1692
aVa1950_Andropogon
p1693
aa(lp1694
I3
aVa1950_A_virginicus
p1695
aVa1950_Andropogon
p1696
aa(lp1697
I3
aVa1950_A_virginicus_var_glaucopsis
p1698
aVa1950_A_virginicus
p1699
aa(lp1700
I3
aVa1950_A_virginicus_var_hirsutior
p1701
aVa1950_A_virginicus
p1702
aa(lp1703
I3
aVa1950_A_virginicus_var_virginicus
p1704
aVa1950_A_virginicus
p1705
aa(lp1706
I3
aVb1948_A_capillipes
p1707
aVb1948_Andropogon
p1708
aa(lp1709
I3
aVb1948_A_glomeratus
p1710
aVb1948_Andropogon
p1711
aa(lp1712
I3
aVb1948_A_virginicus
p1713
aVb1948_Andropogon
p1714
aa(lp1715
I3
aVb1948_A_virginicus_var_glaucopsis
p1716
aVb1948_A_virginicus
p1717
aa(lp1718
I3
aVb1948_A_virginicus_var_tenuispatheus
p1719
aVb1948_A_virginicus
p1720
aa(lp1721
I3
aVb1948_A_virginicus_var_virginicus
p1722
aVb1948_A_virginicus
p1723
aa(lp1724
I3
aVb1948_A_virginicus_var_tenuispatheus
p1725
aVa1950_A_glomeratus
p1726
aa(lp1727
I3
aVb1948_A_virginicus_var_glaucopsis
p1728
aVb1948_Andropogon
p1729
aa(lp1730
I3
aVb1948_A_virginicus_var_tenuispatheus
p1731
aVb1948_Andropogon
p1732
aa(lp1733
I3
aVb1948_A_virginicus_var_virginicus
p1734
aVb1948_Andropogon
p1735
aa(lp1736
I3
aVa1950_A_virginicus_var_glaucopsis
p1737
aVa1950_Andropogon
p1738
aa(lp1739
I3
aVa1950_A_virginicus_var_hirsutior
p1740
aVa1950_Andropogon
p1741
aa(lp1742
I3
aVa1950_A_virginicus_var_virginicus
p1743
aVa1950_Andropogon
p1744
aa(lp1745
I3
aVa1950_A_capillipes
p1746
aVb1948_Andropogon
p1747
aa(lp1748
I3
aVa1950_A_glomeratus
p1749
aVb1948_Andropogon
p1750
aa(lp1751
I3
aVa1950_A_virginicus
p1752
aVb1948_Andropogon
p1753
aa(lp1754
I3
aVa1950_A_virginicus_var_virginicus
p1755
aVb1948_A_virginicus
p1756
aa(lp1757
I3
aVa1950_A_virginicus_var_glaucopsis
p1758
aVb1948_A_virginicus
p1759
aa(lp1760
I3
aVa1950_A_virginicus_var_glaucopsis
p1761
aVb1948_Andropogon
p1762
aa(lp1763
I3
aVa1950_A_virginicus_var_hirsutior
p1764
aVb1948_Andropogon
p1765
aa(lp1766
I3
aVa1950_A_virginicus_var_virginicus
p1767
aVb1948_Andropogon
p1768
aa(lp1769
I3
aVb1948_A_virginicus_var_tenuispatheus
p1770
aVa1950_Andropogon
p1771
aa(lp1772
I3
aVb1948_A_virginicus_var_virginicus
p1773
aVa1950_Andropogon
p1774
aa(lp1775
I3
aVb1948_A_virginicus_var_glaucopsis
p1776
aVa1950_Andropogon
p1777
aa(lp1778
I3
aVb1948_A_virginicus_var_virginicus
p1779
aVa1950_A_virginicus
p1780
aa(lp1781
I3
aVb1948_A_virginicus_var_glaucopsis
p1782
aVa1950_A_virginicus
p1783
aa(lp1784
I3
aVb1948_A_virginicus
p1785
aVa1950_Andropogon
p1786
aa(lp1787
I3
aVb1948_A_glomeratus
p1788
aVa1950_Andropogon
p1789
aa(lp1790
I3
aVb1948_A_capillipes
p1791
aVa1950_Andropogon
p1792
aaa(lp1793
(lp1794
I3
aVa1950_A_glomeratus
p1795
aVb1948_A_virginicus_var_tenuispatheus
p1796
aa(lp1797
I3
aVb1948_A_virginicus
p1798
aVb1948_A_virginicus_var_virginicus
p1799
aa(lp1800
I3
aVb1948_A_virginicus
p1801
aVb1948_A_virginicus_var_tenuispatheus
p1802
aa(lp1803
I3
aVb1948_A_virginicus
p1804
aVb1948_A_virginicus_var_glaucopsis
p1805
aa(lp1806
I3
aVb1948_Andropogon
p1807
aVb1948_A_virginicus
p1808
aa(lp1809
I3
aVb1948_Andropogon
p1810
aVb1948_A_glomeratus
p1811
aa(lp1812
I3
aVb1948_Andropogon
p1813
aVb1948_A_capillipes
p1814
aa(lp1815
I3
aVa1950_A_virginicus
p1816
aVa1950_A_virginicus_var_virginicus
p1817
aa(lp1818
I3
aVa1950_A_virginicus
p1819
aVa1950_A_virginicus_var_hirsutior
p1820
aa(lp1821
I3
aVa1950_A_virginicus
p1822
aVa1950_A_virginicus_var_glaucopsis
p1823
aa(lp1824
I3
aVa1950_Andropogon
p1825
aVa1950_A_virginicus
p1826
aa(lp1827
I3
aVa1950_Andropogon
p1828
aVa1950_A_glomeratus
p1829
aa(lp1830
I3
aVa1950_Andropogon
p1831
aVa1950_A_capillipes
p1832
aa(lp1833
I3
aVb1948_A_virginicus
p1834
aVa1950_A_virginicus_var_glaucopsis
p1835
aa(lp1836
I3
aVb1948_A_virginicus
p1837
aVa1950_A_virginicus_var_virginicus
p1838
aa(lp1839
I3
aVb1948_Andropogon
p1840
aVa1950_A_virginicus
p1841
aa(lp1842
I3
aVb1948_Andropogon
p1843
aVa1950_A_glomeratus
p1844
aa(lp1845
I3
aVb1948_Andropogon
p1846
aVa1950_A_capillipes
p1847
aa(lp1848
I3
aVa1950_Andropogon
p1849
aVa1950_A_virginicus_var_virginicus
p1850
aa(lp1851
I3
aVa1950_Andropogon
p1852
aVa1950_A_virginicus_var_hirsutior
p1853
aa(lp1854
I3
aVa1950_Andropogon
p1855
aVa1950_A_virginicus_var_glaucopsis
p1856
aa(lp1857
I3
aVb1948_Andropogon
p1858
aVb1948_A_virginicus_var_virginicus
p1859
aa(lp1860
I3
aVb1948_Andropogon
p1861
aVb1948_A_virginicus_var_tenuispatheus
p1862
aa(lp1863
I3
aVb1948_Andropogon
p1864
aVb1948_A_virginicus_var_glaucopsis
p1865
aa(lp1866
I3
aVa1950_Andropogon
p1867
aVb1948_A_virginicus_var_tenuispatheus
p1868
aa(lp1869
I3
aVa1950_Andropogon
p1870
aVb1948_A_capillipes
p1871
aa(lp1872
I3
aVa1950_A_virginicus
p1873
aVb1948_A_virginicus_var_glaucopsis
p1874
aa(lp1875
I3
aVa1950_A_virginicus
p1876
aVb1948_A_virginicus_var_virginicus
p1877
aa(lp1878
I3
aVa1950_Andropogon
p1879
aVb1948_A_glomeratus
p1880
aa(lp1881
I3
aVa1950_Andropogon
p1882
aVb1948_A_virginicus
p1883
aa(lp1884
I3
aVb1948_Andropogon
p1885
aVa1950_A_virginicus_var_glaucopsis
p1886
aa(lp1887
I3
aVb1948_Andropogon
p1888
aVa1950_A_virginicus_var_hirsutior
p1889
aa(lp1890
I3
aVb1948_Andropogon
p1891
aVa1950_A_virginicus_var_virginicus
p1892
aa(lp1893
I3
aVa1950_Andropogon
p1894
aVb1948_A_virginicus_var_glaucopsis
p1895
aa(lp1896
I3
aVa1950_Andropogon
p1897
aVb1948_A_virginicus_var_virginicus
p1898
aaa(lp1899
(lp1900
I3
aVa1950_A_glomeratus
p1901
aVb1948_A_glomeratus
p1902
aa(lp1903
I3
aVb1948_A_glomeratus
p1904
aVa1950_A_glomeratus
p1905
aa(lp1906
I3
aVa1950_A_glomeratus
p1907
aVb1948_A_virginicus
p1908
aa(lp1909
I3
aVa1950_A_virginicus_var_hirsutior
p1910
aVb1948_A_virginicus
p1911
aa(lp1912
I3
aVa1950_A_virginicus
p1913
aVb1948_A_virginicus
p1914
aa(lp1915
I3
aVb1948_A_virginicus
p1916
aVa1950_A_glomeratus
p1917
aa(lp1918
I3
aVb1948_A_virginicus
p1919
aVa1950_A_virginicus
p1920
aa(lp1921
I3
aVb1948_A_virginicus
p1922
aVa1950_A_virginicus_var_hirsutior
p1923
aaa(lp1924
(lp1925
I3
aVa1950_A_capillipes
p1926
aa(lp1927
I3
aVa1950_A_glomeratus
p1928
aa(lp1929
I3
aVa1950_A_virginicus
p1930
aa(lp1931
I3
aVa1950_A_virginicus_var_glaucopsis
p1932
aa(lp1933
I3
aVa1950_A_virginicus_var_hirsutior
p1934
aa(lp1935
I3
aVa1950_A_virginicus_var_virginicus
p1936
aa(lp1937
I3
aVb1948_A_capillipes
p1938
aa(lp1939
I3
aVb1948_A_glomeratus
p1940
aa(lp1941
I3
aVb1948_A_virginicus
p1942
aa(lp1943
I3
aVb1948_A_virginicus_var_glaucopsis
p1944
aa(lp1945
I3
aVb1948_A_virginicus_var_tenuispatheus
p1946
aa(lp1947
I3
aVb1948_A_virginicus_var_virginicus
p1948
aa(lp1949
I3
aVa1950_Andropogon
p1950
aa(lp1951
I3
aVb1948_Andropogon
p1952
aaa(lp1953
(lp1954
I3
aVa1950_Andropogon
p1955
aVa1950_A_capillipes
p1956
aa(lp1957
I3
aVa1950_Andropogon
p1958
aVa1950_A_glomeratus
p1959
aa(lp1960
I3
aVa1950_Andropogon
p1961
aVa1950_A_virginicus
p1962
aa(lp1963
I3
aVa1950_A_virginicus
p1964
aVa1950_A_virginicus_var_glaucopsis
p1965
aa(lp1966
I3
aVa1950_A_virginicus
p1967
aVa1950_A_virginicus_var_hirsutior
p1968
aa(lp1969
I3
aVa1950_A_virginicus
p1970
aVa1950_A_virginicus_var_virginicus
p1971
aa(lp1972
I3
aVb1948_Andropogon
p1973
aVb1948_A_capillipes
p1974
aa(lp1975
I3
aVb1948_Andropogon
p1976
aVb1948_A_glomeratus
p1977
aa(lp1978
I3
aVb1948_Andropogon
p1979
aVb1948_A_virginicus
p1980
aa(lp1981
I3
aVb1948_A_virginicus
p1982
aVb1948_A_virginicus_var_glaucopsis
p1983
aa(lp1984
I3
aVb1948_A_virginicus
p1985
aVb1948_A_virginicus_var_tenuispatheus
p1986
aa(lp1987
I3
aVb1948_A_virginicus
p1988
aVb1948_A_virginicus_var_virginicus
p1989
aaasba(ihelper
PossibleWorld
p1990
(dp1991
g3
I4
sg4
I0
sg5
(lp1992
(lp1993
(lp1994
I4
aVa1950_Andropogon
p1995
aVb1948_Andropogon
p1996
aa(lp1997
I4
aVa1950_A_capillipes
p1998
aVb1948_A_capillipes
p1999
aa(lp2000
I4
aVa1950_A_virginicus_var_virginicus
p2001
aVb1948_A_virginicus_var_virginicus
p2002
aa(lp2003
I4
aVa1950_A_virginicus_var_glaucopsis
p2004
aVb1948_A_virginicus_var_glaucopsis
p2005
aa(lp2006
I4
aVb1948_A_virginicus_var_glaucopsis
p2007
aVa1950_A_virginicus_var_glaucopsis
p2008
aa(lp2009
I4
aVb1948_A_virginicus_var_virginicus
p2010
aVa1950_A_virginicus_var_virginicus
p2011
aa(lp2012
I4
aVb1948_A_capillipes
p2013
aVa1950_A_capillipes
p2014
aa(lp2015
I4
aVb1948_Andropogon
p2016
aVa1950_Andropogon
p2017
aa(lp2018
I4
aVb1948_Andropogon
p2019
aVb1948_Andropogon
p2020
aa(lp2021
I4
aVa1950_Andropogon
p2022
aVa1950_Andropogon
p2023
aa(lp2024
I4
aVb1948_A_virginicus_var_virginicus
p2025
aVb1948_A_virginicus_var_virginicus
p2026
aa(lp2027
I4
aVb1948_A_virginicus_var_tenuispatheus
p2028
aVb1948_A_virginicus_var_tenuispatheus
p2029
aa(lp2030
I4
aVb1948_A_virginicus_var_glaucopsis
p2031
aVb1948_A_virginicus_var_glaucopsis
p2032
aa(lp2033
I4
aVb1948_A_virginicus
p2034
aVb1948_A_virginicus
p2035
aa(lp2036
I4
aVb1948_A_glomeratus
p2037
aVb1948_A_glomeratus
p2038
aa(lp2039
I4
aVb1948_A_capillipes
p2040
aVb1948_A_capillipes
p2041
aa(lp2042
I4
aVa1950_A_virginicus_var_virginicus
p2043
aVa1950_A_virginicus_var_virginicus
p2044
aa(lp2045
I4
aVa1950_A_virginicus_var_hirsutior
p2046
aVa1950_A_virginicus_var_hirsutior
p2047
aa(lp2048
I4
aVa1950_A_virginicus_var_glaucopsis
p2049
aVa1950_A_virginicus_var_glaucopsis
p2050
aa(lp2051
I4
aVa1950_A_virginicus
p2052
aVa1950_A_virginicus
p2053
aa(lp2054
I4
aVa1950_A_glomeratus
p2055
aVa1950_A_glomeratus
p2056
aa(lp2057
I4
aVa1950_A_capillipes
p2058
aVa1950_A_capillipes
p2059
aaa(lp2060
(lp2061
I4
aVa1950_A_glomeratus
p2062
aVa1950_A_capillipes
p2063
aa(lp2064
I4
aVa1950_A_virginicus
p2065
aVa1950_A_capillipes
p2066
aa(lp2067
I4
aVa1950_A_capillipes
p2068
aVa1950_A_glomeratus
p2069
aa(lp2070
I4
aVa1950_A_virginicus
p2071
aVa1950_A_glomeratus
p2072
aa(lp2073
I4
aVa1950_A_capillipes
p2074
aVa1950_A_virginicus
p2075
aa(lp2076
I4
aVa1950_A_glomeratus
p2077
aVa1950_A_virginicus
p2078
aa(lp2079
I4
aVa1950_A_virginicus_var_hirsutior
p2080
aVa1950_A_virginicus_var_glaucopsis
p2081
aa(lp2082
I4
aVa1950_A_virginicus_var_virginicus
p2083
aVa1950_A_virginicus_var_glaucopsis
p2084
aa(lp2085
I4
aVa1950_A_virginicus_var_glaucopsis
p2086
aVa1950_A_virginicus_var_hirsutior
p2087
aa(lp2088
I4
aVa1950_A_virginicus_var_virginicus
p2089
aVa1950_A_virginicus_var_hirsutior
p2090
aa(lp2091
I4
aVa1950_A_virginicus_var_glaucopsis
p2092
aVa1950_A_virginicus_var_virginicus
p2093
aa(lp2094
I4
aVa1950_A_virginicus_var_hirsutior
p2095
aVa1950_A_virginicus_var_virginicus
p2096
aa(lp2097
I4
aVb1948_A_glomeratus
p2098
aVb1948_A_capillipes
p2099
aa(lp2100
I4
aVb1948_A_virginicus
p2101
aVb1948_A_capillipes
p2102
aa(lp2103
I4
aVb1948_A_capillipes
p2104
aVb1948_A_glomeratus
p2105
aa(lp2106
I4
aVb1948_A_virginicus
p2107
aVb1948_A_glomeratus
p2108
aa(lp2109
I4
aVb1948_A_capillipes
p2110
aVb1948_A_virginicus
p2111
aa(lp2112
I4
aVb1948_A_glomeratus
p2113
aVb1948_A_virginicus
p2114
aa(lp2115
I4
aVb1948_A_virginicus_var_tenuispatheus
p2116
aVb1948_A_virginicus_var_glaucopsis
p2117
aa(lp2118
I4
aVb1948_A_virginicus_var_virginicus
p2119
aVb1948_A_virginicus_var_glaucopsis
p2120
aa(lp2121
I4
aVb1948_A_virginicus_var_glaucopsis
p2122
aVb1948_A_virginicus_var_tenuispatheus
p2123
aa(lp2124
I4
aVb1948_A_virginicus_var_virginicus
p2125
aVb1948_A_virginicus_var_tenuispatheus
p2126
aa(lp2127
I4
aVb1948_A_virginicus_var_glaucopsis
p2128
aVb1948_A_virginicus_var_virginicus
p2129
aa(lp2130
I4
aVb1948_A_virginicus_var_tenuispatheus
p2131
aVb1948_A_virginicus_var_virginicus
p2132
aa(lp2133
I4
aVb1948_A_virginicus_var_glaucopsis
p2134
aVb1948_A_glomeratus
p2135
aa(lp2136
I4
aVb1948_A_virginicus_var_tenuispatheus
p2137
aVb1948_A_glomeratus
p2138
aa(lp2139
I4
aVb1948_A_virginicus_var_virginicus
p2140
aVb1948_A_glomeratus
p2141
aa(lp2142
I4
aVb1948_A_virginicus_var_glaucopsis
p2143
aVb1948_A_capillipes
p2144
aa(lp2145
I4
aVb1948_A_virginicus_var_tenuispatheus
p2146
aVb1948_A_capillipes
p2147
aa(lp2148
I4
aVb1948_A_virginicus_var_virginicus
p2149
aVb1948_A_capillipes
p2150
aa(lp2151
I4
aVa1950_A_virginicus_var_glaucopsis
p2152
aVa1950_A_glomeratus
p2153
aa(lp2154
I4
aVa1950_A_virginicus_var_hirsutior
p2155
aVa1950_A_glomeratus
p2156
aa(lp2157
I4
aVa1950_A_virginicus_var_virginicus
p2158
aVa1950_A_glomeratus
p2159
aa(lp2160
I4
aVa1950_A_virginicus_var_glaucopsis
p2161
aVa1950_A_capillipes
p2162
aa(lp2163
I4
aVa1950_A_virginicus_var_hirsutior
p2164
aVa1950_A_capillipes
p2165
aa(lp2166
I4
aVa1950_A_virginicus_var_virginicus
p2167
aVa1950_A_capillipes
p2168
aa(lp2169
I4
aVa1950_A_virginicus_var_hirsutior
p2170
aVb1948_A_virginicus_var_glaucopsis
p2171
aa(lp2172
I4
aVa1950_A_virginicus_var_virginicus
p2173
aVb1948_A_virginicus_var_glaucopsis
p2174
aa(lp2175
I4
aVa1950_A_virginicus_var_glaucopsis
p2176
aVb1948_A_virginicus_var_virginicus
p2177
aa(lp2178
I4
aVa1950_A_virginicus_var_hirsutior
p2179
aVb1948_A_virginicus_var_virginicus
p2180
aa(lp2181
I4
aVa1950_A_glomeratus
p2182
aVb1948_A_capillipes
p2183
aa(lp2184
I4
aVa1950_A_virginicus
p2185
aVb1948_A_capillipes
p2186
aa(lp2187
I4
aVa1950_A_virginicus_var_virginicus
p2188
aVb1948_A_virginicus_var_tenuispatheus
p2189
aa(lp2190
I4
aVa1950_A_virginicus_var_glaucopsis
p2191
aVb1948_A_virginicus_var_tenuispatheus
p2192
aa(lp2193
I4
aVa1950_A_capillipes
p2194
aVb1948_A_virginicus
p2195
aa(lp2196
I4
aVa1950_A_capillipes
p2197
aVb1948_A_glomeratus
p2198
aa(lp2199
I4
aVb1948_A_glomeratus
p2200
aVa1950_A_capillipes
p2201
aa(lp2202
I4
aVb1948_A_virginicus
p2203
aVa1950_A_capillipes
p2204
aa(lp2205
I4
aVb1948_A_virginicus_var_tenuispatheus
p2206
aVa1950_A_virginicus_var_glaucopsis
p2207
aa(lp2208
I4
aVb1948_A_virginicus_var_tenuispatheus
p2209
aVa1950_A_virginicus_var_virginicus
p2210
aa(lp2211
I4
aVb1948_A_capillipes
p2212
aVa1950_A_virginicus
p2213
aa(lp2214
I4
aVb1948_A_capillipes
p2215
aVa1950_A_glomeratus
p2216
aa(lp2217
I4
aVb1948_A_virginicus_var_virginicus
p2218
aVa1950_A_virginicus_var_hirsutior
p2219
aa(lp2220
I4
aVb1948_A_virginicus_var_virginicus
p2221
aVa1950_A_virginicus_var_glaucopsis
p2222
aa(lp2223
I4
aVb1948_A_virginicus_var_glaucopsis
p2224
aVa1950_A_virginicus_var_virginicus
p2225
aa(lp2226
I4
aVb1948_A_virginicus_var_glaucopsis
p2227
aVa1950_A_virginicus_var_hirsutior
p2228
aa(lp2229
I4
aVa1950_A_capillipes
p2230
aVa1950_A_virginicus_var_virginicus
p2231
aa(lp2232
I4
aVa1950_A_capillipes
p2233
aVa1950_A_virginicus_var_hirsutior
p2234
aa(lp2235
I4
aVa1950_A_capillipes
p2236
aVa1950_A_virginicus_var_glaucopsis
p2237
aa(lp2238
I4
aVa1950_A_glomeratus
p2239
aVa1950_A_virginicus_var_virginicus
p2240
aa(lp2241
I4
aVa1950_A_glomeratus
p2242
aVa1950_A_virginicus_var_hirsutior
p2243
aa(lp2244
I4
aVa1950_A_glomeratus
p2245
aVa1950_A_virginicus_var_glaucopsis
p2246
aa(lp2247
I4
aVb1948_A_capillipes
p2248
aVb1948_A_virginicus_var_virginicus
p2249
aa(lp2250
I4
aVb1948_A_capillipes
p2251
aVb1948_A_virginicus_var_tenuispatheus
p2252
aa(lp2253
I4
aVb1948_A_capillipes
p2254
aVb1948_A_virginicus_var_glaucopsis
p2255
aa(lp2256
I4
aVb1948_A_glomeratus
p2257
aVb1948_A_virginicus_var_virginicus
p2258
aa(lp2259
I4
aVb1948_A_glomeratus
p2260
aVb1948_A_virginicus_var_tenuispatheus
p2261
aa(lp2262
I4
aVb1948_A_glomeratus
p2263
aVb1948_A_virginicus_var_glaucopsis
p2264
aa(lp2265
I4
aVa1950_A_virginicus_var_glaucopsis
p2266
aVb1948_A_capillipes
p2267
aa(lp2268
I4
aVa1950_A_virginicus_var_hirsutior
p2269
aVb1948_A_capillipes
p2270
aa(lp2271
I4
aVa1950_A_virginicus_var_virginicus
p2272
aVb1948_A_capillipes
p2273
aa(lp2274
I4
aVb1948_A_virginicus_var_virginicus
p2275
aVa1950_A_capillipes
p2276
aa(lp2277
I4
aVb1948_A_virginicus_var_glaucopsis
p2278
aVa1950_A_capillipes
p2279
aa(lp2280
I4
aVb1948_A_virginicus_var_virginicus
p2281
aVa1950_A_glomeratus
p2282
aa(lp2283
I4
aVb1948_A_virginicus_var_glaucopsis
p2284
aVa1950_A_glomeratus
p2285
aa(lp2286
I4
aVa1950_A_virginicus_var_virginicus
p2287
aVb1948_A_glomeratus
p2288
aa(lp2289
I4
aVa1950_A_virginicus_var_glaucopsis
p2290
aVb1948_A_glomeratus
p2291
aa(lp2292
I4
aVb1948_A_virginicus_var_tenuispatheus
p2293
aVa1950_A_capillipes
p2294
aa(lp2295
I4
aVb1948_A_virginicus_var_tenuispatheus
p2296
aVa1950_A_virginicus
p2297
aa(lp2298
I4
aVa1950_A_glomeratus
p2299
aVb1948_A_virginicus_var_glaucopsis
p2300
aa(lp2301
I4
aVa1950_A_glomeratus
p2302
aVb1948_A_virginicus_var_virginicus
p2303
aa(lp2304
I4
aVa1950_A_virginicus
p2305
aVb1948_A_virginicus_var_tenuispatheus
p2306
aa(lp2307
I4
aVa1950_A_capillipes
p2308
aVb1948_A_virginicus_var_tenuispatheus
p2309
aa(lp2310
I4
aVb1948_A_glomeratus
p2311
aVa1950_A_virginicus_var_glaucopsis
p2312
aa(lp2313
I4
aVb1948_A_capillipes
p2314
aVa1950_A_virginicus_var_glaucopsis
p2315
aa(lp2316
I4
aVb1948_A_virginicus_var_tenuispatheus
p2317
aVa1950_A_virginicus_var_hirsutior
p2318
aa(lp2319
I4
aVb1948_A_capillipes
p2320
aVa1950_A_virginicus_var_hirsutior
p2321
aa(lp2322
I4
aVb1948_A_glomeratus
p2323
aVa1950_A_virginicus_var_virginicus
p2324
aa(lp2325
I4
aVb1948_A_capillipes
p2326
aVa1950_A_virginicus_var_virginicus
p2327
aa(lp2328
I4
aVa1950_A_capillipes
p2329
aVb1948_A_virginicus_var_glaucopsis
p2330
aa(lp2331
I4
aVa1950_A_virginicus_var_hirsutior
p2332
aVb1948_A_virginicus_var_tenuispatheus
p2333
aa(lp2334
I4
aVa1950_A_capillipes
p2335
aVb1948_A_virginicus_var_virginicus
p2336
aa(lp2337
I4
aVa1950_A_virginicus_var_hirsutior
p2338
aVb1948_A_glomeratus
p2339
aa(lp2340
I4
aVb1948_A_glomeratus
p2341
aVa1950_A_virginicus_var_hirsutior
p2342
aa(lp2343
I4
aVa1950_A_virginicus_var_hirsutior
p2344
aVb1948_A_virginicus
p2345
aa(lp2346
I4
aVb1948_A_virginicus
p2347
aVa1950_A_virginicus_var_hirsutior
p2348
aa(lp2349
I4
aVb1948_A_glomeratus
p2350
aVa1950_A_virginicus
p2351
aa(lp2352
I4
aVa1950_A_virginicus
p2353
aVb1948_A_glomeratus
p2354
aaa(lp2355
(lp2356
I4
aVa1950_A_capillipes
p2357
aVa1950_Andropogon
p2358
aa(lp2359
I4
aVa1950_A_glomeratus
p2360
aVa1950_Andropogon
p2361
aa(lp2362
I4
aVa1950_A_virginicus
p2363
aVa1950_Andropogon
p2364
aa(lp2365
I4
aVa1950_A_virginicus_var_glaucopsis
p2366
aVa1950_A_virginicus
p2367
aa(lp2368
I4
aVa1950_A_virginicus_var_hirsutior
p2369
aVa1950_A_virginicus
p2370
aa(lp2371
I4
aVa1950_A_virginicus_var_virginicus
p2372
aVa1950_A_virginicus
p2373
aa(lp2374
I4
aVb1948_A_capillipes
p2375
aVb1948_Andropogon
p2376
aa(lp2377
I4
aVb1948_A_glomeratus
p2378
aVb1948_Andropogon
p2379
aa(lp2380
I4
aVb1948_A_virginicus
p2381
aVb1948_Andropogon
p2382
aa(lp2383
I4
aVb1948_A_virginicus_var_glaucopsis
p2384
aVb1948_A_virginicus
p2385
aa(lp2386
I4
aVb1948_A_virginicus_var_tenuispatheus
p2387
aVb1948_A_virginicus
p2388
aa(lp2389
I4
aVb1948_A_virginicus_var_virginicus
p2390
aVb1948_A_virginicus
p2391
aa(lp2392
I4
aVb1948_A_virginicus_var_tenuispatheus
p2393
aVa1950_A_glomeratus
p2394
aa(lp2395
I4
aVb1948_A_virginicus_var_glaucopsis
p2396
aVb1948_Andropogon
p2397
aa(lp2398
I4
aVb1948_A_virginicus_var_tenuispatheus
p2399
aVb1948_Andropogon
p2400
aa(lp2401
I4
aVb1948_A_virginicus_var_virginicus
p2402
aVb1948_Andropogon
p2403
aa(lp2404
I4
aVa1950_A_virginicus_var_glaucopsis
p2405
aVa1950_Andropogon
p2406
aa(lp2407
I4
aVa1950_A_virginicus_var_hirsutior
p2408
aVa1950_Andropogon
p2409
aa(lp2410
I4
aVa1950_A_virginicus_var_virginicus
p2411
aVa1950_Andropogon
p2412
aa(lp2413
I4
aVa1950_A_capillipes
p2414
aVb1948_Andropogon
p2415
aa(lp2416
I4
aVa1950_A_glomeratus
p2417
aVb1948_Andropogon
p2418
aa(lp2419
I4
aVa1950_A_virginicus
p2420
aVb1948_Andropogon
p2421
aa(lp2422
I4
aVa1950_A_virginicus_var_virginicus
p2423
aVb1948_A_virginicus
p2424
aa(lp2425
I4
aVa1950_A_virginicus_var_glaucopsis
p2426
aVb1948_A_virginicus
p2427
aa(lp2428
I4
aVa1950_A_virginicus_var_glaucopsis
p2429
aVb1948_Andropogon
p2430
aa(lp2431
I4
aVa1950_A_virginicus_var_hirsutior
p2432
aVb1948_Andropogon
p2433
aa(lp2434
I4
aVa1950_A_virginicus_var_virginicus
p2435
aVb1948_Andropogon
p2436
aa(lp2437
I4
aVb1948_A_virginicus_var_tenuispatheus
p2438
aVa1950_Andropogon
p2439
aa(lp2440
I4
aVb1948_A_virginicus_var_virginicus
p2441
aVa1950_Andropogon
p2442
aa(lp2443
I4
aVb1948_A_virginicus_var_glaucopsis
p2444
aVa1950_Andropogon
p2445
aa(lp2446
I4
aVb1948_A_virginicus_var_virginicus
p2447
aVa1950_A_virginicus
p2448
aa(lp2449
I4
aVb1948_A_virginicus_var_glaucopsis
p2450
aVa1950_A_virginicus
p2451
aa(lp2452
I4
aVb1948_A_virginicus
p2453
aVa1950_Andropogon
p2454
aa(lp2455
I4
aVb1948_A_glomeratus
p2456
aVa1950_Andropogon
p2457
aa(lp2458
I4
aVb1948_A_capillipes
p2459
aVa1950_Andropogon
p2460
aaa(lp2461
(lp2462
I4
aVa1950_A_glomeratus
p2463
aVb1948_A_virginicus_var_tenuispatheus
p2464
aa(lp2465
I4
aVb1948_A_virginicus
p2466
aVb1948_A_virginicus_var_virginicus
p2467
aa(lp2468
I4
aVb1948_A_virginicus
p2469
aVb1948_A_virginicus_var_tenuispatheus
p2470
aa(lp2471
I4
aVb1948_A_virginicus
p2472
aVb1948_A_virginicus_var_glaucopsis
p2473
aa(lp2474
I4
aVb1948_Andropogon
p2475
aVb1948_A_virginicus
p2476
aa(lp2477
I4
aVb1948_Andropogon
p2478
aVb1948_A_glomeratus
p2479
aa(lp2480
I4
aVb1948_Andropogon
p2481
aVb1948_A_capillipes
p2482
aa(lp2483
I4
aVa1950_A_virginicus
p2484
aVa1950_A_virginicus_var_virginicus
p2485
aa(lp2486
I4
aVa1950_A_virginicus
p2487
aVa1950_A_virginicus_var_hirsutior
p2488
aa(lp2489
I4
aVa1950_A_virginicus
p2490
aVa1950_A_virginicus_var_glaucopsis
p2491
aa(lp2492
I4
aVa1950_Andropogon
p2493
aVa1950_A_virginicus
p2494
aa(lp2495
I4
aVa1950_Andropogon
p2496
aVa1950_A_glomeratus
p2497
aa(lp2498
I4
aVa1950_Andropogon
p2499
aVa1950_A_capillipes
p2500
aa(lp2501
I4
aVb1948_A_virginicus
p2502
aVa1950_A_virginicus_var_glaucopsis
p2503
aa(lp2504
I4
aVb1948_A_virginicus
p2505
aVa1950_A_virginicus_var_virginicus
p2506
aa(lp2507
I4
aVb1948_Andropogon
p2508
aVa1950_A_virginicus
p2509
aa(lp2510
I4
aVb1948_Andropogon
p2511
aVa1950_A_glomeratus
p2512
aa(lp2513
I4
aVb1948_Andropogon
p2514
aVa1950_A_capillipes
p2515
aa(lp2516
I4
aVa1950_Andropogon
p2517
aVa1950_A_virginicus_var_virginicus
p2518
aa(lp2519
I4
aVa1950_Andropogon
p2520
aVa1950_A_virginicus_var_hirsutior
p2521
aa(lp2522
I4
aVa1950_Andropogon
p2523
aVa1950_A_virginicus_var_glaucopsis
p2524
aa(lp2525
I4
aVb1948_Andropogon
p2526
aVb1948_A_virginicus_var_virginicus
p2527
aa(lp2528
I4
aVb1948_Andropogon
p2529
aVb1948_A_virginicus_var_tenuispatheus
p2530
aa(lp2531
I4
aVb1948_Andropogon
p2532
aVb1948_A_virginicus_var_glaucopsis
p2533
aa(lp2534
I4
aVa1950_Andropogon
p2535
aVb1948_A_virginicus_var_tenuispatheus
p2536
aa(lp2537
I4
aVa1950_Andropogon
p2538
aVb1948_A_capillipes
p2539
aa(lp2540
I4
aVa1950_A_virginicus
p2541
aVb1948_A_virginicus_var_glaucopsis
p2542
aa(lp2543
I4
aVa1950_A_virginicus
p2544
aVb1948_A_virginicus_var_virginicus
p2545
aa(lp2546
I4
aVa1950_Andropogon
p2547
aVb1948_A_glomeratus
p2548
aa(lp2549
I4
aVa1950_Andropogon
p2550
aVb1948_A_virginicus
p2551
aa(lp2552
I4
aVb1948_Andropogon
p2553
aVa1950_A_virginicus_var_glaucopsis
p2554
aa(lp2555
I4
aVb1948_Andropogon
p2556
aVa1950_A_virginicus_var_hirsutior
p2557
aa(lp2558
I4
aVb1948_Andropogon
p2559
aVa1950_A_virginicus_var_virginicus
p2560
aa(lp2561
I4
aVa1950_Andropogon
p2562
aVb1948_A_virginicus_var_glaucopsis
p2563
aa(lp2564
I4
aVa1950_Andropogon
p2565
aVb1948_A_virginicus_var_virginicus
p2566
aaa(lp2567
(lp2568
I4
aVa1950_A_glomeratus
p2569
aVb1948_A_glomeratus
p2570
aa(lp2571
I4
aVb1948_A_glomeratus
p2572
aVa1950_A_glomeratus
p2573
aa(lp2574
I4
aVa1950_A_glomeratus
p2575
aVb1948_A_virginicus
p2576
aa(lp2577
I4
aVa1950_A_virginicus
p2578
aVb1948_A_virginicus
p2579
aa(lp2580
I4
aVb1948_A_virginicus
p2581
aVa1950_A_glomeratus
p2582
aa(lp2583
I4
aVb1948_A_virginicus
p2584
aVa1950_A_virginicus
p2585
aaa(lp2586
(lp2587
I4
aVa1950_A_capillipes
p2588
aa(lp2589
I4
aVa1950_A_glomeratus
p2590
aa(lp2591
I4
aVa1950_A_virginicus
p2592
aa(lp2593
I4
aVa1950_A_virginicus_var_glaucopsis
p2594
aa(lp2595
I4
aVa1950_A_virginicus_var_hirsutior
p2596
aa(lp2597
I4
aVa1950_A_virginicus_var_virginicus
p2598
aa(lp2599
I4
aVb1948_A_capillipes
p2600
aa(lp2601
I4
aVb1948_A_glomeratus
p2602
aa(lp2603
I4
aVb1948_A_virginicus
p2604
aa(lp2605
I4
aVb1948_A_virginicus_var_glaucopsis
p2606
aa(lp2607
I4
aVb1948_A_virginicus_var_tenuispatheus
p2608
aa(lp2609
I4
aVb1948_A_virginicus_var_virginicus
p2610
aa(lp2611
I4
aVa1950_Andropogon
p2612
aa(lp2613
I4
aVb1948_Andropogon
p2614
aaa(lp2615
(lp2616
I4
aVa1950_Andropogon
p2617
aVa1950_A_capillipes
p2618
aa(lp2619
I4
aVa1950_Andropogon
p2620
aVa1950_A_glomeratus
p2621
aa(lp2622
I4
aVa1950_Andropogon
p2623
aVa1950_A_virginicus
p2624
aa(lp2625
I4
aVa1950_A_virginicus
p2626
aVa1950_A_virginicus_var_glaucopsis
p2627
aa(lp2628
I4
aVa1950_A_virginicus
p2629
aVa1950_A_virginicus_var_hirsutior
p2630
aa(lp2631
I4
aVa1950_A_virginicus
p2632
aVa1950_A_virginicus_var_virginicus
p2633
aa(lp2634
I4
aVb1948_Andropogon
p2635
aVb1948_A_capillipes
p2636
aa(lp2637
I4
aVb1948_Andropogon
p2638
aVb1948_A_glomeratus
p2639
aa(lp2640
I4
aVb1948_Andropogon
p2641
aVb1948_A_virginicus
p2642
aa(lp2643
I4
aVb1948_A_virginicus
p2644
aVb1948_A_virginicus_var_glaucopsis
p2645
aa(lp2646
I4
aVb1948_A_virginicus
p2647
aVb1948_A_virginicus_var_tenuispatheus
p2648
aa(lp2649
I4
aVb1948_A_virginicus
p2650
aVb1948_A_virginicus_var_virginicus
p2651
aaasba(ihelper
PossibleWorld
p2652
(dp2653
g3
I5
sg4
I0
sg5
(lp2654
(lp2655
(lp2656
I5
aVa1950_Andropogon
p2657
aVb1948_Andropogon
p2658
aa(lp2659
I5
aVa1950_A_capillipes
p2660
aVb1948_A_capillipes
p2661
aa(lp2662
I5
aVa1950_A_virginicus_var_virginicus
p2663
aVb1948_A_virginicus_var_virginicus
p2664
aa(lp2665
I5
aVa1950_A_virginicus_var_glaucopsis
p2666
aVb1948_A_virginicus_var_glaucopsis
p2667
aa(lp2668
I5
aVb1948_A_virginicus_var_glaucopsis
p2669
aVa1950_A_virginicus_var_glaucopsis
p2670
aa(lp2671
I5
aVb1948_A_virginicus_var_virginicus
p2672
aVa1950_A_virginicus_var_virginicus
p2673
aa(lp2674
I5
aVb1948_A_capillipes
p2675
aVa1950_A_capillipes
p2676
aa(lp2677
I5
aVb1948_Andropogon
p2678
aVa1950_Andropogon
p2679
aa(lp2680
I5
aVb1948_Andropogon
p2681
aVb1948_Andropogon
p2682
aa(lp2683
I5
aVa1950_Andropogon
p2684
aVa1950_Andropogon
p2685
aa(lp2686
I5
aVb1948_A_virginicus_var_virginicus
p2687
aVb1948_A_virginicus_var_virginicus
p2688
aa(lp2689
I5
aVb1948_A_virginicus_var_tenuispatheus
p2690
aVb1948_A_virginicus_var_tenuispatheus
p2691
aa(lp2692
I5
aVb1948_A_virginicus_var_glaucopsis
p2693
aVb1948_A_virginicus_var_glaucopsis
p2694
aa(lp2695
I5
aVb1948_A_virginicus
p2696
aVb1948_A_virginicus
p2697
aa(lp2698
I5
aVb1948_A_glomeratus
p2699
aVb1948_A_glomeratus
p2700
aa(lp2701
I5
aVb1948_A_capillipes
p2702
aVb1948_A_capillipes
p2703
aa(lp2704
I5
aVa1950_A_virginicus_var_virginicus
p2705
aVa1950_A_virginicus_var_virginicus
p2706
aa(lp2707
I5
aVa1950_A_virginicus_var_hirsutior
p2708
aVa1950_A_virginicus_var_hirsutior
p2709
aa(lp2710
I5
aVa1950_A_virginicus_var_glaucopsis
p2711
aVa1950_A_virginicus_var_glaucopsis
p2712
aa(lp2713
I5
aVa1950_A_virginicus
p2714
aVa1950_A_virginicus
p2715
aa(lp2716
I5
aVa1950_A_glomeratus
p2717
aVa1950_A_glomeratus
p2718
aa(lp2719
I5
aVa1950_A_capillipes
p2720
aVa1950_A_capillipes
p2721
aaa(lp2722
(lp2723
I5
aVa1950_A_glomeratus
p2724
aVa1950_A_capillipes
p2725
aa(lp2726
I5
aVa1950_A_virginicus
p2727
aVa1950_A_capillipes
p2728
aa(lp2729
I5
aVa1950_A_capillipes
p2730
aVa1950_A_glomeratus
p2731
aa(lp2732
I5
aVa1950_A_virginicus
p2733
aVa1950_A_glomeratus
p2734
aa(lp2735
I5
aVa1950_A_capillipes
p2736
aVa1950_A_virginicus
p2737
aa(lp2738
I5
aVa1950_A_glomeratus
p2739
aVa1950_A_virginicus
p2740
aa(lp2741
I5
aVa1950_A_virginicus_var_hirsutior
p2742
aVa1950_A_virginicus_var_glaucopsis
p2743
aa(lp2744
I5
aVa1950_A_virginicus_var_virginicus
p2745
aVa1950_A_virginicus_var_glaucopsis
p2746
aa(lp2747
I5
aVa1950_A_virginicus_var_glaucopsis
p2748
aVa1950_A_virginicus_var_hirsutior
p2749
aa(lp2750
I5
aVa1950_A_virginicus_var_virginicus
p2751
aVa1950_A_virginicus_var_hirsutior
p2752
aa(lp2753
I5
aVa1950_A_virginicus_var_glaucopsis
p2754
aVa1950_A_virginicus_var_virginicus
p2755
aa(lp2756
I5
aVa1950_A_virginicus_var_hirsutior
p2757
aVa1950_A_virginicus_var_virginicus
p2758
aa(lp2759
I5
aVb1948_A_glomeratus
p2760
aVb1948_A_capillipes
p2761
aa(lp2762
I5
aVb1948_A_virginicus
p2763
aVb1948_A_capillipes
p2764
aa(lp2765
I5
aVb1948_A_capillipes
p2766
aVb1948_A_glomeratus
p2767
aa(lp2768
I5
aVb1948_A_virginicus
p2769
aVb1948_A_glomeratus
p2770
aa(lp2771
I5
aVb1948_A_capillipes
p2772
aVb1948_A_virginicus
p2773
aa(lp2774
I5
aVb1948_A_glomeratus
p2775
aVb1948_A_virginicus
p2776
aa(lp2777
I5
aVb1948_A_virginicus_var_tenuispatheus
p2778
aVb1948_A_virginicus_var_glaucopsis
p2779
aa(lp2780
I5
aVb1948_A_virginicus_var_virginicus
p2781
aVb1948_A_virginicus_var_glaucopsis
p2782
aa(lp2783
I5
aVb1948_A_virginicus_var_glaucopsis
p2784
aVb1948_A_virginicus_var_tenuispatheus
p2785
aa(lp2786
I5
aVb1948_A_virginicus_var_virginicus
p2787
aVb1948_A_virginicus_var_tenuispatheus
p2788
aa(lp2789
I5
aVb1948_A_virginicus_var_glaucopsis
p2790
aVb1948_A_virginicus_var_virginicus
p2791
aa(lp2792
I5
aVb1948_A_virginicus_var_tenuispatheus
p2793
aVb1948_A_virginicus_var_virginicus
p2794
aa(lp2795
I5
aVb1948_A_virginicus_var_glaucopsis
p2796
aVb1948_A_glomeratus
p2797
aa(lp2798
I5
aVb1948_A_virginicus_var_tenuispatheus
p2799
aVb1948_A_glomeratus
p2800
aa(lp2801
I5
aVb1948_A_virginicus_var_virginicus
p2802
aVb1948_A_glomeratus
p2803
aa(lp2804
I5
aVb1948_A_virginicus_var_glaucopsis
p2805
aVb1948_A_capillipes
p2806
aa(lp2807
I5
aVb1948_A_virginicus_var_tenuispatheus
p2808
aVb1948_A_capillipes
p2809
aa(lp2810
I5
aVb1948_A_virginicus_var_virginicus
p2811
aVb1948_A_capillipes
p2812
aa(lp2813
I5
aVa1950_A_virginicus_var_glaucopsis
p2814
aVa1950_A_glomeratus
p2815
aa(lp2816
I5
aVa1950_A_virginicus_var_hirsutior
p2817
aVa1950_A_glomeratus
p2818
aa(lp2819
I5
aVa1950_A_virginicus_var_virginicus
p2820
aVa1950_A_glomeratus
p2821
aa(lp2822
I5
aVa1950_A_virginicus_var_glaucopsis
p2823
aVa1950_A_capillipes
p2824
aa(lp2825
I5
aVa1950_A_virginicus_var_hirsutior
p2826
aVa1950_A_capillipes
p2827
aa(lp2828
I5
aVa1950_A_virginicus_var_virginicus
p2829
aVa1950_A_capillipes
p2830
aa(lp2831
I5
aVa1950_A_virginicus_var_hirsutior
p2832
aVb1948_A_virginicus_var_glaucopsis
p2833
aa(lp2834
I5
aVa1950_A_virginicus_var_virginicus
p2835
aVb1948_A_virginicus_var_glaucopsis
p2836
aa(lp2837
I5
aVa1950_A_virginicus_var_glaucopsis
p2838
aVb1948_A_virginicus_var_virginicus
p2839
aa(lp2840
I5
aVa1950_A_virginicus_var_hirsutior
p2841
aVb1948_A_virginicus_var_virginicus
p2842
aa(lp2843
I5
aVa1950_A_glomeratus
p2844
aVb1948_A_capillipes
p2845
aa(lp2846
I5
aVa1950_A_virginicus
p2847
aVb1948_A_capillipes
p2848
aa(lp2849
I5
aVa1950_A_virginicus_var_virginicus
p2850
aVb1948_A_virginicus_var_tenuispatheus
p2851
aa(lp2852
I5
aVa1950_A_virginicus_var_glaucopsis
p2853
aVb1948_A_virginicus_var_tenuispatheus
p2854
aa(lp2855
I5
aVa1950_A_capillipes
p2856
aVb1948_A_virginicus
p2857
aa(lp2858
I5
aVa1950_A_capillipes
p2859
aVb1948_A_glomeratus
p2860
aa(lp2861
I5
aVb1948_A_glomeratus
p2862
aVa1950_A_capillipes
p2863
aa(lp2864
I5
aVb1948_A_virginicus
p2865
aVa1950_A_capillipes
p2866
aa(lp2867
I5
aVb1948_A_virginicus_var_tenuispatheus
p2868
aVa1950_A_virginicus_var_glaucopsis
p2869
aa(lp2870
I5
aVb1948_A_virginicus_var_tenuispatheus
p2871
aVa1950_A_virginicus_var_virginicus
p2872
aa(lp2873
I5
aVb1948_A_capillipes
p2874
aVa1950_A_virginicus
p2875
aa(lp2876
I5
aVb1948_A_capillipes
p2877
aVa1950_A_glomeratus
p2878
aa(lp2879
I5
aVb1948_A_virginicus_var_virginicus
p2880
aVa1950_A_virginicus_var_hirsutior
p2881
aa(lp2882
I5
aVb1948_A_virginicus_var_virginicus
p2883
aVa1950_A_virginicus_var_glaucopsis
p2884
aa(lp2885
I5
aVb1948_A_virginicus_var_glaucopsis
p2886
aVa1950_A_virginicus_var_virginicus
p2887
aa(lp2888
I5
aVb1948_A_virginicus_var_glaucopsis
p2889
aVa1950_A_virginicus_var_hirsutior
p2890
aa(lp2891
I5
aVa1950_A_capillipes
p2892
aVa1950_A_virginicus_var_virginicus
p2893
aa(lp2894
I5
aVa1950_A_capillipes
p2895
aVa1950_A_virginicus_var_hirsutior
p2896
aa(lp2897
I5
aVa1950_A_capillipes
p2898
aVa1950_A_virginicus_var_glaucopsis
p2899
aa(lp2900
I5
aVa1950_A_glomeratus
p2901
aVa1950_A_virginicus_var_virginicus
p2902
aa(lp2903
I5
aVa1950_A_glomeratus
p2904
aVa1950_A_virginicus_var_hirsutior
p2905
aa(lp2906
I5
aVa1950_A_glomeratus
p2907
aVa1950_A_virginicus_var_glaucopsis
p2908
aa(lp2909
I5
aVb1948_A_capillipes
p2910
aVb1948_A_virginicus_var_virginicus
p2911
aa(lp2912
I5
aVb1948_A_capillipes
p2913
aVb1948_A_virginicus_var_tenuispatheus
p2914
aa(lp2915
I5
aVb1948_A_capillipes
p2916
aVb1948_A_virginicus_var_glaucopsis
p2917
aa(lp2918
I5
aVb1948_A_glomeratus
p2919
aVb1948_A_virginicus_var_virginicus
p2920
aa(lp2921
I5
aVb1948_A_glomeratus
p2922
aVb1948_A_virginicus_var_tenuispatheus
p2923
aa(lp2924
I5
aVb1948_A_glomeratus
p2925
aVb1948_A_virginicus_var_glaucopsis
p2926
aa(lp2927
I5
aVa1950_A_virginicus_var_glaucopsis
p2928
aVb1948_A_capillipes
p2929
aa(lp2930
I5
aVa1950_A_virginicus_var_hirsutior
p2931
aVb1948_A_capillipes
p2932
aa(lp2933
I5
aVa1950_A_virginicus_var_virginicus
p2934
aVb1948_A_capillipes
p2935
aa(lp2936
I5
aVb1948_A_virginicus_var_virginicus
p2937
aVa1950_A_capillipes
p2938
aa(lp2939
I5
aVb1948_A_virginicus_var_glaucopsis
p2940
aVa1950_A_capillipes
p2941
aa(lp2942
I5
aVb1948_A_virginicus_var_virginicus
p2943
aVa1950_A_glomeratus
p2944
aa(lp2945
I5
aVb1948_A_virginicus_var_glaucopsis
p2946
aVa1950_A_glomeratus
p2947
aa(lp2948
I5
aVa1950_A_virginicus_var_virginicus
p2949
aVb1948_A_glomeratus
p2950
aa(lp2951
I5
aVa1950_A_virginicus_var_glaucopsis
p2952
aVb1948_A_glomeratus
p2953
aa(lp2954
I5
aVb1948_A_virginicus_var_tenuispatheus
p2955
aVa1950_A_capillipes
p2956
aa(lp2957
I5
aVb1948_A_virginicus_var_tenuispatheus
p2958
aVa1950_A_virginicus
p2959
aa(lp2960
I5
aVa1950_A_glomeratus
p2961
aVb1948_A_virginicus_var_glaucopsis
p2962
aa(lp2963
I5
aVa1950_A_glomeratus
p2964
aVb1948_A_virginicus_var_virginicus
p2965
aa(lp2966
I5
aVa1950_A_virginicus
p2967
aVb1948_A_virginicus_var_tenuispatheus
p2968
aa(lp2969
I5
aVa1950_A_capillipes
p2970
aVb1948_A_virginicus_var_tenuispatheus
p2971
aa(lp2972
I5
aVb1948_A_glomeratus
p2973
aVa1950_A_virginicus_var_glaucopsis
p2974
aa(lp2975
I5
aVb1948_A_capillipes
p2976
aVa1950_A_virginicus_var_glaucopsis
p2977
aa(lp2978
I5
aVb1948_A_virginicus_var_tenuispatheus
p2979
aVa1950_A_virginicus_var_hirsutior
p2980
aa(lp2981
I5
aVb1948_A_capillipes
p2982
aVa1950_A_virginicus_var_hirsutior
p2983
aa(lp2984
I5
aVb1948_A_glomeratus
p2985
aVa1950_A_virginicus_var_virginicus
p2986
aa(lp2987
I5
aVb1948_A_capillipes
p2988
aVa1950_A_virginicus_var_virginicus
p2989
aa(lp2990
I5
aVa1950_A_capillipes
p2991
aVb1948_A_virginicus_var_glaucopsis
p2992
aa(lp2993
I5
aVa1950_A_virginicus_var_hirsutior
p2994
aVb1948_A_virginicus_var_tenuispatheus
p2995
aa(lp2996
I5
aVa1950_A_capillipes
p2997
aVb1948_A_virginicus_var_virginicus
p2998
aaa(lp2999
(lp3000
I5
aVa1950_A_capillipes
p3001
aVa1950_Andropogon
p3002
aa(lp3003
I5
aVa1950_A_glomeratus
p3004
aVa1950_Andropogon
p3005
aa(lp3006
I5
aVa1950_A_virginicus
p3007
aVa1950_Andropogon
p3008
aa(lp3009
I5
aVa1950_A_virginicus_var_glaucopsis
p3010
aVa1950_A_virginicus
p3011
aa(lp3012
I5
aVa1950_A_virginicus_var_hirsutior
p3013
aVa1950_A_virginicus
p3014
aa(lp3015
I5
aVa1950_A_virginicus_var_virginicus
p3016
aVa1950_A_virginicus
p3017
aa(lp3018
I5
aVb1948_A_capillipes
p3019
aVb1948_Andropogon
p3020
aa(lp3021
I5
aVb1948_A_glomeratus
p3022
aVb1948_Andropogon
p3023
aa(lp3024
I5
aVb1948_A_virginicus
p3025
aVb1948_Andropogon
p3026
aa(lp3027
I5
aVb1948_A_virginicus_var_glaucopsis
p3028
aVb1948_A_virginicus
p3029
aa(lp3030
I5
aVb1948_A_virginicus_var_tenuispatheus
p3031
aVb1948_A_virginicus
p3032
aa(lp3033
I5
aVb1948_A_virginicus_var_virginicus
p3034
aVb1948_A_virginicus
p3035
aa(lp3036
I5
aVb1948_A_virginicus_var_tenuispatheus
p3037
aVa1950_A_glomeratus
p3038
aa(lp3039
I5
aVb1948_A_virginicus_var_glaucopsis
p3040
aVb1948_Andropogon
p3041
aa(lp3042
I5
aVb1948_A_virginicus_var_tenuispatheus
p3043
aVb1948_Andropogon
p3044
aa(lp3045
I5
aVb1948_A_virginicus_var_virginicus
p3046
aVb1948_Andropogon
p3047
aa(lp3048
I5
aVa1950_A_virginicus_var_glaucopsis
p3049
aVa1950_Andropogon
p3050
aa(lp3051
I5
aVa1950_A_virginicus_var_hirsutior
p3052
aVa1950_Andropogon
p3053
aa(lp3054
I5
aVa1950_A_virginicus_var_virginicus
p3055
aVa1950_Andropogon
p3056
aa(lp3057
I5
aVa1950_A_capillipes
p3058
aVb1948_Andropogon
p3059
aa(lp3060
I5
aVa1950_A_glomeratus
p3061
aVb1948_Andropogon
p3062
aa(lp3063
I5
aVa1950_A_virginicus
p3064
aVb1948_Andropogon
p3065
aa(lp3066
I5
aVa1950_A_virginicus_var_virginicus
p3067
aVb1948_A_virginicus
p3068
aa(lp3069
I5
aVa1950_A_virginicus_var_glaucopsis
p3070
aVb1948_A_virginicus
p3071
aa(lp3072
I5
aVa1950_A_virginicus_var_glaucopsis
p3073
aVb1948_Andropogon
p3074
aa(lp3075
I5
aVa1950_A_virginicus_var_hirsutior
p3076
aVb1948_Andropogon
p3077
aa(lp3078
I5
aVa1950_A_virginicus_var_virginicus
p3079
aVb1948_Andropogon
p3080
aa(lp3081
I5
aVb1948_A_virginicus_var_tenuispatheus
p3082
aVa1950_Andropogon
p3083
aa(lp3084
I5
aVb1948_A_virginicus_var_virginicus
p3085
aVa1950_Andropogon
p3086
aa(lp3087
I5
aVb1948_A_virginicus_var_glaucopsis
p3088
aVa1950_Andropogon
p3089
aa(lp3090
I5
aVb1948_A_virginicus_var_virginicus
p3091
aVa1950_A_virginicus
p3092
aa(lp3093
I5
aVb1948_A_virginicus_var_glaucopsis
p3094
aVa1950_A_virginicus
p3095
aa(lp3096
I5
aVb1948_A_virginicus
p3097
aVa1950_Andropogon
p3098
aa(lp3099
I5
aVb1948_A_glomeratus
p3100
aVa1950_Andropogon
p3101
aa(lp3102
I5
aVb1948_A_capillipes
p3103
aVa1950_Andropogon
p3104
aaa(lp3105
(lp3106
I5
aVa1950_A_glomeratus
p3107
aVb1948_A_virginicus_var_tenuispatheus
p3108
aa(lp3109
I5
aVb1948_A_virginicus
p3110
aVb1948_A_virginicus_var_virginicus
p3111
aa(lp3112
I5
aVb1948_A_virginicus
p3113
aVb1948_A_virginicus_var_tenuispatheus
p3114
aa(lp3115
I5
aVb1948_A_virginicus
p3116
aVb1948_A_virginicus_var_glaucopsis
p3117
aa(lp3118
I5
aVb1948_Andropogon
p3119
aVb1948_A_virginicus
p3120
aa(lp3121
I5
aVb1948_Andropogon
p3122
aVb1948_A_glomeratus
p3123
aa(lp3124
I5
aVb1948_Andropogon
p3125
aVb1948_A_capillipes
p3126
aa(lp3127
I5
aVa1950_A_virginicus
p3128
aVa1950_A_virginicus_var_virginicus
p3129
aa(lp3130
I5
aVa1950_A_virginicus
p3131
aVa1950_A_virginicus_var_hirsutior
p3132
aa(lp3133
I5
aVa1950_A_virginicus
p3134
aVa1950_A_virginicus_var_glaucopsis
p3135
aa(lp3136
I5
aVa1950_Andropogon
p3137
aVa1950_A_virginicus
p3138
aa(lp3139
I5
aVa1950_Andropogon
p3140
aVa1950_A_glomeratus
p3141
aa(lp3142
I5
aVa1950_Andropogon
p3143
aVa1950_A_capillipes
p3144
aa(lp3145
I5
aVb1948_A_virginicus
p3146
aVa1950_A_virginicus_var_glaucopsis
p3147
aa(lp3148
I5
aVb1948_A_virginicus
p3149
aVa1950_A_virginicus_var_virginicus
p3150
aa(lp3151
I5
aVb1948_Andropogon
p3152
aVa1950_A_virginicus
p3153
aa(lp3154
I5
aVb1948_Andropogon
p3155
aVa1950_A_glomeratus
p3156
aa(lp3157
I5
aVb1948_Andropogon
p3158
aVa1950_A_capillipes
p3159
aa(lp3160
I5
aVa1950_Andropogon
p3161
aVa1950_A_virginicus_var_virginicus
p3162
aa(lp3163
I5
aVa1950_Andropogon
p3164
aVa1950_A_virginicus_var_hirsutior
p3165
aa(lp3166
I5
aVa1950_Andropogon
p3167
aVa1950_A_virginicus_var_glaucopsis
p3168
aa(lp3169
I5
aVb1948_Andropogon
p3170
aVb1948_A_virginicus_var_virginicus
p3171
aa(lp3172
I5
aVb1948_Andropogon
p3173
aVb1948_A_virginicus_var_tenuispatheus
p3174
aa(lp3175
I5
aVb1948_Andropogon
p3176
aVb1948_A_virginicus_var_glaucopsis
p3177
aa(lp3178
I5
aVa1950_Andropogon
p3179
aVb1948_A_virginicus_var_tenuispatheus
p3180
aa(lp3181
I5
aVa1950_Andropogon
p3182
aVb1948_A_capillipes
p3183
aa(lp3184
I5
aVa1950_A_virginicus
p3185
aVb1948_A_virginicus_var_glaucopsis
p3186
aa(lp3187
I5
aVa1950_A_virginicus
p3188
aVb1948_A_virginicus_var_virginicus
p3189
aa(lp3190
I5
aVa1950_Andropogon
p3191
aVb1948_A_glomeratus
p3192
aa(lp3193
I5
aVa1950_Andropogon
p3194
aVb1948_A_virginicus
p3195
aa(lp3196
I5
aVb1948_Andropogon
p3197
aVa1950_A_virginicus_var_glaucopsis
p3198
aa(lp3199
I5
aVb1948_Andropogon
p3200
aVa1950_A_virginicus_var_hirsutior
p3201
aa(lp3202
I5
aVb1948_Andropogon
p3203
aVa1950_A_virginicus_var_virginicus
p3204
aa(lp3205
I5
aVa1950_Andropogon
p3206
aVb1948_A_virginicus_var_glaucopsis
p3207
aa(lp3208
I5
aVa1950_Andropogon
p3209
aVb1948_A_virginicus_var_virginicus
p3210
aaa(lp3211
(lp3212
I5
aVa1950_A_glomeratus
p3213
aVb1948_A_glomeratus
p3214
aa(lp3215
I5
aVb1948_A_glomeratus
p3216
aVa1950_A_glomeratus
p3217
aa(lp3218
I5
aVa1950_A_virginicus
p3219
aVb1948_A_glomeratus
p3220
aa(lp3221
I5
aVa1950_A_virginicus_var_hirsutior
p3222
aVb1948_A_glomeratus
p3223
aa(lp3224
I5
aVa1950_A_glomeratus
p3225
aVb1948_A_virginicus
p3226
aa(lp3227
I5
aVa1950_A_virginicus_var_hirsutior
p3228
aVb1948_A_virginicus
p3229
aa(lp3230
I5
aVa1950_A_virginicus
p3231
aVb1948_A_virginicus
p3232
aa(lp3233
I5
aVb1948_A_virginicus
p3234
aVa1950_A_glomeratus
p3235
aa(lp3236
I5
aVb1948_A_glomeratus
p3237
aVa1950_A_virginicus
p3238
aa(lp3239
I5
aVb1948_A_virginicus
p3240
aVa1950_A_virginicus
p3241
aa(lp3242
I5
aVb1948_A_virginicus
p3243
aVa1950_A_virginicus_var_hirsutior
p3244
aa(lp3245
I5
aVb1948_A_glomeratus
p3246
aVa1950_A_virginicus_var_hirsutior
p3247
aaa(lp3248
(lp3249
I5
aVa1950_A_capillipes
p3250
aa(lp3251
I5
aVa1950_A_glomeratus
p3252
aa(lp3253
I5
aVa1950_A_virginicus
p3254
aa(lp3255
I5
aVa1950_A_virginicus_var_glaucopsis
p3256
aa(lp3257
I5
aVa1950_A_virginicus_var_hirsutior
p3258
aa(lp3259
I5
aVa1950_A_virginicus_var_virginicus
p3260
aa(lp3261
I5
aVb1948_A_capillipes
p3262
aa(lp3263
I5
aVb1948_A_glomeratus
p3264
aa(lp3265
I5
aVb1948_A_virginicus
p3266
aa(lp3267
I5
aVb1948_A_virginicus_var_glaucopsis
p3268
aa(lp3269
I5
aVb1948_A_virginicus_var_tenuispatheus
p3270
aa(lp3271
I5
aVb1948_A_virginicus_var_virginicus
p3272
aa(lp3273
I5
aVa1950_Andropogon
p3274
aa(lp3275
I5
aVb1948_Andropogon
p3276
aaa(lp3277
(lp3278
I5
aVa1950_Andropogon
p3279
aVa1950_A_capillipes
p3280
aa(lp3281
I5
aVa1950_Andropogon
p3282
aVa1950_A_glomeratus
p3283
aa(lp3284
I5
aVa1950_Andropogon
p3285
aVa1950_A_virginicus
p3286
aa(lp3287
I5
aVa1950_A_virginicus
p3288
aVa1950_A_virginicus_var_glaucopsis
p3289
aa(lp3290
I5
aVa1950_A_virginicus
p3291
aVa1950_A_virginicus_var_hirsutior
p3292
aa(lp3293
I5
aVa1950_A_virginicus
p3294
aVa1950_A_virginicus_var_virginicus
p3295
aa(lp3296
I5
aVb1948_Andropogon
p3297
aVb1948_A_capillipes
p3298
aa(lp3299
I5
aVb1948_Andropogon
p3300
aVb1948_A_glomeratus
p3301
aa(lp3302
I5
aVb1948_Andropogon
p3303
aVb1948_A_virginicus
p3304
aa(lp3305
I5
aVb1948_A_virginicus
p3306
aVb1948_A_virginicus_var_glaucopsis
p3307
aa(lp3308
I5
aVb1948_A_virginicus
p3309
aVb1948_A_virginicus_var_tenuispatheus
p3310
aa(lp3311
I5
aVb1948_A_virginicus
p3312
aVb1948_A_virginicus_var_virginicus
p3313
aaasba(ihelper
PossibleWorld
p3314
(dp3315
g3
I6
sg4
I0
sg5
(lp3316
(lp3317
(lp3318
I6
aVa1950_Andropogon
p3319
aVb1948_Andropogon
p3320
aa(lp3321
I6
aVa1950_A_capillipes
p3322
aVb1948_A_capillipes
p3323
aa(lp3324
I6
aVa1950_A_virginicus_var_virginicus
p3325
aVb1948_A_virginicus_var_virginicus
p3326
aa(lp3327
I6
aVa1950_A_virginicus_var_glaucopsis
p3328
aVb1948_A_virginicus_var_glaucopsis
p3329
aa(lp3330
I6
aVb1948_A_virginicus_var_glaucopsis
p3331
aVa1950_A_virginicus_var_glaucopsis
p3332
aa(lp3333
I6
aVb1948_A_virginicus_var_virginicus
p3334
aVa1950_A_virginicus_var_virginicus
p3335
aa(lp3336
I6
aVb1948_A_capillipes
p3337
aVa1950_A_capillipes
p3338
aa(lp3339
I6
aVb1948_Andropogon
p3340
aVa1950_Andropogon
p3341
aa(lp3342
I6
aVb1948_Andropogon
p3343
aVb1948_Andropogon
p3344
aa(lp3345
I6
aVa1950_Andropogon
p3346
aVa1950_Andropogon
p3347
aa(lp3348
I6
aVb1948_A_virginicus_var_virginicus
p3349
aVb1948_A_virginicus_var_virginicus
p3350
aa(lp3351
I6
aVb1948_A_virginicus_var_tenuispatheus
p3352
aVb1948_A_virginicus_var_tenuispatheus
p3353
aa(lp3354
I6
aVb1948_A_virginicus_var_glaucopsis
p3355
aVb1948_A_virginicus_var_glaucopsis
p3356
aa(lp3357
I6
aVb1948_A_virginicus
p3358
aVb1948_A_virginicus
p3359
aa(lp3360
I6
aVb1948_A_glomeratus
p3361
aVb1948_A_glomeratus
p3362
aa(lp3363
I6
aVb1948_A_capillipes
p3364
aVb1948_A_capillipes
p3365
aa(lp3366
I6
aVa1950_A_virginicus_var_virginicus
p3367
aVa1950_A_virginicus_var_virginicus
p3368
aa(lp3369
I6
aVa1950_A_virginicus_var_hirsutior
p3370
aVa1950_A_virginicus_var_hirsutior
p3371
aa(lp3372
I6
aVa1950_A_virginicus_var_glaucopsis
p3373
aVa1950_A_virginicus_var_glaucopsis
p3374
aa(lp3375
I6
aVa1950_A_virginicus
p3376
aVa1950_A_virginicus
p3377
aa(lp3378
I6
aVa1950_A_glomeratus
p3379
aVa1950_A_glomeratus
p3380
aa(lp3381
I6
aVa1950_A_capillipes
p3382
aVa1950_A_capillipes
p3383
aaa(lp3384
(lp3385
I6
aVa1950_A_glomeratus
p3386
aVa1950_A_capillipes
p3387
aa(lp3388
I6
aVa1950_A_virginicus
p3389
aVa1950_A_capillipes
p3390
aa(lp3391
I6
aVa1950_A_capillipes
p3392
aVa1950_A_glomeratus
p3393
aa(lp3394
I6
aVa1950_A_virginicus
p3395
aVa1950_A_glomeratus
p3396
aa(lp3397
I6
aVa1950_A_capillipes
p3398
aVa1950_A_virginicus
p3399
aa(lp3400
I6
aVa1950_A_glomeratus
p3401
aVa1950_A_virginicus
p3402
aa(lp3403
I6
aVa1950_A_virginicus_var_hirsutior
p3404
aVa1950_A_virginicus_var_glaucopsis
p3405
aa(lp3406
I6
aVa1950_A_virginicus_var_virginicus
p3407
aVa1950_A_virginicus_var_glaucopsis
p3408
aa(lp3409
I6
aVa1950_A_virginicus_var_glaucopsis
p3410
aVa1950_A_virginicus_var_hirsutior
p3411
aa(lp3412
I6
aVa1950_A_virginicus_var_virginicus
p3413
aVa1950_A_virginicus_var_hirsutior
p3414
aa(lp3415
I6
aVa1950_A_virginicus_var_glaucopsis
p3416
aVa1950_A_virginicus_var_virginicus
p3417
aa(lp3418
I6
aVa1950_A_virginicus_var_hirsutior
p3419
aVa1950_A_virginicus_var_virginicus
p3420
aa(lp3421
I6
aVb1948_A_glomeratus
p3422
aVb1948_A_capillipes
p3423
aa(lp3424
I6
aVb1948_A_virginicus
p3425
aVb1948_A_capillipes
p3426
aa(lp3427
I6
aVb1948_A_capillipes
p3428
aVb1948_A_glomeratus
p3429
aa(lp3430
I6
aVb1948_A_virginicus
p3431
aVb1948_A_glomeratus
p3432
aa(lp3433
I6
aVb1948_A_capillipes
p3434
aVb1948_A_virginicus
p3435
aa(lp3436
I6
aVb1948_A_glomeratus
p3437
aVb1948_A_virginicus
p3438
aa(lp3439
I6
aVb1948_A_virginicus_var_tenuispatheus
p3440
aVb1948_A_virginicus_var_glaucopsis
p3441
aa(lp3442
I6
aVb1948_A_virginicus_var_virginicus
p3443
aVb1948_A_virginicus_var_glaucopsis
p3444
aa(lp3445
I6
aVb1948_A_virginicus_var_glaucopsis
p3446
aVb1948_A_virginicus_var_tenuispatheus
p3447
aa(lp3448
I6
aVb1948_A_virginicus_var_virginicus
p3449
aVb1948_A_virginicus_var_tenuispatheus
p3450
aa(lp3451
I6
aVb1948_A_virginicus_var_glaucopsis
p3452
aVb1948_A_virginicus_var_virginicus
p3453
aa(lp3454
I6
aVb1948_A_virginicus_var_tenuispatheus
p3455
aVb1948_A_virginicus_var_virginicus
p3456
aa(lp3457
I6
aVb1948_A_virginicus_var_glaucopsis
p3458
aVb1948_A_glomeratus
p3459
aa(lp3460
I6
aVb1948_A_virginicus_var_tenuispatheus
p3461
aVb1948_A_glomeratus
p3462
aa(lp3463
I6
aVb1948_A_virginicus_var_virginicus
p3464
aVb1948_A_glomeratus
p3465
aa(lp3466
I6
aVb1948_A_virginicus_var_glaucopsis
p3467
aVb1948_A_capillipes
p3468
aa(lp3469
I6
aVb1948_A_virginicus_var_tenuispatheus
p3470
aVb1948_A_capillipes
p3471
aa(lp3472
I6
aVb1948_A_virginicus_var_virginicus
p3473
aVb1948_A_capillipes
p3474
aa(lp3475
I6
aVa1950_A_virginicus_var_glaucopsis
p3476
aVa1950_A_glomeratus
p3477
aa(lp3478
I6
aVa1950_A_virginicus_var_hirsutior
p3479
aVa1950_A_glomeratus
p3480
aa(lp3481
I6
aVa1950_A_virginicus_var_virginicus
p3482
aVa1950_A_glomeratus
p3483
aa(lp3484
I6
aVa1950_A_virginicus_var_glaucopsis
p3485
aVa1950_A_capillipes
p3486
aa(lp3487
I6
aVa1950_A_virginicus_var_hirsutior
p3488
aVa1950_A_capillipes
p3489
aa(lp3490
I6
aVa1950_A_virginicus_var_virginicus
p3491
aVa1950_A_capillipes
p3492
aa(lp3493
I6
aVa1950_A_virginicus_var_hirsutior
p3494
aVb1948_A_virginicus_var_glaucopsis
p3495
aa(lp3496
I6
aVa1950_A_virginicus_var_virginicus
p3497
aVb1948_A_virginicus_var_glaucopsis
p3498
aa(lp3499
I6
aVa1950_A_virginicus_var_glaucopsis
p3500
aVb1948_A_virginicus_var_virginicus
p3501
aa(lp3502
I6
aVa1950_A_virginicus_var_hirsutior
p3503
aVb1948_A_virginicus_var_virginicus
p3504
aa(lp3505
I6
aVa1950_A_glomeratus
p3506
aVb1948_A_capillipes
p3507
aa(lp3508
I6
aVa1950_A_virginicus
p3509
aVb1948_A_capillipes
p3510
aa(lp3511
I6
aVa1950_A_virginicus_var_virginicus
p3512
aVb1948_A_virginicus_var_tenuispatheus
p3513
aa(lp3514
I6
aVa1950_A_virginicus_var_glaucopsis
p3515
aVb1948_A_virginicus_var_tenuispatheus
p3516
aa(lp3517
I6
aVa1950_A_capillipes
p3518
aVb1948_A_virginicus
p3519
aa(lp3520
I6
aVa1950_A_capillipes
p3521
aVb1948_A_glomeratus
p3522
aa(lp3523
I6
aVb1948_A_glomeratus
p3524
aVa1950_A_capillipes
p3525
aa(lp3526
I6
aVb1948_A_virginicus
p3527
aVa1950_A_capillipes
p3528
aa(lp3529
I6
aVb1948_A_virginicus_var_tenuispatheus
p3530
aVa1950_A_virginicus_var_glaucopsis
p3531
aa(lp3532
I6
aVb1948_A_virginicus_var_tenuispatheus
p3533
aVa1950_A_virginicus_var_virginicus
p3534
aa(lp3535
I6
aVb1948_A_capillipes
p3536
aVa1950_A_virginicus
p3537
aa(lp3538
I6
aVb1948_A_capillipes
p3539
aVa1950_A_glomeratus
p3540
aa(lp3541
I6
aVb1948_A_virginicus_var_virginicus
p3542
aVa1950_A_virginicus_var_hirsutior
p3543
aa(lp3544
I6
aVb1948_A_virginicus_var_virginicus
p3545
aVa1950_A_virginicus_var_glaucopsis
p3546
aa(lp3547
I6
aVb1948_A_virginicus_var_glaucopsis
p3548
aVa1950_A_virginicus_var_virginicus
p3549
aa(lp3550
I6
aVb1948_A_virginicus_var_glaucopsis
p3551
aVa1950_A_virginicus_var_hirsutior
p3552
aa(lp3553
I6
aVa1950_A_capillipes
p3554
aVa1950_A_virginicus_var_virginicus
p3555
aa(lp3556
I6
aVa1950_A_capillipes
p3557
aVa1950_A_virginicus_var_hirsutior
p3558
aa(lp3559
I6
aVa1950_A_capillipes
p3560
aVa1950_A_virginicus_var_glaucopsis
p3561
aa(lp3562
I6
aVa1950_A_glomeratus
p3563
aVa1950_A_virginicus_var_virginicus
p3564
aa(lp3565
I6
aVa1950_A_glomeratus
p3566
aVa1950_A_virginicus_var_hirsutior
p3567
aa(lp3568
I6
aVa1950_A_glomeratus
p3569
aVa1950_A_virginicus_var_glaucopsis
p3570
aa(lp3571
I6
aVb1948_A_capillipes
p3572
aVb1948_A_virginicus_var_virginicus
p3573
aa(lp3574
I6
aVb1948_A_capillipes
p3575
aVb1948_A_virginicus_var_tenuispatheus
p3576
aa(lp3577
I6
aVb1948_A_capillipes
p3578
aVb1948_A_virginicus_var_glaucopsis
p3579
aa(lp3580
I6
aVb1948_A_glomeratus
p3581
aVb1948_A_virginicus_var_virginicus
p3582
aa(lp3583
I6
aVb1948_A_glomeratus
p3584
aVb1948_A_virginicus_var_tenuispatheus
p3585
aa(lp3586
I6
aVb1948_A_glomeratus
p3587
aVb1948_A_virginicus_var_glaucopsis
p3588
aa(lp3589
I6
aVa1950_A_virginicus_var_glaucopsis
p3590
aVb1948_A_capillipes
p3591
aa(lp3592
I6
aVa1950_A_virginicus_var_hirsutior
p3593
aVb1948_A_capillipes
p3594
aa(lp3595
I6
aVa1950_A_virginicus_var_virginicus
p3596
aVb1948_A_capillipes
p3597
aa(lp3598
I6
aVb1948_A_virginicus_var_virginicus
p3599
aVa1950_A_capillipes
p3600
aa(lp3601
I6
aVb1948_A_virginicus_var_glaucopsis
p3602
aVa1950_A_capillipes
p3603
aa(lp3604
I6
aVb1948_A_virginicus_var_virginicus
p3605
aVa1950_A_glomeratus
p3606
aa(lp3607
I6
aVb1948_A_virginicus_var_glaucopsis
p3608
aVa1950_A_glomeratus
p3609
aa(lp3610
I6
aVa1950_A_virginicus_var_virginicus
p3611
aVb1948_A_glomeratus
p3612
aa(lp3613
I6
aVa1950_A_virginicus_var_glaucopsis
p3614
aVb1948_A_glomeratus
p3615
aa(lp3616
I6
aVb1948_A_virginicus_var_tenuispatheus
p3617
aVa1950_A_capillipes
p3618
aa(lp3619
I6
aVb1948_A_virginicus_var_tenuispatheus
p3620
aVa1950_A_virginicus
p3621
aa(lp3622
I6
aVa1950_A_glomeratus
p3623
aVb1948_A_virginicus_var_glaucopsis
p3624
aa(lp3625
I6
aVa1950_A_glomeratus
p3626
aVb1948_A_virginicus_var_virginicus
p3627
aa(lp3628
I6
aVa1950_A_virginicus
p3629
aVb1948_A_virginicus_var_tenuispatheus
p3630
aa(lp3631
I6
aVa1950_A_capillipes
p3632
aVb1948_A_virginicus_var_tenuispatheus
p3633
aa(lp3634
I6
aVb1948_A_glomeratus
p3635
aVa1950_A_virginicus_var_glaucopsis
p3636
aa(lp3637
I6
aVb1948_A_capillipes
p3638
aVa1950_A_virginicus_var_glaucopsis
p3639
aa(lp3640
I6
aVb1948_A_virginicus_var_tenuispatheus
p3641
aVa1950_A_virginicus_var_hirsutior
p3642
aa(lp3643
I6
aVb1948_A_capillipes
p3644
aVa1950_A_virginicus_var_hirsutior
p3645
aa(lp3646
I6
aVb1948_A_glomeratus
p3647
aVa1950_A_virginicus_var_virginicus
p3648
aa(lp3649
I6
aVb1948_A_capillipes
p3650
aVa1950_A_virginicus_var_virginicus
p3651
aa(lp3652
I6
aVa1950_A_capillipes
p3653
aVb1948_A_virginicus_var_glaucopsis
p3654
aa(lp3655
I6
aVa1950_A_virginicus_var_hirsutior
p3656
aVb1948_A_virginicus_var_tenuispatheus
p3657
aa(lp3658
I6
aVa1950_A_capillipes
p3659
aVb1948_A_virginicus_var_virginicus
p3660
aa(lp3661
I6
aVa1950_A_virginicus_var_hirsutior
p3662
aVb1948_A_glomeratus
p3663
aa(lp3664
I6
aVb1948_A_glomeratus
p3665
aVa1950_A_virginicus_var_hirsutior
p3666
aaa(lp3667
(lp3668
I6
aVa1950_A_capillipes
p3669
aVa1950_Andropogon
p3670
aa(lp3671
I6
aVa1950_A_glomeratus
p3672
aVa1950_Andropogon
p3673
aa(lp3674
I6
aVa1950_A_virginicus
p3675
aVa1950_Andropogon
p3676
aa(lp3677
I6
aVa1950_A_virginicus_var_glaucopsis
p3678
aVa1950_A_virginicus
p3679
aa(lp3680
I6
aVa1950_A_virginicus_var_hirsutior
p3681
aVa1950_A_virginicus
p3682
aa(lp3683
I6
aVa1950_A_virginicus_var_virginicus
p3684
aVa1950_A_virginicus
p3685
aa(lp3686
I6
aVb1948_A_capillipes
p3687
aVb1948_Andropogon
p3688
aa(lp3689
I6
aVb1948_A_glomeratus
p3690
aVb1948_Andropogon
p3691
aa(lp3692
I6
aVb1948_A_virginicus
p3693
aVb1948_Andropogon
p3694
aa(lp3695
I6
aVb1948_A_virginicus_var_glaucopsis
p3696
aVb1948_A_virginicus
p3697
aa(lp3698
I6
aVb1948_A_virginicus_var_tenuispatheus
p3699
aVb1948_A_virginicus
p3700
aa(lp3701
I6
aVb1948_A_virginicus_var_virginicus
p3702
aVb1948_A_virginicus
p3703
aa(lp3704
I6
aVb1948_A_virginicus_var_tenuispatheus
p3705
aVa1950_A_glomeratus
p3706
aa(lp3707
I6
aVb1948_A_virginicus_var_glaucopsis
p3708
aVb1948_Andropogon
p3709
aa(lp3710
I6
aVb1948_A_virginicus_var_tenuispatheus
p3711
aVb1948_Andropogon
p3712
aa(lp3713
I6
aVb1948_A_virginicus_var_virginicus
p3714
aVb1948_Andropogon
p3715
aa(lp3716
I6
aVa1950_A_virginicus_var_glaucopsis
p3717
aVa1950_Andropogon
p3718
aa(lp3719
I6
aVa1950_A_virginicus_var_hirsutior
p3720
aVa1950_Andropogon
p3721
aa(lp3722
I6
aVa1950_A_virginicus_var_virginicus
p3723
aVa1950_Andropogon
p3724
aa(lp3725
I6
aVa1950_A_capillipes
p3726
aVb1948_Andropogon
p3727
aa(lp3728
I6
aVa1950_A_glomeratus
p3729
aVb1948_Andropogon
p3730
aa(lp3731
I6
aVa1950_A_virginicus
p3732
aVb1948_Andropogon
p3733
aa(lp3734
I6
aVa1950_A_virginicus_var_virginicus
p3735
aVb1948_A_virginicus
p3736
aa(lp3737
I6
aVa1950_A_virginicus_var_glaucopsis
p3738
aVb1948_A_virginicus
p3739
aa(lp3740
I6
aVa1950_A_virginicus_var_glaucopsis
p3741
aVb1948_Andropogon
p3742
aa(lp3743
I6
aVa1950_A_virginicus_var_hirsutior
p3744
aVb1948_Andropogon
p3745
aa(lp3746
I6
aVa1950_A_virginicus_var_virginicus
p3747
aVb1948_Andropogon
p3748
aa(lp3749
I6
aVb1948_A_virginicus_var_tenuispatheus
p3750
aVa1950_Andropogon
p3751
aa(lp3752
I6
aVb1948_A_virginicus_var_virginicus
p3753
aVa1950_Andropogon
p3754
aa(lp3755
I6
aVb1948_A_virginicus_var_glaucopsis
p3756
aVa1950_Andropogon
p3757
aa(lp3758
I6
aVb1948_A_virginicus_var_virginicus
p3759
aVa1950_A_virginicus
p3760
aa(lp3761
I6
aVb1948_A_virginicus_var_glaucopsis
p3762
aVa1950_A_virginicus
p3763
aa(lp3764
I6
aVb1948_A_virginicus
p3765
aVa1950_Andropogon
p3766
aa(lp3767
I6
aVb1948_A_glomeratus
p3768
aVa1950_Andropogon
p3769
aa(lp3770
I6
aVb1948_A_capillipes
p3771
aVa1950_Andropogon
p3772
aa(lp3773
I6
aVa1950_A_virginicus_var_hirsutior
p3774
aVb1948_A_virginicus
p3775
aaa(lp3776
(lp3777
I6
aVa1950_A_glomeratus
p3778
aVb1948_A_virginicus_var_tenuispatheus
p3779
aa(lp3780
I6
aVb1948_A_virginicus
p3781
aVb1948_A_virginicus_var_virginicus
p3782
aa(lp3783
I6
aVb1948_A_virginicus
p3784
aVb1948_A_virginicus_var_tenuispatheus
p3785
aa(lp3786
I6
aVb1948_A_virginicus
p3787
aVb1948_A_virginicus_var_glaucopsis
p3788
aa(lp3789
I6
aVb1948_Andropogon
p3790
aVb1948_A_virginicus
p3791
aa(lp3792
I6
aVb1948_Andropogon
p3793
aVb1948_A_glomeratus
p3794
aa(lp3795
I6
aVb1948_Andropogon
p3796
aVb1948_A_capillipes
p3797
aa(lp3798
I6
aVa1950_A_virginicus
p3799
aVa1950_A_virginicus_var_virginicus
p3800
aa(lp3801
I6
aVa1950_A_virginicus
p3802
aVa1950_A_virginicus_var_hirsutior
p3803
aa(lp3804
I6
aVa1950_A_virginicus
p3805
aVa1950_A_virginicus_var_glaucopsis
p3806
aa(lp3807
I6
aVa1950_Andropogon
p3808
aVa1950_A_virginicus
p3809
aa(lp3810
I6
aVa1950_Andropogon
p3811
aVa1950_A_glomeratus
p3812
aa(lp3813
I6
aVa1950_Andropogon
p3814
aVa1950_A_capillipes
p3815
aa(lp3816
I6
aVb1948_A_virginicus
p3817
aVa1950_A_virginicus_var_glaucopsis
p3818
aa(lp3819
I6
aVb1948_A_virginicus
p3820
aVa1950_A_virginicus_var_virginicus
p3821
aa(lp3822
I6
aVb1948_Andropogon
p3823
aVa1950_A_virginicus
p3824
aa(lp3825
I6
aVb1948_Andropogon
p3826
aVa1950_A_glomeratus
p3827
aa(lp3828
I6
aVb1948_Andropogon
p3829
aVa1950_A_capillipes
p3830
aa(lp3831
I6
aVa1950_Andropogon
p3832
aVa1950_A_virginicus_var_virginicus
p3833
aa(lp3834
I6
aVa1950_Andropogon
p3835
aVa1950_A_virginicus_var_hirsutior
p3836
aa(lp3837
I6
aVa1950_Andropogon
p3838
aVa1950_A_virginicus_var_glaucopsis
p3839
aa(lp3840
I6
aVb1948_Andropogon
p3841
aVb1948_A_virginicus_var_virginicus
p3842
aa(lp3843
I6
aVb1948_Andropogon
p3844
aVb1948_A_virginicus_var_tenuispatheus
p3845
aa(lp3846
I6
aVb1948_Andropogon
p3847
aVb1948_A_virginicus_var_glaucopsis
p3848
aa(lp3849
I6
aVa1950_Andropogon
p3850
aVb1948_A_virginicus_var_tenuispatheus
p3851
aa(lp3852
I6
aVa1950_Andropogon
p3853
aVb1948_A_capillipes
p3854
aa(lp3855
I6
aVa1950_A_virginicus
p3856
aVb1948_A_virginicus_var_glaucopsis
p3857
aa(lp3858
I6
aVa1950_A_virginicus
p3859
aVb1948_A_virginicus_var_virginicus
p3860
aa(lp3861
I6
aVa1950_Andropogon
p3862
aVb1948_A_glomeratus
p3863
aa(lp3864
I6
aVa1950_Andropogon
p3865
aVb1948_A_virginicus
p3866
aa(lp3867
I6
aVb1948_Andropogon
p3868
aVa1950_A_virginicus_var_glaucopsis
p3869
aa(lp3870
I6
aVb1948_Andropogon
p3871
aVa1950_A_virginicus_var_hirsutior
p3872
aa(lp3873
I6
aVb1948_Andropogon
p3874
aVa1950_A_virginicus_var_virginicus
p3875
aa(lp3876
I6
aVa1950_Andropogon
p3877
aVb1948_A_virginicus_var_glaucopsis
p3878
aa(lp3879
I6
aVa1950_Andropogon
p3880
aVb1948_A_virginicus_var_virginicus
p3881
aa(lp3882
I6
aVb1948_A_virginicus
p3883
aVa1950_A_virginicus_var_hirsutior
p3884
aaa(lp3885
(lp3886
I6
aVa1950_A_glomeratus
p3887
aVb1948_A_glomeratus
p3888
aa(lp3889
I6
aVb1948_A_glomeratus
p3890
aVa1950_A_glomeratus
p3891
aa(lp3892
I6
aVa1950_A_virginicus
p3893
aVb1948_A_glomeratus
p3894
aa(lp3895
I6
aVa1950_A_glomeratus
p3896
aVb1948_A_virginicus
p3897
aa(lp3898
I6
aVa1950_A_virginicus
p3899
aVb1948_A_virginicus
p3900
aa(lp3901
I6
aVb1948_A_virginicus
p3902
aVa1950_A_glomeratus
p3903
aa(lp3904
I6
aVb1948_A_glomeratus
p3905
aVa1950_A_virginicus
p3906
aa(lp3907
I6
aVb1948_A_virginicus
p3908
aVa1950_A_virginicus
p3909
aaa(lp3910
(lp3911
I6
aVa1950_A_capillipes
p3912
aa(lp3913
I6
aVa1950_A_glomeratus
p3914
aa(lp3915
I6
aVa1950_A_virginicus
p3916
aa(lp3917
I6
aVa1950_A_virginicus_var_glaucopsis
p3918
aa(lp3919
I6
aVa1950_A_virginicus_var_hirsutior
p3920
aa(lp3921
I6
aVa1950_A_virginicus_var_virginicus
p3922
aa(lp3923
I6
aVb1948_A_capillipes
p3924
aa(lp3925
I6
aVb1948_A_glomeratus
p3926
aa(lp3927
I6
aVb1948_A_virginicus
p3928
aa(lp3929
I6
aVb1948_A_virginicus_var_glaucopsis
p3930
aa(lp3931
I6
aVb1948_A_virginicus_var_tenuispatheus
p3932
aa(lp3933
I6
aVb1948_A_virginicus_var_virginicus
p3934
aa(lp3935
I6
aVa1950_Andropogon
p3936
aa(lp3937
I6
aVb1948_Andropogon
p3938
aaa(lp3939
(lp3940
I6
aVa1950_Andropogon
p3941
aVa1950_A_capillipes
p3942
aa(lp3943
I6
aVa1950_Andropogon
p3944
aVa1950_A_glomeratus
p3945
aa(lp3946
I6
aVa1950_Andropogon
p3947
aVa1950_A_virginicus
p3948
aa(lp3949
I6
aVa1950_A_virginicus
p3950
aVa1950_A_virginicus_var_glaucopsis
p3951
aa(lp3952
I6
aVa1950_A_virginicus
p3953
aVa1950_A_virginicus_var_hirsutior
p3954
aa(lp3955
I6
aVa1950_A_virginicus
p3956
aVa1950_A_virginicus_var_virginicus
p3957
aa(lp3958
I6
aVb1948_Andropogon
p3959
aVb1948_A_capillipes
p3960
aa(lp3961
I6
aVb1948_Andropogon
p3962
aVb1948_A_glomeratus
p3963
aa(lp3964
I6
aVb1948_Andropogon
p3965
aVb1948_A_virginicus
p3966
aa(lp3967
I6
aVb1948_A_virginicus
p3968
aVb1948_A_virginicus_var_glaucopsis
p3969
aa(lp3970
I6
aVb1948_A_virginicus
p3971
aVb1948_A_virginicus_var_tenuispatheus
p3972
aa(lp3973
I6
aVb1948_A_virginicus
p3974
aVb1948_A_virginicus_var_virginicus
p3975
aaasba(ihelper
PossibleWorld
p3976
(dp3977
g3
I7
sg4
I0
sg5
(lp3978
(lp3979
(lp3980
I7
aVa1950_Andropogon
p3981
aVb1948_Andropogon
p3982
aa(lp3983
I7
aVa1950_A_capillipes
p3984
aVb1948_A_capillipes
p3985
aa(lp3986
I7
aVa1950_A_virginicus_var_virginicus
p3987
aVb1948_A_virginicus_var_virginicus
p3988
aa(lp3989
I7
aVa1950_A_virginicus_var_glaucopsis
p3990
aVb1948_A_virginicus_var_glaucopsis
p3991
aa(lp3992
I7
aVb1948_A_virginicus_var_glaucopsis
p3993
aVa1950_A_virginicus_var_glaucopsis
p3994
aa(lp3995
I7
aVb1948_A_virginicus_var_virginicus
p3996
aVa1950_A_virginicus_var_virginicus
p3997
aa(lp3998
I7
aVb1948_A_capillipes
p3999
aVa1950_A_capillipes
p4000
aa(lp4001
I7
aVb1948_Andropogon
p4002
aVa1950_Andropogon
p4003
aa(lp4004
I7
aVb1948_Andropogon
p4005
aVb1948_Andropogon
p4006
aa(lp4007
I7
aVa1950_Andropogon
p4008
aVa1950_Andropogon
p4009
aa(lp4010
I7
aVb1948_A_virginicus_var_virginicus
p4011
aVb1948_A_virginicus_var_virginicus
p4012
aa(lp4013
I7
aVb1948_A_virginicus_var_tenuispatheus
p4014
aVb1948_A_virginicus_var_tenuispatheus
p4015
aa(lp4016
I7
aVb1948_A_virginicus_var_glaucopsis
p4017
aVb1948_A_virginicus_var_glaucopsis
p4018
aa(lp4019
I7
aVb1948_A_virginicus
p4020
aVb1948_A_virginicus
p4021
aa(lp4022
I7
aVb1948_A_glomeratus
p4023
aVb1948_A_glomeratus
p4024
aa(lp4025
I7
aVb1948_A_capillipes
p4026
aVb1948_A_capillipes
p4027
aa(lp4028
I7
aVa1950_A_virginicus_var_virginicus
p4029
aVa1950_A_virginicus_var_virginicus
p4030
aa(lp4031
I7
aVa1950_A_virginicus_var_hirsutior
p4032
aVa1950_A_virginicus_var_hirsutior
p4033
aa(lp4034
I7
aVa1950_A_virginicus_var_glaucopsis
p4035
aVa1950_A_virginicus_var_glaucopsis
p4036
aa(lp4037
I7
aVa1950_A_virginicus
p4038
aVa1950_A_virginicus
p4039
aa(lp4040
I7
aVa1950_A_glomeratus
p4041
aVa1950_A_glomeratus
p4042
aa(lp4043
I7
aVa1950_A_capillipes
p4044
aVa1950_A_capillipes
p4045
aaa(lp4046
(lp4047
I7
aVa1950_A_glomeratus
p4048
aVa1950_A_capillipes
p4049
aa(lp4050
I7
aVa1950_A_virginicus
p4051
aVa1950_A_capillipes
p4052
aa(lp4053
I7
aVa1950_A_capillipes
p4054
aVa1950_A_glomeratus
p4055
aa(lp4056
I7
aVa1950_A_virginicus
p4057
aVa1950_A_glomeratus
p4058
aa(lp4059
I7
aVa1950_A_capillipes
p4060
aVa1950_A_virginicus
p4061
aa(lp4062
I7
aVa1950_A_glomeratus
p4063
aVa1950_A_virginicus
p4064
aa(lp4065
I7
aVa1950_A_virginicus_var_hirsutior
p4066
aVa1950_A_virginicus_var_glaucopsis
p4067
aa(lp4068
I7
aVa1950_A_virginicus_var_virginicus
p4069
aVa1950_A_virginicus_var_glaucopsis
p4070
aa(lp4071
I7
aVa1950_A_virginicus_var_glaucopsis
p4072
aVa1950_A_virginicus_var_hirsutior
p4073
aa(lp4074
I7
aVa1950_A_virginicus_var_virginicus
p4075
aVa1950_A_virginicus_var_hirsutior
p4076
aa(lp4077
I7
aVa1950_A_virginicus_var_glaucopsis
p4078
aVa1950_A_virginicus_var_virginicus
p4079
aa(lp4080
I7
aVa1950_A_virginicus_var_hirsutior
p4081
aVa1950_A_virginicus_var_virginicus
p4082
aa(lp4083
I7
aVb1948_A_glomeratus
p4084
aVb1948_A_capillipes
p4085
aa(lp4086
I7
aVb1948_A_virginicus
p4087
aVb1948_A_capillipes
p4088
aa(lp4089
I7
aVb1948_A_capillipes
p4090
aVb1948_A_glomeratus
p4091
aa(lp4092
I7
aVb1948_A_virginicus
p4093
aVb1948_A_glomeratus
p4094
aa(lp4095
I7
aVb1948_A_capillipes
p4096
aVb1948_A_virginicus
p4097
aa(lp4098
I7
aVb1948_A_glomeratus
p4099
aVb1948_A_virginicus
p4100
aa(lp4101
I7
aVb1948_A_virginicus_var_tenuispatheus
p4102
aVb1948_A_virginicus_var_glaucopsis
p4103
aa(lp4104
I7
aVb1948_A_virginicus_var_virginicus
p4105
aVb1948_A_virginicus_var_glaucopsis
p4106
aa(lp4107
I7
aVb1948_A_virginicus_var_glaucopsis
p4108
aVb1948_A_virginicus_var_tenuispatheus
p4109
aa(lp4110
I7
aVb1948_A_virginicus_var_virginicus
p4111
aVb1948_A_virginicus_var_tenuispatheus
p4112
aa(lp4113
I7
aVb1948_A_virginicus_var_glaucopsis
p4114
aVb1948_A_virginicus_var_virginicus
p4115
aa(lp4116
I7
aVb1948_A_virginicus_var_tenuispatheus
p4117
aVb1948_A_virginicus_var_virginicus
p4118
aa(lp4119
I7
aVb1948_A_virginicus_var_glaucopsis
p4120
aVb1948_A_glomeratus
p4121
aa(lp4122
I7
aVb1948_A_virginicus_var_tenuispatheus
p4123
aVb1948_A_glomeratus
p4124
aa(lp4125
I7
aVb1948_A_virginicus_var_virginicus
p4126
aVb1948_A_glomeratus
p4127
aa(lp4128
I7
aVb1948_A_virginicus_var_glaucopsis
p4129
aVb1948_A_capillipes
p4130
aa(lp4131
I7
aVb1948_A_virginicus_var_tenuispatheus
p4132
aVb1948_A_capillipes
p4133
aa(lp4134
I7
aVb1948_A_virginicus_var_virginicus
p4135
aVb1948_A_capillipes
p4136
aa(lp4137
I7
aVa1950_A_virginicus_var_glaucopsis
p4138
aVa1950_A_glomeratus
p4139
aa(lp4140
I7
aVa1950_A_virginicus_var_hirsutior
p4141
aVa1950_A_glomeratus
p4142
aa(lp4143
I7
aVa1950_A_virginicus_var_virginicus
p4144
aVa1950_A_glomeratus
p4145
aa(lp4146
I7
aVa1950_A_virginicus_var_glaucopsis
p4147
aVa1950_A_capillipes
p4148
aa(lp4149
I7
aVa1950_A_virginicus_var_hirsutior
p4150
aVa1950_A_capillipes
p4151
aa(lp4152
I7
aVa1950_A_virginicus_var_virginicus
p4153
aVa1950_A_capillipes
p4154
aa(lp4155
I7
aVa1950_A_virginicus_var_hirsutior
p4156
aVb1948_A_virginicus_var_glaucopsis
p4157
aa(lp4158
I7
aVa1950_A_virginicus_var_virginicus
p4159
aVb1948_A_virginicus_var_glaucopsis
p4160
aa(lp4161
I7
aVa1950_A_virginicus_var_glaucopsis
p4162
aVb1948_A_virginicus_var_virginicus
p4163
aa(lp4164
I7
aVa1950_A_virginicus_var_hirsutior
p4165
aVb1948_A_virginicus_var_virginicus
p4166
aa(lp4167
I7
aVa1950_A_glomeratus
p4168
aVb1948_A_capillipes
p4169
aa(lp4170
I7
aVa1950_A_virginicus
p4171
aVb1948_A_capillipes
p4172
aa(lp4173
I7
aVa1950_A_virginicus_var_virginicus
p4174
aVb1948_A_virginicus_var_tenuispatheus
p4175
aa(lp4176
I7
aVa1950_A_virginicus_var_glaucopsis
p4177
aVb1948_A_virginicus_var_tenuispatheus
p4178
aa(lp4179
I7
aVa1950_A_capillipes
p4180
aVb1948_A_virginicus
p4181
aa(lp4182
I7
aVa1950_A_capillipes
p4183
aVb1948_A_glomeratus
p4184
aa(lp4185
I7
aVb1948_A_glomeratus
p4186
aVa1950_A_capillipes
p4187
aa(lp4188
I7
aVb1948_A_virginicus
p4189
aVa1950_A_capillipes
p4190
aa(lp4191
I7
aVb1948_A_virginicus_var_tenuispatheus
p4192
aVa1950_A_virginicus_var_glaucopsis
p4193
aa(lp4194
I7
aVb1948_A_virginicus_var_tenuispatheus
p4195
aVa1950_A_virginicus_var_virginicus
p4196
aa(lp4197
I7
aVb1948_A_capillipes
p4198
aVa1950_A_virginicus
p4199
aa(lp4200
I7
aVb1948_A_capillipes
p4201
aVa1950_A_glomeratus
p4202
aa(lp4203
I7
aVb1948_A_virginicus_var_virginicus
p4204
aVa1950_A_virginicus_var_hirsutior
p4205
aa(lp4206
I7
aVb1948_A_virginicus_var_virginicus
p4207
aVa1950_A_virginicus_var_glaucopsis
p4208
aa(lp4209
I7
aVb1948_A_virginicus_var_glaucopsis
p4210
aVa1950_A_virginicus_var_virginicus
p4211
aa(lp4212
I7
aVb1948_A_virginicus_var_glaucopsis
p4213
aVa1950_A_virginicus_var_hirsutior
p4214
aa(lp4215
I7
aVa1950_A_capillipes
p4216
aVa1950_A_virginicus_var_virginicus
p4217
aa(lp4218
I7
aVa1950_A_capillipes
p4219
aVa1950_A_virginicus_var_hirsutior
p4220
aa(lp4221
I7
aVa1950_A_capillipes
p4222
aVa1950_A_virginicus_var_glaucopsis
p4223
aa(lp4224
I7
aVa1950_A_glomeratus
p4225
aVa1950_A_virginicus_var_virginicus
p4226
aa(lp4227
I7
aVa1950_A_glomeratus
p4228
aVa1950_A_virginicus_var_hirsutior
p4229
aa(lp4230
I7
aVa1950_A_glomeratus
p4231
aVa1950_A_virginicus_var_glaucopsis
p4232
aa(lp4233
I7
aVb1948_A_capillipes
p4234
aVb1948_A_virginicus_var_virginicus
p4235
aa(lp4236
I7
aVb1948_A_capillipes
p4237
aVb1948_A_virginicus_var_tenuispatheus
p4238
aa(lp4239
I7
aVb1948_A_capillipes
p4240
aVb1948_A_virginicus_var_glaucopsis
p4241
aa(lp4242
I7
aVb1948_A_glomeratus
p4243
aVb1948_A_virginicus_var_virginicus
p4244
aa(lp4245
I7
aVb1948_A_glomeratus
p4246
aVb1948_A_virginicus_var_tenuispatheus
p4247
aa(lp4248
I7
aVb1948_A_glomeratus
p4249
aVb1948_A_virginicus_var_glaucopsis
p4250
aa(lp4251
I7
aVa1950_A_virginicus_var_glaucopsis
p4252
aVb1948_A_capillipes
p4253
aa(lp4254
I7
aVa1950_A_virginicus_var_hirsutior
p4255
aVb1948_A_capillipes
p4256
aa(lp4257
I7
aVa1950_A_virginicus_var_virginicus
p4258
aVb1948_A_capillipes
p4259
aa(lp4260
I7
aVb1948_A_virginicus_var_virginicus
p4261
aVa1950_A_capillipes
p4262
aa(lp4263
I7
aVb1948_A_virginicus_var_glaucopsis
p4264
aVa1950_A_capillipes
p4265
aa(lp4266
I7
aVb1948_A_virginicus_var_virginicus
p4267
aVa1950_A_glomeratus
p4268
aa(lp4269
I7
aVb1948_A_virginicus_var_glaucopsis
p4270
aVa1950_A_glomeratus
p4271
aa(lp4272
I7
aVa1950_A_virginicus_var_virginicus
p4273
aVb1948_A_glomeratus
p4274
aa(lp4275
I7
aVa1950_A_virginicus_var_glaucopsis
p4276
aVb1948_A_glomeratus
p4277
aa(lp4278
I7
aVb1948_A_virginicus_var_tenuispatheus
p4279
aVa1950_A_capillipes
p4280
aa(lp4281
I7
aVb1948_A_virginicus_var_tenuispatheus
p4282
aVa1950_A_virginicus
p4283
aa(lp4284
I7
aVa1950_A_glomeratus
p4285
aVb1948_A_virginicus_var_glaucopsis
p4286
aa(lp4287
I7
aVa1950_A_glomeratus
p4288
aVb1948_A_virginicus_var_virginicus
p4289
aa(lp4290
I7
aVa1950_A_virginicus
p4291
aVb1948_A_virginicus_var_tenuispatheus
p4292
aa(lp4293
I7
aVa1950_A_capillipes
p4294
aVb1948_A_virginicus_var_tenuispatheus
p4295
aa(lp4296
I7
aVb1948_A_glomeratus
p4297
aVa1950_A_virginicus_var_glaucopsis
p4298
aa(lp4299
I7
aVb1948_A_capillipes
p4300
aVa1950_A_virginicus_var_glaucopsis
p4301
aa(lp4302
I7
aVb1948_A_virginicus_var_tenuispatheus
p4303
aVa1950_A_virginicus_var_hirsutior
p4304
aa(lp4305
I7
aVb1948_A_capillipes
p4306
aVa1950_A_virginicus_var_hirsutior
p4307
aa(lp4308
I7
aVb1948_A_glomeratus
p4309
aVa1950_A_virginicus_var_virginicus
p4310
aa(lp4311
I7
aVb1948_A_capillipes
p4312
aVa1950_A_virginicus_var_virginicus
p4313
aa(lp4314
I7
aVa1950_A_capillipes
p4315
aVb1948_A_virginicus_var_glaucopsis
p4316
aa(lp4317
I7
aVa1950_A_virginicus_var_hirsutior
p4318
aVb1948_A_virginicus_var_tenuispatheus
p4319
aa(lp4320
I7
aVa1950_A_capillipes
p4321
aVb1948_A_virginicus_var_virginicus
p4322
aa(lp4323
I7
aVa1950_A_virginicus_var_hirsutior
p4324
aVb1948_A_glomeratus
p4325
aa(lp4326
I7
aVb1948_A_glomeratus
p4327
aVa1950_A_virginicus_var_hirsutior
p4328
aaa(lp4329
(lp4330
I7
aVa1950_A_capillipes
p4331
aVa1950_Andropogon
p4332
aa(lp4333
I7
aVa1950_A_glomeratus
p4334
aVa1950_Andropogon
p4335
aa(lp4336
I7
aVa1950_A_virginicus
p4337
aVa1950_Andropogon
p4338
aa(lp4339
I7
aVa1950_A_virginicus_var_glaucopsis
p4340
aVa1950_A_virginicus
p4341
aa(lp4342
I7
aVa1950_A_virginicus_var_hirsutior
p4343
aVa1950_A_virginicus
p4344
aa(lp4345
I7
aVa1950_A_virginicus_var_virginicus
p4346
aVa1950_A_virginicus
p4347
aa(lp4348
I7
aVb1948_A_capillipes
p4349
aVb1948_Andropogon
p4350
aa(lp4351
I7
aVb1948_A_glomeratus
p4352
aVb1948_Andropogon
p4353
aa(lp4354
I7
aVb1948_A_virginicus
p4355
aVb1948_Andropogon
p4356
aa(lp4357
I7
aVb1948_A_virginicus_var_glaucopsis
p4358
aVb1948_A_virginicus
p4359
aa(lp4360
I7
aVb1948_A_virginicus_var_tenuispatheus
p4361
aVb1948_A_virginicus
p4362
aa(lp4363
I7
aVb1948_A_virginicus_var_virginicus
p4364
aVb1948_A_virginicus
p4365
aa(lp4366
I7
aVb1948_A_virginicus_var_tenuispatheus
p4367
aVa1950_A_glomeratus
p4368
aa(lp4369
I7
aVb1948_A_virginicus_var_glaucopsis
p4370
aVb1948_Andropogon
p4371
aa(lp4372
I7
aVb1948_A_virginicus_var_tenuispatheus
p4373
aVb1948_Andropogon
p4374
aa(lp4375
I7
aVb1948_A_virginicus_var_virginicus
p4376
aVb1948_Andropogon
p4377
aa(lp4378
I7
aVa1950_A_virginicus_var_glaucopsis
p4379
aVa1950_Andropogon
p4380
aa(lp4381
I7
aVa1950_A_virginicus_var_hirsutior
p4382
aVa1950_Andropogon
p4383
aa(lp4384
I7
aVa1950_A_virginicus_var_virginicus
p4385
aVa1950_Andropogon
p4386
aa(lp4387
I7
aVa1950_A_capillipes
p4388
aVb1948_Andropogon
p4389
aa(lp4390
I7
aVa1950_A_glomeratus
p4391
aVb1948_Andropogon
p4392
aa(lp4393
I7
aVa1950_A_virginicus
p4394
aVb1948_Andropogon
p4395
aa(lp4396
I7
aVa1950_A_virginicus_var_virginicus
p4397
aVb1948_A_virginicus
p4398
aa(lp4399
I7
aVa1950_A_virginicus_var_glaucopsis
p4400
aVb1948_A_virginicus
p4401
aa(lp4402
I7
aVa1950_A_virginicus_var_glaucopsis
p4403
aVb1948_Andropogon
p4404
aa(lp4405
I7
aVa1950_A_virginicus_var_hirsutior
p4406
aVb1948_Andropogon
p4407
aa(lp4408
I7
aVa1950_A_virginicus_var_virginicus
p4409
aVb1948_Andropogon
p4410
aa(lp4411
I7
aVb1948_A_virginicus_var_tenuispatheus
p4412
aVa1950_Andropogon
p4413
aa(lp4414
I7
aVb1948_A_virginicus_var_virginicus
p4415
aVa1950_Andropogon
p4416
aa(lp4417
I7
aVb1948_A_virginicus_var_glaucopsis
p4418
aVa1950_Andropogon
p4419
aa(lp4420
I7
aVb1948_A_virginicus_var_virginicus
p4421
aVa1950_A_virginicus
p4422
aa(lp4423
I7
aVb1948_A_virginicus_var_glaucopsis
p4424
aVa1950_A_virginicus
p4425
aa(lp4426
I7
aVb1948_A_virginicus
p4427
aVa1950_Andropogon
p4428
aa(lp4429
I7
aVb1948_A_glomeratus
p4430
aVa1950_Andropogon
p4431
aa(lp4432
I7
aVb1948_A_capillipes
p4433
aVa1950_Andropogon
p4434
aaa(lp4435
(lp4436
I7
aVa1950_A_glomeratus
p4437
aVb1948_A_virginicus_var_tenuispatheus
p4438
aa(lp4439
I7
aVb1948_A_virginicus
p4440
aVb1948_A_virginicus_var_virginicus
p4441
aa(lp4442
I7
aVb1948_A_virginicus
p4443
aVb1948_A_virginicus_var_tenuispatheus
p4444
aa(lp4445
I7
aVb1948_A_virginicus
p4446
aVb1948_A_virginicus_var_glaucopsis
p4447
aa(lp4448
I7
aVb1948_Andropogon
p4449
aVb1948_A_virginicus
p4450
aa(lp4451
I7
aVb1948_Andropogon
p4452
aVb1948_A_glomeratus
p4453
aa(lp4454
I7
aVb1948_Andropogon
p4455
aVb1948_A_capillipes
p4456
aa(lp4457
I7
aVa1950_A_virginicus
p4458
aVa1950_A_virginicus_var_virginicus
p4459
aa(lp4460
I7
aVa1950_A_virginicus
p4461
aVa1950_A_virginicus_var_hirsutior
p4462
aa(lp4463
I7
aVa1950_A_virginicus
p4464
aVa1950_A_virginicus_var_glaucopsis
p4465
aa(lp4466
I7
aVa1950_Andropogon
p4467
aVa1950_A_virginicus
p4468
aa(lp4469
I7
aVa1950_Andropogon
p4470
aVa1950_A_glomeratus
p4471
aa(lp4472
I7
aVa1950_Andropogon
p4473
aVa1950_A_capillipes
p4474
aa(lp4475
I7
aVb1948_A_virginicus
p4476
aVa1950_A_virginicus_var_glaucopsis
p4477
aa(lp4478
I7
aVb1948_A_virginicus
p4479
aVa1950_A_virginicus_var_virginicus
p4480
aa(lp4481
I7
aVb1948_Andropogon
p4482
aVa1950_A_virginicus
p4483
aa(lp4484
I7
aVb1948_Andropogon
p4485
aVa1950_A_glomeratus
p4486
aa(lp4487
I7
aVb1948_Andropogon
p4488
aVa1950_A_capillipes
p4489
aa(lp4490
I7
aVa1950_Andropogon
p4491
aVa1950_A_virginicus_var_virginicus
p4492
aa(lp4493
I7
aVa1950_Andropogon
p4494
aVa1950_A_virginicus_var_hirsutior
p4495
aa(lp4496
I7
aVa1950_Andropogon
p4497
aVa1950_A_virginicus_var_glaucopsis
p4498
aa(lp4499
I7
aVb1948_Andropogon
p4500
aVb1948_A_virginicus_var_virginicus
p4501
aa(lp4502
I7
aVb1948_Andropogon
p4503
aVb1948_A_virginicus_var_tenuispatheus
p4504
aa(lp4505
I7
aVb1948_Andropogon
p4506
aVb1948_A_virginicus_var_glaucopsis
p4507
aa(lp4508
I7
aVa1950_Andropogon
p4509
aVb1948_A_virginicus_var_tenuispatheus
p4510
aa(lp4511
I7
aVa1950_Andropogon
p4512
aVb1948_A_capillipes
p4513
aa(lp4514
I7
aVa1950_A_virginicus
p4515
aVb1948_A_virginicus_var_glaucopsis
p4516
aa(lp4517
I7
aVa1950_A_virginicus
p4518
aVb1948_A_virginicus_var_virginicus
p4519
aa(lp4520
I7
aVa1950_Andropogon
p4521
aVb1948_A_glomeratus
p4522
aa(lp4523
I7
aVa1950_Andropogon
p4524
aVb1948_A_virginicus
p4525
aa(lp4526
I7
aVb1948_Andropogon
p4527
aVa1950_A_virginicus_var_glaucopsis
p4528
aa(lp4529
I7
aVb1948_Andropogon
p4530
aVa1950_A_virginicus_var_hirsutior
p4531
aa(lp4532
I7
aVb1948_Andropogon
p4533
aVa1950_A_virginicus_var_virginicus
p4534
aa(lp4535
I7
aVa1950_Andropogon
p4536
aVb1948_A_virginicus_var_glaucopsis
p4537
aa(lp4538
I7
aVa1950_Andropogon
p4539
aVb1948_A_virginicus_var_virginicus
p4540
aaa(lp4541
(lp4542
I7
aVa1950_A_glomeratus
p4543
aVb1948_A_glomeratus
p4544
aa(lp4545
I7
aVb1948_A_glomeratus
p4546
aVa1950_A_glomeratus
p4547
aa(lp4548
I7
aVa1950_A_virginicus
p4549
aVb1948_A_glomeratus
p4550
aa(lp4551
I7
aVa1950_A_glomeratus
p4552
aVb1948_A_virginicus
p4553
aa(lp4554
I7
aVa1950_A_virginicus_var_hirsutior
p4555
aVb1948_A_virginicus
p4556
aa(lp4557
I7
aVa1950_A_virginicus
p4558
aVb1948_A_virginicus
p4559
aa(lp4560
I7
aVb1948_A_virginicus
p4561
aVa1950_A_glomeratus
p4562
aa(lp4563
I7
aVb1948_A_glomeratus
p4564
aVa1950_A_virginicus
p4565
aa(lp4566
I7
aVb1948_A_virginicus
p4567
aVa1950_A_virginicus
p4568
aa(lp4569
I7
aVb1948_A_virginicus
p4570
aVa1950_A_virginicus_var_hirsutior
p4571
aaa(lp4572
(lp4573
I7
aVa1950_A_capillipes
p4574
aa(lp4575
I7
aVa1950_A_glomeratus
p4576
aa(lp4577
I7
aVa1950_A_virginicus
p4578
aa(lp4579
I7
aVa1950_A_virginicus_var_glaucopsis
p4580
aa(lp4581
I7
aVa1950_A_virginicus_var_hirsutior
p4582
aa(lp4583
I7
aVa1950_A_virginicus_var_virginicus
p4584
aa(lp4585
I7
aVb1948_A_capillipes
p4586
aa(lp4587
I7
aVb1948_A_glomeratus
p4588
aa(lp4589
I7
aVb1948_A_virginicus
p4590
aa(lp4591
I7
aVb1948_A_virginicus_var_glaucopsis
p4592
aa(lp4593
I7
aVb1948_A_virginicus_var_tenuispatheus
p4594
aa(lp4595
I7
aVb1948_A_virginicus_var_virginicus
p4596
aa(lp4597
I7
aVa1950_Andropogon
p4598
aa(lp4599
I7
aVb1948_Andropogon
p4600
aaa(lp4601
(lp4602
I7
aVa1950_Andropogon
p4603
aVa1950_A_capillipes
p4604
aa(lp4605
I7
aVa1950_Andropogon
p4606
aVa1950_A_glomeratus
p4607
aa(lp4608
I7
aVa1950_Andropogon
p4609
aVa1950_A_virginicus
p4610
aa(lp4611
I7
aVa1950_A_virginicus
p4612
aVa1950_A_virginicus_var_glaucopsis
p4613
aa(lp4614
I7
aVa1950_A_virginicus
p4615
aVa1950_A_virginicus_var_hirsutior
p4616
aa(lp4617
I7
aVa1950_A_virginicus
p4618
aVa1950_A_virginicus_var_virginicus
p4619
aa(lp4620
I7
aVb1948_Andropogon
p4621
aVb1948_A_capillipes
p4622
aa(lp4623
I7
aVb1948_Andropogon
p4624
aVb1948_A_glomeratus
p4625
aa(lp4626
I7
aVb1948_Andropogon
p4627
aVb1948_A_virginicus
p4628
aa(lp4629
I7
aVb1948_A_virginicus
p4630
aVb1948_A_virginicus_var_glaucopsis
p4631
aa(lp4632
I7
aVb1948_A_virginicus
p4633
aVb1948_A_virginicus_var_tenuispatheus
p4634
aa(lp4635
I7
aVb1948_A_virginicus
p4636
aVb1948_A_virginicus_var_virginicus
p4637
aaasba(ihelper
PossibleWorld
p4638
(dp4639
g3
I8
sg4
I0
sg5
(lp4640
(lp4641
(lp4642
I8
aVa1950_Andropogon
p4643
aVb1948_Andropogon
p4644
aa(lp4645
I8
aVa1950_A_capillipes
p4646
aVb1948_A_capillipes
p4647
aa(lp4648
I8
aVa1950_A_virginicus_var_virginicus
p4649
aVb1948_A_virginicus_var_virginicus
p4650
aa(lp4651
I8
aVa1950_A_virginicus_var_glaucopsis
p4652
aVb1948_A_virginicus_var_glaucopsis
p4653
aa(lp4654
I8
aVb1948_A_virginicus_var_glaucopsis
p4655
aVa1950_A_virginicus_var_glaucopsis
p4656
aa(lp4657
I8
aVb1948_A_virginicus_var_virginicus
p4658
aVa1950_A_virginicus_var_virginicus
p4659
aa(lp4660
I8
aVb1948_A_capillipes
p4661
aVa1950_A_capillipes
p4662
aa(lp4663
I8
aVb1948_Andropogon
p4664
aVa1950_Andropogon
p4665
aa(lp4666
I8
aVb1948_Andropogon
p4667
aVb1948_Andropogon
p4668
aa(lp4669
I8
aVa1950_Andropogon
p4670
aVa1950_Andropogon
p4671
aa(lp4672
I8
aVb1948_A_virginicus_var_virginicus
p4673
aVb1948_A_virginicus_var_virginicus
p4674
aa(lp4675
I8
aVb1948_A_virginicus_var_tenuispatheus
p4676
aVb1948_A_virginicus_var_tenuispatheus
p4677
aa(lp4678
I8
aVb1948_A_virginicus_var_glaucopsis
p4679
aVb1948_A_virginicus_var_glaucopsis
p4680
aa(lp4681
I8
aVb1948_A_virginicus
p4682
aVb1948_A_virginicus
p4683
aa(lp4684
I8
aVb1948_A_glomeratus
p4685
aVb1948_A_glomeratus
p4686
aa(lp4687
I8
aVb1948_A_capillipes
p4688
aVb1948_A_capillipes
p4689
aa(lp4690
I8
aVa1950_A_virginicus_var_virginicus
p4691
aVa1950_A_virginicus_var_virginicus
p4692
aa(lp4693
I8
aVa1950_A_virginicus_var_hirsutior
p4694
aVa1950_A_virginicus_var_hirsutior
p4695
aa(lp4696
I8
aVa1950_A_virginicus_var_glaucopsis
p4697
aVa1950_A_virginicus_var_glaucopsis
p4698
aa(lp4699
I8
aVa1950_A_virginicus
p4700
aVa1950_A_virginicus
p4701
aa(lp4702
I8
aVa1950_A_glomeratus
p4703
aVa1950_A_glomeratus
p4704
aa(lp4705
I8
aVa1950_A_capillipes
p4706
aVa1950_A_capillipes
p4707
aaa(lp4708
(lp4709
I8
aVa1950_A_glomeratus
p4710
aVa1950_A_capillipes
p4711
aa(lp4712
I8
aVa1950_A_virginicus
p4713
aVa1950_A_capillipes
p4714
aa(lp4715
I8
aVa1950_A_capillipes
p4716
aVa1950_A_glomeratus
p4717
aa(lp4718
I8
aVa1950_A_virginicus
p4719
aVa1950_A_glomeratus
p4720
aa(lp4721
I8
aVa1950_A_capillipes
p4722
aVa1950_A_virginicus
p4723
aa(lp4724
I8
aVa1950_A_glomeratus
p4725
aVa1950_A_virginicus
p4726
aa(lp4727
I8
aVa1950_A_virginicus_var_hirsutior
p4728
aVa1950_A_virginicus_var_glaucopsis
p4729
aa(lp4730
I8
aVa1950_A_virginicus_var_virginicus
p4731
aVa1950_A_virginicus_var_glaucopsis
p4732
aa(lp4733
I8
aVa1950_A_virginicus_var_glaucopsis
p4734
aVa1950_A_virginicus_var_hirsutior
p4735
aa(lp4736
I8
aVa1950_A_virginicus_var_virginicus
p4737
aVa1950_A_virginicus_var_hirsutior
p4738
aa(lp4739
I8
aVa1950_A_virginicus_var_glaucopsis
p4740
aVa1950_A_virginicus_var_virginicus
p4741
aa(lp4742
I8
aVa1950_A_virginicus_var_hirsutior
p4743
aVa1950_A_virginicus_var_virginicus
p4744
aa(lp4745
I8
aVb1948_A_glomeratus
p4746
aVb1948_A_capillipes
p4747
aa(lp4748
I8
aVb1948_A_virginicus
p4749
aVb1948_A_capillipes
p4750
aa(lp4751
I8
aVb1948_A_capillipes
p4752
aVb1948_A_glomeratus
p4753
aa(lp4754
I8
aVb1948_A_virginicus
p4755
aVb1948_A_glomeratus
p4756
aa(lp4757
I8
aVb1948_A_capillipes
p4758
aVb1948_A_virginicus
p4759
aa(lp4760
I8
aVb1948_A_glomeratus
p4761
aVb1948_A_virginicus
p4762
aa(lp4763
I8
aVb1948_A_virginicus_var_tenuispatheus
p4764
aVb1948_A_virginicus_var_glaucopsis
p4765
aa(lp4766
I8
aVb1948_A_virginicus_var_virginicus
p4767
aVb1948_A_virginicus_var_glaucopsis
p4768
aa(lp4769
I8
aVb1948_A_virginicus_var_glaucopsis
p4770
aVb1948_A_virginicus_var_tenuispatheus
p4771
aa(lp4772
I8
aVb1948_A_virginicus_var_virginicus
p4773
aVb1948_A_virginicus_var_tenuispatheus
p4774
aa(lp4775
I8
aVb1948_A_virginicus_var_glaucopsis
p4776
aVb1948_A_virginicus_var_virginicus
p4777
aa(lp4778
I8
aVb1948_A_virginicus_var_tenuispatheus
p4779
aVb1948_A_virginicus_var_virginicus
p4780
aa(lp4781
I8
aVb1948_A_virginicus_var_glaucopsis
p4782
aVb1948_A_glomeratus
p4783
aa(lp4784
I8
aVb1948_A_virginicus_var_tenuispatheus
p4785
aVb1948_A_glomeratus
p4786
aa(lp4787
I8
aVb1948_A_virginicus_var_virginicus
p4788
aVb1948_A_glomeratus
p4789
aa(lp4790
I8
aVb1948_A_virginicus_var_glaucopsis
p4791
aVb1948_A_capillipes
p4792
aa(lp4793
I8
aVb1948_A_virginicus_var_tenuispatheus
p4794
aVb1948_A_capillipes
p4795
aa(lp4796
I8
aVb1948_A_virginicus_var_virginicus
p4797
aVb1948_A_capillipes
p4798
aa(lp4799
I8
aVa1950_A_virginicus_var_glaucopsis
p4800
aVa1950_A_glomeratus
p4801
aa(lp4802
I8
aVa1950_A_virginicus_var_hirsutior
p4803
aVa1950_A_glomeratus
p4804
aa(lp4805
I8
aVa1950_A_virginicus_var_virginicus
p4806
aVa1950_A_glomeratus
p4807
aa(lp4808
I8
aVa1950_A_virginicus_var_glaucopsis
p4809
aVa1950_A_capillipes
p4810
aa(lp4811
I8
aVa1950_A_virginicus_var_hirsutior
p4812
aVa1950_A_capillipes
p4813
aa(lp4814
I8
aVa1950_A_virginicus_var_virginicus
p4815
aVa1950_A_capillipes
p4816
aa(lp4817
I8
aVa1950_A_virginicus_var_hirsutior
p4818
aVb1948_A_virginicus_var_glaucopsis
p4819
aa(lp4820
I8
aVa1950_A_virginicus_var_virginicus
p4821
aVb1948_A_virginicus_var_glaucopsis
p4822
aa(lp4823
I8
aVa1950_A_virginicus_var_glaucopsis
p4824
aVb1948_A_virginicus_var_virginicus
p4825
aa(lp4826
I8
aVa1950_A_virginicus_var_hirsutior
p4827
aVb1948_A_virginicus_var_virginicus
p4828
aa(lp4829
I8
aVa1950_A_glomeratus
p4830
aVb1948_A_capillipes
p4831
aa(lp4832
I8
aVa1950_A_virginicus
p4833
aVb1948_A_capillipes
p4834
aa(lp4835
I8
aVa1950_A_virginicus_var_virginicus
p4836
aVb1948_A_virginicus_var_tenuispatheus
p4837
aa(lp4838
I8
aVa1950_A_virginicus_var_glaucopsis
p4839
aVb1948_A_virginicus_var_tenuispatheus
p4840
aa(lp4841
I8
aVa1950_A_capillipes
p4842
aVb1948_A_virginicus
p4843
aa(lp4844
I8
aVa1950_A_capillipes
p4845
aVb1948_A_glomeratus
p4846
aa(lp4847
I8
aVb1948_A_glomeratus
p4848
aVa1950_A_capillipes
p4849
aa(lp4850
I8
aVb1948_A_virginicus
p4851
aVa1950_A_capillipes
p4852
aa(lp4853
I8
aVb1948_A_virginicus_var_tenuispatheus
p4854
aVa1950_A_virginicus_var_glaucopsis
p4855
aa(lp4856
I8
aVb1948_A_virginicus_var_tenuispatheus
p4857
aVa1950_A_virginicus_var_virginicus
p4858
aa(lp4859
I8
aVb1948_A_capillipes
p4860
aVa1950_A_virginicus
p4861
aa(lp4862
I8
aVb1948_A_capillipes
p4863
aVa1950_A_glomeratus
p4864
aa(lp4865
I8
aVb1948_A_virginicus_var_virginicus
p4866
aVa1950_A_virginicus_var_hirsutior
p4867
aa(lp4868
I8
aVb1948_A_virginicus_var_virginicus
p4869
aVa1950_A_virginicus_var_glaucopsis
p4870
aa(lp4871
I8
aVb1948_A_virginicus_var_glaucopsis
p4872
aVa1950_A_virginicus_var_virginicus
p4873
aa(lp4874
I8
aVb1948_A_virginicus_var_glaucopsis
p4875
aVa1950_A_virginicus_var_hirsutior
p4876
aa(lp4877
I8
aVa1950_A_capillipes
p4878
aVa1950_A_virginicus_var_virginicus
p4879
aa(lp4880
I8
aVa1950_A_capillipes
p4881
aVa1950_A_virginicus_var_hirsutior
p4882
aa(lp4883
I8
aVa1950_A_capillipes
p4884
aVa1950_A_virginicus_var_glaucopsis
p4885
aa(lp4886
I8
aVa1950_A_glomeratus
p4887
aVa1950_A_virginicus_var_virginicus
p4888
aa(lp4889
I8
aVa1950_A_glomeratus
p4890
aVa1950_A_virginicus_var_hirsutior
p4891
aa(lp4892
I8
aVa1950_A_glomeratus
p4893
aVa1950_A_virginicus_var_glaucopsis
p4894
aa(lp4895
I8
aVb1948_A_capillipes
p4896
aVb1948_A_virginicus_var_virginicus
p4897
aa(lp4898
I8
aVb1948_A_capillipes
p4899
aVb1948_A_virginicus_var_tenuispatheus
p4900
aa(lp4901
I8
aVb1948_A_capillipes
p4902
aVb1948_A_virginicus_var_glaucopsis
p4903
aa(lp4904
I8
aVb1948_A_glomeratus
p4905
aVb1948_A_virginicus_var_virginicus
p4906
aa(lp4907
I8
aVb1948_A_glomeratus
p4908
aVb1948_A_virginicus_var_tenuispatheus
p4909
aa(lp4910
I8
aVb1948_A_glomeratus
p4911
aVb1948_A_virginicus_var_glaucopsis
p4912
aa(lp4913
I8
aVa1950_A_virginicus_var_glaucopsis
p4914
aVb1948_A_capillipes
p4915
aa(lp4916
I8
aVa1950_A_virginicus_var_hirsutior
p4917
aVb1948_A_capillipes
p4918
aa(lp4919
I8
aVa1950_A_virginicus_var_virginicus
p4920
aVb1948_A_capillipes
p4921
aa(lp4922
I8
aVb1948_A_virginicus_var_virginicus
p4923
aVa1950_A_capillipes
p4924
aa(lp4925
I8
aVb1948_A_virginicus_var_glaucopsis
p4926
aVa1950_A_capillipes
p4927
aa(lp4928
I8
aVb1948_A_virginicus_var_virginicus
p4929
aVa1950_A_glomeratus
p4930
aa(lp4931
I8
aVb1948_A_virginicus_var_glaucopsis
p4932
aVa1950_A_glomeratus
p4933
aa(lp4934
I8
aVa1950_A_virginicus_var_virginicus
p4935
aVb1948_A_glomeratus
p4936
aa(lp4937
I8
aVa1950_A_virginicus_var_glaucopsis
p4938
aVb1948_A_glomeratus
p4939
aa(lp4940
I8
aVb1948_A_virginicus_var_tenuispatheus
p4941
aVa1950_A_capillipes
p4942
aa(lp4943
I8
aVb1948_A_virginicus_var_tenuispatheus
p4944
aVa1950_A_virginicus
p4945
aa(lp4946
I8
aVa1950_A_glomeratus
p4947
aVb1948_A_virginicus_var_glaucopsis
p4948
aa(lp4949
I8
aVa1950_A_glomeratus
p4950
aVb1948_A_virginicus_var_virginicus
p4951
aa(lp4952
I8
aVa1950_A_virginicus
p4953
aVb1948_A_virginicus_var_tenuispatheus
p4954
aa(lp4955
I8
aVa1950_A_capillipes
p4956
aVb1948_A_virginicus_var_tenuispatheus
p4957
aa(lp4958
I8
aVb1948_A_glomeratus
p4959
aVa1950_A_virginicus_var_glaucopsis
p4960
aa(lp4961
I8
aVb1948_A_capillipes
p4962
aVa1950_A_virginicus_var_glaucopsis
p4963
aa(lp4964
I8
aVb1948_A_virginicus_var_tenuispatheus
p4965
aVa1950_A_virginicus_var_hirsutior
p4966
aa(lp4967
I8
aVb1948_A_capillipes
p4968
aVa1950_A_virginicus_var_hirsutior
p4969
aa(lp4970
I8
aVb1948_A_glomeratus
p4971
aVa1950_A_virginicus_var_virginicus
p4972
aa(lp4973
I8
aVb1948_A_capillipes
p4974
aVa1950_A_virginicus_var_virginicus
p4975
aa(lp4976
I8
aVa1950_A_capillipes
p4977
aVb1948_A_virginicus_var_glaucopsis
p4978
aa(lp4979
I8
aVa1950_A_virginicus_var_hirsutior
p4980
aVb1948_A_virginicus_var_tenuispatheus
p4981
aa(lp4982
I8
aVa1950_A_capillipes
p4983
aVb1948_A_virginicus_var_virginicus
p4984
aa(lp4985
I8
aVa1950_A_virginicus_var_hirsutior
p4986
aVb1948_A_virginicus
p4987
aa(lp4988
I8
aVb1948_A_virginicus
p4989
aVa1950_A_virginicus_var_hirsutior
p4990
aaa(lp4991
(lp4992
I8
aVa1950_A_capillipes
p4993
aVa1950_Andropogon
p4994
aa(lp4995
I8
aVa1950_A_glomeratus
p4996
aVa1950_Andropogon
p4997
aa(lp4998
I8
aVa1950_A_virginicus
p4999
aVa1950_Andropogon
p5000
aa(lp5001
I8
aVa1950_A_virginicus_var_glaucopsis
p5002
aVa1950_A_virginicus
p5003
aa(lp5004
I8
aVa1950_A_virginicus_var_hirsutior
p5005
aVa1950_A_virginicus
p5006
aa(lp5007
I8
aVa1950_A_virginicus_var_virginicus
p5008
aVa1950_A_virginicus
p5009
aa(lp5010
I8
aVb1948_A_capillipes
p5011
aVb1948_Andropogon
p5012
aa(lp5013
I8
aVb1948_A_glomeratus
p5014
aVb1948_Andropogon
p5015
aa(lp5016
I8
aVb1948_A_virginicus
p5017
aVb1948_Andropogon
p5018
aa(lp5019
I8
aVb1948_A_virginicus_var_glaucopsis
p5020
aVb1948_A_virginicus
p5021
aa(lp5022
I8
aVb1948_A_virginicus_var_tenuispatheus
p5023
aVb1948_A_virginicus
p5024
aa(lp5025
I8
aVb1948_A_virginicus_var_virginicus
p5026
aVb1948_A_virginicus
p5027
aa(lp5028
I8
aVb1948_A_virginicus_var_tenuispatheus
p5029
aVa1950_A_glomeratus
p5030
aa(lp5031
I8
aVb1948_A_virginicus_var_glaucopsis
p5032
aVb1948_Andropogon
p5033
aa(lp5034
I8
aVb1948_A_virginicus_var_tenuispatheus
p5035
aVb1948_Andropogon
p5036
aa(lp5037
I8
aVb1948_A_virginicus_var_virginicus
p5038
aVb1948_Andropogon
p5039
aa(lp5040
I8
aVa1950_A_virginicus_var_glaucopsis
p5041
aVa1950_Andropogon
p5042
aa(lp5043
I8
aVa1950_A_virginicus_var_hirsutior
p5044
aVa1950_Andropogon
p5045
aa(lp5046
I8
aVa1950_A_virginicus_var_virginicus
p5047
aVa1950_Andropogon
p5048
aa(lp5049
I8
aVa1950_A_capillipes
p5050
aVb1948_Andropogon
p5051
aa(lp5052
I8
aVa1950_A_glomeratus
p5053
aVb1948_Andropogon
p5054
aa(lp5055
I8
aVa1950_A_virginicus
p5056
aVb1948_Andropogon
p5057
aa(lp5058
I8
aVa1950_A_virginicus_var_virginicus
p5059
aVb1948_A_virginicus
p5060
aa(lp5061
I8
aVa1950_A_virginicus_var_glaucopsis
p5062
aVb1948_A_virginicus
p5063
aa(lp5064
I8
aVa1950_A_virginicus_var_glaucopsis
p5065
aVb1948_Andropogon
p5066
aa(lp5067
I8
aVa1950_A_virginicus_var_hirsutior
p5068
aVb1948_Andropogon
p5069
aa(lp5070
I8
aVa1950_A_virginicus_var_virginicus
p5071
aVb1948_Andropogon
p5072
aa(lp5073
I8
aVb1948_A_virginicus_var_tenuispatheus
p5074
aVa1950_Andropogon
p5075
aa(lp5076
I8
aVb1948_A_virginicus_var_virginicus
p5077
aVa1950_Andropogon
p5078
aa(lp5079
I8
aVb1948_A_virginicus_var_glaucopsis
p5080
aVa1950_Andropogon
p5081
aa(lp5082
I8
aVb1948_A_virginicus_var_virginicus
p5083
aVa1950_A_virginicus
p5084
aa(lp5085
I8
aVb1948_A_virginicus_var_glaucopsis
p5086
aVa1950_A_virginicus
p5087
aa(lp5088
I8
aVb1948_A_virginicus
p5089
aVa1950_Andropogon
p5090
aa(lp5091
I8
aVb1948_A_glomeratus
p5092
aVa1950_Andropogon
p5093
aa(lp5094
I8
aVb1948_A_capillipes
p5095
aVa1950_Andropogon
p5096
aa(lp5097
I8
aVa1950_A_virginicus_var_hirsutior
p5098
aVb1948_A_glomeratus
p5099
aaa(lp5100
(lp5101
I8
aVa1950_A_glomeratus
p5102
aVb1948_A_virginicus_var_tenuispatheus
p5103
aa(lp5104
I8
aVb1948_A_virginicus
p5105
aVb1948_A_virginicus_var_virginicus
p5106
aa(lp5107
I8
aVb1948_A_virginicus
p5108
aVb1948_A_virginicus_var_tenuispatheus
p5109
aa(lp5110
I8
aVb1948_A_virginicus
p5111
aVb1948_A_virginicus_var_glaucopsis
p5112
aa(lp5113
I8
aVb1948_Andropogon
p5114
aVb1948_A_virginicus
p5115
aa(lp5116
I8
aVb1948_Andropogon
p5117
aVb1948_A_glomeratus
p5118
aa(lp5119
I8
aVb1948_Andropogon
p5120
aVb1948_A_capillipes
p5121
aa(lp5122
I8
aVa1950_A_virginicus
p5123
aVa1950_A_virginicus_var_virginicus
p5124
aa(lp5125
I8
aVa1950_A_virginicus
p5126
aVa1950_A_virginicus_var_hirsutior
p5127
aa(lp5128
I8
aVa1950_A_virginicus
p5129
aVa1950_A_virginicus_var_glaucopsis
p5130
aa(lp5131
I8
aVa1950_Andropogon
p5132
aVa1950_A_virginicus
p5133
aa(lp5134
I8
aVa1950_Andropogon
p5135
aVa1950_A_glomeratus
p5136
aa(lp5137
I8
aVa1950_Andropogon
p5138
aVa1950_A_capillipes
p5139
aa(lp5140
I8
aVb1948_A_virginicus
p5141
aVa1950_A_virginicus_var_glaucopsis
p5142
aa(lp5143
I8
aVb1948_A_virginicus
p5144
aVa1950_A_virginicus_var_virginicus
p5145
aa(lp5146
I8
aVb1948_Andropogon
p5147
aVa1950_A_virginicus
p5148
aa(lp5149
I8
aVb1948_Andropogon
p5150
aVa1950_A_glomeratus
p5151
aa(lp5152
I8
aVb1948_Andropogon
p5153
aVa1950_A_capillipes
p5154
aa(lp5155
I8
aVa1950_Andropogon
p5156
aVa1950_A_virginicus_var_virginicus
p5157
aa(lp5158
I8
aVa1950_Andropogon
p5159
aVa1950_A_virginicus_var_hirsutior
p5160
aa(lp5161
I8
aVa1950_Andropogon
p5162
aVa1950_A_virginicus_var_glaucopsis
p5163
aa(lp5164
I8
aVb1948_Andropogon
p5165
aVb1948_A_virginicus_var_virginicus
p5166
aa(lp5167
I8
aVb1948_Andropogon
p5168
aVb1948_A_virginicus_var_tenuispatheus
p5169
aa(lp5170
I8
aVb1948_Andropogon
p5171
aVb1948_A_virginicus_var_glaucopsis
p5172
aa(lp5173
I8
aVa1950_Andropogon
p5174
aVb1948_A_virginicus_var_tenuispatheus
p5175
aa(lp5176
I8
aVa1950_Andropogon
p5177
aVb1948_A_capillipes
p5178
aa(lp5179
I8
aVa1950_A_virginicus
p5180
aVb1948_A_virginicus_var_glaucopsis
p5181
aa(lp5182
I8
aVa1950_A_virginicus
p5183
aVb1948_A_virginicus_var_virginicus
p5184
aa(lp5185
I8
aVa1950_Andropogon
p5186
aVb1948_A_glomeratus
p5187
aa(lp5188
I8
aVa1950_Andropogon
p5189
aVb1948_A_virginicus
p5190
aa(lp5191
I8
aVb1948_Andropogon
p5192
aVa1950_A_virginicus_var_glaucopsis
p5193
aa(lp5194
I8
aVb1948_Andropogon
p5195
aVa1950_A_virginicus_var_hirsutior
p5196
aa(lp5197
I8
aVb1948_Andropogon
p5198
aVa1950_A_virginicus_var_virginicus
p5199
aa(lp5200
I8
aVa1950_Andropogon
p5201
aVb1948_A_virginicus_var_glaucopsis
p5202
aa(lp5203
I8
aVa1950_Andropogon
p5204
aVb1948_A_virginicus_var_virginicus
p5205
aa(lp5206
I8
aVb1948_A_glomeratus
p5207
aVa1950_A_virginicus_var_hirsutior
p5208
aaa(lp5209
(lp5210
I8
aVa1950_A_glomeratus
p5211
aVb1948_A_glomeratus
p5212
aa(lp5213
I8
aVb1948_A_glomeratus
p5214
aVa1950_A_glomeratus
p5215
aa(lp5216
I8
aVa1950_A_virginicus
p5217
aVb1948_A_glomeratus
p5218
aa(lp5219
I8
aVa1950_A_glomeratus
p5220
aVb1948_A_virginicus
p5221
aa(lp5222
I8
aVa1950_A_virginicus
p5223
aVb1948_A_virginicus
p5224
aa(lp5225
I8
aVb1948_A_virginicus
p5226
aVa1950_A_glomeratus
p5227
aa(lp5228
I8
aVb1948_A_glomeratus
p5229
aVa1950_A_virginicus
p5230
aa(lp5231
I8
aVb1948_A_virginicus
p5232
aVa1950_A_virginicus
p5233
aaa(lp5234
(lp5235
I8
aVa1950_A_capillipes
p5236
aa(lp5237
I8
aVa1950_A_glomeratus
p5238
aa(lp5239
I8
aVa1950_A_virginicus
p5240
aa(lp5241
I8
aVa1950_A_virginicus_var_glaucopsis
p5242
aa(lp5243
I8
aVa1950_A_virginicus_var_hirsutior
p5244
aa(lp5245
I8
aVa1950_A_virginicus_var_virginicus
p5246
aa(lp5247
I8
aVb1948_A_capillipes
p5248
aa(lp5249
I8
aVb1948_A_glomeratus
p5250
aa(lp5251
I8
aVb1948_A_virginicus
p5252
aa(lp5253
I8
aVb1948_A_virginicus_var_glaucopsis
p5254
aa(lp5255
I8
aVb1948_A_virginicus_var_tenuispatheus
p5256
aa(lp5257
I8
aVb1948_A_virginicus_var_virginicus
p5258
aa(lp5259
I8
aVa1950_Andropogon
p5260
aa(lp5261
I8
aVb1948_Andropogon
p5262
aaa(lp5263
(lp5264
I8
aVa1950_Andropogon
p5265
aVa1950_A_capillipes
p5266
aa(lp5267
I8
aVa1950_Andropogon
p5268
aVa1950_A_glomeratus
p5269
aa(lp5270
I8
aVa1950_Andropogon
p5271
aVa1950_A_virginicus
p5272
aa(lp5273
I8
aVa1950_A_virginicus
p5274
aVa1950_A_virginicus_var_glaucopsis
p5275
aa(lp5276
I8
aVa1950_A_virginicus
p5277
aVa1950_A_virginicus_var_hirsutior
p5278
aa(lp5279
I8
aVa1950_A_virginicus
p5280
aVa1950_A_virginicus_var_virginicus
p5281
aa(lp5282
I8
aVb1948_Andropogon
p5283
aVb1948_A_capillipes
p5284
aa(lp5285
I8
aVb1948_Andropogon
p5286
aVb1948_A_glomeratus
p5287
aa(lp5288
I8
aVb1948_Andropogon
p5289
aVb1948_A_virginicus
p5290
aa(lp5291
I8
aVb1948_A_virginicus
p5292
aVb1948_A_virginicus_var_glaucopsis
p5293
aa(lp5294
I8
aVb1948_A_virginicus
p5295
aVb1948_A_virginicus_var_tenuispatheus
p5296
aa(lp5297
I8
aVb1948_A_virginicus
p5298
aVb1948_A_virginicus_var_virginicus
p5299
aaasba(ihelper
PossibleWorld
p5300
(dp5301
g3
I9
sg4
I0
sg5
(lp5302
(lp5303
(lp5304
I9
aVa1950_Andropogon
p5305
aVb1948_Andropogon
p5306
aa(lp5307
I9
aVa1950_A_capillipes
p5308
aVb1948_A_capillipes
p5309
aa(lp5310
I9
aVa1950_A_virginicus_var_virginicus
p5311
aVb1948_A_virginicus_var_virginicus
p5312
aa(lp5313
I9
aVa1950_A_virginicus_var_glaucopsis
p5314
aVb1948_A_virginicus_var_glaucopsis
p5315
aa(lp5316
I9
aVb1948_A_virginicus_var_glaucopsis
p5317
aVa1950_A_virginicus_var_glaucopsis
p5318
aa(lp5319
I9
aVb1948_A_virginicus_var_virginicus
p5320
aVa1950_A_virginicus_var_virginicus
p5321
aa(lp5322
I9
aVb1948_A_capillipes
p5323
aVa1950_A_capillipes
p5324
aa(lp5325
I9
aVb1948_Andropogon
p5326
aVa1950_Andropogon
p5327
aa(lp5328
I9
aVb1948_Andropogon
p5329
aVb1948_Andropogon
p5330
aa(lp5331
I9
aVa1950_Andropogon
p5332
aVa1950_Andropogon
p5333
aa(lp5334
I9
aVb1948_A_virginicus_var_virginicus
p5335
aVb1948_A_virginicus_var_virginicus
p5336
aa(lp5337
I9
aVb1948_A_virginicus_var_tenuispatheus
p5338
aVb1948_A_virginicus_var_tenuispatheus
p5339
aa(lp5340
I9
aVb1948_A_virginicus_var_glaucopsis
p5341
aVb1948_A_virginicus_var_glaucopsis
p5342
aa(lp5343
I9
aVb1948_A_virginicus
p5344
aVb1948_A_virginicus
p5345
aa(lp5346
I9
aVb1948_A_glomeratus
p5347
aVb1948_A_glomeratus
p5348
aa(lp5349
I9
aVb1948_A_capillipes
p5350
aVb1948_A_capillipes
p5351
aa(lp5352
I9
aVa1950_A_virginicus_var_virginicus
p5353
aVa1950_A_virginicus_var_virginicus
p5354
aa(lp5355
I9
aVa1950_A_virginicus_var_hirsutior
p5356
aVa1950_A_virginicus_var_hirsutior
p5357
aa(lp5358
I9
aVa1950_A_virginicus_var_glaucopsis
p5359
aVa1950_A_virginicus_var_glaucopsis
p5360
aa(lp5361
I9
aVa1950_A_virginicus
p5362
aVa1950_A_virginicus
p5363
aa(lp5364
I9
aVa1950_A_glomeratus
p5365
aVa1950_A_glomeratus
p5366
aa(lp5367
I9
aVa1950_A_capillipes
p5368
aVa1950_A_capillipes
p5369
aaa(lp5370
(lp5371
I9
aVa1950_A_glomeratus
p5372
aVa1950_A_capillipes
p5373
aa(lp5374
I9
aVa1950_A_virginicus
p5375
aVa1950_A_capillipes
p5376
aa(lp5377
I9
aVa1950_A_capillipes
p5378
aVa1950_A_glomeratus
p5379
aa(lp5380
I9
aVa1950_A_virginicus
p5381
aVa1950_A_glomeratus
p5382
aa(lp5383
I9
aVa1950_A_capillipes
p5384
aVa1950_A_virginicus
p5385
aa(lp5386
I9
aVa1950_A_glomeratus
p5387
aVa1950_A_virginicus
p5388
aa(lp5389
I9
aVa1950_A_virginicus_var_hirsutior
p5390
aVa1950_A_virginicus_var_glaucopsis
p5391
aa(lp5392
I9
aVa1950_A_virginicus_var_virginicus
p5393
aVa1950_A_virginicus_var_glaucopsis
p5394
aa(lp5395
I9
aVa1950_A_virginicus_var_glaucopsis
p5396
aVa1950_A_virginicus_var_hirsutior
p5397
aa(lp5398
I9
aVa1950_A_virginicus_var_virginicus
p5399
aVa1950_A_virginicus_var_hirsutior
p5400
aa(lp5401
I9
aVa1950_A_virginicus_var_glaucopsis
p5402
aVa1950_A_virginicus_var_virginicus
p5403
aa(lp5404
I9
aVa1950_A_virginicus_var_hirsutior
p5405
aVa1950_A_virginicus_var_virginicus
p5406
aa(lp5407
I9
aVb1948_A_glomeratus
p5408
aVb1948_A_capillipes
p5409
aa(lp5410
I9
aVb1948_A_virginicus
p5411
aVb1948_A_capillipes
p5412
aa(lp5413
I9
aVb1948_A_capillipes
p5414
aVb1948_A_glomeratus
p5415
aa(lp5416
I9
aVb1948_A_virginicus
p5417
aVb1948_A_glomeratus
p5418
aa(lp5419
I9
aVb1948_A_capillipes
p5420
aVb1948_A_virginicus
p5421
aa(lp5422
I9
aVb1948_A_glomeratus
p5423
aVb1948_A_virginicus
p5424
aa(lp5425
I9
aVb1948_A_virginicus_var_tenuispatheus
p5426
aVb1948_A_virginicus_var_glaucopsis
p5427
aa(lp5428
I9
aVb1948_A_virginicus_var_virginicus
p5429
aVb1948_A_virginicus_var_glaucopsis
p5430
aa(lp5431
I9
aVb1948_A_virginicus_var_glaucopsis
p5432
aVb1948_A_virginicus_var_tenuispatheus
p5433
aa(lp5434
I9
aVb1948_A_virginicus_var_virginicus
p5435
aVb1948_A_virginicus_var_tenuispatheus
p5436
aa(lp5437
I9
aVb1948_A_virginicus_var_glaucopsis
p5438
aVb1948_A_virginicus_var_virginicus
p5439
aa(lp5440
I9
aVb1948_A_virginicus_var_tenuispatheus
p5441
aVb1948_A_virginicus_var_virginicus
p5442
aa(lp5443
I9
aVb1948_A_virginicus_var_glaucopsis
p5444
aVb1948_A_glomeratus
p5445
aa(lp5446
I9
aVb1948_A_virginicus_var_tenuispatheus
p5447
aVb1948_A_glomeratus
p5448
aa(lp5449
I9
aVb1948_A_virginicus_var_virginicus
p5450
aVb1948_A_glomeratus
p5451
aa(lp5452
I9
aVb1948_A_virginicus_var_glaucopsis
p5453
aVb1948_A_capillipes
p5454
aa(lp5455
I9
aVb1948_A_virginicus_var_tenuispatheus
p5456
aVb1948_A_capillipes
p5457
aa(lp5458
I9
aVb1948_A_virginicus_var_virginicus
p5459
aVb1948_A_capillipes
p5460
aa(lp5461
I9
aVa1950_A_virginicus_var_glaucopsis
p5462
aVa1950_A_glomeratus
p5463
aa(lp5464
I9
aVa1950_A_virginicus_var_hirsutior
p5465
aVa1950_A_glomeratus
p5466
aa(lp5467
I9
aVa1950_A_virginicus_var_virginicus
p5468
aVa1950_A_glomeratus
p5469
aa(lp5470
I9
aVa1950_A_virginicus_var_glaucopsis
p5471
aVa1950_A_capillipes
p5472
aa(lp5473
I9
aVa1950_A_virginicus_var_hirsutior
p5474
aVa1950_A_capillipes
p5475
aa(lp5476
I9
aVa1950_A_virginicus_var_virginicus
p5477
aVa1950_A_capillipes
p5478
aa(lp5479
I9
aVa1950_A_virginicus_var_hirsutior
p5480
aVb1948_A_virginicus_var_glaucopsis
p5481
aa(lp5482
I9
aVa1950_A_virginicus_var_virginicus
p5483
aVb1948_A_virginicus_var_glaucopsis
p5484
aa(lp5485
I9
aVa1950_A_virginicus_var_glaucopsis
p5486
aVb1948_A_virginicus_var_virginicus
p5487
aa(lp5488
I9
aVa1950_A_virginicus_var_hirsutior
p5489
aVb1948_A_virginicus_var_virginicus
p5490
aa(lp5491
I9
aVa1950_A_glomeratus
p5492
aVb1948_A_capillipes
p5493
aa(lp5494
I9
aVa1950_A_virginicus
p5495
aVb1948_A_capillipes
p5496
aa(lp5497
I9
aVa1950_A_virginicus_var_virginicus
p5498
aVb1948_A_virginicus_var_tenuispatheus
p5499
aa(lp5500
I9
aVa1950_A_virginicus_var_glaucopsis
p5501
aVb1948_A_virginicus_var_tenuispatheus
p5502
aa(lp5503
I9
aVa1950_A_capillipes
p5504
aVb1948_A_virginicus
p5505
aa(lp5506
I9
aVa1950_A_capillipes
p5507
aVb1948_A_glomeratus
p5508
aa(lp5509
I9
aVb1948_A_glomeratus
p5510
aVa1950_A_capillipes
p5511
aa(lp5512
I9
aVb1948_A_virginicus
p5513
aVa1950_A_capillipes
p5514
aa(lp5515
I9
aVb1948_A_virginicus_var_tenuispatheus
p5516
aVa1950_A_virginicus_var_glaucopsis
p5517
aa(lp5518
I9
aVb1948_A_virginicus_var_tenuispatheus
p5519
aVa1950_A_virginicus_var_virginicus
p5520
aa(lp5521
I9
aVb1948_A_capillipes
p5522
aVa1950_A_virginicus
p5523
aa(lp5524
I9
aVb1948_A_capillipes
p5525
aVa1950_A_glomeratus
p5526
aa(lp5527
I9
aVb1948_A_virginicus_var_virginicus
p5528
aVa1950_A_virginicus_var_hirsutior
p5529
aa(lp5530
I9
aVb1948_A_virginicus_var_virginicus
p5531
aVa1950_A_virginicus_var_glaucopsis
p5532
aa(lp5533
I9
aVb1948_A_virginicus_var_glaucopsis
p5534
aVa1950_A_virginicus_var_virginicus
p5535
aa(lp5536
I9
aVb1948_A_virginicus_var_glaucopsis
p5537
aVa1950_A_virginicus_var_hirsutior
p5538
aa(lp5539
I9
aVa1950_A_capillipes
p5540
aVa1950_A_virginicus_var_virginicus
p5541
aa(lp5542
I9
aVa1950_A_capillipes
p5543
aVa1950_A_virginicus_var_hirsutior
p5544
aa(lp5545
I9
aVa1950_A_capillipes
p5546
aVa1950_A_virginicus_var_glaucopsis
p5547
aa(lp5548
I9
aVa1950_A_glomeratus
p5549
aVa1950_A_virginicus_var_virginicus
p5550
aa(lp5551
I9
aVa1950_A_glomeratus
p5552
aVa1950_A_virginicus_var_hirsutior
p5553
aa(lp5554
I9
aVa1950_A_glomeratus
p5555
aVa1950_A_virginicus_var_glaucopsis
p5556
aa(lp5557
I9
aVb1948_A_capillipes
p5558
aVb1948_A_virginicus_var_virginicus
p5559
aa(lp5560
I9
aVb1948_A_capillipes
p5561
aVb1948_A_virginicus_var_tenuispatheus
p5562
aa(lp5563
I9
aVb1948_A_capillipes
p5564
aVb1948_A_virginicus_var_glaucopsis
p5565
aa(lp5566
I9
aVb1948_A_glomeratus
p5567
aVb1948_A_virginicus_var_virginicus
p5568
aa(lp5569
I9
aVb1948_A_glomeratus
p5570
aVb1948_A_virginicus_var_tenuispatheus
p5571
aa(lp5572
I9
aVb1948_A_glomeratus
p5573
aVb1948_A_virginicus_var_glaucopsis
p5574
aa(lp5575
I9
aVa1950_A_virginicus_var_glaucopsis
p5576
aVb1948_A_capillipes
p5577
aa(lp5578
I9
aVa1950_A_virginicus_var_hirsutior
p5579
aVb1948_A_capillipes
p5580
aa(lp5581
I9
aVa1950_A_virginicus_var_virginicus
p5582
aVb1948_A_capillipes
p5583
aa(lp5584
I9
aVb1948_A_virginicus_var_virginicus
p5585
aVa1950_A_capillipes
p5586
aa(lp5587
I9
aVb1948_A_virginicus_var_glaucopsis
p5588
aVa1950_A_capillipes
p5589
aa(lp5590
I9
aVb1948_A_virginicus_var_virginicus
p5591
aVa1950_A_glomeratus
p5592
aa(lp5593
I9
aVb1948_A_virginicus_var_glaucopsis
p5594
aVa1950_A_glomeratus
p5595
aa(lp5596
I9
aVa1950_A_virginicus_var_virginicus
p5597
aVb1948_A_glomeratus
p5598
aa(lp5599
I9
aVa1950_A_virginicus_var_glaucopsis
p5600
aVb1948_A_glomeratus
p5601
aa(lp5602
I9
aVb1948_A_virginicus_var_tenuispatheus
p5603
aVa1950_A_capillipes
p5604
aa(lp5605
I9
aVb1948_A_virginicus_var_tenuispatheus
p5606
aVa1950_A_virginicus
p5607
aa(lp5608
I9
aVa1950_A_glomeratus
p5609
aVb1948_A_virginicus_var_glaucopsis
p5610
aa(lp5611
I9
aVa1950_A_glomeratus
p5612
aVb1948_A_virginicus_var_virginicus
p5613
aa(lp5614
I9
aVa1950_A_virginicus
p5615
aVb1948_A_virginicus_var_tenuispatheus
p5616
aa(lp5617
I9
aVa1950_A_capillipes
p5618
aVb1948_A_virginicus_var_tenuispatheus
p5619
aa(lp5620
I9
aVb1948_A_glomeratus
p5621
aVa1950_A_virginicus_var_glaucopsis
p5622
aa(lp5623
I9
aVb1948_A_capillipes
p5624
aVa1950_A_virginicus_var_glaucopsis
p5625
aa(lp5626
I9
aVb1948_A_virginicus_var_tenuispatheus
p5627
aVa1950_A_virginicus_var_hirsutior
p5628
aa(lp5629
I9
aVb1948_A_capillipes
p5630
aVa1950_A_virginicus_var_hirsutior
p5631
aa(lp5632
I9
aVb1948_A_glomeratus
p5633
aVa1950_A_virginicus_var_virginicus
p5634
aa(lp5635
I9
aVb1948_A_capillipes
p5636
aVa1950_A_virginicus_var_virginicus
p5637
aa(lp5638
I9
aVa1950_A_capillipes
p5639
aVb1948_A_virginicus_var_glaucopsis
p5640
aa(lp5641
I9
aVa1950_A_virginicus_var_hirsutior
p5642
aVb1948_A_virginicus_var_tenuispatheus
p5643
aa(lp5644
I9
aVa1950_A_capillipes
p5645
aVb1948_A_virginicus_var_virginicus
p5646
aa(lp5647
I9
aVa1950_A_virginicus_var_hirsutior
p5648
aVb1948_A_virginicus
p5649
aa(lp5650
I9
aVb1948_A_virginicus
p5651
aVa1950_A_virginicus_var_hirsutior
p5652
aaa(lp5653
(lp5654
I9
aVa1950_A_capillipes
p5655
aVa1950_Andropogon
p5656
aa(lp5657
I9
aVa1950_A_glomeratus
p5658
aVa1950_Andropogon
p5659
aa(lp5660
I9
aVa1950_A_virginicus
p5661
aVa1950_Andropogon
p5662
aa(lp5663
I9
aVa1950_A_virginicus_var_glaucopsis
p5664
aVa1950_A_virginicus
p5665
aa(lp5666
I9
aVa1950_A_virginicus_var_hirsutior
p5667
aVa1950_A_virginicus
p5668
aa(lp5669
I9
aVa1950_A_virginicus_var_virginicus
p5670
aVa1950_A_virginicus
p5671
aa(lp5672
I9
aVb1948_A_capillipes
p5673
aVb1948_Andropogon
p5674
aa(lp5675
I9
aVb1948_A_glomeratus
p5676
aVb1948_Andropogon
p5677
aa(lp5678
I9
aVb1948_A_virginicus
p5679
aVb1948_Andropogon
p5680
aa(lp5681
I9
aVb1948_A_virginicus_var_glaucopsis
p5682
aVb1948_A_virginicus
p5683
aa(lp5684
I9
aVb1948_A_virginicus_var_tenuispatheus
p5685
aVb1948_A_virginicus
p5686
aa(lp5687
I9
aVb1948_A_virginicus_var_virginicus
p5688
aVb1948_A_virginicus
p5689
aa(lp5690
I9
aVb1948_A_virginicus_var_tenuispatheus
p5691
aVa1950_A_glomeratus
p5692
aa(lp5693
I9
aVb1948_A_virginicus_var_glaucopsis
p5694
aVb1948_Andropogon
p5695
aa(lp5696
I9
aVb1948_A_virginicus_var_tenuispatheus
p5697
aVb1948_Andropogon
p5698
aa(lp5699
I9
aVb1948_A_virginicus_var_virginicus
p5700
aVb1948_Andropogon
p5701
aa(lp5702
I9
aVa1950_A_virginicus_var_glaucopsis
p5703
aVa1950_Andropogon
p5704
aa(lp5705
I9
aVa1950_A_virginicus_var_hirsutior
p5706
aVa1950_Andropogon
p5707
aa(lp5708
I9
aVa1950_A_virginicus_var_virginicus
p5709
aVa1950_Andropogon
p5710
aa(lp5711
I9
aVa1950_A_capillipes
p5712
aVb1948_Andropogon
p5713
aa(lp5714
I9
aVa1950_A_glomeratus
p5715
aVb1948_Andropogon
p5716
aa(lp5717
I9
aVa1950_A_virginicus
p5718
aVb1948_Andropogon
p5719
aa(lp5720
I9
aVa1950_A_virginicus_var_virginicus
p5721
aVb1948_A_virginicus
p5722
aa(lp5723
I9
aVa1950_A_virginicus_var_glaucopsis
p5724
aVb1948_A_virginicus
p5725
aa(lp5726
I9
aVa1950_A_virginicus_var_glaucopsis
p5727
aVb1948_Andropogon
p5728
aa(lp5729
I9
aVa1950_A_virginicus_var_hirsutior
p5730
aVb1948_Andropogon
p5731
aa(lp5732
I9
aVa1950_A_virginicus_var_virginicus
p5733
aVb1948_Andropogon
p5734
aa(lp5735
I9
aVb1948_A_virginicus_var_tenuispatheus
p5736
aVa1950_Andropogon
p5737
aa(lp5738
I9
aVb1948_A_virginicus_var_virginicus
p5739
aVa1950_Andropogon
p5740
aa(lp5741
I9
aVb1948_A_virginicus_var_glaucopsis
p5742
aVa1950_Andropogon
p5743
aa(lp5744
I9
aVb1948_A_virginicus_var_virginicus
p5745
aVa1950_A_virginicus
p5746
aa(lp5747
I9
aVb1948_A_virginicus_var_glaucopsis
p5748
aVa1950_A_virginicus
p5749
aa(lp5750
I9
aVb1948_A_virginicus
p5751
aVa1950_Andropogon
p5752
aa(lp5753
I9
aVb1948_A_glomeratus
p5754
aVa1950_Andropogon
p5755
aa(lp5756
I9
aVb1948_A_capillipes
p5757
aVa1950_Andropogon
p5758
aaa(lp5759
(lp5760
I9
aVa1950_A_glomeratus
p5761
aVb1948_A_virginicus_var_tenuispatheus
p5762
aa(lp5763
I9
aVb1948_A_virginicus
p5764
aVb1948_A_virginicus_var_virginicus
p5765
aa(lp5766
I9
aVb1948_A_virginicus
p5767
aVb1948_A_virginicus_var_tenuispatheus
p5768
aa(lp5769
I9
aVb1948_A_virginicus
p5770
aVb1948_A_virginicus_var_glaucopsis
p5771
aa(lp5772
I9
aVb1948_Andropogon
p5773
aVb1948_A_virginicus
p5774
aa(lp5775
I9
aVb1948_Andropogon
p5776
aVb1948_A_glomeratus
p5777
aa(lp5778
I9
aVb1948_Andropogon
p5779
aVb1948_A_capillipes
p5780
aa(lp5781
I9
aVa1950_A_virginicus
p5782
aVa1950_A_virginicus_var_virginicus
p5783
aa(lp5784
I9
aVa1950_A_virginicus
p5785
aVa1950_A_virginicus_var_hirsutior
p5786
aa(lp5787
I9
aVa1950_A_virginicus
p5788
aVa1950_A_virginicus_var_glaucopsis
p5789
aa(lp5790
I9
aVa1950_Andropogon
p5791
aVa1950_A_virginicus
p5792
aa(lp5793
I9
aVa1950_Andropogon
p5794
aVa1950_A_glomeratus
p5795
aa(lp5796
I9
aVa1950_Andropogon
p5797
aVa1950_A_capillipes
p5798
aa(lp5799
I9
aVb1948_A_virginicus
p5800
aVa1950_A_virginicus_var_glaucopsis
p5801
aa(lp5802
I9
aVb1948_A_virginicus
p5803
aVa1950_A_virginicus_var_virginicus
p5804
aa(lp5805
I9
aVb1948_Andropogon
p5806
aVa1950_A_virginicus
p5807
aa(lp5808
I9
aVb1948_Andropogon
p5809
aVa1950_A_glomeratus
p5810
aa(lp5811
I9
aVb1948_Andropogon
p5812
aVa1950_A_capillipes
p5813
aa(lp5814
I9
aVa1950_Andropogon
p5815
aVa1950_A_virginicus_var_virginicus
p5816
aa(lp5817
I9
aVa1950_Andropogon
p5818
aVa1950_A_virginicus_var_hirsutior
p5819
aa(lp5820
I9
aVa1950_Andropogon
p5821
aVa1950_A_virginicus_var_glaucopsis
p5822
aa(lp5823
I9
aVb1948_Andropogon
p5824
aVb1948_A_virginicus_var_virginicus
p5825
aa(lp5826
I9
aVb1948_Andropogon
p5827
aVb1948_A_virginicus_var_tenuispatheus
p5828
aa(lp5829
I9
aVb1948_Andropogon
p5830
aVb1948_A_virginicus_var_glaucopsis
p5831
aa(lp5832
I9
aVa1950_Andropogon
p5833
aVb1948_A_virginicus_var_tenuispatheus
p5834
aa(lp5835
I9
aVa1950_Andropogon
p5836
aVb1948_A_capillipes
p5837
aa(lp5838
I9
aVa1950_A_virginicus
p5839
aVb1948_A_virginicus_var_glaucopsis
p5840
aa(lp5841
I9
aVa1950_A_virginicus
p5842
aVb1948_A_virginicus_var_virginicus
p5843
aa(lp5844
I9
aVa1950_Andropogon
p5845
aVb1948_A_glomeratus
p5846
aa(lp5847
I9
aVa1950_Andropogon
p5848
aVb1948_A_virginicus
p5849
aa(lp5850
I9
aVb1948_Andropogon
p5851
aVa1950_A_virginicus_var_glaucopsis
p5852
aa(lp5853
I9
aVb1948_Andropogon
p5854
aVa1950_A_virginicus_var_hirsutior
p5855
aa(lp5856
I9
aVb1948_Andropogon
p5857
aVa1950_A_virginicus_var_virginicus
p5858
aa(lp5859
I9
aVa1950_Andropogon
p5860
aVb1948_A_virginicus_var_glaucopsis
p5861
aa(lp5862
I9
aVa1950_Andropogon
p5863
aVb1948_A_virginicus_var_virginicus
p5864
aaa(lp5865
(lp5866
I9
aVa1950_A_glomeratus
p5867
aVb1948_A_glomeratus
p5868
aa(lp5869
I9
aVb1948_A_glomeratus
p5870
aVa1950_A_glomeratus
p5871
aa(lp5872
I9
aVa1950_A_virginicus
p5873
aVb1948_A_glomeratus
p5874
aa(lp5875
I9
aVa1950_A_virginicus_var_hirsutior
p5876
aVb1948_A_glomeratus
p5877
aa(lp5878
I9
aVa1950_A_glomeratus
p5879
aVb1948_A_virginicus
p5880
aa(lp5881
I9
aVa1950_A_virginicus
p5882
aVb1948_A_virginicus
p5883
aa(lp5884
I9
aVb1948_A_virginicus
p5885
aVa1950_A_glomeratus
p5886
aa(lp5887
I9
aVb1948_A_glomeratus
p5888
aVa1950_A_virginicus
p5889
aa(lp5890
I9
aVb1948_A_virginicus
p5891
aVa1950_A_virginicus
p5892
aa(lp5893
I9
aVb1948_A_glomeratus
p5894
aVa1950_A_virginicus_var_hirsutior
p5895
aaa(lp5896
(lp5897
I9
aVa1950_A_capillipes
p5898
aa(lp5899
I9
aVa1950_A_glomeratus
p5900
aa(lp5901
I9
aVa1950_A_virginicus
p5902
aa(lp5903
I9
aVa1950_A_virginicus_var_glaucopsis
p5904
aa(lp5905
I9
aVa1950_A_virginicus_var_hirsutior
p5906
aa(lp5907
I9
aVa1950_A_virginicus_var_virginicus
p5908
aa(lp5909
I9
aVb1948_A_capillipes
p5910
aa(lp5911
I9
aVb1948_A_glomeratus
p5912
aa(lp5913
I9
aVb1948_A_virginicus
p5914
aa(lp5915
I9
aVb1948_A_virginicus_var_glaucopsis
p5916
aa(lp5917
I9
aVb1948_A_virginicus_var_tenuispatheus
p5918
aa(lp5919
I9
aVb1948_A_virginicus_var_virginicus
p5920
aa(lp5921
I9
aVa1950_Andropogon
p5922
aa(lp5923
I9
aVb1948_Andropogon
p5924
aaa(lp5925
(lp5926
I9
aVa1950_Andropogon
p5927
aVa1950_A_capillipes
p5928
aa(lp5929
I9
aVa1950_Andropogon
p5930
aVa1950_A_glomeratus
p5931
aa(lp5932
I9
aVa1950_Andropogon
p5933
aVa1950_A_virginicus
p5934
aa(lp5935
I9
aVa1950_A_virginicus
p5936
aVa1950_A_virginicus_var_glaucopsis
p5937
aa(lp5938
I9
aVa1950_A_virginicus
p5939
aVa1950_A_virginicus_var_hirsutior
p5940
aa(lp5941
I9
aVa1950_A_virginicus
p5942
aVa1950_A_virginicus_var_virginicus
p5943
aa(lp5944
I9
aVb1948_Andropogon
p5945
aVb1948_A_capillipes
p5946
aa(lp5947
I9
aVb1948_Andropogon
p5948
aVb1948_A_glomeratus
p5949
aa(lp5950
I9
aVb1948_Andropogon
p5951
aVb1948_A_virginicus
p5952
aa(lp5953
I9
aVb1948_A_virginicus
p5954
aVb1948_A_virginicus_var_glaucopsis
p5955
aa(lp5956
I9
aVb1948_A_virginicus
p5957
aVb1948_A_virginicus_var_tenuispatheus
p5958
aa(lp5959
I9
aVb1948_A_virginicus
p5960
aVb1948_A_virginicus_var_virginicus
p5961
aaasba(ihelper
PossibleWorld
p5962
(dp5963
g3
I10
sg4
I0
sg5
(lp5964
(lp5965
(lp5966
I10
aVa1950_Andropogon
p5967
aVb1948_Andropogon
p5968
aa(lp5969
I10
aVa1950_A_capillipes
p5970
aVb1948_A_capillipes
p5971
aa(lp5972
I10
aVa1950_A_virginicus_var_virginicus
p5973
aVb1948_A_virginicus_var_virginicus
p5974
aa(lp5975
I10
aVa1950_A_virginicus_var_glaucopsis
p5976
aVb1948_A_virginicus_var_glaucopsis
p5977
aa(lp5978
I10
aVb1948_A_virginicus_var_glaucopsis
p5979
aVa1950_A_virginicus_var_glaucopsis
p5980
aa(lp5981
I10
aVb1948_A_virginicus_var_virginicus
p5982
aVa1950_A_virginicus_var_virginicus
p5983
aa(lp5984
I10
aVb1948_A_capillipes
p5985
aVa1950_A_capillipes
p5986
aa(lp5987
I10
aVb1948_Andropogon
p5988
aVa1950_Andropogon
p5989
aa(lp5990
I10
aVb1948_Andropogon
p5991
aVb1948_Andropogon
p5992
aa(lp5993
I10
aVa1950_Andropogon
p5994
aVa1950_Andropogon
p5995
aa(lp5996
I10
aVb1948_A_virginicus_var_virginicus
p5997
aVb1948_A_virginicus_var_virginicus
p5998
aa(lp5999
I10
aVb1948_A_virginicus_var_tenuispatheus
p6000
aVb1948_A_virginicus_var_tenuispatheus
p6001
aa(lp6002
I10
aVb1948_A_virginicus_var_glaucopsis
p6003
aVb1948_A_virginicus_var_glaucopsis
p6004
aa(lp6005
I10
aVb1948_A_virginicus
p6006
aVb1948_A_virginicus
p6007
aa(lp6008
I10
aVb1948_A_glomeratus
p6009
aVb1948_A_glomeratus
p6010
aa(lp6011
I10
aVb1948_A_capillipes
p6012
aVb1948_A_capillipes
p6013
aa(lp6014
I10
aVa1950_A_virginicus_var_virginicus
p6015
aVa1950_A_virginicus_var_virginicus
p6016
aa(lp6017
I10
aVa1950_A_virginicus_var_hirsutior
p6018
aVa1950_A_virginicus_var_hirsutior
p6019
aa(lp6020
I10
aVa1950_A_virginicus_var_glaucopsis
p6021
aVa1950_A_virginicus_var_glaucopsis
p6022
aa(lp6023
I10
aVa1950_A_virginicus
p6024
aVa1950_A_virginicus
p6025
aa(lp6026
I10
aVa1950_A_glomeratus
p6027
aVa1950_A_glomeratus
p6028
aa(lp6029
I10
aVa1950_A_capillipes
p6030
aVa1950_A_capillipes
p6031
aaa(lp6032
(lp6033
I10
aVa1950_A_glomeratus
p6034
aVa1950_A_capillipes
p6035
aa(lp6036
I10
aVa1950_A_virginicus
p6037
aVa1950_A_capillipes
p6038
aa(lp6039
I10
aVa1950_A_capillipes
p6040
aVa1950_A_glomeratus
p6041
aa(lp6042
I10
aVa1950_A_virginicus
p6043
aVa1950_A_glomeratus
p6044
aa(lp6045
I10
aVa1950_A_capillipes
p6046
aVa1950_A_virginicus
p6047
aa(lp6048
I10
aVa1950_A_glomeratus
p6049
aVa1950_A_virginicus
p6050
aa(lp6051
I10
aVa1950_A_virginicus_var_hirsutior
p6052
aVa1950_A_virginicus_var_glaucopsis
p6053
aa(lp6054
I10
aVa1950_A_virginicus_var_virginicus
p6055
aVa1950_A_virginicus_var_glaucopsis
p6056
aa(lp6057
I10
aVa1950_A_virginicus_var_glaucopsis
p6058
aVa1950_A_virginicus_var_hirsutior
p6059
aa(lp6060
I10
aVa1950_A_virginicus_var_virginicus
p6061
aVa1950_A_virginicus_var_hirsutior
p6062
aa(lp6063
I10
aVa1950_A_virginicus_var_glaucopsis
p6064
aVa1950_A_virginicus_var_virginicus
p6065
aa(lp6066
I10
aVa1950_A_virginicus_var_hirsutior
p6067
aVa1950_A_virginicus_var_virginicus
p6068
aa(lp6069
I10
aVb1948_A_glomeratus
p6070
aVb1948_A_capillipes
p6071
aa(lp6072
I10
aVb1948_A_virginicus
p6073
aVb1948_A_capillipes
p6074
aa(lp6075
I10
aVb1948_A_capillipes
p6076
aVb1948_A_glomeratus
p6077
aa(lp6078
I10
aVb1948_A_virginicus
p6079
aVb1948_A_glomeratus
p6080
aa(lp6081
I10
aVb1948_A_capillipes
p6082
aVb1948_A_virginicus
p6083
aa(lp6084
I10
aVb1948_A_glomeratus
p6085
aVb1948_A_virginicus
p6086
aa(lp6087
I10
aVb1948_A_virginicus_var_tenuispatheus
p6088
aVb1948_A_virginicus_var_glaucopsis
p6089
aa(lp6090
I10
aVb1948_A_virginicus_var_virginicus
p6091
aVb1948_A_virginicus_var_glaucopsis
p6092
aa(lp6093
I10
aVb1948_A_virginicus_var_glaucopsis
p6094
aVb1948_A_virginicus_var_tenuispatheus
p6095
aa(lp6096
I10
aVb1948_A_virginicus_var_virginicus
p6097
aVb1948_A_virginicus_var_tenuispatheus
p6098
aa(lp6099
I10
aVb1948_A_virginicus_var_glaucopsis
p6100
aVb1948_A_virginicus_var_virginicus
p6101
aa(lp6102
I10
aVb1948_A_virginicus_var_tenuispatheus
p6103
aVb1948_A_virginicus_var_virginicus
p6104
aa(lp6105
I10
aVb1948_A_virginicus_var_glaucopsis
p6106
aVb1948_A_glomeratus
p6107
aa(lp6108
I10
aVb1948_A_virginicus_var_tenuispatheus
p6109
aVb1948_A_glomeratus
p6110
aa(lp6111
I10
aVb1948_A_virginicus_var_virginicus
p6112
aVb1948_A_glomeratus
p6113
aa(lp6114
I10
aVb1948_A_virginicus_var_glaucopsis
p6115
aVb1948_A_capillipes
p6116
aa(lp6117
I10
aVb1948_A_virginicus_var_tenuispatheus
p6118
aVb1948_A_capillipes
p6119
aa(lp6120
I10
aVb1948_A_virginicus_var_virginicus
p6121
aVb1948_A_capillipes
p6122
aa(lp6123
I10
aVa1950_A_virginicus_var_glaucopsis
p6124
aVa1950_A_glomeratus
p6125
aa(lp6126
I10
aVa1950_A_virginicus_var_hirsutior
p6127
aVa1950_A_glomeratus
p6128
aa(lp6129
I10
aVa1950_A_virginicus_var_virginicus
p6130
aVa1950_A_glomeratus
p6131
aa(lp6132
I10
aVa1950_A_virginicus_var_glaucopsis
p6133
aVa1950_A_capillipes
p6134
aa(lp6135
I10
aVa1950_A_virginicus_var_hirsutior
p6136
aVa1950_A_capillipes
p6137
aa(lp6138
I10
aVa1950_A_virginicus_var_virginicus
p6139
aVa1950_A_capillipes
p6140
aa(lp6141
I10
aVa1950_A_virginicus_var_hirsutior
p6142
aVb1948_A_virginicus_var_glaucopsis
p6143
aa(lp6144
I10
aVa1950_A_virginicus_var_virginicus
p6145
aVb1948_A_virginicus_var_glaucopsis
p6146
aa(lp6147
I10
aVa1950_A_virginicus_var_glaucopsis
p6148
aVb1948_A_virginicus_var_virginicus
p6149
aa(lp6150
I10
aVa1950_A_virginicus_var_hirsutior
p6151
aVb1948_A_virginicus_var_virginicus
p6152
aa(lp6153
I10
aVa1950_A_glomeratus
p6154
aVb1948_A_capillipes
p6155
aa(lp6156
I10
aVa1950_A_virginicus
p6157
aVb1948_A_capillipes
p6158
aa(lp6159
I10
aVa1950_A_virginicus_var_virginicus
p6160
aVb1948_A_virginicus_var_tenuispatheus
p6161
aa(lp6162
I10
aVa1950_A_virginicus_var_glaucopsis
p6163
aVb1948_A_virginicus_var_tenuispatheus
p6164
aa(lp6165
I10
aVa1950_A_capillipes
p6166
aVb1948_A_virginicus
p6167
aa(lp6168
I10
aVa1950_A_capillipes
p6169
aVb1948_A_glomeratus
p6170
aa(lp6171
I10
aVb1948_A_glomeratus
p6172
aVa1950_A_capillipes
p6173
aa(lp6174
I10
aVb1948_A_virginicus
p6175
aVa1950_A_capillipes
p6176
aa(lp6177
I10
aVb1948_A_virginicus_var_tenuispatheus
p6178
aVa1950_A_virginicus_var_glaucopsis
p6179
aa(lp6180
I10
aVb1948_A_virginicus_var_tenuispatheus
p6181
aVa1950_A_virginicus_var_virginicus
p6182
aa(lp6183
I10
aVb1948_A_capillipes
p6184
aVa1950_A_virginicus
p6185
aa(lp6186
I10
aVb1948_A_capillipes
p6187
aVa1950_A_glomeratus
p6188
aa(lp6189
I10
aVb1948_A_virginicus_var_virginicus
p6190
aVa1950_A_virginicus_var_hirsutior
p6191
aa(lp6192
I10
aVb1948_A_virginicus_var_virginicus
p6193
aVa1950_A_virginicus_var_glaucopsis
p6194
aa(lp6195
I10
aVb1948_A_virginicus_var_glaucopsis
p6196
aVa1950_A_virginicus_var_virginicus
p6197
aa(lp6198
I10
aVb1948_A_virginicus_var_glaucopsis
p6199
aVa1950_A_virginicus_var_hirsutior
p6200
aa(lp6201
I10
aVa1950_A_capillipes
p6202
aVa1950_A_virginicus_var_virginicus
p6203
aa(lp6204
I10
aVa1950_A_capillipes
p6205
aVa1950_A_virginicus_var_hirsutior
p6206
aa(lp6207
I10
aVa1950_A_capillipes
p6208
aVa1950_A_virginicus_var_glaucopsis
p6209
aa(lp6210
I10
aVa1950_A_glomeratus
p6211
aVa1950_A_virginicus_var_virginicus
p6212
aa(lp6213
I10
aVa1950_A_glomeratus
p6214
aVa1950_A_virginicus_var_hirsutior
p6215
aa(lp6216
I10
aVa1950_A_glomeratus
p6217
aVa1950_A_virginicus_var_glaucopsis
p6218
aa(lp6219
I10
aVb1948_A_capillipes
p6220
aVb1948_A_virginicus_var_virginicus
p6221
aa(lp6222
I10
aVb1948_A_capillipes
p6223
aVb1948_A_virginicus_var_tenuispatheus
p6224
aa(lp6225
I10
aVb1948_A_capillipes
p6226
aVb1948_A_virginicus_var_glaucopsis
p6227
aa(lp6228
I10
aVb1948_A_glomeratus
p6229
aVb1948_A_virginicus_var_virginicus
p6230
aa(lp6231
I10
aVb1948_A_glomeratus
p6232
aVb1948_A_virginicus_var_tenuispatheus
p6233
aa(lp6234
I10
aVb1948_A_glomeratus
p6235
aVb1948_A_virginicus_var_glaucopsis
p6236
aa(lp6237
I10
aVa1950_A_virginicus_var_glaucopsis
p6238
aVb1948_A_capillipes
p6239
aa(lp6240
I10
aVa1950_A_virginicus_var_hirsutior
p6241
aVb1948_A_capillipes
p6242
aa(lp6243
I10
aVa1950_A_virginicus_var_virginicus
p6244
aVb1948_A_capillipes
p6245
aa(lp6246
I10
aVb1948_A_virginicus_var_virginicus
p6247
aVa1950_A_capillipes
p6248
aa(lp6249
I10
aVb1948_A_virginicus_var_glaucopsis
p6250
aVa1950_A_capillipes
p6251
aa(lp6252
I10
aVb1948_A_virginicus_var_virginicus
p6253
aVa1950_A_glomeratus
p6254
aa(lp6255
I10
aVb1948_A_virginicus_var_glaucopsis
p6256
aVa1950_A_glomeratus
p6257
aa(lp6258
I10
aVa1950_A_virginicus_var_virginicus
p6259
aVb1948_A_glomeratus
p6260
aa(lp6261
I10
aVa1950_A_virginicus_var_glaucopsis
p6262
aVb1948_A_glomeratus
p6263
aa(lp6264
I10
aVb1948_A_virginicus_var_tenuispatheus
p6265
aVa1950_A_capillipes
p6266
aa(lp6267
I10
aVb1948_A_virginicus_var_tenuispatheus
p6268
aVa1950_A_virginicus
p6269
aa(lp6270
I10
aVa1950_A_glomeratus
p6271
aVb1948_A_virginicus_var_glaucopsis
p6272
aa(lp6273
I10
aVa1950_A_glomeratus
p6274
aVb1948_A_virginicus_var_virginicus
p6275
aa(lp6276
I10
aVa1950_A_virginicus
p6277
aVb1948_A_virginicus_var_tenuispatheus
p6278
aa(lp6279
I10
aVa1950_A_capillipes
p6280
aVb1948_A_virginicus_var_tenuispatheus
p6281
aa(lp6282
I10
aVb1948_A_glomeratus
p6283
aVa1950_A_virginicus_var_glaucopsis
p6284
aa(lp6285
I10
aVb1948_A_capillipes
p6286
aVa1950_A_virginicus_var_glaucopsis
p6287
aa(lp6288
I10
aVb1948_A_virginicus_var_tenuispatheus
p6289
aVa1950_A_virginicus_var_hirsutior
p6290
aa(lp6291
I10
aVb1948_A_capillipes
p6292
aVa1950_A_virginicus_var_hirsutior
p6293
aa(lp6294
I10
aVb1948_A_glomeratus
p6295
aVa1950_A_virginicus_var_virginicus
p6296
aa(lp6297
I10
aVb1948_A_capillipes
p6298
aVa1950_A_virginicus_var_virginicus
p6299
aa(lp6300
I10
aVa1950_A_capillipes
p6301
aVb1948_A_virginicus_var_glaucopsis
p6302
aa(lp6303
I10
aVa1950_A_virginicus_var_hirsutior
p6304
aVb1948_A_virginicus_var_tenuispatheus
p6305
aa(lp6306
I10
aVa1950_A_capillipes
p6307
aVb1948_A_virginicus_var_virginicus
p6308
aa(lp6309
I10
aVa1950_A_virginicus_var_hirsutior
p6310
aVb1948_A_glomeratus
p6311
aa(lp6312
I10
aVb1948_A_glomeratus
p6313
aVa1950_A_virginicus_var_hirsutior
p6314
aa(lp6315
I10
aVa1950_A_virginicus_var_hirsutior
p6316
aVb1948_A_virginicus
p6317
aa(lp6318
I10
aVb1948_A_virginicus
p6319
aVa1950_A_virginicus_var_hirsutior
p6320
aaa(lp6321
(lp6322
I10
aVa1950_A_capillipes
p6323
aVa1950_Andropogon
p6324
aa(lp6325
I10
aVa1950_A_glomeratus
p6326
aVa1950_Andropogon
p6327
aa(lp6328
I10
aVa1950_A_virginicus
p6329
aVa1950_Andropogon
p6330
aa(lp6331
I10
aVa1950_A_virginicus_var_glaucopsis
p6332
aVa1950_A_virginicus
p6333
aa(lp6334
I10
aVa1950_A_virginicus_var_hirsutior
p6335
aVa1950_A_virginicus
p6336
aa(lp6337
I10
aVa1950_A_virginicus_var_virginicus
p6338
aVa1950_A_virginicus
p6339
aa(lp6340
I10
aVb1948_A_capillipes
p6341
aVb1948_Andropogon
p6342
aa(lp6343
I10
aVb1948_A_glomeratus
p6344
aVb1948_Andropogon
p6345
aa(lp6346
I10
aVb1948_A_virginicus
p6347
aVb1948_Andropogon
p6348
aa(lp6349
I10
aVb1948_A_virginicus_var_glaucopsis
p6350
aVb1948_A_virginicus
p6351
aa(lp6352
I10
aVb1948_A_virginicus_var_tenuispatheus
p6353
aVb1948_A_virginicus
p6354
aa(lp6355
I10
aVb1948_A_virginicus_var_virginicus
p6356
aVb1948_A_virginicus
p6357
aa(lp6358
I10
aVb1948_A_virginicus_var_tenuispatheus
p6359
aVa1950_A_glomeratus
p6360
aa(lp6361
I10
aVb1948_A_virginicus_var_glaucopsis
p6362
aVb1948_Andropogon
p6363
aa(lp6364
I10
aVb1948_A_virginicus_var_tenuispatheus
p6365
aVb1948_Andropogon
p6366
aa(lp6367
I10
aVb1948_A_virginicus_var_virginicus
p6368
aVb1948_Andropogon
p6369
aa(lp6370
I10
aVa1950_A_virginicus_var_glaucopsis
p6371
aVa1950_Andropogon
p6372
aa(lp6373
I10
aVa1950_A_virginicus_var_hirsutior
p6374
aVa1950_Andropogon
p6375
aa(lp6376
I10
aVa1950_A_virginicus_var_virginicus
p6377
aVa1950_Andropogon
p6378
aa(lp6379
I10
aVa1950_A_capillipes
p6380
aVb1948_Andropogon
p6381
aa(lp6382
I10
aVa1950_A_glomeratus
p6383
aVb1948_Andropogon
p6384
aa(lp6385
I10
aVa1950_A_virginicus
p6386
aVb1948_Andropogon
p6387
aa(lp6388
I10
aVa1950_A_virginicus_var_virginicus
p6389
aVb1948_A_virginicus
p6390
aa(lp6391
I10
aVa1950_A_virginicus_var_glaucopsis
p6392
aVb1948_A_virginicus
p6393
aa(lp6394
I10
aVa1950_A_virginicus_var_glaucopsis
p6395
aVb1948_Andropogon
p6396
aa(lp6397
I10
aVa1950_A_virginicus_var_hirsutior
p6398
aVb1948_Andropogon
p6399
aa(lp6400
I10
aVa1950_A_virginicus_var_virginicus
p6401
aVb1948_Andropogon
p6402
aa(lp6403
I10
aVb1948_A_virginicus_var_tenuispatheus
p6404
aVa1950_Andropogon
p6405
aa(lp6406
I10
aVb1948_A_virginicus_var_virginicus
p6407
aVa1950_Andropogon
p6408
aa(lp6409
I10
aVb1948_A_virginicus_var_glaucopsis
p6410
aVa1950_Andropogon
p6411
aa(lp6412
I10
aVb1948_A_virginicus_var_virginicus
p6413
aVa1950_A_virginicus
p6414
aa(lp6415
I10
aVb1948_A_virginicus_var_glaucopsis
p6416
aVa1950_A_virginicus
p6417
aa(lp6418
I10
aVb1948_A_virginicus
p6419
aVa1950_Andropogon
p6420
aa(lp6421
I10
aVb1948_A_glomeratus
p6422
aVa1950_Andropogon
p6423
aa(lp6424
I10
aVb1948_A_capillipes
p6425
aVa1950_Andropogon
p6426
aaa(lp6427
(lp6428
I10
aVa1950_A_glomeratus
p6429
aVb1948_A_virginicus_var_tenuispatheus
p6430
aa(lp6431
I10
aVb1948_A_virginicus
p6432
aVb1948_A_virginicus_var_virginicus
p6433
aa(lp6434
I10
aVb1948_A_virginicus
p6435
aVb1948_A_virginicus_var_tenuispatheus
p6436
aa(lp6437
I10
aVb1948_A_virginicus
p6438
aVb1948_A_virginicus_var_glaucopsis
p6439
aa(lp6440
I10
aVb1948_Andropogon
p6441
aVb1948_A_virginicus
p6442
aa(lp6443
I10
aVb1948_Andropogon
p6444
aVb1948_A_glomeratus
p6445
aa(lp6446
I10
aVb1948_Andropogon
p6447
aVb1948_A_capillipes
p6448
aa(lp6449
I10
aVa1950_A_virginicus
p6450
aVa1950_A_virginicus_var_virginicus
p6451
aa(lp6452
I10
aVa1950_A_virginicus
p6453
aVa1950_A_virginicus_var_hirsutior
p6454
aa(lp6455
I10
aVa1950_A_virginicus
p6456
aVa1950_A_virginicus_var_glaucopsis
p6457
aa(lp6458
I10
aVa1950_Andropogon
p6459
aVa1950_A_virginicus
p6460
aa(lp6461
I10
aVa1950_Andropogon
p6462
aVa1950_A_glomeratus
p6463
aa(lp6464
I10
aVa1950_Andropogon
p6465
aVa1950_A_capillipes
p6466
aa(lp6467
I10
aVb1948_A_virginicus
p6468
aVa1950_A_virginicus_var_glaucopsis
p6469
aa(lp6470
I10
aVb1948_A_virginicus
p6471
aVa1950_A_virginicus_var_virginicus
p6472
aa(lp6473
I10
aVb1948_Andropogon
p6474
aVa1950_A_virginicus
p6475
aa(lp6476
I10
aVb1948_Andropogon
p6477
aVa1950_A_glomeratus
p6478
aa(lp6479
I10
aVb1948_Andropogon
p6480
aVa1950_A_capillipes
p6481
aa(lp6482
I10
aVa1950_Andropogon
p6483
aVa1950_A_virginicus_var_virginicus
p6484
aa(lp6485
I10
aVa1950_Andropogon
p6486
aVa1950_A_virginicus_var_hirsutior
p6487
aa(lp6488
I10
aVa1950_Andropogon
p6489
aVa1950_A_virginicus_var_glaucopsis
p6490
aa(lp6491
I10
aVb1948_Andropogon
p6492
aVb1948_A_virginicus_var_virginicus
p6493
aa(lp6494
I10
aVb1948_Andropogon
p6495
aVb1948_A_virginicus_var_tenuispatheus
p6496
aa(lp6497
I10
aVb1948_Andropogon
p6498
aVb1948_A_virginicus_var_glaucopsis
p6499
aa(lp6500
I10
aVa1950_Andropogon
p6501
aVb1948_A_virginicus_var_tenuispatheus
p6502
aa(lp6503
I10
aVa1950_Andropogon
p6504
aVb1948_A_capillipes
p6505
aa(lp6506
I10
aVa1950_A_virginicus
p6507
aVb1948_A_virginicus_var_glaucopsis
p6508
aa(lp6509
I10
aVa1950_A_virginicus
p6510
aVb1948_A_virginicus_var_virginicus
p6511
aa(lp6512
I10
aVa1950_Andropogon
p6513
aVb1948_A_glomeratus
p6514
aa(lp6515
I10
aVa1950_Andropogon
p6516
aVb1948_A_virginicus
p6517
aa(lp6518
I10
aVb1948_Andropogon
p6519
aVa1950_A_virginicus_var_glaucopsis
p6520
aa(lp6521
I10
aVb1948_Andropogon
p6522
aVa1950_A_virginicus_var_hirsutior
p6523
aa(lp6524
I10
aVb1948_Andropogon
p6525
aVa1950_A_virginicus_var_virginicus
p6526
aa(lp6527
I10
aVa1950_Andropogon
p6528
aVb1948_A_virginicus_var_glaucopsis
p6529
aa(lp6530
I10
aVa1950_Andropogon
p6531
aVb1948_A_virginicus_var_virginicus
p6532
aaa(lp6533
(lp6534
I10
aVa1950_A_glomeratus
p6535
aVb1948_A_glomeratus
p6536
aa(lp6537
I10
aVb1948_A_glomeratus
p6538
aVa1950_A_glomeratus
p6539
aa(lp6540
I10
aVa1950_A_virginicus
p6541
aVb1948_A_glomeratus
p6542
aa(lp6543
I10
aVa1950_A_glomeratus
p6544
aVb1948_A_virginicus
p6545
aa(lp6546
I10
aVa1950_A_virginicus
p6547
aVb1948_A_virginicus
p6548
aa(lp6549
I10
aVb1948_A_virginicus
p6550
aVa1950_A_glomeratus
p6551
aa(lp6552
I10
aVb1948_A_glomeratus
p6553
aVa1950_A_virginicus
p6554
aa(lp6555
I10
aVb1948_A_virginicus
p6556
aVa1950_A_virginicus
p6557
aaa(lp6558
(lp6559
I10
aVa1950_A_capillipes
p6560
aa(lp6561
I10
aVa1950_A_glomeratus
p6562
aa(lp6563
I10
aVa1950_A_virginicus
p6564
aa(lp6565
I10
aVa1950_A_virginicus_var_glaucopsis
p6566
aa(lp6567
I10
aVa1950_A_virginicus_var_hirsutior
p6568
aa(lp6569
I10
aVa1950_A_virginicus_var_virginicus
p6570
aa(lp6571
I10
aVb1948_A_capillipes
p6572
aa(lp6573
I10
aVb1948_A_glomeratus
p6574
aa(lp6575
I10
aVb1948_A_virginicus
p6576
aa(lp6577
I10
aVb1948_A_virginicus_var_glaucopsis
p6578
aa(lp6579
I10
aVb1948_A_virginicus_var_tenuispatheus
p6580
aa(lp6581
I10
aVb1948_A_virginicus_var_virginicus
p6582
aa(lp6583
I10
aVa1950_Andropogon
p6584
aa(lp6585
I10
aVb1948_Andropogon
p6586
aaa(lp6587
(lp6588
I10
aVa1950_Andropogon
p6589
aVa1950_A_capillipes
p6590
aa(lp6591
I10
aVa1950_Andropogon
p6592
aVa1950_A_glomeratus
p6593
aa(lp6594
I10
aVa1950_Andropogon
p6595
aVa1950_A_virginicus
p6596
aa(lp6597
I10
aVa1950_A_virginicus
p6598
aVa1950_A_virginicus_var_glaucopsis
p6599
aa(lp6600
I10
aVa1950_A_virginicus
p6601
aVa1950_A_virginicus_var_hirsutior
p6602
aa(lp6603
I10
aVa1950_A_virginicus
p6604
aVa1950_A_virginicus_var_virginicus
p6605
aa(lp6606
I10
aVb1948_Andropogon
p6607
aVb1948_A_capillipes
p6608
aa(lp6609
I10
aVb1948_Andropogon
p6610
aVb1948_A_glomeratus
p6611
aa(lp6612
I10
aVb1948_Andropogon
p6613
aVb1948_A_virginicus
p6614
aa(lp6615
I10
aVb1948_A_virginicus
p6616
aVb1948_A_virginicus_var_glaucopsis
p6617
aa(lp6618
I10
aVb1948_A_virginicus
p6619
aVb1948_A_virginicus_var_tenuispatheus
p6620
aa(lp6621
I10
aVb1948_A_virginicus
p6622
aVb1948_A_virginicus_var_virginicus
p6623
aaasba.